

Microchip MPLAB XC8 Assembler V2.10 build 88905656 
                                                                                               Fri Sep 04 23:53:13 2020

Microchip MPLAB XC8 C Compiler v2.10 (Free license) build 20190730164152 Og1 
     1                           	processor	18F4550
     2                           	fnconf	rparam,??,?,0
     3                           	opt	pw 120
     4                           	opt	flic
     5                           	psect	idataBANK0,global,class=CODE,delta=1,noexec
     6                           	psect	mediumconst,global,reloc=2,class=MEDIUMCONST,delta=1,noexec
     7                           	psect	cinit,global,reloc=2,class=CODE,delta=1
     8                           	psect	bssCOMRAM,global,class=COMRAM,space=1,delta=1,noexec
     9                           	psect	bssBANK0,global,class=BANK0,space=1,delta=1,lowdata,noexec
    10                           	psect	dataBANK0,global,class=BANK0,space=1,delta=1,lowdata,noexec
    11                           	psect	bssBANK1,global,class=BANK1,space=1,delta=1,lowdata,noexec
    12                           	psect	bssBIGRAM,global,class=BIGRAM,space=1,delta=1,lowdata,noexec
    13                           	psect	cstackBANK0,global,class=BANK0,space=1,delta=1,noexec
    14                           	psect	cstackCOMRAM,global,class=COMRAM,space=1,delta=1,noexec
    15                           	psect	text0,global,reloc=2,class=CODE,delta=1
    16                           	psect	text1,global,reloc=2,class=CODE,delta=1
    17                           	psect	text2,global,reloc=2,class=CODE,delta=1
    18                           	psect	text3,global,reloc=2,class=CODE,delta=1
    19                           	psect	text4,global,reloc=2,class=CODE,delta=1
    20                           	psect	text5,global,reloc=2,class=CODE,delta=1
    21                           	psect	text6,global,reloc=2,class=CODE,delta=1
    22                           	psect	text7,global,reloc=2,class=CODE,delta=1
    23                           	psect	text8,global,reloc=2,class=CODE,delta=1
    24                           	psect	text9,global,reloc=2,class=CODE,delta=1
    25                           	psect	text10,global,reloc=2,class=CODE,delta=1
    26                           	psect	text11,global,reloc=2,class=CODE,delta=1
    27                           	psect	text12,global,reloc=2,class=CODE,delta=1
    28                           	psect	text13,global,reloc=2,class=CODE,delta=1,group=2
    29                           	psect	text14,global,reloc=2,class=CODE,delta=1,group=1
    30                           	psect	text15,global,reloc=2,class=CODE,delta=1,group=1
    31                           	psect	text16,global,reloc=2,class=CODE,delta=1,group=1
    32                           	psect	text17,global,reloc=2,class=CODE,delta=1,group=1
    33                           	psect	text18,global,reloc=2,class=CODE,delta=1,group=1
    34                           	psect	text19,global,reloc=2,class=CODE,delta=1
    35                           	psect	text20,global,reloc=2,class=CODE,delta=1
    36                           	psect	text21,global,reloc=2,class=CODE,delta=1
    37                           	psect	text22,global,reloc=2,class=CODE,delta=1
    38                           	psect	text23,global,reloc=2,class=CODE,delta=1,group=1
    39                           	psect	text24,global,reloc=2,class=CODE,delta=1,group=1
    40                           	psect	text25,global,reloc=2,class=CODE,delta=1,group=1
    41                           	psect	text26,global,reloc=2,class=CODE,delta=1,group=1
    42                           	psect	text27,global,reloc=2,class=CODE,delta=1
    43                           	psect	text28,global,reloc=2,class=CODE,delta=1,group=1
    44                           	psect	text29,global,reloc=2,class=CODE,delta=1,group=1
    45                           	psect	text30,global,reloc=2,class=CODE,delta=1
    46                           	psect	text31,global,reloc=2,class=CODE,delta=1
    47                           	psect	text32,global,reloc=2,class=CODE,delta=1
    48                           	psect	text33,global,reloc=2,class=CODE,delta=1,group=1
    49                           	psect	intcode,global,reloc=2,class=CODE,delta=1
    50                           	psect	intcode_body,global,reloc=2,class=CODE,delta=1
    51                           	psect	text35,global,reloc=2,class=CODE,delta=1
    52                           	psect	intsave_regs,global,class=BIGRAM,space=1,delta=1,noexec
    53                           	psect	rparam,global,class=COMRAM,space=1,delta=1,noexec
    54                           	psect	temp,global,ovrld,common,class=COMRAM,space=1,delta=1
    55  0000                     
    56                           ; Version 2.10
    57                           ; Generated 31/07/2019 GMT
    58                           ; 
    59                           ; Copyright © 2019, Microchip Technology Inc. and its subsidiaries ("Microchip")
    60                           ; All rights reserved.
    61                           ; 
    62                           ; This software is developed by Microchip Technology Inc. and its subsidiaries ("Microch
      +                          ip").
    63                           ; 
    64                           ; Redistribution and use in source and binary forms, with or without modification, are
    65                           ; permitted provided that the following conditions are met:
    66                           ; 
    67                           ;     1. Redistributions of source code must retain the above copyright notice, this lis
      +                          t of
    68                           ;        conditions and the following disclaimer.
    69                           ; 
    70                           ;     2. Redistributions in binary form must reproduce the above copyright notice, this 
      +                          list
    71                           ;        of conditions and the following disclaimer in the documentation and/or other
    72                           ;        materials provided with the distribution.
    73                           ; 
    74                           ;     3. Microchip's name may not be used to endorse or promote products derived from th
      +                          is
    75                           ;        software without specific prior written permission.
    76                           ; 
    77                           ; THIS SOFTWARE IS PROVIDED BY MICROCHIP "AS IS" AND ANY EXPRESS OR IMPLIED WARRANTIES,
    78                           ; INCLUDING, BUT NOT LIMITED TO, THE IMPLIED WARRANTIES OF MERCHANTABILITY AND FITNESS F
      +                          OR
    79                           ; PURPOSE ARE DISCLAIMED.  IN NO EVENT SHALL MICROCHIP BE LIABLE FOR ANY DIRECT, INDIREC
      +                          T,
    80                           ; INCIDENTAL, SPECIAL, EXEMPLARY, OR CONSEQUENTIAL DAMAGES (INCLUDING BUT NOT LIMITED TO
    81                           ; PROCUREMENT OF SUBSTITUTE GOODS OR SERVICES; LOSS OF USE, DATA OR PROFITS; OR BUSINESS
    82                           ; INTERRUPTION) HOWSOEVER CAUSED AND ON ANY THEORY OF LIABILITY, WHETHER IN CONTRACT, ST
      +                          RICT
    83                           ; LIABILITY, OR TORT (INCLUDING NEGLIGENCE OR OTHERWISE) ARISING IN ANY WAY OUT OF THE U
      +                          SE OF
    84                           ; THIS SOFTWARE, EVEN IF ADVISED OF THE POSSIBILITY OF SUCH DAMAGE.
    85                           ; 
    86                           ; 
    87                           ; Code-generator required, PIC18F4550 Definitions
    88                           ; 
    89                           ; SFR Addresses
    90  0000                     
    91                           	psect	idataBANK0
    92  002292                     __pidataBANK0:
    93                           	opt callstack 0
    94                           
    95                           ;initializer for _pausa
    96  002292  01                 	db	1
    97                           
    98                           ;initializer for _SENSOR_PRIORIDAD_BAJA
    99  002293  03                 	db	3
   100                           
   101                           ;initializer for _SENSOR_PRIORIDAD_MEDIA
   102  002294  02                 	db	2
   103                           
   104                           ;initializer for _SENSOR_PRIORIDAD_ALTA
   105  002295  01                 	db	1
   106                           
   107                           	psect	mediumconst
   108  007EB6                     __pmediumconst:
   109                           	opt callstack 0
   110  007EB6  00                 	db	0
   111  007EB7  0000               	dw	0
   112  007EB9  4B00               	dw	19200
   113  007EBB                     __end_of_toint:
   114                           	opt callstack 0
   115  0000                     _T1CON	set	4045
   116  0000                     _TRISDbits	set	3989
   117  0000                     _INTCON2bits	set	4081
   118  0000                     _INTCONbits	set	4082
   119  0000                     _ADRESL	set	4035
   120  0000                     _ADRESH	set	4036
   121  0000                     _ADCON0bits	set	4034
   122  0000                     _ADCON2	set	4032
   123  0000                     _ADCON1	set	4033
   124  0000                     _TXREG	set	4013
   125  0000                     _RCREG	set	4014
   126  0000                     _RCSTAbits	set	4011
   127  0000                     _TXSTAbits	set	4012
   128  0000                     _SPBRG	set	4015
   129  0000                     _PORTBbits	set	3969
   130  0000                     _TMR1L	set	4046
   131  0000                     _TMR1H	set	4047
   132  0000                     _PR2	set	4043
   133  0000                     _CCP2CON	set	4026
   134  0000                     _CCPR2L	set	4027
   135  0000                     _CCP1CON	set	4029
   136  0000                     _CCPR1L	set	4030
   137  0000                     _TRISB0	set	31896
   138  0000                     _TRISB7	set	31903
   139  0000                     _TRISB6	set	31902
   140  0000                     _TRISB5	set	31901
   141  0000                     _TRISB4	set	31900
   142  0000                     _TRISB3	set	31899
   143  0000                     _TRISB2	set	31898
   144  0000                     _TRISB1	set	31897
   145  0000                     _TRISD3	set	31915
   146  0000                     _LATB7	set	31831
   147  0000                     _LATB6	set	31830
   148  0000                     _LATB5	set	31829
   149  0000                     _LATB4	set	31828
   150  0000                     _LATD2	set	31842
   151  0000                     _INT0IF	set	32657
   152  0000                     _RCIF	set	31989
   153  0000                     _TRISC7	set	31911
   154  0000                     _TRISC6	set	31910
   155  0000                     _TMR1IF	set	31984
   156  0000                     _TMR1ON	set	32360
   157  0000                     _LATD3	set	31843
   158  0000                     _TMR2ON	set	32338
   159  0000                     _CCP2M2	set	32210
   160  0000                     _CCP2M3	set	32211
   161  0000                     _TRISC1	set	31905
   162  0000                     _CCP1M2	set	32234
   163  0000                     _CCP1M3	set	32235
   164  0000                     _TRISC2	set	31906
   165  0000                     _T2CKPS1	set	32337
   166  0000                     _T2CKPS0	set	32336
   167  007EBB  0A                 	db	10
   168  007EBC  0A                 	db	10
   169  007EBD  4F                 	db	79	;'O'
   170  007EBE  56                 	db	86	;'V'
   171  007EBF  45                 	db	69	;'E'
   172  007EC0  52                 	db	82	;'R'
   173  007EC1  46                 	db	70	;'F'
   174  007EC2  4C                 	db	76	;'L'
   175  007EC3  4F                 	db	79	;'O'
   176  007EC4  57                 	db	87	;'W'
   177  007EC5  20                 	db	32
   178  007EC6  65                 	db	101	;'e'
   179  007EC7  6E                 	db	110	;'n'
   180  007EC8  20                 	db	32
   181  007EC9  65                 	db	101	;'e'
   182  007ECA  6C                 	db	108	;'l'
   183  007ECB  20                 	db	32
   184  007ECC  6D                 	db	109	;'m'
   185  007ECD  61                 	db	97	;'a'
   186  007ECE  70                 	db	112	;'p'
   187  007ECF  65                 	db	101	;'e'
   188  007ED0  6F                 	db	111	;'o'
   189  007ED1  20                 	db	32
   190  007ED2  64                 	db	100	;'d'
   191  007ED3  65                 	db	101	;'e'
   192  007ED4  20                 	db	32
   193  007ED5  70                 	db	112	;'p'
   194  007ED6  61                 	db	97	;'a'
   195  007ED7  73                 	db	115	;'s'
   196  007ED8  6F                 	db	111	;'o'
   197  007ED9  73                 	db	115	;'s'
   198  007EDA  20                 	db	32
   199  007EDB  52                 	db	82	;'R'
   200  007EDC  65                 	db	101	;'e'
   201  007EDD  61                 	db	97	;'a'
   202  007EDE  6C                 	db	108	;'l'
   203  007EDF  69                 	db	105	;'i'
   204  007EE0  7A                 	db	122	;'z'
   205  007EE1  61                 	db	97	;'a'
   206  007EE2  64                 	db	100	;'d'
   207  007EE3  6F                 	db	111	;'o'
   208  007EE4  73                 	db	115	;'s'
   209  007EE5  20                 	db	32
   210  007EE6  70                 	db	112	;'p'
   211  007EE7  61                 	db	97	;'a'
   212  007EE8  72                 	db	114	;'r'
   213  007EE9  61                 	db	97	;'a'
   214  007EEA  20                 	db	32
   215  007EEB  63                 	db	99	;'c'
   216  007EEC  61                 	db	97	;'a'
   217  007EED  6D                 	db	109	;'m'
   218  007EEE  69                 	db	105	;'i'
   219  007EEF  6E                 	db	110	;'n'
   220  007EF0  6F                 	db	111	;'o'
   221  007EF1  20                 	db	32
   222  007EF2  54                 	db	84	;'T'
   223  007EF3  6F                 	db	111	;'o'
   224  007EF4  74                 	db	116	;'t'
   225  007EF5  61                 	db	97	;'a'
   226  007EF6  6C                 	db	108	;'l'
   227  007EF7  0A                 	db	10
   228  007EF8  0A                 	db	10
   229  007EF9  00                 	db	0
   230  007EFA  0A                 	db	10
   231  007EFB  0A                 	db	10
   232  007EFC  4F                 	db	79	;'O'
   233  007EFD  56                 	db	86	;'V'
   234  007EFE  45                 	db	69	;'E'
   235  007EFF  52                 	db	82	;'R'
   236  007F00  46                 	db	70	;'F'
   237  007F01  4C                 	db	76	;'L'
   238  007F02  4F                 	db	79	;'O'
   239  007F03  57                 	db	87	;'W'
   240  007F04  20                 	db	32
   241  007F05  65                 	db	101	;'e'
   242  007F06  6E                 	db	110	;'n'
   243  007F07  20                 	db	32
   244  007F08  65                 	db	101	;'e'
   245  007F09  6C                 	db	108	;'l'
   246  007F0A  20                 	db	32
   247  007F0B  6D                 	db	109	;'m'
   248  007F0C  61                 	db	97	;'a'
   249  007F0D  70                 	db	112	;'p'
   250  007F0E  65                 	db	101	;'e'
   251  007F0F  6F                 	db	111	;'o'
   252  007F10  20                 	db	32
   253  007F11  64                 	db	100	;'d'
   254  007F12  65                 	db	101	;'e'
   255  007F13  20                 	db	32
   256  007F14  70                 	db	112	;'p'
   257  007F15  61                 	db	97	;'a'
   258  007F16  73                 	db	115	;'s'
   259  007F17  6F                 	db	111	;'o'
   260  007F18  73                 	db	115	;'s'
   261  007F19  20                 	db	32
   262  007F1A  52                 	db	82	;'R'
   263  007F1B  65                 	db	101	;'e'
   264  007F1C  61                 	db	97	;'a'
   265  007F1D  6C                 	db	108	;'l'
   266  007F1E  69                 	db	105	;'i'
   267  007F1F  7A                 	db	122	;'z'
   268  007F20  61                 	db	97	;'a'
   269  007F21  64                 	db	100	;'d'
   270  007F22  6F                 	db	111	;'o'
   271  007F23  73                 	db	115	;'s'
   272  007F24  20                 	db	32
   273  007F25  70                 	db	112	;'p'
   274  007F26  61                 	db	97	;'a'
   275  007F27  72                 	db	114	;'r'
   276  007F28  61                 	db	97	;'a'
   277  007F29  20                 	db	32
   278  007F2A  63                 	db	99	;'c'
   279  007F2B  72                 	db	114	;'r'
   280  007F2C  75                 	db	117	;'u'
   281  007F2D  63                 	db	99	;'c'
   282  007F2E  65                 	db	101	;'e'
   283  007F2F  0A                 	db	10
   284  007F30  0A                 	db	10
   285  007F31  00                 	db	0
   286  007F32  0D                 	db	13
   287  007F33  4C                 	db	76	;'L'
   288  007F34  65                 	db	101	;'e'
   289  007F35  63                 	db	99	;'c'
   290  007F36  74                 	db	116	;'t'
   291  007F37  75                 	db	117	;'u'
   292  007F38  72                 	db	114	;'r'
   293  007F39  61                 	db	97	;'a'
   294  007F3A  20                 	db	32
   295  007F3B  64                 	db	100	;'d'
   296  007F3C  65                 	db	101	;'e'
   297  007F3D  20                 	db	32
   298  007F3E  73                 	db	115	;'s'
   299  007F3F  65                 	db	101	;'e'
   300  007F40  6E                 	db	110	;'n'
   301  007F41  73                 	db	115	;'s'
   302  007F42  6F                 	db	111	;'o'
   303  007F43  72                 	db	114	;'r'
   304  007F44  20                 	db	32
   305  007F45  4F                 	db	79	;'O'
   306  007F46  70                 	db	112	;'p'
   307  007F47  74                 	db	116	;'t'
   308  007F48  69                 	db	105	;'i'
   309  007F49  63                 	db	99	;'c'
   310  007F4A  6F                 	db	111	;'o'
   311  007F4B  20                 	db	32
   312  007F4C  3D                 	db	61	;'='
   313  007F4D  20                 	db	32
   314  007F4E  25                 	db	37
   315  007F4F  64                 	db	100	;'d'
   316  007F50  0D                 	db	13
   317  007F51  0A                 	db	10
   318  007F52  0A                 	db	10
   319  007F53  00                 	db	0
   320  007F54  0D                 	db	13
   321  007F55  4D                 	db	77	;'M'
   322  007F56  6F                 	db	111	;'o'
   323  007F57  76                 	db	118	;'v'
   324  007F58  69                 	db	105	;'i'
   325  007F59  6D                 	db	109	;'m'
   326  007F5A  69                 	db	105	;'i'
   327  007F5B  65                 	db	101	;'e'
   328  007F5C  6E                 	db	110	;'n'
   329  007F5D  74                 	db	116	;'t'
   330  007F5E  6F                 	db	111	;'o'
   331  007F5F  73                 	db	115	;'s'
   332  007F60  20                 	db	32
   333  007F61  52                 	db	82	;'R'
   334  007F62  65                 	db	101	;'e'
   335  007F63  61                 	db	97	;'a'
   336  007F64  6C                 	db	108	;'l'
   337  007F65  69                 	db	105	;'i'
   338  007F66  7A                 	db	122	;'z'
   339  007F67  61                 	db	97	;'a'
   340  007F68  64                 	db	100	;'d'
   341  007F69  6F                 	db	111	;'o'
   342  007F6A  73                 	db	115	;'s'
   343  007F6B  20                 	db	32
   344  007F6C  3D                 	db	61	;'='
   345  007F6D  20                 	db	32
   346  007F6E  25                 	db	37
   347  007F6F  64                 	db	100	;'d'
   348  007F70  0D                 	db	13
   349  007F71  0A                 	db	10
   350  007F72  0A                 	db	10
   351  007F73  00                 	db	0
   352  007F74  0D                 	db	13
   353  007F75  44                 	db	68	;'D'
   354  007F76  65                 	db	101	;'e'
   355  007F77  73                 	db	115	;'s'
   356  007F78  74                 	db	116	;'t'
   357  007F79  69                 	db	105	;'i'
   358  007F7A  6E                 	db	110	;'n'
   359  007F7B  6F                 	db	111	;'o'
   360  007F7C  20                 	db	32
   361  007F7D  6E                 	db	110	;'n'
   362  007F7E  6F                 	db	111	;'o'
   363  007F7F  20                 	db	32
   364  007F80  64                 	db	100	;'d'
   365  007F81  65                 	db	101	;'e'
   366  007F82  74                 	db	116	;'t'
   367  007F83  65                 	db	101	;'e'
   368  007F84  63                 	db	99	;'c'
   369  007F85  74                 	db	116	;'t'
   370  007F86  61                 	db	97	;'a'
   371  007F87  64                 	db	100	;'d'
   372  007F88  6F                 	db	111	;'o'
   373  007F89  20                 	db	32
   374  007F8A  0D                 	db	13
   375  007F8B  0A                 	db	10
   376  007F8C  00                 	db	0
   377  007F8D  0D                 	db	13
   378  007F8E  53                 	db	83	;'S'
   379  007F8F  65                 	db	101	;'e'
   380  007F90  20                 	db	32
   381  007F91  6C                 	db	108	;'l'
   382  007F92  6C                 	db	108	;'l'
   383  007F93  65                 	db	101	;'e'
   384  007F94  67                 	db	103	;'g'
   385  007F95  6F                 	db	111	;'o'
   386  007F96  20                 	db	32
   387  007F97  61                 	db	97	;'a'
   388  007F98  6C                 	db	108	;'l'
   389  007F99  20                 	db	32
   390  007F9A  64                 	db	100	;'d'
   391  007F9B  65                 	db	101	;'e'
   392  007F9C  73                 	db	115	;'s'
   393  007F9D  74                 	db	116	;'t'
   394  007F9E  69                 	db	105	;'i'
   395  007F9F  6E                 	db	110	;'n'
   396  007FA0  6F                 	db	111	;'o'
   397  007FA1  20                 	db	32
   398  007FA2  0D                 	db	13
   399  007FA3  0A                 	db	10
   400  007FA4  00                 	db	0
   401  007FA5  0D                 	db	13
   402  007FA6  49                 	db	73	;'I'
   403  007FA7  7A                 	db	122	;'z'
   404  007FA8  71                 	db	113	;'q'
   405  007FA9  75                 	db	117	;'u'
   406  007FAA  69                 	db	105	;'i'
   407  007FAB  65                 	db	101	;'e'
   408  007FAC  72                 	db	114	;'r'
   409  007FAD  64                 	db	100	;'d'
   410  007FAE  61                 	db	97	;'a'
   411  007FAF  3A                 	db	58	;':'
   412  007FB0  20                 	db	32
   413  007FB1  25                 	db	37
   414  007FB2  2E                 	db	46
   415  007FB3  32                 	db	50	;'2'
   416  007FB4  66                 	db	102	;'f'
   417  007FB5  0D                 	db	13
   418  007FB6  0A                 	db	10
   419  007FB7  00                 	db	0
   420  007FB8  0D                 	db	13
   421  007FB9  45                 	db	69	;'E'
   422  007FBA  6E                 	db	110	;'n'
   423  007FBB  66                 	db	102	;'f'
   424  007FBC  72                 	db	114	;'r'
   425  007FBD  65                 	db	101	;'e'
   426  007FBE  6E                 	db	110	;'n'
   427  007FBF  74                 	db	116	;'t'
   428  007FC0  65                 	db	101	;'e'
   429  007FC1  3A                 	db	58	;':'
   430  007FC2  20                 	db	32
   431  007FC3  25                 	db	37
   432  007FC4  2E                 	db	46
   433  007FC5  32                 	db	50	;'2'
   434  007FC6  66                 	db	102	;'f'
   435  007FC7  0D                 	db	13
   436  007FC8  0A                 	db	10
   437  007FC9  00                 	db	0
   438  007FCA  0D                 	db	13
   439  007FCB  44                 	db	68	;'D'
   440  007FCC  65                 	db	101	;'e'
   441  007FCD  72                 	db	114	;'r'
   442  007FCE  65                 	db	101	;'e'
   443  007FCF  63                 	db	99	;'c'
   444  007FD0  68                 	db	104	;'h'
   445  007FD1  61                 	db	97	;'a'
   446  007FD2  3A                 	db	58	;':'
   447  007FD3  20                 	db	32
   448  007FD4  25                 	db	37
   449  007FD5  2E                 	db	46
   450  007FD6  32                 	db	50	;'2'
   451  007FD7  66                 	db	102	;'f'
   452  007FD8  0D                 	db	13
   453  007FD9  0A                 	db	10
   454  007FDA  00                 	db	0
   455  007FDB  49                 	db	73	;'I'
   456  007FDC  7A                 	db	122	;'z'
   457  007FDD  71                 	db	113	;'q'
   458  007FDE  75                 	db	117	;'u'
   459  007FDF  69                 	db	105	;'i'
   460  007FE0  65                 	db	101	;'e'
   461  007FE1  72                 	db	114	;'r'
   462  007FE2  64                 	db	100	;'d'
   463  007FE3  61                 	db	97	;'a'
   464  007FE4  0A                 	db	10
   465  007FE5  00                 	db	0
   466  007FE6  45                 	db	69	;'E'
   467  007FE7  6E                 	db	110	;'n'
   468  007FE8  66                 	db	102	;'f'
   469  007FE9  72                 	db	114	;'r'
   470  007FEA  65                 	db	101	;'e'
   471  007FEB  6E                 	db	110	;'n'
   472  007FEC  74                 	db	116	;'t'
   473  007FED  65                 	db	101	;'e'
   474  007FEE  0A                 	db	10
   475  007FEF  00                 	db	0
   476  007FF0  44                 	db	68	;'D'
   477  007FF1  65                 	db	101	;'e'
   478  007FF2  72                 	db	114	;'r'
   479  007FF3  65                 	db	101	;'e'
   480  007FF4  63                 	db	99	;'c'
   481  007FF5  68                 	db	104	;'h'
   482  007FF6  61                 	db	97	;'a'
   483  007FF7  0A                 	db	10
   484  007FF8  00                 	db	0
   485  007FF9  41                 	db	65	;'A'
   486  007FFA  6C                 	db	108	;'l'
   487  007FFB  74                 	db	116	;'t'
   488  007FFC  6F                 	db	111	;'o'
   489  007FFD  0A                 	db	10
   490  007FFE  00                 	db	0
   491                           
   492                           ; #config settings
   493  007FFF  00                 	db	0	; dummy byte at the end
   494  0000                     
   495                           	psect	cinit
   496  001EC6                     __pcinit:
   497                           	opt callstack 0
   498  001EC6                     start_initialization:
   499                           	opt callstack 0
   500  001EC6                     __initialization:
   501                           	opt callstack 0
   502                           
   503                           ; Initialize objects allocated to BANK0 (4 bytes)
   504                           ; load TBLPTR registers with __pidataBANK0
   505  001EC6  0E92               	movlw	low __pidataBANK0
   506  001EC8  6EF6               	movwf	tblptrl,c
   507  001ECA  0E22               	movlw	high __pidataBANK0
   508  001ECC  6EF7               	movwf	tblptrh,c
   509  001ECE  0E00               	movlw	low (__pidataBANK0 shr (0+16))
   510  001ED0  6EF8               	movwf	tblptru,c
   511  001ED2  EE00  F0DA         	lfsr	0,__pdataBANK0
   512  001ED6  EE10 F004          	lfsr	1,4
   513  001EDA                     copy_data0:
   514  001EDA  0009               	tblrd		*+
   515  001EDC  CFF5 FFEE          	movff	tablat,postinc0
   516  001EE0  50E5               	movf	postdec1,w,c
   517  001EE2  50E1               	movf	fsr1l,w,c
   518  001EE4  E1FA               	bnz	copy_data0
   519                           
   520                           ; Clear objects allocated to BIGRAM (1000 bytes)
   521  001EE6  EE01  F0FA         	lfsr	0,__pbssBIGRAM
   522  001EEA  EE13 F0E8          	lfsr	1,1000
   523  001EEE                     clear_0:
   524  001EEE  6AEE               	clrf	postinc0,c
   525  001EF0  50E5               	movf	postdec1,w,c
   526  001EF2  50E1               	movf	fsr1l,w,c
   527  001EF4  E1FC               	bnz	clear_0
   528  001EF6  50E2               	movf	fsr1h,w,c
   529  001EF8  E1FA               	bnz	clear_0
   530                           
   531                           ; Clear objects allocated to BANK1 (250 bytes)
   532  001EFA  EE01  F000         	lfsr	0,__pbssBANK1
   533  001EFE  0EFA               	movlw	250
   534  001F00                     clear_1:
   535  001F00  6AEE               	clrf	postinc0,c
   536  001F02  06E8               	decf	wreg,f,c
   537  001F04  E1FD               	bnz	clear_1
   538                           
   539                           ; Clear objects allocated to BANK0 (61 bytes)
   540  001F06  EE00  F060         	lfsr	0,__pbssBANK0
   541  001F0A  0E3D               	movlw	61
   542  001F0C                     clear_2:
   543  001F0C  6AEE               	clrf	postinc0,c
   544  001F0E  06E8               	decf	wreg,f,c
   545  001F10  E1FD               	bnz	clear_2
   546                           
   547                           ; Clear objects allocated to COMRAM (5 bytes)
   548  001F12  6A59               	clrf	(__pbssCOMRAM+4)& (0+255),c
   549  001F14  6A58               	clrf	(__pbssCOMRAM+3)& (0+255),c
   550  001F16  6A57               	clrf	(__pbssCOMRAM+2)& (0+255),c
   551  001F18  6A56               	clrf	(__pbssCOMRAM+1)& (0+255),c
   552  001F1A  6A55               	clrf	__pbssCOMRAM& (0+255),c
   553  001F1C                     end_of_initialization:
   554                           	opt callstack 0
   555  001F1C                     __end_of__initialization:
   556                           	opt callstack 0
   557  001F1C  905A               	bcf	int$flags,0,c	;clear compiler interrupt flag (level 1)
   558  001F1E  925A               	bcf	int$flags,1,c	;clear compiler interrupt flag (level 2)
   559  001F20  0E00               	movlw	low (__Lmediumconst shr (0+16))
   560  001F22  6EF8               	movwf	tblptru,c
   561  001F24  0100               	movlb	0
   562  001F26  EFF1  F00D         	goto	_main	;jump to C main() function
   563                           
   564                           	psect	bssCOMRAM
   565  000055                     __pbssCOMRAM:
   566                           	opt callstack 0
   567  000055                     _mouse:
   568                           	opt callstack 0
   569  000055                     	ds	2
   570  000057                     _llegoDestino:
   571                           	opt callstack 0
   572  000057                     	ds	1
   573  000058                     comportamientoBasico@investigandoCruce:
   574                           	opt callstack 0
   575  000058                     	ds	1
   576  000059                     comportamientoBasico@carroEspejeado:
   577                           	opt callstack 0
   578  000059                     	ds	1
   579                           
   580                           	psect	bssBANK0
   581  000060                     __pbssBANK0:
   582                           	opt callstack 0
   583  000060                     roundf@F525:
   584                           	opt callstack 0
   585  000060                     	ds	4
   586  000064                     _DISTANCIA_PRIORIDAD_BAJA:
   587                           	opt callstack 0
   588  000064                     	ds	4
   589  000068                     _DISTANCIA_PRIORIDAD_MEDIA:
   590                           	opt callstack 0
   591  000068                     	ds	4
   592  00006C                     _DISTANCIA_PRIORIDAD_ALTA:
   593                           	opt callstack 0
   594  00006C                     	ds	4
   595  000070                     _oldSensorEnfrente:
   596                           	opt callstack 0
   597  000070                     	ds	4
   598  000074                     _oldSensorIzquierda:
   599                           	opt callstack 0
   600  000074                     	ds	4
   601  000078                     _oldSensorDerecha:
   602                           	opt callstack 0
   603  000078                     	ds	4
   604  00007C                     _sensorEnfrente:
   605                           	opt callstack 0
   606  00007C                     	ds	4
   607  000080                     _sensorIzquierda:
   608                           	opt callstack 0
   609  000080                     	ds	4
   610  000084                     _sensorDerecha:
   611                           	opt callstack 0
   612  000084                     	ds	4
   613  000088                     PID@difAnt:
   614                           	opt callstack 0
   615  000088                     	ds	2
   616  00008A                     comportamientoBasico@caminoEncontrado:
   617                           	opt callstack 0
   618  00008A                     	ds	1
   619  00008B                     comportamientoBasico@cruceDetectado:
   620                           	opt callstack 0
   621  00008B                     	ds	1
   622  00008C                     comportamientoBasico@mapear:
   623                           	opt callstack 0
   624  00008C                     	ds	1
   625  00008D                     comportamientoBasico@espejearCarroY:
   626                           	opt callstack 0
   627  00008D                     	ds	1
   628  00008E                     _posicionDestinoY:
   629                           	opt callstack 0
   630  00008E                     	ds	1
   631  00008F                     _posicionDestinoX:
   632                           	opt callstack 0
   633  00008F                     	ds	1
   634  000090                     _posicionCarroY:
   635                           	opt callstack 0
   636  000090                     	ds	1
   637  000091                     _posicionCarroX:
   638                           	opt callstack 0
   639  000091                     	ds	1
   640  000092                     comportamientoBasico@caminosRecorrer:
   641                           	opt callstack 0
   642  000092                     	ds	3
   643  000095                     comportamientoBasico@numMovimientosTotales:
   644                           	opt callstack 0
   645  000095                     	ds	2
   646  000097                     comportamientoBasico@numMovimientos:
   647                           	opt callstack 0
   648  000097                     	ds	2
   649  000099                     comportamientoBasico@cambioOrientacionCarro:
   650                           	opt callstack 0
   651  000099                     	ds	1
   652  00009A                     comportamientoBasico@caminoActual:
   653                           	opt callstack 0
   654  00009A                     	ds	1
   655  00009B                     comportamientoBasico@contCaminosRecorridos:
   656                           	opt callstack 0
   657  00009B                     	ds	1
   658  00009C                     comportamientoBasico@posicionInvCruce:
   659                           	opt callstack 0
   660  00009C                     	ds	1
   661                           
   662                           	psect	dataBANK0
   663  0000DA                     __pdataBANK0:
   664                           	opt callstack 0
   665  0000DA                     _pausa:
   666                           	opt callstack 0
   667  0000DA                     	ds	1
   668  0000DB                     _SENSOR_PRIORIDAD_BAJA:
   669                           	opt callstack 0
   670  0000DB                     	ds	1
   671  0000DC                     _SENSOR_PRIORIDAD_MEDIA:
   672                           	opt callstack 0
   673  0000DC                     	ds	1
   674  0000DD                     _SENSOR_PRIORIDAD_ALTA:
   675                           	opt callstack 0
   676  0000DD                     	ds	1
   677                           
   678                           	psect	bssBANK1
   679  000100                     __pbssBANK1:
   680                           	opt callstack 0
   681  000100                     comportamientoBasico@movimientosRealizados:
   682                           	opt callstack 0
   683  000100                     	ds	200
   684  0001C8                     _buffer:
   685                           	opt callstack 0
   686  0001C8                     	ds	50
   687                           
   688                           	psect	bssBIGRAM
   689  0001FA                     __pbssBIGRAM:
   690                           	opt callstack 0
   691  0001FA                     comportamientoBasico@caminoFinal:
   692                           	opt callstack 0
   693  0001FA                     	ds	1000
   694                           
   695                           	psect	cstackBANK0
   696  00009D                     __pcstackBANK0:
   697                           	opt callstack 0
   698  00009D                     ___fldiv@rem:
   699                           	opt callstack 0
   700  00009D                     _roundf$1509:
   701                           	opt callstack 0
   702                           
   703                           ; 4 bytes @ 0x0
   704  00009D                     	ds	4
   705  0000A1                     ___fldiv@sign:
   706                           	opt callstack 0
   707  0000A1                     roundf@e:
   708                           	opt callstack 0
   709                           
   710                           ; 2 bytes @ 0x4
   711  0000A1                     	ds	1
   712  0000A2                     ___fldiv@new_exp:
   713                           	opt callstack 0
   714                           
   715                           ; 2 bytes @ 0x5
   716  0000A2                     	ds	1
   717  0000A3                     _roundf$1508:
   718                           	opt callstack 0
   719                           
   720                           ; 4 bytes @ 0x6
   721  0000A3                     	ds	1
   722  0000A4                     ___fldiv@grs:
   723                           	opt callstack 0
   724                           
   725                           ; 4 bytes @ 0x7
   726  0000A4                     	ds	3
   727  0000A7                     roundf@u:
   728                           	opt callstack 0
   729                           
   730                           ; 4 bytes @ 0xA
   731  0000A7                     	ds	1
   732  0000A8                     ___fldiv@bexp:
   733                           	opt callstack 0
   734                           
   735                           ; 1 bytes @ 0xB
   736  0000A8                     	ds	1
   737  0000A9                     ___fldiv@aexp:
   738                           	opt callstack 0
   739                           
   740                           ; 1 bytes @ 0xC
   741  0000A9                     	ds	2
   742  0000AB                     roundf@y:
   743                           	opt callstack 0
   744                           
   745                           ; 4 bytes @ 0xE
   746  0000AB                     	ds	4
   747  0000AF                     ?___fltol:
   748                           	opt callstack 0
   749  0000AF                     ___fltol@f1:
   750                           	opt callstack 0
   751                           
   752                           ; 4 bytes @ 0x12
   753  0000AF                     	ds	4
   754  0000B3                     ??___fltol:
   755                           
   756                           ; 1 bytes @ 0x16
   757  0000B3                     	ds	4
   758  0000B7                     ___fltol@sign1:
   759                           	opt callstack 0
   760                           
   761                           ; 1 bytes @ 0x1A
   762  0000B7                     	ds	1
   763  0000B8                     ___fltol@exp1:
   764                           	opt callstack 0
   765                           
   766                           ; 1 bytes @ 0x1B
   767  0000B8                     	ds	1
   768  0000B9                     pwmDuty@cicloTrabajo:
   769                           	opt callstack 0
   770                           
   771                           ; 2 bytes @ 0x1C
   772  0000B9                     	ds	2
   773  0000BB                     pwmDuty@channel:
   774                           	opt callstack 0
   775                           
   776                           ; 1 bytes @ 0x1E
   777  0000BB                     	ds	1
   778  0000BC                     ??_pwmDuty:
   779                           
   780                           ; 1 bytes @ 0x1F
   781  0000BC                     	ds	5
   782  0000C1                     pwmDuty@duty:
   783                           	opt callstack 0
   784                           
   785                           ; 4 bytes @ 0x24
   786  0000C1                     	ds	4
   787  0000C5                     ??_PID:
   788                           
   789                           ; 1 bytes @ 0x28
   790  0000C5                     	ds	2
   791  0000C7                     _PID$1507:
   792                           	opt callstack 0
   793                           
   794                           ; 4 bytes @ 0x2A
   795  0000C7                     	ds	4
   796  0000CB                     PID@velocidadIzquierda:
   797                           	opt callstack 0
   798                           
   799                           ; 2 bytes @ 0x2E
   800  0000CB                     	ds	2
   801  0000CD                     _PID$741:
   802                           	opt callstack 0
   803                           
   804                           ; 2 bytes @ 0x30
   805  0000CD                     	ds	2
   806  0000CF                     PID@velocidadDerecha:
   807                           	opt callstack 0
   808                           
   809                           ; 2 bytes @ 0x32
   810  0000CF                     	ds	2
   811  0000D1                     _PID$743:
   812                           	opt callstack 0
   813                           
   814                           ; 2 bytes @ 0x34
   815  0000D1                     	ds	2
   816  0000D3                     PID@dif:
   817                           	opt callstack 0
   818                           
   819                           ; 2 bytes @ 0x36
   820  0000D3                     	ds	2
   821  0000D5                     PID@error:
   822                           	opt callstack 0
   823                           
   824                           ; 2 bytes @ 0x38
   825  0000D5                     	ds	4
   826  0000D9                     main@iniciado:
   827                           	opt callstack 0
   828                           
   829                           ; 1 bytes @ 0x3C
   830  0000D9                     	ds	1
   831                           
   832                           	psect	cstackCOMRAM
   833  000001                     __pcstackCOMRAM:
   834                           	opt callstack 0
   835  000001                     ??_antiRebote:
   836  000001                     
   837                           ; 1 bytes @ 0x0
   838  000001                     	ds	2
   839  000003                     antiRebote@pin:
   840                           	opt callstack 0
   841                           
   842                           ; 1 bytes @ 0x2
   843  000003                     	ds	1
   844  000004                     ??_boton:
   845                           
   846                           ; 1 bytes @ 0x3
   847  000004                     	ds	2
   848  000006                     ??_mover:
   849  000006                     ??_configPwm:
   850  000006                     ??_forzarReversa:
   851  000006                     ??_forzarGiroIzquierda:
   852  000006                     ??_forzarGiroDerecha:
   853  000006                     ?___wmul:
   854                           	opt callstack 0
   855  000006                     ?___lwdiv:
   856                           	opt callstack 0
   857  000006                     ?___lmul:
   858                           	opt callstack 0
   859  000006                     ?___flneg:
   860                           	opt callstack 0
   861  000006                     ___wmul@multiplier:
   862                           	opt callstack 0
   863  000006                     ___lwdiv@dividend:
   864                           	opt callstack 0
   865  000006                     ___lmul@multiplier:
   866                           	opt callstack 0
   867  000006                     ___flge@ff1:
   868                           	opt callstack 0
   869  000006                     ___flneg@f1:
   870                           	opt callstack 0
   871                           
   872                           ; 4 bytes @ 0x5
   873  000006                     	ds	2
   874  000008                     configPwm@channel:
   875                           	opt callstack 0
   876  000008                     ___wmul@multiplicand:
   877                           	opt callstack 0
   878  000008                     ___lwdiv@divisor:
   879                           	opt callstack 0
   880                           
   881                           ; 2 bytes @ 0x7
   882  000008                     	ds	2
   883  00000A                     ___wmul@product:
   884                           	opt callstack 0
   885  00000A                     ___lwdiv@quotient:
   886                           	opt callstack 0
   887  00000A                     ___lmul@multiplicand:
   888                           	opt callstack 0
   889  00000A                     ___flge@ff2:
   890                           	opt callstack 0
   891                           
   892                           ; 4 bytes @ 0x9
   893  00000A                     	ds	2
   894  00000C                     ___lwdiv@counter:
   895                           	opt callstack 0
   896                           
   897                           ; 1 bytes @ 0xB
   898  00000C                     	ds	1
   899  00000D                     ?___xxtofl:
   900                           	opt callstack 0
   901  00000D                     ___xxtofl@val:
   902                           	opt callstack 0
   903                           
   904                           ; 4 bytes @ 0xC
   905  00000D                     	ds	1
   906  00000E                     ??___flge:
   907  00000E                     ___lmul@product:
   908                           	opt callstack 0
   909                           
   910                           ; 4 bytes @ 0xD
   911  00000E                     	ds	3
   912  000011                     ??___xxtofl:
   913                           
   914                           ; 1 bytes @ 0x10
   915  000011                     	ds	1
   916  000012                     ?___aldiv:
   917                           	opt callstack 0
   918  000012                     ___aldiv@dividend:
   919                           	opt callstack 0
   920                           
   921                           ; 4 bytes @ 0x11
   922  000012                     	ds	3
   923  000015                     ___xxtofl@sign:
   924                           	opt callstack 0
   925                           
   926                           ; 1 bytes @ 0x14
   927  000015                     	ds	1
   928  000016                     ___xxtofl@exp:
   929                           	opt callstack 0
   930  000016                     ___aldiv@divisor:
   931                           	opt callstack 0
   932                           
   933                           ; 4 bytes @ 0x15
   934  000016                     	ds	1
   935  000017                     ___xxtofl@arg:
   936                           	opt callstack 0
   937                           
   938                           ; 4 bytes @ 0x16
   939  000017                     	ds	3
   940  00001A                     ___aldiv@counter:
   941                           	opt callstack 0
   942                           
   943                           ; 1 bytes @ 0x19
   944  00001A                     	ds	1
   945  00001B                     ?___flmul:
   946                           	opt callstack 0
   947  00001B                     ?_dameDistancia:
   948                           	opt callstack 0
   949  00001B                     ___aldiv@sign:
   950                           	opt callstack 0
   951  00001B                     ___flmul@b:
   952                           	opt callstack 0
   953                           
   954                           ; 4 bytes @ 0x1A
   955  00001B                     	ds	1
   956  00001C                     ___aldiv@quotient:
   957                           	opt callstack 0
   958                           
   959                           ; 4 bytes @ 0x1B
   960  00001C                     	ds	3
   961  00001F                     ??_dameDistancia:
   962  00001F                     ___flmul@a:
   963                           	opt callstack 0
   964                           
   965                           ; 4 bytes @ 0x1E
   966  00001F                     	ds	1
   967  000020                     ?_map:
   968                           	opt callstack 0
   969  000020                     map@x:
   970                           	opt callstack 0
   971  000020                     UART_init@BAUD:
   972                           	opt callstack 0
   973                           
   974                           ; 4 bytes @ 0x1F
   975  000020                     	ds	1
   976  000021                     dameDistancia@numeroSensor:
   977                           	opt callstack 0
   978                           
   979                           ; 1 bytes @ 0x20
   980  000021                     	ds	1
   981  000022                     dameDistancia@distancia:
   982                           	opt callstack 0
   983                           
   984                           ; 4 bytes @ 0x21
   985  000022                     	ds	1
   986  000023                     ??___flmul:
   987                           
   988                           ; 1 bytes @ 0x22
   989  000023                     	ds	1
   990  000024                     map@in_min:
   991                           	opt callstack 0
   992                           
   993                           ; 4 bytes @ 0x23
   994  000024                     	ds	2
   995  000026                     dameDistancia@conteo:
   996                           	opt callstack 0
   997                           
   998                           ; 2 bytes @ 0x25
   999  000026                     	ds	1
  1000  000027                     ___flmul@sign:
  1001                           	opt callstack 0
  1002                           
  1003                           ; 1 bytes @ 0x26
  1004  000027                     	ds	1
  1005  000028                     map@in_max:
  1006                           	opt callstack 0
  1007  000028                     ___flmul@grs:
  1008                           	opt callstack 0
  1009  000028                     _UART_init$1506:
  1010                           	opt callstack 0
  1011                           
  1012                           ; 4 bytes @ 0x27
  1013  000028                     	ds	4
  1014  00002C                     ___flmul@aexp:
  1015                           	opt callstack 0
  1016  00002C                     map@out_min:
  1017                           	opt callstack 0
  1018                           
  1019                           ; 4 bytes @ 0x2B
  1020  00002C                     	ds	1
  1021  00002D                     ___flmul@bexp:
  1022                           	opt callstack 0
  1023                           
  1024                           ; 1 bytes @ 0x2C
  1025  00002D                     	ds	1
  1026  00002E                     ___flmul@prod:
  1027                           	opt callstack 0
  1028                           
  1029                           ; 4 bytes @ 0x2D
  1030  00002E                     	ds	2
  1031  000030                     map@out_max:
  1032                           	opt callstack 0
  1033                           
  1034                           ; 4 bytes @ 0x2F
  1035  000030                     	ds	2
  1036  000032                     ___flmul@temp:
  1037                           	opt callstack 0
  1038                           
  1039                           ; 2 bytes @ 0x31
  1040  000032                     	ds	2
  1041  000034                     ?___fladd:
  1042                           	opt callstack 0
  1043  000034                     ___fladd@b:
  1044                           	opt callstack 0
  1045                           
  1046                           ; 4 bytes @ 0x33
  1047  000034                     	ds	4
  1048  000038                     ___fladd@a:
  1049                           	opt callstack 0
  1050                           
  1051                           ; 4 bytes @ 0x37
  1052  000038                     	ds	4
  1053  00003C                     ??___fladd:
  1054                           
  1055                           ; 1 bytes @ 0x3B
  1056  00003C                     	ds	4
  1057  000040                     ___fladd@signs:
  1058                           	opt callstack 0
  1059                           
  1060                           ; 1 bytes @ 0x3F
  1061  000040                     	ds	1
  1062  000041                     ___fladd@aexp:
  1063                           	opt callstack 0
  1064                           
  1065                           ; 1 bytes @ 0x40
  1066  000041                     	ds	1
  1067  000042                     ___fladd@bexp:
  1068                           	opt callstack 0
  1069                           
  1070                           ; 1 bytes @ 0x41
  1071  000042                     	ds	1
  1072  000043                     ___fladd@grs:
  1073                           	opt callstack 0
  1074                           
  1075                           ; 1 bytes @ 0x42
  1076  000043                     	ds	1
  1077  000044                     ?___fldiv:
  1078                           	opt callstack 0
  1079  000044                     ?___flsub:
  1080                           	opt callstack 0
  1081  000044                     ___flsub@b:
  1082                           	opt callstack 0
  1083  000044                     ___fldiv@b:
  1084                           	opt callstack 0
  1085                           
  1086                           ; 4 bytes @ 0x43
  1087  000044                     	ds	4
  1088  000048                     ___flsub@a:
  1089                           	opt callstack 0
  1090  000048                     ___fldiv@a:
  1091                           	opt callstack 0
  1092                           
  1093                           ; 4 bytes @ 0x47
  1094  000048                     	ds	4
  1095  00004C                     ??___fldiv:
  1096  00004C                     ?_roundf:
  1097                           	opt callstack 0
  1098  00004C                     roundf@x:
  1099                           	opt callstack 0
  1100                           
  1101                           ; 4 bytes @ 0x4B
  1102  00004C                     	ds	4
  1103  000050                     ??_roundf:
  1104                           
  1105                           ; 1 bytes @ 0x4F
  1106  000050                     	ds	4
  1107  000054                     ??_probarPID:
  1108                           
  1109                           ; 1 bytes @ 0x53
  1110  000054                     	ds	1
  1111  000055                     
  1112                           ; 1 bytes @ 0x54
  1113 ;;
  1114 ;;Main: autosize = 0, tempsize = 0, incstack = 0, save=0
  1115 ;;
  1116 ;; *************** function _main *****************
  1117 ;; Defined at:
  1118 ;;		line 1204 in file "main.c"
  1119 ;; Parameters:    Size  Location     Type
  1120 ;;		None
  1121 ;; Auto vars:     Size  Location     Type
  1122 ;;  numMovimient    2    0        int 
  1123 ;;  iniciado        1   60[BANK0 ] unsigned char 
  1124 ;; Return value:  Size  Location     Type
  1125 ;;                  1    wreg      void 
  1126 ;; Registers used:
  1127 ;;		wreg, status,2, status,0, prodl, prodh, cstack
  1128 ;; Tracked objects:
  1129 ;;		On entry : 0/0
  1130 ;;		On exit  : 0/0
  1131 ;;		Unchanged: 0/0
  1132 ;; Data sizes:     COMRAM   BANK0   BANK1   BANK2   BANK3   BANK4   BANK5   BANK6   BANK7
  1133 ;;      Params:         0       0       0       0       0       0       0       0       0
  1134 ;;      Locals:         0       3       0       0       0       0       0       0       0
  1135 ;;      Temps:          0       0       0       0       0       0       0       0       0
  1136 ;;      Totals:         0       3       0       0       0       0       0       0       0
  1137 ;;Total ram usage:        3 bytes
  1138 ;; Hardware stack levels required when called:   10
  1139 ;; This function calls:
  1140 ;;		_UART_init
  1141 ;;		_configPwm
  1142 ;;		_configurarAdc
  1143 ;;		_forzarParoAuto
  1144 ;;		_inicializarComportamientoBasico
  1145 ;;		_probarPID
  1146 ;; This function is called by:
  1147 ;;		Startup code after reset
  1148 ;; This function uses a non-reentrant model
  1149 ;;
  1150                           
  1151                           	psect	text0
  1152  001BE2                     __ptext0:
  1153                           	opt callstack 0
  1154  001BE2                     _main:
  1155                           	opt callstack 21
  1156  001BE2                     
  1157                           ;main.c: 1206:     T_BOOL iniciado = 0;
  1158  001BE2  0E00               	movlw	0
  1159  001BE4  0100               	movlb	0	; () banked
  1160  001BE6  6FD9               	movwf	main@iniciado& (0+255),b
  1161  001BE8                     
  1162                           ; BSR set to: 0
  1163                           ;main.c: 1210:     INTCONbits.GIE = 1;
  1164  001BE8  8EF2               	bsf	242,7,c	;volatile
  1165  001BEA                     
  1166                           ; BSR set to: 0
  1167                           ;main.c: 1211:     INTCONbits.INT0IE = 1;
  1168  001BEA  88F2               	bsf	242,4,c	;volatile
  1169  001BEC                     
  1170                           ; BSR set to: 0
  1171                           ;main.c: 1212:     INTCON2bits.INTEDG0 = 1;
  1172  001BEC  8CF1               	bsf	241,6,c	;volatile
  1173  001BEE                     
  1174                           ; BSR set to: 0
  1175                           ;main.c: 1214:     TRISD3 = 0;
  1176  001BEE  9695               	bcf	3989,3,c	;volatile
  1177  001BF0                     
  1178                           ; BSR set to: 0
  1179                           ;main.c: 1215:     TRISB1 = 1;
  1180  001BF0  8293               	bsf	3987,1,c	;volatile
  1181  001BF2                     
  1182                           ; BSR set to: 0
  1183                           ;main.c: 1216:     TRISB2 = 1;
  1184  001BF2  8493               	bsf	3987,2,c	;volatile
  1185  001BF4                     
  1186                           ; BSR set to: 0
  1187                           ;main.c: 1217:     TRISB3 = 1;
  1188  001BF4  8693               	bsf	3987,3,c	;volatile
  1189  001BF6                     
  1190                           ; BSR set to: 0
  1191                           ;main.c: 1219:     TRISB4 = 0;
  1192  001BF6  9893               	bcf	3987,4,c	;volatile
  1193  001BF8                     
  1194                           ; BSR set to: 0
  1195                           ;main.c: 1220:     TRISB5 = 0;
  1196  001BF8  9A93               	bcf	3987,5,c	;volatile
  1197  001BFA                     
  1198                           ; BSR set to: 0
  1199                           ;main.c: 1221:     TRISB6 = 0;
  1200  001BFA  9C93               	bcf	3987,6,c	;volatile
  1201  001BFC                     
  1202                           ; BSR set to: 0
  1203                           ;main.c: 1222:     TRISB7 = 0;
  1204  001BFC  9E93               	bcf	3987,7,c	;volatile
  1205  001BFE                     
  1206                           ; BSR set to: 0
  1207                           ;main.c: 1224:     TRISDbits.RD2 = 0;
  1208  001BFE  9495               	bcf	149,2,c	;volatile
  1209  001C00                     
  1210                           ; BSR set to: 0
  1211                           ;main.c: 1225:     TRISB0 = 1;
  1212  001C00  8093               	bsf	3987,0,c	;volatile
  1213  001C02                     
  1214                           ; BSR set to: 0
  1215                           ;main.c: 1227:     LATD3 = 0;
  1216  001C02  968C               	bcf	3980,3,c	;volatile
  1217  001C04                     
  1218                           ; BSR set to: 0
  1219                           ;main.c: 1228:     LATB4 = 0;
  1220  001C04  988A               	bcf	3978,4,c	;volatile
  1221  001C06                     
  1222                           ; BSR set to: 0
  1223                           ;main.c: 1229:     LATB5 = 0;
  1224  001C06  9A8A               	bcf	3978,5,c	;volatile
  1225  001C08                     
  1226                           ; BSR set to: 0
  1227                           ;main.c: 1230:     LATB6 = 0;
  1228  001C08  9C8A               	bcf	3978,6,c	;volatile
  1229  001C0A                     
  1230                           ; BSR set to: 0
  1231                           ;main.c: 1231:     LATB7 = 0;
  1232  001C0A  9E8A               	bcf	3978,7,c	;volatile
  1233  001C0C                     
  1234                           ; BSR set to: 0
  1235                           ;main.c: 1232:     LATD2 = 0;
  1236  001C0C  948C               	bcf	3980,2,c	;volatile
  1237                           
  1238                           ;main.c: 1235:     T1CON = 0b00000000;
  1239  001C0E  0E00               	movlw	0
  1240  001C10  6ECD               	movwf	205,c	;volatile
  1241  001C12                     
  1242                           ; BSR set to: 0
  1243                           ;main.c: 1237:     configPwm(1);
  1244  001C12  0E01               	movlw	1
  1245  001C14  EC19  F010         	call	_configPwm
  1246  001C18                     
  1247                           ;main.c: 1238:     configPwm(2);
  1248  001C18  0E02               	movlw	2
  1249  001C1A  EC19  F010         	call	_configPwm
  1250  001C1E                     
  1251                           ;main.c: 1239:     configurarAdc();
  1252  001C1E  EC44  F011         	call	_configurarAdc	;wreg free
  1253  001C22                     
  1254                           ;main.c: 1241:     UART_init(9600);
  1255  001C22  0E80               	movlw	128
  1256  001C24  6E20               	movwf	UART_init@BAUD^0,c
  1257  001C26  0E25               	movlw	37
  1258  001C28  6E21               	movwf	(UART_init@BAUD+1)^0,c
  1259  001C2A  0E00               	movlw	0
  1260  001C2C  6E22               	movwf	(UART_init@BAUD+2)^0,c
  1261  001C2E  0E00               	movlw	0
  1262  001C30  6E23               	movwf	(UART_init@BAUD+3)^0,c
  1263  001C32  ECF6  F00E         	call	_UART_init	;wreg free
  1264  001C36                     l5696:
  1265                           
  1266                           ;main.c: 1246:         if (!pausa) {
  1267  001C36  0100               	movlb	0	; () banked
  1268  001C38  51DA               	movf	_pausa& (0+255),w,b
  1269  001C3A  A4D8               	btfss	status,2,c
  1270  001C3C  EF22  F00E         	goto	u4981
  1271  001C40  EF24  F00E         	goto	u4980
  1272  001C44                     u4981:
  1273  001C44  EF36  F00E         	goto	l5708
  1274  001C48                     u4980:
  1275  001C48                     
  1276                           ; BSR set to: 0
  1277                           ;main.c: 1248:             if (!iniciado) {
  1278  001C48  51D9               	movf	main@iniciado& (0+255),w,b
  1279  001C4A  A4D8               	btfss	status,2,c
  1280  001C4C  EF2A  F00E         	goto	u4991
  1281  001C50  EF2C  F00E         	goto	u4990
  1282  001C54                     u4991:
  1283  001C54  EF30  F00E         	goto	l5704
  1284  001C58                     u4990:
  1285  001C58                     
  1286                           ; BSR set to: 0
  1287                           ;main.c: 1249:                 iniciado = 1;
  1288  001C58  0E01               	movlw	1
  1289  001C5A  6FD9               	movwf	main@iniciado& (0+255),b
  1290  001C5C                     
  1291                           ; BSR set to: 0
  1292                           ;main.c: 1250:                 inicializarComportamientoBasico();
  1293  001C5C  EC41  F010         	call	_inicializarComportamientoBasico	;wreg free
  1294  001C60                     l5704:
  1295                           
  1296                           ;main.c: 1255:             probarPID();
  1297  001C60  EC95  F00F         	call	_probarPID	;wreg free
  1298  001C64                     
  1299                           ;main.c: 1258:             forzarParoAuto();
  1300  001C64  EC3F  F011         	call	_forzarParoAuto	;wreg free
  1301                           
  1302                           ;main.c: 1260:         } else {
  1303  001C68  EF1B  F00E         	goto	l5696
  1304  001C6C                     l5708:
  1305                           
  1306                           ; BSR set to: 0
  1307                           ;main.c: 1262:             iniciado = 0;
  1308  001C6C  0E00               	movlw	0
  1309  001C6E  6FD9               	movwf	main@iniciado& (0+255),b
  1310  001C70  EF1B  F00E         	goto	l5696
  1311  001C74  EF07  F000         	goto	start
  1312  001C78                     __end_of_main:
  1313                           	opt callstack 0
  1314                           
  1315 ;; *************** function _probarPID *****************
  1316 ;; Defined at:
  1317 ;;		line 1172 in file "main.c"
  1318 ;; Parameters:    Size  Location     Type
  1319 ;;		None
  1320 ;; Auto vars:     Size  Location     Type
  1321 ;;		None
  1322 ;; Return value:  Size  Location     Type
  1323 ;;                  1    wreg      void 
  1324 ;; Registers used:
  1325 ;;		wreg, status,2, status,0, prodl, prodh, cstack
  1326 ;; Tracked objects:
  1327 ;;		On entry : 0/0
  1328 ;;		On exit  : 0/0
  1329 ;;		Unchanged: 0/0
  1330 ;; Data sizes:     COMRAM   BANK0   BANK1   BANK2   BANK3   BANK4   BANK5   BANK6   BANK7
  1331 ;;      Params:         0       0       0       0       0       0       0       0       0
  1332 ;;      Locals:         0       0       0       0       0       0       0       0       0
  1333 ;;      Temps:          1       0       0       0       0       0       0       0       0
  1334 ;;      Totals:         1       0       0       0       0       0       0       0       0
  1335 ;;Total ram usage:        1 bytes
  1336 ;; Hardware stack levels used:    1
  1337 ;; Hardware stack levels required when called:    9
  1338 ;; This function calls:
  1339 ;;		_PID
  1340 ;;		___flge
  1341 ;;		_finalizarRecorrido
  1342 ;;		_leerSensores
  1343 ;;		_mover
  1344 ;; This function is called by:
  1345 ;;		_main
  1346 ;; This function uses a non-reentrant model
  1347 ;;
  1348                           
  1349                           	psect	text1
  1350  001F2A                     __ptext1:
  1351                           	opt callstack 0
  1352  001F2A                     _probarPID:
  1353                           	opt callstack 21
  1354  001F2A                     
  1355                           ;main.c: 1174:     leerSensores();
  1356  001F2A  ECF6  F00A         	call	_leerSensores	;wreg free
  1357                           
  1358                           ;main.c: 1176:     if (sensorEnfrente > 7) {
  1359  001F2E  0E00               	movlw	0
  1360  001F30  6E06               	movwf	___flge@ff1^0,c
  1361  001F32  0E00               	movlw	0
  1362  001F34  6E07               	movwf	(___flge@ff1+1)^0,c
  1363  001F36  0EE0               	movlw	224
  1364  001F38  6E08               	movwf	(___flge@ff1+2)^0,c
  1365  001F3A  0E40               	movlw	64
  1366  001F3C  6E09               	movwf	(___flge@ff1+3)^0,c
  1367  001F3E  C07C  F00A         	movff	_sensorEnfrente,___flge@ff2
  1368  001F42  C07D  F00B         	movff	_sensorEnfrente+1,___flge@ff2+1
  1369  001F46  C07E  F00C         	movff	_sensorEnfrente+2,___flge@ff2+2
  1370  001F4A  C07F  F00D         	movff	_sensorEnfrente+3,___flge@ff2+3
  1371  001F4E  EC6F  F00D         	call	___flge	;wreg free
  1372  001F52  B0D8               	btfsc	status,0,c
  1373  001F54  EFAE  F00F         	goto	u4651
  1374  001F58  EFB0  F00F         	goto	u4650
  1375  001F5C                     u4651:
  1376  001F5C  EFB8  F00F         	goto	l5402
  1377  001F60                     u4650:
  1378  001F60                     
  1379                           ;main.c: 1177:         PID();
  1380  001F60  EC25  F008         	call	_PID	;wreg free
  1381  001F64                     
  1382                           ;main.c: 1178:         mouse.curr_state = ENFRENTE;
  1383  001F64  0E01               	movlw	1
  1384  001F66  6E55               	movwf	_mouse^0,c
  1385  001F68                     
  1386                           ;main.c: 1179:         mover();
  1387  001F68  EC3C  F00E         	call	_mover	;wreg free
  1388                           
  1389                           ;main.c: 1180:     } else
  1390  001F6C  EFBA  F00F         	goto	l5404
  1391  001F70                     l5402:
  1392                           
  1393                           ;main.c: 1181:         finalizarRecorrido();
  1394  001F70  EC37  F011         	call	_finalizarRecorrido	;wreg free
  1395  001F74                     l5404:
  1396                           
  1397                           ;main.c: 1183:     _delay((unsigned long)((55)*(4000000/4000.0)));
  1398  001F74  0E48               	movlw	72
  1399  001F76  6E54               	movwf	??_probarPID^0,c
  1400  001F78  0E6C               	movlw	108
  1401  001F7A                     u5007:
  1402  001F7A  2EE8               	decfsz	wreg,f,c
  1403  001F7C  D7FE               	bra	u5007
  1404  001F7E  2E54               	decfsz	??_probarPID^0,f,c
  1405  001F80  D7FC               	bra	u5007
  1406  001F82  D000               	nop2	
  1407  001F84  0012               	return		;funcret
  1408  001F86                     __end_of_probarPID:
  1409                           	opt callstack 0
  1410                           
  1411 ;; *************** function _mover *****************
  1412 ;; Defined at:
  1413 ;;		line 578 in file "main.c"
  1414 ;; Parameters:    Size  Location     Type
  1415 ;;		None
  1416 ;; Auto vars:     Size  Location     Type
  1417 ;;		None
  1418 ;; Return value:  Size  Location     Type
  1419 ;;                  1    wreg      void 
  1420 ;; Registers used:
  1421 ;;		wreg, status,2, status,0
  1422 ;; Tracked objects:
  1423 ;;		On entry : 0/0
  1424 ;;		On exit  : 0/0
  1425 ;;		Unchanged: 0/0
  1426 ;; Data sizes:     COMRAM   BANK0   BANK1   BANK2   BANK3   BANK4   BANK5   BANK6   BANK7
  1427 ;;      Params:         0       0       0       0       0       0       0       0       0
  1428 ;;      Locals:         0       0       0       0       0       0       0       0       0
  1429 ;;      Temps:          2       0       0       0       0       0       0       0       0
  1430 ;;      Totals:         2       0       0       0       0       0       0       0       0
  1431 ;;Total ram usage:        2 bytes
  1432 ;; Hardware stack levels used:    1
  1433 ;; Hardware stack levels required when called:    2
  1434 ;; This function calls:
  1435 ;;		Nothing
  1436 ;; This function is called by:
  1437 ;;		_probarPID
  1438 ;;		_probarGirosAuto
  1439 ;;		_regresarPuntoPartida
  1440 ;;		_regresarAlCruce
  1441 ;;		_recorrerCaminoEncontrado
  1442 ;; This function uses a non-reentrant model
  1443 ;;
  1444                           
  1445                           	psect	text2
  1446  001C78                     __ptext2:
  1447                           	opt callstack 0
  1448  001C78                     _mover:
  1449                           	opt callstack 27
  1450  001C78                     
  1451                           ;main.c: 580:     switch (mouse.curr_state) {
  1452  001C78  EF61  F00E         	goto	l4176
  1453  001C7C                     l436:
  1454                           
  1455                           ;main.c: 584:             LATB4 = 1;
  1456  001C7C  888A               	bsf	3978,4,c	;volatile
  1457                           
  1458                           ;main.c: 585:             LATB5 = 0;
  1459  001C7E  9A8A               	bcf	3978,5,c	;volatile
  1460                           
  1461                           ;main.c: 586:             LATB6 = 1;
  1462  001C80  8C8A               	bsf	3978,6,c	;volatile
  1463                           
  1464                           ;main.c: 587:             LATB7 = 0;
  1465  001C82  9E8A               	bcf	3978,7,c	;volatile
  1466                           
  1467                           ;main.c: 589:             break;
  1468  001C84  EF7E  F00E         	goto	l441
  1469  001C88                     l438:
  1470                           
  1471                           ;main.c: 593:             LATB4 = 0;
  1472  001C88  988A               	bcf	3978,4,c	;volatile
  1473                           
  1474                           ;main.c: 594:             LATB5 = 0;
  1475  001C8A  9A8A               	bcf	3978,5,c	;volatile
  1476                           
  1477                           ;main.c: 595:             LATB6 = 1;
  1478  001C8C  8C8A               	bsf	3978,6,c	;volatile
  1479                           
  1480                           ;main.c: 596:             LATB7 = 0;
  1481  001C8E  9E8A               	bcf	3978,7,c	;volatile
  1482  001C90                     l4170:
  1483                           
  1484                           ;main.c: 598:             _delay((unsigned long)((410)*(4000000/4000.0)));
  1485  001C90  0E03               	movlw	3
  1486  001C92  6E07               	movwf	(??_mover+1)^0,c
  1487  001C94  0E15               	movlw	21
  1488  001C96  6E06               	movwf	??_mover^0,c
  1489  001C98  0E74               	movlw	116
  1490  001C9A                     u5017:
  1491  001C9A  2EE8               	decfsz	wreg,f,c
  1492  001C9C  D7FE               	bra	u5017
  1493  001C9E  2E06               	decfsz	??_mover^0,f,c
  1494  001CA0  D7FC               	bra	u5017
  1495  001CA2  2E07               	decfsz	(??_mover+1)^0,f,c
  1496  001CA4  D7FA               	bra	u5017
  1497                           
  1498                           ;main.c: 600:             break;
  1499  001CA6  EF7E  F00E         	goto	l441
  1500  001CAA                     l439:
  1501                           
  1502                           ;main.c: 604:             LATB4 = 1;
  1503  001CAA  888A               	bsf	3978,4,c	;volatile
  1504                           
  1505                           ;main.c: 605:             LATB5 = 0;
  1506  001CAC  9A8A               	bcf	3978,5,c	;volatile
  1507                           
  1508                           ;main.c: 606:             LATB6 = 0;
  1509  001CAE  9C8A               	bcf	3978,6,c	;volatile
  1510                           
  1511                           ;main.c: 607:             LATB7 = 0;
  1512  001CB0  9E8A               	bcf	3978,7,c	;volatile
  1513  001CB2  EF48  F00E         	goto	l4170
  1514  001CB6                     l440:
  1515                           
  1516                           ;main.c: 615:             LATB4 = 0;
  1517  001CB6  988A               	bcf	3978,4,c	;volatile
  1518                           
  1519                           ;main.c: 616:             LATB5 = 0;
  1520  001CB8  9A8A               	bcf	3978,5,c	;volatile
  1521                           
  1522                           ;main.c: 617:             LATB6 = 0;
  1523  001CBA  9C8A               	bcf	3978,6,c	;volatile
  1524                           
  1525                           ;main.c: 618:             LATB7 = 0;
  1526  001CBC  9E8A               	bcf	3978,7,c	;volatile
  1527                           
  1528                           ;main.c: 620:             break;
  1529  001CBE  EF7E  F00E         	goto	l441
  1530  001CC2                     l4176:
  1531  001CC2  5055               	movf	_mouse^0,w,c
  1532  001CC4  6E06               	movwf	??_mover^0,c
  1533  001CC6  6A07               	clrf	(??_mover+1)^0,c
  1534                           
  1535                           ; Switch on 2 bytes has been partitioned into a top level switch of size 1, and 1 sub-sw
      +                          itches
  1536                           ; Switch size 1, requested type "simple"
  1537                           ; Number of cases is 1, Range of values is 0 to 0
  1538                           ; switch strategies available:
  1539                           ; Name         Instructions Cycles
  1540                           ; simple_byte            4     3 (average)
  1541                           ;	Chosen strategy is simple_byte
  1542  001CC8  5007               	movf	(??_mover+1)^0,w,c
  1543  001CCA  0A00               	xorlw	0	; case 0
  1544  001CCC  B4D8               	btfsc	status,2,c
  1545  001CCE  EF6B  F00E         	goto	l5810
  1546  001CD2  EF7E  F00E         	goto	l441
  1547  001CD6                     l5810:
  1548                           
  1549                           ; Switch size 1, requested type "simple"
  1550                           ; Number of cases is 4, Range of values is 1 to 4
  1551                           ; switch strategies available:
  1552                           ; Name         Instructions Cycles
  1553                           ; simple_byte           13     7 (average)
  1554                           ;	Chosen strategy is simple_byte
  1555  001CD6  5006               	movf	??_mover^0,w,c
  1556  001CD8  0A01               	xorlw	1	; case 1
  1557  001CDA  B4D8               	btfsc	status,2,c
  1558  001CDC  EF3E  F00E         	goto	l436
  1559  001CE0  0A03               	xorlw	3	; case 2
  1560  001CE2  B4D8               	btfsc	status,2,c
  1561  001CE4  EF44  F00E         	goto	l438
  1562  001CE8  0A01               	xorlw	1	; case 3
  1563  001CEA  B4D8               	btfsc	status,2,c
  1564  001CEC  EF55  F00E         	goto	l439
  1565  001CF0  0A07               	xorlw	7	; case 4
  1566  001CF2  B4D8               	btfsc	status,2,c
  1567  001CF4  EF5B  F00E         	goto	l440
  1568  001CF8  EF7E  F00E         	goto	l441
  1569  001CFC                     l441:
  1570  001CFC  0012               	return		;funcret
  1571  001CFE                     __end_of_mover:
  1572                           	opt callstack 0
  1573                           
  1574 ;; *************** function _leerSensores *****************
  1575 ;; Defined at:
  1576 ;;		line 1119 in file "main.c"
  1577 ;; Parameters:    Size  Location     Type
  1578 ;;		None
  1579 ;; Auto vars:     Size  Location     Type
  1580 ;;		None
  1581 ;; Return value:  Size  Location     Type
  1582 ;;                  1    wreg      void 
  1583 ;; Registers used:
  1584 ;;		wreg, status,2, status,0, cstack
  1585 ;; Tracked objects:
  1586 ;;		On entry : 0/0
  1587 ;;		On exit  : 0/0
  1588 ;;		Unchanged: 0/0
  1589 ;; Data sizes:     COMRAM   BANK0   BANK1   BANK2   BANK3   BANK4   BANK5   BANK6   BANK7
  1590 ;;      Params:         0       0       0       0       0       0       0       0       0
  1591 ;;      Locals:         0       0       0       0       0       0       0       0       0
  1592 ;;      Temps:          0       0       0       0       0       0       0       0       0
  1593 ;;      Totals:         0       0       0       0       0       0       0       0       0
  1594 ;;Total ram usage:        0 bytes
  1595 ;; Hardware stack levels used:    1
  1596 ;; Hardware stack levels required when called:    4
  1597 ;; This function calls:
  1598 ;;		___fladd
  1599 ;;		___fldiv
  1600 ;;		_dameDistancia
  1601 ;; This function is called by:
  1602 ;;		_probarPID
  1603 ;;		_probarSensores
  1604 ;;		_comportamientoBasico
  1605 ;; This function uses a non-reentrant model
  1606 ;;
  1607                           
  1608                           	psect	text3
  1609  0015EC                     __ptext3:
  1610                           	opt callstack 0
  1611  0015EC                     _leerSensores:
  1612                           	opt callstack 25
  1613  0015EC                     
  1614                           ;main.c: 1121:     sensorDerecha = (dameDistancia(DERECHA) + oldSensorDerecha) / 2;
  1615  0015EC  C078  F038         	movff	_oldSensorDerecha,___fladd@a
  1616  0015F0  C079  F039         	movff	_oldSensorDerecha+1,___fladd@a+1
  1617  0015F4  C07A  F03A         	movff	_oldSensorDerecha+2,___fladd@a+2
  1618  0015F8  C07B  F03B         	movff	_oldSensorDerecha+3,___fladd@a+3
  1619  0015FC  0E03               	movlw	3
  1620  0015FE  ECB4  F00B         	call	_dameDistancia
  1621  001602  C01B  F034         	movff	?_dameDistancia,___fladd@b
  1622  001606  C01C  F035         	movff	?_dameDistancia+1,___fladd@b+1
  1623  00160A  C01D  F036         	movff	?_dameDistancia+2,___fladd@b+2
  1624  00160E  C01E  F037         	movff	?_dameDistancia+3,___fladd@b+3
  1625  001612  EC09  F000         	call	___fladd	;wreg free
  1626  001616  C034  F044         	movff	?___fladd,___fldiv@b
  1627  00161A  C035  F045         	movff	?___fladd+1,___fldiv@b+1
  1628  00161E  C036  F046         	movff	?___fladd+2,___fldiv@b+2
  1629  001622  C037  F047         	movff	?___fladd+3,___fldiv@b+3
  1630  001626  0E00               	movlw	0
  1631  001628  6E48               	movwf	___fldiv@a^0,c
  1632  00162A  0E00               	movlw	0
  1633  00162C  6E49               	movwf	(___fldiv@a+1)^0,c
  1634  00162E  0E00               	movlw	0
  1635  001630  6E4A               	movwf	(___fldiv@a+2)^0,c
  1636  001632  0E40               	movlw	64
  1637  001634  6E4B               	movwf	(___fldiv@a+3)^0,c
  1638  001636  EC57  F006         	call	___fldiv	;wreg free
  1639  00163A  C044  F084         	movff	?___fldiv,_sensorDerecha
  1640  00163E  C045  F085         	movff	?___fldiv+1,_sensorDerecha+1
  1641  001642  C046  F086         	movff	?___fldiv+2,_sensorDerecha+2
  1642  001646  C047  F087         	movff	?___fldiv+3,_sensorDerecha+3
  1643                           
  1644                           ;main.c: 1122:     sensorIzquierda = (dameDistancia(IZQUIERDA) + oldSensorIzquierda) / 2
      +                          ;
  1645  00164A  C074  F038         	movff	_oldSensorIzquierda,___fladd@a
  1646  00164E  C075  F039         	movff	_oldSensorIzquierda+1,___fladd@a+1
  1647  001652  C076  F03A         	movff	_oldSensorIzquierda+2,___fladd@a+2
  1648  001656  C077  F03B         	movff	_oldSensorIzquierda+3,___fladd@a+3
  1649  00165A  0E02               	movlw	2
  1650  00165C  ECB4  F00B         	call	_dameDistancia
  1651  001660  C01B  F034         	movff	?_dameDistancia,___fladd@b
  1652  001664  C01C  F035         	movff	?_dameDistancia+1,___fladd@b+1
  1653  001668  C01D  F036         	movff	?_dameDistancia+2,___fladd@b+2
  1654  00166C  C01E  F037         	movff	?_dameDistancia+3,___fladd@b+3
  1655  001670  EC09  F000         	call	___fladd	;wreg free
  1656  001674  C034  F044         	movff	?___fladd,___fldiv@b
  1657  001678  C035  F045         	movff	?___fladd+1,___fldiv@b+1
  1658  00167C  C036  F046         	movff	?___fladd+2,___fldiv@b+2
  1659  001680  C037  F047         	movff	?___fladd+3,___fldiv@b+3
  1660  001684  0E00               	movlw	0
  1661  001686  6E48               	movwf	___fldiv@a^0,c
  1662  001688  0E00               	movlw	0
  1663  00168A  6E49               	movwf	(___fldiv@a+1)^0,c
  1664  00168C  0E00               	movlw	0
  1665  00168E  6E4A               	movwf	(___fldiv@a+2)^0,c
  1666  001690  0E40               	movlw	64
  1667  001692  6E4B               	movwf	(___fldiv@a+3)^0,c
  1668  001694  EC57  F006         	call	___fldiv	;wreg free
  1669  001698  C044  F080         	movff	?___fldiv,_sensorIzquierda
  1670  00169C  C045  F081         	movff	?___fldiv+1,_sensorIzquierda+1
  1671  0016A0  C046  F082         	movff	?___fldiv+2,_sensorIzquierda+2
  1672  0016A4  C047  F083         	movff	?___fldiv+3,_sensorIzquierda+3
  1673                           
  1674                           ;main.c: 1123:     sensorEnfrente = (dameDistancia(ENFRENTE) + oldSensorEnfrente) / 2;
  1675  0016A8  C070  F038         	movff	_oldSensorEnfrente,___fladd@a
  1676  0016AC  C071  F039         	movff	_oldSensorEnfrente+1,___fladd@a+1
  1677  0016B0  C072  F03A         	movff	_oldSensorEnfrente+2,___fladd@a+2
  1678  0016B4  C073  F03B         	movff	_oldSensorEnfrente+3,___fladd@a+3
  1679  0016B8  0E01               	movlw	1
  1680  0016BA  ECB4  F00B         	call	_dameDistancia
  1681  0016BE  C01B  F034         	movff	?_dameDistancia,___fladd@b
  1682  0016C2  C01C  F035         	movff	?_dameDistancia+1,___fladd@b+1
  1683  0016C6  C01D  F036         	movff	?_dameDistancia+2,___fladd@b+2
  1684  0016CA  C01E  F037         	movff	?_dameDistancia+3,___fladd@b+3
  1685  0016CE  EC09  F000         	call	___fladd	;wreg free
  1686  0016D2  C034  F044         	movff	?___fladd,___fldiv@b
  1687  0016D6  C035  F045         	movff	?___fladd+1,___fldiv@b+1
  1688  0016DA  C036  F046         	movff	?___fladd+2,___fldiv@b+2
  1689  0016DE  C037  F047         	movff	?___fladd+3,___fldiv@b+3
  1690  0016E2  0E00               	movlw	0
  1691  0016E4  6E48               	movwf	___fldiv@a^0,c
  1692  0016E6  0E00               	movlw	0
  1693  0016E8  6E49               	movwf	(___fldiv@a+1)^0,c
  1694  0016EA  0E00               	movlw	0
  1695  0016EC  6E4A               	movwf	(___fldiv@a+2)^0,c
  1696  0016EE  0E40               	movlw	64
  1697  0016F0  6E4B               	movwf	(___fldiv@a+3)^0,c
  1698  0016F2  EC57  F006         	call	___fldiv	;wreg free
  1699  0016F6  C044  F07C         	movff	?___fldiv,_sensorEnfrente
  1700  0016FA  C045  F07D         	movff	?___fldiv+1,_sensorEnfrente+1
  1701  0016FE  C046  F07E         	movff	?___fldiv+2,_sensorEnfrente+2
  1702  001702  C047  F07F         	movff	?___fldiv+3,_sensorEnfrente+3
  1703  001706                     
  1704                           ;main.c: 1125:     oldSensorDerecha = sensorDerecha;
  1705  001706  C084  F078         	movff	_sensorDerecha,_oldSensorDerecha
  1706  00170A  C085  F079         	movff	_sensorDerecha+1,_oldSensorDerecha+1
  1707  00170E  C086  F07A         	movff	_sensorDerecha+2,_oldSensorDerecha+2
  1708  001712  C087  F07B         	movff	_sensorDerecha+3,_oldSensorDerecha+3
  1709  001716                     
  1710                           ;main.c: 1126:     oldSensorIzquierda = sensorIzquierda;
  1711  001716  C080  F074         	movff	_sensorIzquierda,_oldSensorIzquierda
  1712  00171A  C081  F075         	movff	_sensorIzquierda+1,_oldSensorIzquierda+1
  1713  00171E  C082  F076         	movff	_sensorIzquierda+2,_oldSensorIzquierda+2
  1714  001722  C083  F077         	movff	_sensorIzquierda+3,_oldSensorIzquierda+3
  1715  001726                     
  1716                           ;main.c: 1127:     oldSensorEnfrente = sensorEnfrente;
  1717  001726  C07C  F070         	movff	_sensorEnfrente,_oldSensorEnfrente
  1718  00172A  C07D  F071         	movff	_sensorEnfrente+1,_oldSensorEnfrente+1
  1719  00172E  C07E  F072         	movff	_sensorEnfrente+2,_oldSensorEnfrente+2
  1720  001732  C07F  F073         	movff	_sensorEnfrente+3,_oldSensorEnfrente+3
  1721  001736                     
  1722                           ;main.c: 1132:         DISTANCIA_PRIORIDAD_BAJA = sensorDerecha;
  1723  001736  C084  F064         	movff	_sensorDerecha,_DISTANCIA_PRIORIDAD_BAJA
  1724  00173A  C085  F065         	movff	_sensorDerecha+1,_DISTANCIA_PRIORIDAD_BAJA+1
  1725  00173E  C086  F066         	movff	_sensorDerecha+2,_DISTANCIA_PRIORIDAD_BAJA+2
  1726  001742  C087  F067         	movff	_sensorDerecha+3,_DISTANCIA_PRIORIDAD_BAJA+3
  1727  001746                     
  1728                           ;main.c: 1141:         DISTANCIA_PRIORIDAD_MEDIA = sensorIzquierda;
  1729  001746  C080  F068         	movff	_sensorIzquierda,_DISTANCIA_PRIORIDAD_MEDIA
  1730  00174A  C081  F069         	movff	_sensorIzquierda+1,_DISTANCIA_PRIORIDAD_MEDIA+1
  1731  00174E  C082  F06A         	movff	_sensorIzquierda+2,_DISTANCIA_PRIORIDAD_MEDIA+2
  1732  001752  C083  F06B         	movff	_sensorIzquierda+3,_DISTANCIA_PRIORIDAD_MEDIA+3
  1733  001756                     
  1734                           ;main.c: 1144:         DISTANCIA_PRIORIDAD_ALTA = sensorEnfrente;
  1735  001756  C07C  F06C         	movff	_sensorEnfrente,_DISTANCIA_PRIORIDAD_ALTA
  1736  00175A  C07D  F06D         	movff	_sensorEnfrente+1,_DISTANCIA_PRIORIDAD_ALTA+1
  1737  00175E  C07E  F06E         	movff	_sensorEnfrente+2,_DISTANCIA_PRIORIDAD_ALTA+2
  1738  001762  C07F  F06F         	movff	_sensorEnfrente+3,_DISTANCIA_PRIORIDAD_ALTA+3
  1739  001766  0012               	return		;funcret
  1740  001768                     __end_of_leerSensores:
  1741                           	opt callstack 0
  1742                           
  1743 ;; *************** function _finalizarRecorrido *****************
  1744 ;; Defined at:
  1745 ;;		line 454 in file "main.c"
  1746 ;; Parameters:    Size  Location     Type
  1747 ;;		None
  1748 ;; Auto vars:     Size  Location     Type
  1749 ;;		None
  1750 ;; Return value:  Size  Location     Type
  1751 ;;                  1    wreg      void 
  1752 ;; Registers used:
  1753 ;;		wreg, status,2, status,0, prodl, prodh, cstack
  1754 ;; Tracked objects:
  1755 ;;		On entry : 0/0
  1756 ;;		On exit  : 0/0
  1757 ;;		Unchanged: 0/0
  1758 ;; Data sizes:     COMRAM   BANK0   BANK1   BANK2   BANK3   BANK4   BANK5   BANK6   BANK7
  1759 ;;      Params:         0       0       0       0       0       0       0       0       0
  1760 ;;      Locals:         0       0       0       0       0       0       0       0       0
  1761 ;;      Temps:          0       0       0       0       0       0       0       0       0
  1762 ;;      Totals:         0       0       0       0       0       0       0       0       0
  1763 ;;Total ram usage:        0 bytes
  1764 ;; Hardware stack levels used:    1
  1765 ;; Hardware stack levels required when called:    8
  1766 ;; This function calls:
  1767 ;;		_forzarEspejeo
  1768 ;;		_forzarParoAuto
  1769 ;; This function is called by:
  1770 ;;		_probarPID
  1771 ;;		_comportamientoBasico
  1772 ;; This function uses a non-reentrant model
  1773 ;;
  1774                           
  1775                           	psect	text4
  1776  00226E                     __ptext4:
  1777                           	opt callstack 0
  1778  00226E                     _finalizarRecorrido:
  1779                           	opt callstack 21
  1780  00226E                     
  1781                           ;main.c: 455:     forzarEspejeo();
  1782  00226E  EC8A  F010         	call	_forzarEspejeo	;wreg free
  1783  002272                     
  1784                           ;main.c: 456:     forzarParoAuto();
  1785  002272  EC3F  F011         	call	_forzarParoAuto	;wreg free
  1786  002276                     
  1787                           ;main.c: 457:     pausa = 1;
  1788  002276  0E01               	movlw	1
  1789  002278  0100               	movlb	0	; () banked
  1790  00227A  6FDA               	movwf	_pausa& (0+255),b
  1791  00227C                     
  1792                           ; BSR set to: 0
  1793  00227C  0012               	return		;funcret
  1794  00227E                     __end_of_finalizarRecorrido:
  1795                           	opt callstack 0
  1796                           
  1797 ;; *************** function _forzarEspejeo *****************
  1798 ;; Defined at:
  1799 ;;		line 517 in file "main.c"
  1800 ;; Parameters:    Size  Location     Type
  1801 ;;		None
  1802 ;; Auto vars:     Size  Location     Type
  1803 ;;		None
  1804 ;; Return value:  Size  Location     Type
  1805 ;;                  1    wreg      void 
  1806 ;; Registers used:
  1807 ;;		wreg, status,2, status,0, prodl, prodh, cstack
  1808 ;; Tracked objects:
  1809 ;;		On entry : 0/0
  1810 ;;		On exit  : 0/0
  1811 ;;		Unchanged: 0/0
  1812 ;; Data sizes:     COMRAM   BANK0   BANK1   BANK2   BANK3   BANK4   BANK5   BANK6   BANK7
  1813 ;;      Params:         0       0       0       0       0       0       0       0       0
  1814 ;;      Locals:         0       0       0       0       0       0       0       0       0
  1815 ;;      Temps:          0       0       0       0       0       0       0       0       0
  1816 ;;      Totals:         0       0       0       0       0       0       0       0       0
  1817 ;;Total ram usage:        0 bytes
  1818 ;; Hardware stack levels used:    1
  1819 ;; Hardware stack levels required when called:    7
  1820 ;; This function calls:
  1821 ;;		___flge
  1822 ;;		_forzarEspejeoDerecha
  1823 ;;		_forzarEspejeoIzquierda
  1824 ;; This function is called by:
  1825 ;;		_finalizarRecorrido
  1826 ;;		_comportamientoBasico
  1827 ;;		_moverCarrito
  1828 ;; This function uses a non-reentrant model
  1829 ;;
  1830                           
  1831                           	psect	text5
  1832  002114                     __ptext5:
  1833                           	opt callstack 0
  1834  002114                     _forzarEspejeo:
  1835                           	opt callstack 21
  1836  002114                     
  1837                           ;main.c: 519:     if (sensorIzquierda > sensorDerecha)
  1838  002114  C084  F006         	movff	_sensorDerecha,___flge@ff1
  1839  002118  C085  F007         	movff	_sensorDerecha+1,___flge@ff1+1
  1840  00211C  C086  F008         	movff	_sensorDerecha+2,___flge@ff1+2
  1841  002120  C087  F009         	movff	_sensorDerecha+3,___flge@ff1+3
  1842  002124  C080  F00A         	movff	_sensorIzquierda,___flge@ff2
  1843  002128  C081  F00B         	movff	_sensorIzquierda+1,___flge@ff2+1
  1844  00212C  C082  F00C         	movff	_sensorIzquierda+2,___flge@ff2+2
  1845  002130  C083  F00D         	movff	_sensorIzquierda+3,___flge@ff2+3
  1846  002134  EC6F  F00D         	call	___flge	;wreg free
  1847  002138  B0D8               	btfsc	status,0,c
  1848  00213A  EFA1  F010         	goto	u4601
  1849  00213E  EFA3  F010         	goto	u4600
  1850  002142                     u4601:
  1851  002142  EFA7  F010         	goto	l5338
  1852  002146                     u4600:
  1853  002146                     
  1854                           ;main.c: 520:         forzarEspejeoIzquierda();
  1855  002146  EC1D  F011         	call	_forzarEspejeoIzquierda	;wreg free
  1856  00214A  EFA9  F010         	goto	l421
  1857  00214E                     l5338:
  1858                           
  1859                           ;main.c: 522:         forzarEspejeoDerecha();
  1860  00214E  EC2A  F011         	call	_forzarEspejeoDerecha	;wreg free
  1861  002152                     l421:
  1862  002152  0012               	return		;funcret
  1863  002154                     __end_of_forzarEspejeo:
  1864                           	opt callstack 0
  1865                           
  1866 ;; *************** function _forzarEspejeoIzquierda *****************
  1867 ;; Defined at:
  1868 ;;		line 497 in file "main.c"
  1869 ;; Parameters:    Size  Location     Type
  1870 ;;		None
  1871 ;; Auto vars:     Size  Location     Type
  1872 ;;		None
  1873 ;; Return value:  Size  Location     Type
  1874 ;;                  1    wreg      void 
  1875 ;; Registers used:
  1876 ;;		wreg, status,2, status,0, prodl, prodh, cstack
  1877 ;; Tracked objects:
  1878 ;;		On entry : 0/0
  1879 ;;		On exit  : 0/0
  1880 ;;		Unchanged: 0/0
  1881 ;; Data sizes:     COMRAM   BANK0   BANK1   BANK2   BANK3   BANK4   BANK5   BANK6   BANK7
  1882 ;;      Params:         0       0       0       0       0       0       0       0       0
  1883 ;;      Locals:         0       0       0       0       0       0       0       0       0
  1884 ;;      Temps:          0       0       0       0       0       0       0       0       0
  1885 ;;      Totals:         0       0       0       0       0       0       0       0       0
  1886 ;;Total ram usage:        0 bytes
  1887 ;; Hardware stack levels used:    1
  1888 ;; Hardware stack levels required when called:    6
  1889 ;; This function calls:
  1890 ;;		_forzarGiroIzquierda
  1891 ;;		_forzarParoAuto
  1892 ;;		_forzarReversa
  1893 ;;		_velocidadEstandar
  1894 ;; This function is called by:
  1895 ;;		_forzarEspejeo
  1896 ;; This function uses a non-reentrant model
  1897 ;;
  1898                           
  1899                           	psect	text6
  1900  00223A                     __ptext6:
  1901                           	opt callstack 0
  1902  00223A                     _forzarEspejeoIzquierda:
  1903                           	opt callstack 21
  1904  00223A                     
  1905                           ;main.c: 499:     forzarParoAuto();
  1906  00223A  EC3F  F011         	call	_forzarParoAuto	;wreg free
  1907  00223E                     
  1908                           ;main.c: 500:     velocidadEstandar();
  1909  00223E  ECD9  F010         	call	_velocidadEstandar	;wreg free
  1910  002242                     
  1911                           ;main.c: 501:     forzarReversa();
  1912  002242  ECEC  F010         	call	_forzarReversa	;wreg free
  1913  002246                     
  1914                           ;main.c: 502:     forzarGiroIzquierda();
  1915  002246  ECFD  F010         	call	_forzarGiroIzquierda	;wreg free
  1916  00224A                     
  1917                           ;main.c: 503:     forzarReversa();
  1918  00224A  ECEC  F010         	call	_forzarReversa	;wreg free
  1919  00224E                     
  1920                           ;main.c: 504:     forzarGiroIzquierda();
  1921  00224E  ECFD  F010         	call	_forzarGiroIzquierda	;wreg free
  1922  002252  0012               	return		;funcret
  1923  002254                     __end_of_forzarEspejeoIzquierda:
  1924                           	opt callstack 0
  1925                           
  1926 ;; *************** function _forzarGiroIzquierda *****************
  1927 ;; Defined at:
  1928 ;;		line 479 in file "main.c"
  1929 ;; Parameters:    Size  Location     Type
  1930 ;;		None
  1931 ;; Auto vars:     Size  Location     Type
  1932 ;;		None
  1933 ;; Return value:  Size  Location     Type
  1934 ;;                  1    wreg      void 
  1935 ;; Registers used:
  1936 ;;		wreg
  1937 ;; Tracked objects:
  1938 ;;		On entry : 0/0
  1939 ;;		On exit  : 0/0
  1940 ;;		Unchanged: 0/0
  1941 ;; Data sizes:     COMRAM   BANK0   BANK1   BANK2   BANK3   BANK4   BANK5   BANK6   BANK7
  1942 ;;      Params:         0       0       0       0       0       0       0       0       0
  1943 ;;      Locals:         0       0       0       0       0       0       0       0       0
  1944 ;;      Temps:          2       0       0       0       0       0       0       0       0
  1945 ;;      Totals:         2       0       0       0       0       0       0       0       0
  1946 ;;Total ram usage:        2 bytes
  1947 ;; Hardware stack levels used:    1
  1948 ;; Hardware stack levels required when called:    2
  1949 ;; This function calls:
  1950 ;;		Nothing
  1951 ;; This function is called by:
  1952 ;;		_forzarEspejeoIzquierda
  1953 ;; This function uses a non-reentrant model
  1954 ;;
  1955                           
  1956                           	psect	text7
  1957  0021FA                     __ptext7:
  1958                           	opt callstack 0
  1959  0021FA                     _forzarGiroIzquierda:
  1960                           	opt callstack 24
  1961  0021FA                     
  1962                           ;main.c: 480:     LATB4 = 0;
  1963  0021FA  988A               	bcf	3978,4,c	;volatile
  1964                           
  1965                           ;main.c: 481:     LATB5 = 0;
  1966  0021FC  9A8A               	bcf	3978,5,c	;volatile
  1967                           
  1968                           ;main.c: 482:     LATB6 = 1;
  1969  0021FE  8C8A               	bsf	3978,6,c	;volatile
  1970                           
  1971                           ;main.c: 483:     LATB7 = 0;
  1972  002200  9E8A               	bcf	3978,7,c	;volatile
  1973  002202                     
  1974                           ;main.c: 484:     _delay((unsigned long)((410)*(4000000/4000.0)));
  1975  002202  0E03               	movlw	3
  1976  002204  6E07               	movwf	(??_forzarGiroIzquierda+1)^0,c
  1977  002206  0E15               	movlw	21
  1978  002208  6E06               	movwf	??_forzarGiroIzquierda^0,c
  1979  00220A  0E74               	movlw	116
  1980  00220C                     u5027:
  1981  00220C  2EE8               	decfsz	wreg,f,c
  1982  00220E  D7FE               	bra	u5027
  1983  002210  2E06               	decfsz	??_forzarGiroIzquierda^0,f,c
  1984  002212  D7FC               	bra	u5027
  1985  002214  2E07               	decfsz	(??_forzarGiroIzquierda+1)^0,f,c
  1986  002216  D7FA               	bra	u5027
  1987  002218  0012               	return		;funcret
  1988  00221A                     __end_of_forzarGiroIzquierda:
  1989                           	opt callstack 0
  1990                           
  1991 ;; *************** function _forzarEspejeoDerecha *****************
  1992 ;; Defined at:
  1993 ;;		line 507 in file "main.c"
  1994 ;; Parameters:    Size  Location     Type
  1995 ;;		None
  1996 ;; Auto vars:     Size  Location     Type
  1997 ;;		None
  1998 ;; Return value:  Size  Location     Type
  1999 ;;                  1    wreg      void 
  2000 ;; Registers used:
  2001 ;;		wreg, status,2, status,0, prodl, prodh, cstack
  2002 ;; Tracked objects:
  2003 ;;		On entry : 0/0
  2004 ;;		On exit  : 0/0
  2005 ;;		Unchanged: 0/0
  2006 ;; Data sizes:     COMRAM   BANK0   BANK1   BANK2   BANK3   BANK4   BANK5   BANK6   BANK7
  2007 ;;      Params:         0       0       0       0       0       0       0       0       0
  2008 ;;      Locals:         0       0       0       0       0       0       0       0       0
  2009 ;;      Temps:          0       0       0       0       0       0       0       0       0
  2010 ;;      Totals:         0       0       0       0       0       0       0       0       0
  2011 ;;Total ram usage:        0 bytes
  2012 ;; Hardware stack levels used:    1
  2013 ;; Hardware stack levels required when called:    6
  2014 ;; This function calls:
  2015 ;;		_forzarGiroDerecha
  2016 ;;		_forzarParoAuto
  2017 ;;		_forzarReversa
  2018 ;;		_velocidadEstandar
  2019 ;; This function is called by:
  2020 ;;		_forzarEspejeo
  2021 ;; This function uses a non-reentrant model
  2022 ;;
  2023                           
  2024                           	psect	text8
  2025  002254                     __ptext8:
  2026                           	opt callstack 0
  2027  002254                     _forzarEspejeoDerecha:
  2028                           	opt callstack 21
  2029  002254                     
  2030                           ;main.c: 509:     forzarParoAuto();
  2031  002254  EC3F  F011         	call	_forzarParoAuto	;wreg free
  2032  002258                     
  2033                           ;main.c: 510:     velocidadEstandar();
  2034  002258  ECD9  F010         	call	_velocidadEstandar	;wreg free
  2035  00225C                     
  2036                           ;main.c: 511:     forzarReversa();
  2037  00225C  ECEC  F010         	call	_forzarReversa	;wreg free
  2038  002260                     
  2039                           ;main.c: 512:     forzarGiroDerecha();
  2040  002260  EC0D  F011         	call	_forzarGiroDerecha	;wreg free
  2041  002264                     
  2042                           ;main.c: 513:     forzarReversa();
  2043  002264  ECEC  F010         	call	_forzarReversa	;wreg free
  2044  002268                     
  2045                           ;main.c: 514:     forzarGiroDerecha();
  2046  002268  EC0D  F011         	call	_forzarGiroDerecha	;wreg free
  2047  00226C  0012               	return		;funcret
  2048  00226E                     __end_of_forzarEspejeoDerecha:
  2049                           	opt callstack 0
  2050                           
  2051 ;; *************** function _forzarReversa *****************
  2052 ;; Defined at:
  2053 ;;		line 469 in file "main.c"
  2054 ;; Parameters:    Size  Location     Type
  2055 ;;		None
  2056 ;; Auto vars:     Size  Location     Type
  2057 ;;		None
  2058 ;; Return value:  Size  Location     Type
  2059 ;;                  1    wreg      void 
  2060 ;; Registers used:
  2061 ;;		wreg
  2062 ;; Tracked objects:
  2063 ;;		On entry : 0/0
  2064 ;;		On exit  : 0/0
  2065 ;;		Unchanged: 0/0
  2066 ;; Data sizes:     COMRAM   BANK0   BANK1   BANK2   BANK3   BANK4   BANK5   BANK6   BANK7
  2067 ;;      Params:         0       0       0       0       0       0       0       0       0
  2068 ;;      Locals:         0       0       0       0       0       0       0       0       0
  2069 ;;      Temps:          2       0       0       0       0       0       0       0       0
  2070 ;;      Totals:         2       0       0       0       0       0       0       0       0
  2071 ;;Total ram usage:        2 bytes
  2072 ;; Hardware stack levels used:    1
  2073 ;; Hardware stack levels required when called:    2
  2074 ;; This function calls:
  2075 ;;		Nothing
  2076 ;; This function is called by:
  2077 ;;		_forzarEspejeoIzquierda
  2078 ;;		_forzarEspejeoDerecha
  2079 ;; This function uses a non-reentrant model
  2080 ;;
  2081                           
  2082                           	psect	text9
  2083  0021D8                     __ptext9:
  2084                           	opt callstack 0
  2085  0021D8                     _forzarReversa:
  2086                           	opt callstack 24
  2087  0021D8                     
  2088                           ;main.c: 470:     LATB4 = 0;
  2089  0021D8  988A               	bcf	3978,4,c	;volatile
  2090                           
  2091                           ;main.c: 471:     LATB5 = 1;
  2092  0021DA  8A8A               	bsf	3978,5,c	;volatile
  2093                           
  2094                           ;main.c: 472:     LATB6 = 0;
  2095  0021DC  9C8A               	bcf	3978,6,c	;volatile
  2096                           
  2097                           ;main.c: 473:     LATB7 = 1;
  2098  0021DE  8E8A               	bsf	3978,7,c	;volatile
  2099  0021E0                     
  2100                           ;main.c: 475:     _delay((unsigned long)((400)*(4000000/4000.0)));
  2101  0021E0  0E03               	movlw	3
  2102  0021E2  6E07               	movwf	(??_forzarReversa+1)^0,c
  2103  0021E4  0E08               	movlw	8
  2104  0021E6  6E06               	movwf	??_forzarReversa^0,c
  2105  0021E8  0E77               	movlw	119
  2106  0021EA                     u5037:
  2107  0021EA  2EE8               	decfsz	wreg,f,c
  2108  0021EC  D7FE               	bra	u5037
  2109  0021EE  2E06               	decfsz	??_forzarReversa^0,f,c
  2110  0021F0  D7FC               	bra	u5037
  2111  0021F2  2E07               	decfsz	(??_forzarReversa+1)^0,f,c
  2112  0021F4  D7FA               	bra	u5037
  2113  0021F6  F000               	nop	
  2114  0021F8  0012               	return		;funcret
  2115  0021FA                     __end_of_forzarReversa:
  2116                           	opt callstack 0
  2117                           
  2118 ;; *************** function _forzarParoAuto *****************
  2119 ;; Defined at:
  2120 ;;		line 461 in file "main.c"
  2121 ;; Parameters:    Size  Location     Type
  2122 ;;		None
  2123 ;; Auto vars:     Size  Location     Type
  2124 ;;		None
  2125 ;; Return value:  Size  Location     Type
  2126 ;;                  1    wreg      void 
  2127 ;; Registers used:
  2128 ;;		None
  2129 ;; Tracked objects:
  2130 ;;		On entry : 0/0
  2131 ;;		On exit  : 0/0
  2132 ;;		Unchanged: 0/0
  2133 ;; Data sizes:     COMRAM   BANK0   BANK1   BANK2   BANK3   BANK4   BANK5   BANK6   BANK7
  2134 ;;      Params:         0       0       0       0       0       0       0       0       0
  2135 ;;      Locals:         0       0       0       0       0       0       0       0       0
  2136 ;;      Temps:          0       0       0       0       0       0       0       0       0
  2137 ;;      Totals:         0       0       0       0       0       0       0       0       0
  2138 ;;Total ram usage:        0 bytes
  2139 ;; Hardware stack levels used:    1
  2140 ;; Hardware stack levels required when called:    2
  2141 ;; This function calls:
  2142 ;;		Nothing
  2143 ;; This function is called by:
  2144 ;;		_finalizarRecorrido
  2145 ;;		_forzarEspejeoIzquierda
  2146 ;;		_forzarEspejeoDerecha
  2147 ;;		_main
  2148 ;;		_comportamientoBasico
  2149 ;; This function uses a non-reentrant model
  2150 ;;
  2151                           
  2152                           	psect	text10
  2153  00227E                     __ptext10:
  2154                           	opt callstack 0
  2155  00227E                     _forzarParoAuto:
  2156                           	opt callstack 26
  2157  00227E                     
  2158                           ;main.c: 463:     LATB4 = 0;
  2159  00227E  988A               	bcf	3978,4,c	;volatile
  2160                           
  2161                           ;main.c: 464:     LATB5 = 0;
  2162  002280  9A8A               	bcf	3978,5,c	;volatile
  2163                           
  2164                           ;main.c: 465:     LATB6 = 0;
  2165  002282  9C8A               	bcf	3978,6,c	;volatile
  2166                           
  2167                           ;main.c: 466:     LATB7 = 0;
  2168  002284  9E8A               	bcf	3978,7,c	;volatile
  2169  002286  0012               	return		;funcret
  2170  002288                     __end_of_forzarParoAuto:
  2171                           	opt callstack 0
  2172                           
  2173 ;; *************** function _forzarGiroDerecha *****************
  2174 ;; Defined at:
  2175 ;;		line 488 in file "main.c"
  2176 ;; Parameters:    Size  Location     Type
  2177 ;;		None
  2178 ;; Auto vars:     Size  Location     Type
  2179 ;;		None
  2180 ;; Return value:  Size  Location     Type
  2181 ;;                  1    wreg      void 
  2182 ;; Registers used:
  2183 ;;		wreg
  2184 ;; Tracked objects:
  2185 ;;		On entry : 0/0
  2186 ;;		On exit  : 0/0
  2187 ;;		Unchanged: 0/0
  2188 ;; Data sizes:     COMRAM   BANK0   BANK1   BANK2   BANK3   BANK4   BANK5   BANK6   BANK7
  2189 ;;      Params:         0       0       0       0       0       0       0       0       0
  2190 ;;      Locals:         0       0       0       0       0       0       0       0       0
  2191 ;;      Temps:          2       0       0       0       0       0       0       0       0
  2192 ;;      Totals:         2       0       0       0       0       0       0       0       0
  2193 ;;Total ram usage:        2 bytes
  2194 ;; Hardware stack levels used:    1
  2195 ;; Hardware stack levels required when called:    2
  2196 ;; This function calls:
  2197 ;;		Nothing
  2198 ;; This function is called by:
  2199 ;;		_forzarEspejeoDerecha
  2200 ;; This function uses a non-reentrant model
  2201 ;;
  2202                           
  2203                           	psect	text11
  2204  00221A                     __ptext11:
  2205                           	opt callstack 0
  2206  00221A                     _forzarGiroDerecha:
  2207                           	opt callstack 24
  2208  00221A                     
  2209                           ;main.c: 489:     LATB4 = 1;
  2210  00221A  888A               	bsf	3978,4,c	;volatile
  2211                           
  2212                           ;main.c: 490:     LATB5 = 0;
  2213  00221C  9A8A               	bcf	3978,5,c	;volatile
  2214                           
  2215                           ;main.c: 491:     LATB6 = 0;
  2216  00221E  9C8A               	bcf	3978,6,c	;volatile
  2217                           
  2218                           ;main.c: 492:     LATB7 = 0;
  2219  002220  9E8A               	bcf	3978,7,c	;volatile
  2220  002222                     
  2221                           ;main.c: 493:     _delay((unsigned long)((410)*(4000000/4000.0)));
  2222  002222  0E03               	movlw	3
  2223  002224  6E07               	movwf	(??_forzarGiroDerecha+1)^0,c
  2224  002226  0E15               	movlw	21
  2225  002228  6E06               	movwf	??_forzarGiroDerecha^0,c
  2226  00222A  0E74               	movlw	116
  2227  00222C                     u5047:
  2228  00222C  2EE8               	decfsz	wreg,f,c
  2229  00222E  D7FE               	bra	u5047
  2230  002230  2E06               	decfsz	??_forzarGiroDerecha^0,f,c
  2231  002232  D7FC               	bra	u5047
  2232  002234  2E07               	decfsz	(??_forzarGiroDerecha+1)^0,f,c
  2233  002236  D7FA               	bra	u5047
  2234  002238  0012               	return		;funcret
  2235  00223A                     __end_of_forzarGiroDerecha:
  2236                           	opt callstack 0
  2237                           
  2238 ;; *************** function _PID *****************
  2239 ;; Defined at:
  2240 ;;		line 1152 in file "main.c"
  2241 ;; Parameters:    Size  Location     Type
  2242 ;;		None
  2243 ;; Auto vars:     Size  Location     Type
  2244 ;;  error           2   56[BANK0 ] int 
  2245 ;;  dif             2   54[BANK0 ] int 
  2246 ;;  velocidadDer    2   50[BANK0 ] int 
  2247 ;;  velocidadIzq    2   46[BANK0 ] int 
  2248 ;; Return value:  Size  Location     Type
  2249 ;;                  1    wreg      void 
  2250 ;; Registers used:
  2251 ;;		wreg, status,2, status,0, prodl, prodh, cstack
  2252 ;; Tracked objects:
  2253 ;;		On entry : 0/0
  2254 ;;		On exit  : 0/0
  2255 ;;		Unchanged: 0/0
  2256 ;; Data sizes:     COMRAM   BANK0   BANK1   BANK2   BANK3   BANK4   BANK5   BANK6   BANK7
  2257 ;;      Params:         0       0       0       0       0       0       0       0       0
  2258 ;;      Locals:         0      16       0       0       0       0       0       0       0
  2259 ;;      Temps:          0       2       0       0       0       0       0       0       0
  2260 ;;      Totals:         0      18       0       0       0       0       0       0       0
  2261 ;;Total ram usage:       18 bytes
  2262 ;; Hardware stack levels used:    1
  2263 ;; Hardware stack levels required when called:    5
  2264 ;; This function calls:
  2265 ;;		___fladd
  2266 ;;		___flmul
  2267 ;;		___flsub
  2268 ;;		___fltol
  2269 ;;		___wmul
  2270 ;;		___xxtofl
  2271 ;;		_pwmDuty
  2272 ;;		_roundf
  2273 ;; This function is called by:
  2274 ;;		_probarPID
  2275 ;;		_comportamientoBasico
  2276 ;;		_regresarPuntoPartida
  2277 ;;		_regresarAlCruce
  2278 ;;		_recorrerCaminoEncontrado
  2279 ;; This function uses a non-reentrant model
  2280 ;;
  2281                           
  2282                           	psect	text12
  2283  00104A                     __ptext12:
  2284                           	opt callstack 0
  2285  00104A                     _PID:
  2286                           	opt callstack 24
  2287  00104A                     
  2288                           ;main.c: 1155:     T_INT error = 0;
  2289  00104A  0E00               	movlw	0
  2290  00104C  0100               	movlb	0	; () banked
  2291  00104E  6FD6               	movwf	(PID@error+1)& (0+255),b
  2292  001050  0E00               	movlw	0
  2293  001052  6FD5               	movwf	PID@error& (0+255),b
  2294  001054                     
  2295                           ; BSR set to: 0
  2296                           ;main.c: 1156:     static T_INT difAnt = 0;;main.c: 1159:     dif = sensorIzquierda - se
      +                          nsorDerecha;
  2297  001054  C084  F048         	movff	_sensorDerecha,___flsub@a
  2298  001058  C085  F049         	movff	_sensorDerecha+1,___flsub@a+1
  2299  00105C  C086  F04A         	movff	_sensorDerecha+2,___flsub@a+2
  2300  001060  C087  F04B         	movff	_sensorDerecha+3,___flsub@a+3
  2301  001064  C080  F044         	movff	_sensorIzquierda,___flsub@b
  2302  001068  C081  F045         	movff	_sensorIzquierda+1,___flsub@b+1
  2303  00106C  C082  F046         	movff	_sensorIzquierda+2,___flsub@b+2
  2304  001070  C083  F047         	movff	_sensorIzquierda+3,___flsub@b+3
  2305  001074  EC67  F010         	call	___flsub	;wreg free
  2306  001078  C044  F0AF         	movff	?___flsub,___fltol@f1
  2307  00107C  C045  F0B0         	movff	?___flsub+1,___fltol@f1+1
  2308  001080  C046  F0B1         	movff	?___flsub+2,___fltol@f1+2
  2309  001084  C047  F0B2         	movff	?___flsub+3,___fltol@f1+3
  2310  001088  ECEB  F00C         	call	___fltol	;wreg free
  2311  00108C  C0AF  F0D3         	movff	?___fltol,PID@dif
  2312  001090  C0B0  F0D4         	movff	?___fltol+1,PID@dif+1
  2313  001094                     
  2314                           ;main.c: 1161:     error = roundf(0.9 * (dif) + 0 * (difAnt - dif));
  2315  001094  0E00               	movlw	0
  2316  001096  6E09               	movwf	(___wmul@multiplicand+1)^0,c
  2317  001098  0E00               	movlw	0
  2318  00109A  6E08               	movwf	___wmul@multiplicand^0,c
  2319  00109C  0100               	movlb	0	; () banked
  2320  00109E  51D3               	movf	PID@dif& (0+255),w,b
  2321  0010A0  5D88               	subwf	PID@difAnt& (0+255),w,b
  2322  0010A2  6E06               	movwf	___wmul@multiplier^0,c
  2323  0010A4  51D4               	movf	(PID@dif+1)& (0+255),w,b
  2324  0010A6  5989               	subwfb	(PID@difAnt+1)& (0+255),w,b
  2325  0010A8  6E07               	movwf	(___wmul@multiplier+1)^0,c
  2326  0010AA  ECC6  F010         	call	___wmul	;wreg free
  2327  0010AE  C006  F00D         	movff	?___wmul,___xxtofl@val
  2328  0010B2  C007  F00E         	movff	?___wmul+1,___xxtofl@val+1
  2329  0010B6  0E00               	movlw	0
  2330  0010B8  BE0E               	btfsc	(___xxtofl@val+1)^0,7,c
  2331  0010BA  0EFF               	movlw	-1
  2332  0010BC  6E0F               	movwf	(___xxtofl@val+2)^0,c
  2333  0010BE  6E10               	movwf	(___xxtofl@val+3)^0,c
  2334  0010C0  0E01               	movlw	1
  2335  0010C2  EC1C  F00A         	call	___xxtofl
  2336  0010C6  C00D  F038         	movff	?___xxtofl,___fladd@a
  2337  0010CA  C00E  F039         	movff	?___xxtofl+1,___fladd@a+1
  2338  0010CE  C00F  F03A         	movff	?___xxtofl+2,___fladd@a+2
  2339  0010D2  C010  F03B         	movff	?___xxtofl+3,___fladd@a+3
  2340  0010D6  0E66               	movlw	102
  2341  0010D8  6E1F               	movwf	___flmul@a^0,c
  2342  0010DA  0E66               	movlw	102
  2343  0010DC  6E20               	movwf	(___flmul@a+1)^0,c
  2344  0010DE  0E66               	movlw	102
  2345  0010E0  6E21               	movwf	(___flmul@a+2)^0,c
  2346  0010E2  0E3F               	movlw	63
  2347  0010E4  6E22               	movwf	(___flmul@a+3)^0,c
  2348  0010E6  C0D3  F00D         	movff	PID@dif,___xxtofl@val
  2349  0010EA  C0D4  F00E         	movff	PID@dif+1,___xxtofl@val+1
  2350  0010EE  0E00               	movlw	0
  2351  0010F0  BE0E               	btfsc	(___xxtofl@val+1)^0,7,c
  2352  0010F2  0EFF               	movlw	-1
  2353  0010F4  6E0F               	movwf	(___xxtofl@val+2)^0,c
  2354  0010F6  6E10               	movwf	(___xxtofl@val+3)^0,c
  2355  0010F8  0E01               	movlw	1
  2356  0010FA  EC1C  F00A         	call	___xxtofl
  2357  0010FE  C00D  F01B         	movff	?___xxtofl,___flmul@b
  2358  001102  C00E  F01C         	movff	?___xxtofl+1,___flmul@b+1
  2359  001106  C00F  F01D         	movff	?___xxtofl+2,___flmul@b+2
  2360  00110A  C010  F01E         	movff	?___xxtofl+3,___flmul@b+3
  2361  00110E  EC69  F002         	call	___flmul	;wreg free
  2362  001112  C01B  F034         	movff	?___flmul,___fladd@b
  2363  001116  C01C  F035         	movff	?___flmul+1,___fladd@b+1
  2364  00111A  C01D  F036         	movff	?___flmul+2,___fladd@b+2
  2365  00111E  C01E  F037         	movff	?___flmul+3,___fladd@b+3
  2366  001122  EC09  F000         	call	___fladd	;wreg free
  2367  001126  C034  F0C7         	movff	?___fladd,_PID$1507
  2368  00112A  C035  F0C8         	movff	?___fladd+1,_PID$1507+1
  2369  00112E  C036  F0C9         	movff	?___fladd+2,_PID$1507+2
  2370  001132  C037  F0CA         	movff	?___fladd+3,_PID$1507+3
  2371  001136                     
  2372                           ;main.c: 1161:     error = roundf(0.9 * (dif) + 0 * (difAnt - dif));
  2373  001136  C0C7  F04C         	movff	_PID$1507,roundf@x
  2374  00113A  C0C8  F04D         	movff	_PID$1507+1,roundf@x+1
  2375  00113E  C0C9  F04E         	movff	_PID$1507+2,roundf@x+2
  2376  001142  C0CA  F04F         	movff	_PID$1507+3,roundf@x+3
  2377  001146  EC7E  F004         	call	_roundf	;wreg free
  2378  00114A  C04C  F0AF         	movff	?_roundf,___fltol@f1
  2379  00114E  C04D  F0B0         	movff	?_roundf+1,___fltol@f1+1
  2380  001152  C04E  F0B1         	movff	?_roundf+2,___fltol@f1+2
  2381  001156  C04F  F0B2         	movff	?_roundf+3,___fltol@f1+3
  2382  00115A  ECEB  F00C         	call	___fltol	;wreg free
  2383  00115E  C0AF  F0D5         	movff	?___fltol,PID@error
  2384  001162  C0B0  F0D6         	movff	?___fltol+1,PID@error+1
  2385  001166                     
  2386                           ;main.c: 1163:     difAnt = dif;
  2387  001166  C0D3  F088         	movff	PID@dif,PID@difAnt
  2388  00116A  C0D4  F089         	movff	PID@dif+1,PID@difAnt+1
  2389  00116E                     
  2390                           ;main.c: 1165:     T_INT velocidadIzquierda = ((100 - error)<(0)?(0):((100 - error)>(100
      +                          )?(100):(100 - error)));
  2391  00116E  0E64               	movlw	100
  2392  001170  0100               	movlb	0	; () banked
  2393  001172  6FC5               	movwf	??_PID& (0+255),b
  2394  001174  0E00               	movlw	0
  2395  001176  6FC6               	movwf	(??_PID+1)& (0+255),b
  2396  001178  51D5               	movf	PID@error& (0+255),w,b
  2397  00117A  5DC5               	subwf	??_PID& (0+255),w,b
  2398  00117C  51D6               	movf	(PID@error+1)& (0+255),w,b
  2399  00117E  59C6               	subwfb	(??_PID+1)& (0+255),w,b
  2400  001180  0B80               	andlw	128
  2401  001182  A4D8               	btfss	status,2,c
  2402  001184  EFC6  F008         	goto	u4611
  2403  001188  EFC8  F008         	goto	u4610
  2404  00118C                     u4611:
  2405  00118C  EFF2  F008         	goto	l5360
  2406  001190                     u4610:
  2407  001190                     
  2408                           ; BSR set to: 0
  2409  001190  0E64               	movlw	100
  2410  001192  6FC5               	movwf	??_PID& (0+255),b
  2411  001194  0E00               	movlw	0
  2412  001196  6FC6               	movwf	(??_PID+1)& (0+255),b
  2413  001198  51D5               	movf	PID@error& (0+255),w,b
  2414  00119A  5FC5               	subwf	??_PID& (0+255),f,b
  2415  00119C  51D6               	movf	(PID@error+1)& (0+255),w,b
  2416  00119E  5BC6               	subwfb	(??_PID+1)& (0+255),f,b
  2417  0011A0  BFC6               	btfsc	(??_PID+1)& (0+255),7,b
  2418  0011A2  EFDE  F008         	goto	u4620
  2419  0011A6  51C6               	movf	(??_PID+1)& (0+255),w,b
  2420  0011A8  E107               	bnz	u4621
  2421  0011AA  0E65               	movlw	101
  2422  0011AC  5DC5               	subwf	??_PID& (0+255),w,b
  2423  0011AE  B0D8               	btfsc	status,0,c
  2424  0011B0  EFDC  F008         	goto	u4621
  2425  0011B4  EFDE  F008         	goto	u4620
  2426  0011B8                     u4621:
  2427  0011B8  EFE8  F008         	goto	l5356
  2428  0011BC                     u4620:
  2429  0011BC                     
  2430                           ; BSR set to: 0
  2431  0011BC  51D5               	movf	PID@error& (0+255),w,b
  2432  0011BE  0864               	sublw	100
  2433  0011C0  6FCD               	movwf	_PID$741& (0+255),b
  2434  0011C2  51D6               	movf	(PID@error+1)& (0+255),w,b
  2435  0011C4  A0D8               	btfss	status,0,c
  2436  0011C6  2AE8               	incf	wreg,f,c
  2437  0011C8  0800               	sublw	0
  2438  0011CA  6FCE               	movwf	(_PID$741+1)& (0+255),b
  2439  0011CC  EFEC  F008         	goto	l5358
  2440  0011D0                     l5356:
  2441                           
  2442                           ; BSR set to: 0
  2443  0011D0  0E00               	movlw	0
  2444  0011D2  6FCE               	movwf	(_PID$741+1)& (0+255),b
  2445  0011D4  0E64               	movlw	100
  2446  0011D6  6FCD               	movwf	_PID$741& (0+255),b
  2447  0011D8                     l5358:
  2448                           
  2449                           ; BSR set to: 0
  2450  0011D8  C0CD  F0CB         	movff	_PID$741,PID@velocidadIzquierda
  2451  0011DC  C0CE  F0CC         	movff	_PID$741+1,PID@velocidadIzquierda+1
  2452  0011E0  EFF6  F008         	goto	l5362
  2453  0011E4                     l5360:
  2454                           
  2455                           ; BSR set to: 0
  2456  0011E4  0E00               	movlw	0
  2457  0011E6  6FCC               	movwf	(PID@velocidadIzquierda+1)& (0+255),b
  2458  0011E8  0E00               	movlw	0
  2459  0011EA  6FCB               	movwf	PID@velocidadIzquierda& (0+255),b
  2460  0011EC                     l5362:
  2461                           
  2462                           ; BSR set to: 0
  2463                           ;main.c: 1166:     T_INT velocidadDerecha = ((100 + error)<(0)?(0):((100 + error)>(100)?
      +                          (100):(100 + error)));
  2464  0011EC  0E64               	movlw	100
  2465  0011EE  25D5               	addwf	PID@error& (0+255),w,b
  2466  0011F0  0E00               	movlw	0
  2467  0011F2  21D6               	addwfc	(PID@error+1)& (0+255),w,b
  2468  0011F4  0B80               	andlw	128
  2469  0011F6  A4D8               	btfss	status,2,c
  2470  0011F8  EF00  F009         	goto	u4631
  2471  0011FC  EF02  F009         	goto	u4630
  2472  001200                     u4631:
  2473  001200  EF28  F009         	goto	l5372
  2474  001204                     u4630:
  2475  001204                     
  2476                           ; BSR set to: 0
  2477  001204  0E64               	movlw	100
  2478  001206  25D5               	addwf	PID@error& (0+255),w,b
  2479  001208  6FC5               	movwf	??_PID& (0+255),b
  2480  00120A  0E00               	movlw	0
  2481  00120C  21D6               	addwfc	(PID@error+1)& (0+255),w,b
  2482  00120E  6FC6               	movwf	(??_PID+1)& (0+255),b
  2483  001210  BFC6               	btfsc	(??_PID+1)& (0+255),7,b
  2484  001212  EF16  F009         	goto	u4640
  2485  001216  51C6               	movf	(??_PID+1)& (0+255),w,b
  2486  001218  E107               	bnz	u4641
  2487  00121A  0E65               	movlw	101
  2488  00121C  5DC5               	subwf	??_PID& (0+255),w,b
  2489  00121E  B0D8               	btfsc	status,0,c
  2490  001220  EF14  F009         	goto	u4641
  2491  001224  EF16  F009         	goto	u4640
  2492  001228                     u4641:
  2493  001228  EF1E  F009         	goto	l5368
  2494  00122C                     u4640:
  2495  00122C                     
  2496                           ; BSR set to: 0
  2497  00122C  0E64               	movlw	100
  2498  00122E  25D5               	addwf	PID@error& (0+255),w,b
  2499  001230  6FD1               	movwf	_PID$743& (0+255),b
  2500  001232  0E00               	movlw	0
  2501  001234  21D6               	addwfc	(PID@error+1)& (0+255),w,b
  2502  001236  6FD2               	movwf	(_PID$743+1)& (0+255),b
  2503  001238  EF22  F009         	goto	l5370
  2504  00123C                     l5368:
  2505                           
  2506                           ; BSR set to: 0
  2507  00123C  0E00               	movlw	0
  2508  00123E  6FD2               	movwf	(_PID$743+1)& (0+255),b
  2509  001240  0E64               	movlw	100
  2510  001242  6FD1               	movwf	_PID$743& (0+255),b
  2511  001244                     l5370:
  2512                           
  2513                           ; BSR set to: 0
  2514  001244  C0D1  F0CF         	movff	_PID$743,PID@velocidadDerecha
  2515  001248  C0D2  F0D0         	movff	_PID$743+1,PID@velocidadDerecha+1
  2516  00124C  EF2C  F009         	goto	l5374
  2517  001250                     l5372:
  2518                           
  2519                           ; BSR set to: 0
  2520  001250  0E00               	movlw	0
  2521  001252  6FD0               	movwf	(PID@velocidadDerecha+1)& (0+255),b
  2522  001254  0E00               	movlw	0
  2523  001256  6FCF               	movwf	PID@velocidadDerecha& (0+255),b
  2524  001258                     l5374:
  2525                           
  2526                           ; BSR set to: 0
  2527                           ;main.c: 1168:     pwmDuty(velocidadIzquierda, 1);
  2528  001258  C0CB  F0B9         	movff	PID@velocidadIzquierda,pwmDuty@cicloTrabajo
  2529  00125C  C0CC  F0BA         	movff	PID@velocidadIzquierda+1,pwmDuty@cicloTrabajo+1
  2530  001260  0E01               	movlw	1
  2531  001262  6FBB               	movwf	pwmDuty@channel& (0+255),b
  2532  001264  EC3E  F009         	call	_pwmDuty	;wreg free
  2533  001268                     
  2534                           ;main.c: 1169:     pwmDuty(velocidadDerecha, 2);
  2535  001268  C0CF  F0B9         	movff	PID@velocidadDerecha,pwmDuty@cicloTrabajo
  2536  00126C  C0D0  F0BA         	movff	PID@velocidadDerecha+1,pwmDuty@cicloTrabajo+1
  2537  001270  0E02               	movlw	2
  2538  001272  0100               	movlb	0	; () banked
  2539  001274  6FBB               	movwf	pwmDuty@channel& (0+255),b
  2540  001276  EC3E  F009         	call	_pwmDuty	;wreg free
  2541  00127A  0012               	return		;funcret
  2542  00127C                     __end_of_PID:
  2543                           	opt callstack 0
  2544                           
  2545 ;; *************** function _roundf *****************
  2546 ;; Defined at:
  2547 ;;		line 12 in file "C:\Program Files (x86)\Microchip\xc8\v2.10\pic\sources\c99\common\roundf.c"
  2548 ;; Parameters:    Size  Location     Type
  2549 ;;  x               4   75[COMRAM] float 
  2550 ;; Auto vars:     Size  Location     Type
  2551 ;;  y               4   14[BANK0 ] float 
  2552 ;;  u               4   10[BANK0 ] struct .
  2553 ;;  e               2    4[BANK0 ] int 
  2554 ;; Return value:  Size  Location     Type
  2555 ;;                  4   75[COMRAM] float 
  2556 ;; Registers used:
  2557 ;;		wreg, status,2, status,0, prodl, prodh, cstack
  2558 ;; Tracked objects:
  2559 ;;		On entry : 0/0
  2560 ;;		On exit  : 0/0
  2561 ;;		Unchanged: 0/0
  2562 ;; Data sizes:     COMRAM   BANK0   BANK1   BANK2   BANK3   BANK4   BANK5   BANK6   BANK7
  2563 ;;      Params:         4       0       0       0       0       0       0       0       0
  2564 ;;      Locals:         0      18       0       0       0       0       0       0       0
  2565 ;;      Temps:          4       0       0       0       0       0       0       0       0
  2566 ;;      Totals:         8      18       0       0       0       0       0       0       0
  2567 ;;Total ram usage:       26 bytes
  2568 ;; Hardware stack levels used:    1
  2569 ;; Hardware stack levels required when called:    4
  2570 ;; This function calls:
  2571 ;;		___fladd
  2572 ;;		___flge
  2573 ;;		___flmul
  2574 ;;		___flneg
  2575 ;;		___flsub
  2576 ;; This function is called by:
  2577 ;;		_PID
  2578 ;; This function uses a non-reentrant model
  2579 ;;
  2580                           
  2581                           	psect	text13
  2582  0008FC                     __ptext13:
  2583                           	opt callstack 0
  2584  0008FC                     _roundf:
  2585                           	opt callstack 24
  2586  0008FC  C060  F0A7         	movff	roundf@F525,roundf@u
  2587  000900  C061  F0A8         	movff	roundf@F525+1,roundf@u+1
  2588  000904  C062  F0A9         	movff	roundf@F525+2,roundf@u+2
  2589  000908  C063  F0AA         	movff	roundf@F525+3,roundf@u+3
  2590  00090C  C04C  F0A7         	movff	roundf@x,roundf@u
  2591  000910  C04D  F0A8         	movff	roundf@x+1,roundf@u+1
  2592  000914  C04E  F0A9         	movff	roundf@x+2,roundf@u+2
  2593  000918  C04F  F0AA         	movff	roundf@x+3,roundf@u+3
  2594  00091C  C0A7  F050         	movff	roundf@u,??_roundf
  2595  000920  C0A8  F051         	movff	roundf@u+1,??_roundf+1
  2596  000924  C0A9  F052         	movff	roundf@u+2,??_roundf+2
  2597  000928  C0AA  F053         	movff	roundf@u+3,??_roundf+3
  2598  00092C  0E18               	movlw	24
  2599  00092E  EF9E  F004         	goto	u3550
  2600  000932                     u3555:
  2601  000932  90D8               	bcf	status,0,c
  2602  000934  3253               	rrcf	(??_roundf+3)^0,f,c
  2603  000936  3252               	rrcf	(??_roundf+2)^0,f,c
  2604  000938  3251               	rrcf	(??_roundf+1)^0,f,c
  2605  00093A  3250               	rrcf	??_roundf^0,f,c
  2606  00093C                     u3550:
  2607  00093C  2EE8               	decfsz	wreg,f,c
  2608  00093E  EF99  F004         	goto	u3555
  2609  000942  5050               	movf	??_roundf^0,w,c
  2610  000944  0100               	movlb	0	; () banked
  2611  000946  6FA1               	movwf	roundf@e& (0+255),b
  2612  000948  6BA2               	clrf	(roundf@e+1)& (0+255),b
  2613  00094A  BFA2               	btfsc	(roundf@e+1)& (0+255),7,b
  2614  00094C  EFB1  F004         	goto	u3561
  2615  000950  51A2               	movf	(roundf@e+1)& (0+255),w,b
  2616  000952  E109               	bnz	u3560
  2617  000954  0E96               	movlw	150
  2618  000956  5DA1               	subwf	roundf@e& (0+255),w,b
  2619  000958  A0D8               	btfss	status,0,c
  2620  00095A  EFB1  F004         	goto	u3561
  2621  00095E  EFB3  F004         	goto	u3560
  2622  000962                     u3561:
  2623  000962  EFBD  F004         	goto	l4102
  2624  000966                     u3560:
  2625  000966                     
  2626                           ; BSR set to: 0
  2627  000966  C04C  F04C         	movff	roundf@x,?_roundf
  2628  00096A  C04D  F04D         	movff	roundf@x+1,?_roundf+1
  2629  00096E  C04E  F04E         	movff	roundf@x+2,?_roundf+2
  2630  000972  C04F  F04F         	movff	roundf@x+3,?_roundf+3
  2631  000976  EF56  F006         	goto	l1391
  2632  00097A                     l4102:
  2633                           
  2634                           ; BSR set to: 0
  2635  00097A  C0A7  F050         	movff	roundf@u,??_roundf
  2636  00097E  C0A8  F051         	movff	roundf@u+1,??_roundf+1
  2637  000982  C0A9  F052         	movff	roundf@u+2,??_roundf+2
  2638  000986  C0AA  F053         	movff	roundf@u+3,??_roundf+3
  2639  00098A  0E20               	movlw	32
  2640  00098C  EFCD  F004         	goto	u3570
  2641  000990                     u3575:
  2642  000990  90D8               	bcf	status,0,c
  2643  000992  3253               	rrcf	(??_roundf+3)^0,f,c
  2644  000994  3252               	rrcf	(??_roundf+2)^0,f,c
  2645  000996  3251               	rrcf	(??_roundf+1)^0,f,c
  2646  000998  3250               	rrcf	??_roundf^0,f,c
  2647  00099A                     u3570:
  2648  00099A  2EE8               	decfsz	wreg,f,c
  2649  00099C  EFC8  F004         	goto	u3575
  2650  0009A0  5050               	movf	??_roundf^0,w,c
  2651  0009A2  1051               	iorwf	(??_roundf+1)^0,w,c
  2652  0009A4  1052               	iorwf	(??_roundf+2)^0,w,c
  2653  0009A6  1053               	iorwf	(??_roundf+3)^0,w,c
  2654  0009A8  B4D8               	btfsc	status,2,c
  2655  0009AA  EFD9  F004         	goto	u3581
  2656  0009AE  EFDB  F004         	goto	u3580
  2657  0009B2                     u3581:
  2658  0009B2  EFED  F004         	goto	l4106
  2659  0009B6                     u3580:
  2660  0009B6                     
  2661                           ; BSR set to: 0
  2662  0009B6  C04C  F006         	movff	roundf@x,___flneg@f1
  2663  0009BA  C04D  F007         	movff	roundf@x+1,___flneg@f1+1
  2664  0009BE  C04E  F008         	movff	roundf@x+2,___flneg@f1+2
  2665  0009C2  C04F  F009         	movff	roundf@x+3,___flneg@f1+3
  2666  0009C6  ECAA  F010         	call	___flneg	;wreg free
  2667  0009CA  C006  F04C         	movff	?___flneg,roundf@x
  2668  0009CE  C007  F04D         	movff	?___flneg+1,roundf@x+1
  2669  0009D2  C008  F04E         	movff	?___flneg+2,roundf@x+2
  2670  0009D6  C009  F04F         	movff	?___flneg+3,roundf@x+3
  2671  0009DA                     l4106:
  2672  0009DA  0100               	movlb	0	; () banked
  2673  0009DC  BFA2               	btfsc	(roundf@e+1)& (0+255),7,b
  2674  0009DE  EFFC  F004         	goto	u3590
  2675  0009E2  51A2               	movf	(roundf@e+1)& (0+255),w,b
  2676  0009E4  E107               	bnz	u3591
  2677  0009E6  0E7E               	movlw	126
  2678  0009E8  5DA1               	subwf	roundf@e& (0+255),w,b
  2679  0009EA  B0D8               	btfsc	status,0,c
  2680  0009EC  EFFA  F004         	goto	u3591
  2681  0009F0  EFFC  F004         	goto	u3590
  2682  0009F4                     u3591:
  2683  0009F4  EF18  F005         	goto	l4112
  2684  0009F8                     u3590:
  2685  0009F8                     
  2686                           ; BSR set to: 0
  2687  0009F8  C0A7  F01B         	movff	roundf@u,___flmul@b
  2688  0009FC  C0A8  F01C         	movff	roundf@u+1,___flmul@b+1
  2689  000A00  C0A9  F01D         	movff	roundf@u+2,___flmul@b+2
  2690  000A04  C0AA  F01E         	movff	roundf@u+3,___flmul@b+3
  2691  000A08  0E00               	movlw	0
  2692  000A0A  6E1F               	movwf	___flmul@a^0,c
  2693  000A0C  0E00               	movlw	0
  2694  000A0E  6E20               	movwf	(___flmul@a+1)^0,c
  2695  000A10  0E00               	movlw	0
  2696  000A12  6E21               	movwf	(___flmul@a+2)^0,c
  2697  000A14  0E00               	movlw	0
  2698  000A16  6E22               	movwf	(___flmul@a+3)^0,c
  2699  000A18  EC69  F002         	call	___flmul	;wreg free
  2700  000A1C  C01B  F04C         	movff	?___flmul,?_roundf
  2701  000A20  C01C  F04D         	movff	?___flmul+1,?_roundf+1
  2702  000A24  C01D  F04E         	movff	?___flmul+2,?_roundf+2
  2703  000A28  C01E  F04F         	movff	?___flmul+3,?_roundf+3
  2704  000A2C  EF56  F006         	goto	l1391
  2705  000A30                     l4112:
  2706                           
  2707                           ; BSR set to: 0
  2708  000A30  0E00               	movlw	0
  2709  000A32  6E38               	movwf	___fladd@a^0,c
  2710  000A34  0E00               	movlw	0
  2711  000A36  6E39               	movwf	(___fladd@a+1)^0,c
  2712  000A38  0E00               	movlw	0
  2713  000A3A  6E3A               	movwf	(___fladd@a+2)^0,c
  2714  000A3C  0E4B               	movlw	75
  2715  000A3E  6E3B               	movwf	(___fladd@a+3)^0,c
  2716  000A40  C04C  F034         	movff	roundf@x,___fladd@b
  2717  000A44  C04D  F035         	movff	roundf@x+1,___fladd@b+1
  2718  000A48  C04E  F036         	movff	roundf@x+2,___fladd@b+2
  2719  000A4C  C04F  F037         	movff	roundf@x+3,___fladd@b+3
  2720  000A50  EC09  F000         	call	___fladd	;wreg free
  2721  000A54  C034  F0A3         	movff	?___fladd,_roundf$1508
  2722  000A58  C035  F0A4         	movff	?___fladd+1,_roundf$1508+1
  2723  000A5C  C036  F0A5         	movff	?___fladd+2,_roundf$1508+2
  2724  000A60  C037  F0A6         	movff	?___fladd+3,_roundf$1508+3
  2725  000A64  0E00               	movlw	0
  2726  000A66  6E38               	movwf	___fladd@a^0,c
  2727  000A68  0E00               	movlw	0
  2728  000A6A  6E39               	movwf	(___fladd@a+1)^0,c
  2729  000A6C  0E00               	movlw	0
  2730  000A6E  6E3A               	movwf	(___fladd@a+2)^0,c
  2731  000A70  0ECB               	movlw	203
  2732  000A72  6E3B               	movwf	(___fladd@a+3)^0,c
  2733  000A74  C0A3  F034         	movff	_roundf$1508,___fladd@b
  2734  000A78  C0A4  F035         	movff	_roundf$1508+1,___fladd@b+1
  2735  000A7C  C0A5  F036         	movff	_roundf$1508+2,___fladd@b+2
  2736  000A80  C0A6  F037         	movff	_roundf$1508+3,___fladd@b+3
  2737  000A84  EC09  F000         	call	___fladd	;wreg free
  2738  000A88  C034  F09D         	movff	?___fladd,_roundf$1509
  2739  000A8C  C035  F09E         	movff	?___fladd+1,_roundf$1509+1
  2740  000A90  C036  F09F         	movff	?___fladd+2,_roundf$1509+2
  2741  000A94  C037  F0A0         	movff	?___fladd+3,_roundf$1509+3
  2742  000A98  C09D  F044         	movff	_roundf$1509,___flsub@b
  2743  000A9C  C09E  F045         	movff	_roundf$1509+1,___flsub@b+1
  2744  000AA0  C09F  F046         	movff	_roundf$1509+2,___flsub@b+2
  2745  000AA4  C0A0  F047         	movff	_roundf$1509+3,___flsub@b+3
  2746  000AA8  C04C  F048         	movff	roundf@x,___flsub@a
  2747  000AAC  C04D  F049         	movff	roundf@x+1,___flsub@a+1
  2748  000AB0  C04E  F04A         	movff	roundf@x+2,___flsub@a+2
  2749  000AB4  C04F  F04B         	movff	roundf@x+3,___flsub@a+3
  2750  000AB8  EC67  F010         	call	___flsub	;wreg free
  2751  000ABC  C044  F0AB         	movff	?___flsub,roundf@y
  2752  000AC0  C045  F0AC         	movff	?___flsub+1,roundf@y+1
  2753  000AC4  C046  F0AD         	movff	?___flsub+2,roundf@y+2
  2754  000AC8  C047  F0AE         	movff	?___flsub+3,roundf@y+3
  2755  000ACC  0E00               	movlw	0
  2756  000ACE  6E06               	movwf	___flge@ff1^0,c
  2757  000AD0  0E00               	movlw	0
  2758  000AD2  6E07               	movwf	(___flge@ff1+1)^0,c
  2759  000AD4  0E00               	movlw	0
  2760  000AD6  6E08               	movwf	(___flge@ff1+2)^0,c
  2761  000AD8  0E3F               	movlw	63
  2762  000ADA  6E09               	movwf	(___flge@ff1+3)^0,c
  2763  000ADC  C0AB  F00A         	movff	roundf@y,___flge@ff2
  2764  000AE0  C0AC  F00B         	movff	roundf@y+1,___flge@ff2+1
  2765  000AE4  C0AD  F00C         	movff	roundf@y+2,___flge@ff2+2
  2766  000AE8  C0AE  F00D         	movff	roundf@y+3,___flge@ff2+3
  2767  000AEC  EC6F  F00D         	call	___flge	;wreg free
  2768  000AF0  B0D8               	btfsc	status,0,c
  2769  000AF2  EF7D  F005         	goto	u3601
  2770  000AF6  EF7F  F005         	goto	u3600
  2771  000AFA                     u3601:
  2772  000AFA  EFB5  F005         	goto	l4116
  2773  000AFE                     u3600:
  2774  000AFE  C04C  F038         	movff	roundf@x,___fladd@a
  2775  000B02  C04D  F039         	movff	roundf@x+1,___fladd@a+1
  2776  000B06  C04E  F03A         	movff	roundf@x+2,___fladd@a+2
  2777  000B0A  C04F  F03B         	movff	roundf@x+3,___fladd@a+3
  2778  000B0E  C0AB  F034         	movff	roundf@y,___fladd@b
  2779  000B12  C0AC  F035         	movff	roundf@y+1,___fladd@b+1
  2780  000B16  C0AD  F036         	movff	roundf@y+2,___fladd@b+2
  2781  000B1A  C0AE  F037         	movff	roundf@y+3,___fladd@b+3
  2782  000B1E  EC09  F000         	call	___fladd	;wreg free
  2783  000B22  C034  F0A3         	movff	?___fladd,_roundf$1508
  2784  000B26  C035  F0A4         	movff	?___fladd+1,_roundf$1508+1
  2785  000B2A  C036  F0A5         	movff	?___fladd+2,_roundf$1508+2
  2786  000B2E  C037  F0A6         	movff	?___fladd+3,_roundf$1508+3
  2787  000B32  C0A3  F034         	movff	_roundf$1508,___fladd@b
  2788  000B36  C0A4  F035         	movff	_roundf$1508+1,___fladd@b+1
  2789  000B3A  C0A5  F036         	movff	_roundf$1508+2,___fladd@b+2
  2790  000B3E  C0A6  F037         	movff	_roundf$1508+3,___fladd@b+3
  2791  000B42  0E00               	movlw	0
  2792  000B44  6E38               	movwf	___fladd@a^0,c
  2793  000B46  0E00               	movlw	0
  2794  000B48  6E39               	movwf	(___fladd@a+1)^0,c
  2795  000B4A  0E80               	movlw	128
  2796  000B4C  6E3A               	movwf	(___fladd@a+2)^0,c
  2797  000B4E  0EBF               	movlw	191
  2798  000B50  6E3B               	movwf	(___fladd@a+3)^0,c
  2799  000B52  EC09  F000         	call	___fladd	;wreg free
  2800  000B56  C034  F0AB         	movff	?___fladd,roundf@y
  2801  000B5A  C035  F0AC         	movff	?___fladd+1,roundf@y+1
  2802  000B5E  C036  F0AD         	movff	?___fladd+2,roundf@y+2
  2803  000B62  C037  F0AE         	movff	?___fladd+3,roundf@y+3
  2804  000B66  EF1E  F006         	goto	l4122
  2805  000B6A                     l4116:
  2806  000B6A  0E00               	movlw	0
  2807  000B6C  6E06               	movwf	___flge@ff1^0,c
  2808  000B6E  0E00               	movlw	0
  2809  000B70  6E07               	movwf	(___flge@ff1+1)^0,c
  2810  000B72  0E00               	movlw	0
  2811  000B74  6E08               	movwf	(___flge@ff1+2)^0,c
  2812  000B76  0EBF               	movlw	191
  2813  000B78  6E09               	movwf	(___flge@ff1+3)^0,c
  2814  000B7A  C0AB  F00A         	movff	roundf@y,___flge@ff2
  2815  000B7E  C0AC  F00B         	movff	roundf@y+1,___flge@ff2+1
  2816  000B82  C0AD  F00C         	movff	roundf@y+2,___flge@ff2+2
  2817  000B86  C0AE  F00D         	movff	roundf@y+3,___flge@ff2+3
  2818  000B8A  EC6F  F00D         	call	___flge	;wreg free
  2819  000B8E  A0D8               	btfss	status,0,c
  2820  000B90  EFCC  F005         	goto	u3611
  2821  000B94  EFCE  F005         	goto	u3610
  2822  000B98                     u3611:
  2823  000B98  EF04  F006         	goto	l4120
  2824  000B9C                     u3610:
  2825  000B9C  C04C  F038         	movff	roundf@x,___fladd@a
  2826  000BA0  C04D  F039         	movff	roundf@x+1,___fladd@a+1
  2827  000BA4  C04E  F03A         	movff	roundf@x+2,___fladd@a+2
  2828  000BA8  C04F  F03B         	movff	roundf@x+3,___fladd@a+3
  2829  000BAC  C0AB  F034         	movff	roundf@y,___fladd@b
  2830  000BB0  C0AC  F035         	movff	roundf@y+1,___fladd@b+1
  2831  000BB4  C0AD  F036         	movff	roundf@y+2,___fladd@b+2
  2832  000BB8  C0AE  F037         	movff	roundf@y+3,___fladd@b+3
  2833  000BBC  EC09  F000         	call	___fladd	;wreg free
  2834  000BC0  C034  F0A3         	movff	?___fladd,_roundf$1508
  2835  000BC4  C035  F0A4         	movff	?___fladd+1,_roundf$1508+1
  2836  000BC8  C036  F0A5         	movff	?___fladd+2,_roundf$1508+2
  2837  000BCC  C037  F0A6         	movff	?___fladd+3,_roundf$1508+3
  2838  000BD0  C0A3  F034         	movff	_roundf$1508,___fladd@b
  2839  000BD4  C0A4  F035         	movff	_roundf$1508+1,___fladd@b+1
  2840  000BD8  C0A5  F036         	movff	_roundf$1508+2,___fladd@b+2
  2841  000BDC  C0A6  F037         	movff	_roundf$1508+3,___fladd@b+3
  2842  000BE0  0E00               	movlw	0
  2843  000BE2  6E38               	movwf	___fladd@a^0,c
  2844  000BE4  0E00               	movlw	0
  2845  000BE6  6E39               	movwf	(___fladd@a+1)^0,c
  2846  000BE8  0E80               	movlw	128
  2847  000BEA  6E3A               	movwf	(___fladd@a+2)^0,c
  2848  000BEC  0E3F               	movlw	63
  2849  000BEE  6E3B               	movwf	(___fladd@a+3)^0,c
  2850  000BF0  EC09  F000         	call	___fladd	;wreg free
  2851  000BF4  C034  F0AB         	movff	?___fladd,roundf@y
  2852  000BF8  C035  F0AC         	movff	?___fladd+1,roundf@y+1
  2853  000BFC  C036  F0AD         	movff	?___fladd+2,roundf@y+2
  2854  000C00  C037  F0AE         	movff	?___fladd+3,roundf@y+3
  2855  000C04  EF1E  F006         	goto	l4122
  2856  000C08                     l4120:
  2857  000C08  C0AB  F034         	movff	roundf@y,___fladd@b
  2858  000C0C  C0AC  F035         	movff	roundf@y+1,___fladd@b+1
  2859  000C10  C0AD  F036         	movff	roundf@y+2,___fladd@b+2
  2860  000C14  C0AE  F037         	movff	roundf@y+3,___fladd@b+3
  2861  000C18  C04C  F038         	movff	roundf@x,___fladd@a
  2862  000C1C  C04D  F039         	movff	roundf@x+1,___fladd@a+1
  2863  000C20  C04E  F03A         	movff	roundf@x+2,___fladd@a+2
  2864  000C24  C04F  F03B         	movff	roundf@x+3,___fladd@a+3
  2865  000C28  EC09  F000         	call	___fladd	;wreg free
  2866  000C2C  C034  F0AB         	movff	?___fladd,roundf@y
  2867  000C30  C035  F0AC         	movff	?___fladd+1,roundf@y+1
  2868  000C34  C036  F0AD         	movff	?___fladd+2,roundf@y+2
  2869  000C38  C037  F0AE         	movff	?___fladd+3,roundf@y+3
  2870  000C3C                     l4122:
  2871  000C3C  C0A7  F050         	movff	roundf@u,??_roundf
  2872  000C40  C0A8  F051         	movff	roundf@u+1,??_roundf+1
  2873  000C44  C0A9  F052         	movff	roundf@u+2,??_roundf+2
  2874  000C48  C0AA  F053         	movff	roundf@u+3,??_roundf+3
  2875  000C4C  0E20               	movlw	32
  2876  000C4E  EF2E  F006         	goto	u3620
  2877  000C52                     u3625:
  2878  000C52  90D8               	bcf	status,0,c
  2879  000C54  3253               	rrcf	(??_roundf+3)^0,f,c
  2880  000C56  3252               	rrcf	(??_roundf+2)^0,f,c
  2881  000C58  3251               	rrcf	(??_roundf+1)^0,f,c
  2882  000C5A  3250               	rrcf	??_roundf^0,f,c
  2883  000C5C                     u3620:
  2884  000C5C  2EE8               	decfsz	wreg,f,c
  2885  000C5E  EF29  F006         	goto	u3625
  2886  000C62  5050               	movf	??_roundf^0,w,c
  2887  000C64  1051               	iorwf	(??_roundf+1)^0,w,c
  2888  000C66  1052               	iorwf	(??_roundf+2)^0,w,c
  2889  000C68  1053               	iorwf	(??_roundf+3)^0,w,c
  2890  000C6A  B4D8               	btfsc	status,2,c
  2891  000C6C  EF3A  F006         	goto	u3631
  2892  000C70  EF3C  F006         	goto	u3630
  2893  000C74                     u3631:
  2894  000C74  EF4E  F006         	goto	l4126
  2895  000C78                     u3630:
  2896  000C78  C0AB  F006         	movff	roundf@y,___flneg@f1
  2897  000C7C  C0AC  F007         	movff	roundf@y+1,___flneg@f1+1
  2898  000C80  C0AD  F008         	movff	roundf@y+2,___flneg@f1+2
  2899  000C84  C0AE  F009         	movff	roundf@y+3,___flneg@f1+3
  2900  000C88  ECAA  F010         	call	___flneg	;wreg free
  2901  000C8C  C006  F0AB         	movff	?___flneg,roundf@y
  2902  000C90  C007  F0AC         	movff	?___flneg+1,roundf@y+1
  2903  000C94  C008  F0AD         	movff	?___flneg+2,roundf@y+2
  2904  000C98  C009  F0AE         	movff	?___flneg+3,roundf@y+3
  2905  000C9C                     l4126:
  2906  000C9C  C0AB  F04C         	movff	roundf@y,?_roundf
  2907  000CA0  C0AC  F04D         	movff	roundf@y+1,?_roundf+1
  2908  000CA4  C0AD  F04E         	movff	roundf@y+2,?_roundf+2
  2909  000CA8  C0AE  F04F         	movff	roundf@y+3,?_roundf+3
  2910  000CAC                     l1391:
  2911  000CAC  0012               	return		;funcret
  2912  000CAE                     __end_of_roundf:
  2913                           	opt callstack 0
  2914                           
  2915 ;; *************** function ___flsub *****************
  2916 ;; Defined at:
  2917 ;;		line 245 in file "C:\Program Files (x86)\Microchip\xc8\v2.10\pic\sources\c99\common\sprcadd.c"
  2918 ;; Parameters:    Size  Location     Type
  2919 ;;  b               4   67[COMRAM] float 
  2920 ;;  a               4   71[COMRAM] float 
  2921 ;; Auto vars:     Size  Location     Type
  2922 ;;		None
  2923 ;; Return value:  Size  Location     Type
  2924 ;;                  4   67[COMRAM] float 
  2925 ;; Registers used:
  2926 ;;		wreg, status,2, status,0, cstack
  2927 ;; Tracked objects:
  2928 ;;		On entry : 0/0
  2929 ;;		On exit  : 0/0
  2930 ;;		Unchanged: 0/0
  2931 ;; Data sizes:     COMRAM   BANK0   BANK1   BANK2   BANK3   BANK4   BANK5   BANK6   BANK7
  2932 ;;      Params:         8       0       0       0       0       0       0       0       0
  2933 ;;      Locals:         0       0       0       0       0       0       0       0       0
  2934 ;;      Temps:          0       0       0       0       0       0       0       0       0
  2935 ;;      Totals:         8       0       0       0       0       0       0       0       0
  2936 ;;Total ram usage:        8 bytes
  2937 ;; Hardware stack levels used:    1
  2938 ;; Hardware stack levels required when called:    3
  2939 ;; This function calls:
  2940 ;;		___fladd
  2941 ;; This function is called by:
  2942 ;;		_PID
  2943 ;;		_roundf
  2944 ;; This function uses a non-reentrant model
  2945 ;;
  2946                           
  2947                           	psect	text14
  2948  0020CE                     __ptext14:
  2949                           	opt callstack 0
  2950  0020CE                     ___flsub:
  2951                           	opt callstack 24
  2952  0020CE  0E00               	movlw	0
  2953  0020D0  1A48               	xorwf	___flsub@a^0,f,c
  2954  0020D2  0E00               	movlw	0
  2955  0020D4  1A49               	xorwf	(___flsub@a+1)^0,f,c
  2956  0020D6  0E00               	movlw	0
  2957  0020D8  1A4A               	xorwf	(___flsub@a+2)^0,f,c
  2958  0020DA  0E80               	movlw	128
  2959  0020DC  1A4B               	xorwf	(___flsub@a+3)^0,f,c
  2960  0020DE  C044  F034         	movff	___flsub@b,___fladd@b
  2961  0020E2  C045  F035         	movff	___flsub@b+1,___fladd@b+1
  2962  0020E6  C046  F036         	movff	___flsub@b+2,___fladd@b+2
  2963  0020EA  C047  F037         	movff	___flsub@b+3,___fladd@b+3
  2964  0020EE  C048  F038         	movff	___flsub@a,___fladd@a
  2965  0020F2  C049  F039         	movff	___flsub@a+1,___fladd@a+1
  2966  0020F6  C04A  F03A         	movff	___flsub@a+2,___fladd@a+2
  2967  0020FA  C04B  F03B         	movff	___flsub@a+3,___fladd@a+3
  2968  0020FE  EC09  F000         	call	___fladd	;wreg free
  2969  002102  C034  F044         	movff	?___fladd,?___flsub
  2970  002106  C035  F045         	movff	?___fladd+1,?___flsub+1
  2971  00210A  C036  F046         	movff	?___fladd+2,?___flsub+2
  2972  00210E  C037  F047         	movff	?___fladd+3,?___flsub+3
  2973  002112  0012               	return		;funcret
  2974  002114                     __end_of___flsub:
  2975                           	opt callstack 0
  2976                           
  2977 ;; *************** function ___fladd *****************
  2978 ;; Defined at:
  2979 ;;		line 10 in file "C:\Program Files (x86)\Microchip\xc8\v2.10\pic\sources\c99\common\sprcadd.c"
  2980 ;; Parameters:    Size  Location     Type
  2981 ;;  b               4   51[COMRAM] float 
  2982 ;;  a               4   55[COMRAM] float 
  2983 ;; Auto vars:     Size  Location     Type
  2984 ;;  grs             1   66[COMRAM] unsigned char 
  2985 ;;  bexp            1   65[COMRAM] unsigned char 
  2986 ;;  aexp            1   64[COMRAM] unsigned char 
  2987 ;;  signs           1   63[COMRAM] unsigned char 
  2988 ;; Return value:  Size  Location     Type
  2989 ;;                  4   51[COMRAM] unsigned char 
  2990 ;; Registers used:
  2991 ;;		wreg, status,2, status,0
  2992 ;; Tracked objects:
  2993 ;;		On entry : 0/0
  2994 ;;		On exit  : 0/0
  2995 ;;		Unchanged: 0/0
  2996 ;; Data sizes:     COMRAM   BANK0   BANK1   BANK2   BANK3   BANK4   BANK5   BANK6   BANK7
  2997 ;;      Params:         8       0       0       0       0       0       0       0       0
  2998 ;;      Locals:         4       0       0       0       0       0       0       0       0
  2999 ;;      Temps:          4       0       0       0       0       0       0       0       0
  3000 ;;      Totals:        16       0       0       0       0       0       0       0       0
  3001 ;;Total ram usage:       16 bytes
  3002 ;; Hardware stack levels used:    1
  3003 ;; Hardware stack levels required when called:    2
  3004 ;; This function calls:
  3005 ;;		Nothing
  3006 ;; This function is called by:
  3007 ;;		_leerSensores
  3008 ;;		_PID
  3009 ;;		___flsub
  3010 ;;		_roundf
  3011 ;; This function uses a non-reentrant model
  3012 ;;
  3013                           
  3014                           	psect	text15
  3015  000012                     __ptext15:
  3016                           	opt callstack 0
  3017  000012                     ___fladd:
  3018                           	opt callstack 26
  3019  000012  5037               	movf	(___fladd@b+3)^0,w,c
  3020  000014  0B80               	andlw	128
  3021  000016  6E40               	movwf	___fladd@signs^0,c
  3022  000018  5037               	movf	(___fladd@b+3)^0,w,c
  3023  00001A  2437               	addwf	(___fladd@b+3)^0,w,c
  3024  00001C  6E42               	movwf	___fladd@bexp^0,c
  3025  00001E  AE36               	btfss	(___fladd@b+2)^0,7,c
  3026  000020  EF14  F000         	goto	u2961
  3027  000024  EF16  F000         	goto	u2960
  3028  000028                     u2961:
  3029  000028  EF17  F000         	goto	l3778
  3030  00002C                     u2960:
  3031  00002C  8042               	bsf	___fladd@bexp^0,0,c
  3032  00002E                     l3778:
  3033  00002E  5042               	movf	___fladd@bexp^0,w,c
  3034  000030  B4D8               	btfsc	status,2,c
  3035  000032  EF1D  F000         	goto	u2971
  3036  000036  EF1F  F000         	goto	u2970
  3037  00003A                     u2971:
  3038  00003A  EF34  F000         	goto	l3788
  3039  00003E                     u2970:
  3040  00003E  2842               	incf	___fladd@bexp^0,w,c
  3041  000040  A4D8               	btfss	status,2,c
  3042  000042  EF25  F000         	goto	u2981
  3043  000046  EF27  F000         	goto	u2980
  3044  00004A                     u2981:
  3045  00004A  EF2F  F000         	goto	l3784
  3046  00004E                     u2980:
  3047  00004E  0E00               	movlw	0
  3048  000050  6E34               	movwf	___fladd@b^0,c
  3049  000052  0E00               	movlw	0
  3050  000054  6E35               	movwf	(___fladd@b+1)^0,c
  3051  000056  0E00               	movlw	0
  3052  000058  6E36               	movwf	(___fladd@b+2)^0,c
  3053  00005A  0E00               	movlw	0
  3054  00005C  6E37               	movwf	(___fladd@b+3)^0,c
  3055  00005E                     l3784:
  3056  00005E  8E36               	bsf	(___fladd@b+2)^0,7,c
  3057  000060  0E00               	movlw	0
  3058  000062  6E37               	movwf	(___fladd@b+3)^0,c
  3059  000064  EF3C  F000         	goto	l3790
  3060  000068                     l3788:
  3061  000068  0E00               	movlw	0
  3062  00006A  6E34               	movwf	___fladd@b^0,c
  3063  00006C  0E00               	movlw	0
  3064  00006E  6E35               	movwf	(___fladd@b+1)^0,c
  3065  000070  0E00               	movlw	0
  3066  000072  6E36               	movwf	(___fladd@b+2)^0,c
  3067  000074  0E00               	movlw	0
  3068  000076  6E37               	movwf	(___fladd@b+3)^0,c
  3069  000078                     l3790:
  3070  000078  503B               	movf	(___fladd@a+3)^0,w,c
  3071  00007A  0B80               	andlw	128
  3072  00007C  6E41               	movwf	___fladd@aexp^0,c
  3073  00007E  5040               	movf	___fladd@signs^0,w,c
  3074  000080  1841               	xorwf	___fladd@aexp^0,w,c
  3075  000082  B4D8               	btfsc	status,2,c
  3076  000084  EF46  F000         	goto	u2991
  3077  000088  EF48  F000         	goto	u2990
  3078  00008C                     u2991:
  3079  00008C  EF49  F000         	goto	l3796
  3080  000090                     u2990:
  3081  000090  8C40               	bsf	___fladd@signs^0,6,c
  3082  000092                     l3796:
  3083  000092  503B               	movf	(___fladd@a+3)^0,w,c
  3084  000094  243B               	addwf	(___fladd@a+3)^0,w,c
  3085  000096  6E41               	movwf	___fladd@aexp^0,c
  3086  000098  AE3A               	btfss	(___fladd@a+2)^0,7,c
  3087  00009A  EF51  F000         	goto	u3001
  3088  00009E  EF53  F000         	goto	u3000
  3089  0000A2                     u3001:
  3090  0000A2  EF54  F000         	goto	l3802
  3091  0000A6                     u3000:
  3092  0000A6  8041               	bsf	___fladd@aexp^0,0,c
  3093  0000A8                     l3802:
  3094  0000A8  5041               	movf	___fladd@aexp^0,w,c
  3095  0000AA  B4D8               	btfsc	status,2,c
  3096  0000AC  EF5A  F000         	goto	u3011
  3097  0000B0  EF5C  F000         	goto	u3010
  3098  0000B4                     u3011:
  3099  0000B4  EF71  F000         	goto	l3812
  3100  0000B8                     u3010:
  3101  0000B8  2841               	incf	___fladd@aexp^0,w,c
  3102  0000BA  A4D8               	btfss	status,2,c
  3103  0000BC  EF62  F000         	goto	u3021
  3104  0000C0  EF64  F000         	goto	u3020
  3105  0000C4                     u3021:
  3106  0000C4  EF6C  F000         	goto	l3808
  3107  0000C8                     u3020:
  3108  0000C8  0E00               	movlw	0
  3109  0000CA  6E38               	movwf	___fladd@a^0,c
  3110  0000CC  0E00               	movlw	0
  3111  0000CE  6E39               	movwf	(___fladd@a+1)^0,c
  3112  0000D0  0E00               	movlw	0
  3113  0000D2  6E3A               	movwf	(___fladd@a+2)^0,c
  3114  0000D4  0E00               	movlw	0
  3115  0000D6  6E3B               	movwf	(___fladd@a+3)^0,c
  3116  0000D8                     l3808:
  3117  0000D8  8E3A               	bsf	(___fladd@a+2)^0,7,c
  3118  0000DA  0E00               	movlw	0
  3119  0000DC  6E3B               	movwf	(___fladd@a+3)^0,c
  3120  0000DE  EF79  F000         	goto	l3814
  3121  0000E2                     l3812:
  3122  0000E2  0E00               	movlw	0
  3123  0000E4  6E38               	movwf	___fladd@a^0,c
  3124  0000E6  0E00               	movlw	0
  3125  0000E8  6E39               	movwf	(___fladd@a+1)^0,c
  3126  0000EA  0E00               	movlw	0
  3127  0000EC  6E3A               	movwf	(___fladd@a+2)^0,c
  3128  0000EE  0E00               	movlw	0
  3129  0000F0  6E3B               	movwf	(___fladd@a+3)^0,c
  3130  0000F2                     l3814:
  3131  0000F2  5042               	movf	___fladd@bexp^0,w,c
  3132  0000F4  5C41               	subwf	___fladd@aexp^0,w,c
  3133  0000F6  B0D8               	btfsc	status,0,c
  3134  0000F8  EF80  F000         	goto	u3031
  3135  0000FC  EF82  F000         	goto	u3030
  3136  000100                     u3031:
  3137  000100  EFA9  F000         	goto	l3850
  3138  000104                     u3030:
  3139  000104  AC40               	btfss	___fladd@signs^0,6,c
  3140  000106  EF87  F000         	goto	u3041
  3141  00010A  EF89  F000         	goto	u3040
  3142  00010E                     u3041:
  3143  00010E  EF8B  F000         	goto	l3820
  3144  000112                     u3040:
  3145  000112  0E80               	movlw	128
  3146  000114  1A40               	xorwf	___fladd@signs^0,f,c
  3147  000116                     l3820:
  3148  000116  C042  F043         	movff	___fladd@bexp,___fladd@grs
  3149  00011A  C041  F042         	movff	___fladd@aexp,___fladd@bexp
  3150  00011E  C043  F041         	movff	___fladd@grs,___fladd@aexp
  3151  000122  C034  F043         	movff	___fladd@b,___fladd@grs
  3152  000126  C038  F034         	movff	___fladd@a,___fladd@b
  3153  00012A  C043  F038         	movff	___fladd@grs,___fladd@a
  3154  00012E  C035  F043         	movff	___fladd@b+1,___fladd@grs
  3155  000132  C039  F035         	movff	___fladd@a+1,___fladd@b+1
  3156  000136  C043  F039         	movff	___fladd@grs,___fladd@a+1
  3157  00013A  C036  F043         	movff	___fladd@b+2,___fladd@grs
  3158  00013E  C03A  F036         	movff	___fladd@a+2,___fladd@b+2
  3159  000142  C043  F03A         	movff	___fladd@grs,___fladd@a+2
  3160  000146  C037  F043         	movff	___fladd@b+3,___fladd@grs
  3161  00014A  C03B  F037         	movff	___fladd@a+3,___fladd@b+3
  3162  00014E  C043  F03B         	movff	___fladd@grs,___fladd@a+3
  3163  000152                     l3850:
  3164  000152  0E00               	movlw	0
  3165  000154  6E43               	movwf	___fladd@grs^0,c
  3166  000156  5042               	movf	___fladd@bexp^0,w,c
  3167  000158  C041  F03C         	movff	___fladd@aexp,??___fladd
  3168  00015C  6A3D               	clrf	(??___fladd+1)^0,c
  3169  00015E  5E3C               	subwf	??___fladd^0,f,c
  3170  000160  0E00               	movlw	0
  3171  000162  5A3D               	subwfb	(??___fladd+1)^0,f,c
  3172  000164  BE3D               	btfsc	(??___fladd+1)^0,7,c
  3173  000166  EFBE  F000         	goto	u3051
  3174  00016A  503D               	movf	(??___fladd+1)^0,w,c
  3175  00016C  E109               	bnz	u3050
  3176  00016E  0E1A               	movlw	26
  3177  000170  5C3C               	subwf	??___fladd^0,w,c
  3178  000172  A0D8               	btfss	status,0,c
  3179  000174  EFBE  F000         	goto	u3051
  3180  000178  EFC0  F000         	goto	u3050
  3181  00017C                     u3051:
  3182  00017C  EFF7  F000         	goto	l1234
  3183  000180                     u3050:
  3184  000180  5034               	movf	___fladd@b^0,w,c
  3185  000182  1035               	iorwf	(___fladd@b+1)^0,w,c
  3186  000184  1036               	iorwf	(___fladd@b+2)^0,w,c
  3187  000186  1037               	iorwf	(___fladd@b+3)^0,w,c
  3188  000188  A4D8               	btfss	status,2,c
  3189  00018A  EFC9  F000         	goto	u3061
  3190  00018E  EFCC  F000         	goto	u3060
  3191  000192                     u3061:
  3192  000192  0E01               	movlw	1
  3193  000194  EFCD  F000         	goto	u3070
  3194  000198                     u3060:
  3195  000198  0E00               	movlw	0
  3196  00019A                     u3070:
  3197  00019A  6E43               	movwf	___fladd@grs^0,c
  3198  00019C  0E00               	movlw	0
  3199  00019E  6E34               	movwf	___fladd@b^0,c
  3200  0001A0  0E00               	movlw	0
  3201  0001A2  6E35               	movwf	(___fladd@b+1)^0,c
  3202  0001A4  0E00               	movlw	0
  3203  0001A6  6E36               	movwf	(___fladd@b+2)^0,c
  3204  0001A8  0E00               	movlw	0
  3205  0001AA  6E37               	movwf	(___fladd@b+3)^0,c
  3206  0001AC  C041  F042         	movff	___fladd@aexp,___fladd@bexp
  3207  0001B0  EF00  F001         	goto	l1233
  3208  0001B4                     l1235:
  3209  0001B4  A043               	btfss	___fladd@grs^0,0,c
  3210  0001B6  EFDF  F000         	goto	u3081
  3211  0001BA  EFE1  F000         	goto	u3080
  3212  0001BE                     u3081:
  3213  0001BE  EFE7  F000         	goto	l3862
  3214  0001C2                     u3080:
  3215  0001C2  90D8               	bcf	status,0,c
  3216  0001C4  3043               	rrcf	___fladd@grs^0,w,c
  3217  0001C6  0901               	iorlw	1
  3218  0001C8  6E43               	movwf	___fladd@grs^0,c
  3219  0001CA  EFE9  F000         	goto	l3864
  3220  0001CE                     l3862:
  3221  0001CE  90D8               	bcf	status,0,c
  3222  0001D0  3243               	rrcf	___fladd@grs^0,f,c
  3223  0001D2                     l3864:
  3224  0001D2  A034               	btfss	___fladd@b^0,0,c
  3225  0001D4  EFEE  F000         	goto	u3091
  3226  0001D8  EFF0  F000         	goto	u3090
  3227  0001DC                     u3091:
  3228  0001DC  EFF1  F000         	goto	l3868
  3229  0001E0                     u3090:
  3230  0001E0  8E43               	bsf	___fladd@grs^0,7,c
  3231  0001E2                     l3868:
  3232  0001E2  3437               	rlcf	(___fladd@b+3)^0,w,c
  3233  0001E4  3237               	rrcf	(___fladd@b+3)^0,f,c
  3234  0001E6  3236               	rrcf	(___fladd@b+2)^0,f,c
  3235  0001E8  3235               	rrcf	(___fladd@b+1)^0,f,c
  3236  0001EA  3234               	rrcf	___fladd@b^0,f,c
  3237  0001EC  2A42               	incf	___fladd@bexp^0,f,c
  3238  0001EE                     l1234:
  3239  0001EE  5041               	movf	___fladd@aexp^0,w,c
  3240  0001F0  5C42               	subwf	___fladd@bexp^0,w,c
  3241  0001F2  A0D8               	btfss	status,0,c
  3242  0001F4  EFFE  F000         	goto	u3101
  3243  0001F8  EF00  F001         	goto	u3100
  3244  0001FC                     u3101:
  3245  0001FC  EFDA  F000         	goto	l1235
  3246  000200                     u3100:
  3247  000200                     l1233:
  3248  000200  BC40               	btfsc	___fladd@signs^0,6,c
  3249  000202  EF05  F001         	goto	u3111
  3250  000206  EF07  F001         	goto	u3110
  3251  00020A                     u3111:
  3252  00020A  EF47  F001         	goto	l3896
  3253  00020E                     u3110:
  3254  00020E  5042               	movf	___fladd@bexp^0,w,c
  3255  000210  A4D8               	btfss	status,2,c
  3256  000212  EF0D  F001         	goto	u3121
  3257  000216  EF0F  F001         	goto	u3120
  3258  00021A                     u3121:
  3259  00021A  EF19  F001         	goto	l3878
  3260  00021E                     u3120:
  3261  00021E  0E00               	movlw	0
  3262  000220  6E34               	movwf	?___fladd^0,c
  3263  000222  0E00               	movlw	0
  3264  000224  6E35               	movwf	(?___fladd+1)^0,c
  3265  000226  0E00               	movlw	0
  3266  000228  6E36               	movwf	(?___fladd+2)^0,c
  3267  00022A  0E00               	movlw	0
  3268  00022C  6E37               	movwf	(?___fladd+3)^0,c
  3269  00022E  EF68  F002         	goto	l1242
  3270  000232                     l3878:
  3271  000232  5038               	movf	___fladd@a^0,w,c
  3272  000234  2634               	addwf	___fladd@b^0,f,c
  3273  000236  5039               	movf	(___fladd@a+1)^0,w,c
  3274  000238  2235               	addwfc	(___fladd@b+1)^0,f,c
  3275  00023A  503A               	movf	(___fladd@a+2)^0,w,c
  3276  00023C  2236               	addwfc	(___fladd@b+2)^0,f,c
  3277  00023E  503B               	movf	(___fladd@a+3)^0,w,c
  3278  000240  2237               	addwfc	(___fladd@b+3)^0,f,c
  3279  000242  A037               	btfss	(___fladd@b+3)^0,0,c
  3280  000244  EF26  F001         	goto	u3131
  3281  000248  EF28  F001         	goto	u3130
  3282  00024C                     u3131:
  3283  00024C  EFD4  F001         	goto	l3932
  3284  000250                     u3130:
  3285  000250  A043               	btfss	___fladd@grs^0,0,c
  3286  000252  EF2D  F001         	goto	u3141
  3287  000256  EF2F  F001         	goto	u3140
  3288  00025A                     u3141:
  3289  00025A  EF35  F001         	goto	l3886
  3290  00025E                     u3140:
  3291  00025E  90D8               	bcf	status,0,c
  3292  000260  3043               	rrcf	___fladd@grs^0,w,c
  3293  000262  0901               	iorlw	1
  3294  000264  6E43               	movwf	___fladd@grs^0,c
  3295  000266  EF37  F001         	goto	l3888
  3296  00026A                     l3886:
  3297  00026A  90D8               	bcf	status,0,c
  3298  00026C  3243               	rrcf	___fladd@grs^0,f,c
  3299  00026E                     l3888:
  3300  00026E  A034               	btfss	___fladd@b^0,0,c
  3301  000270  EF3C  F001         	goto	u3151
  3302  000274  EF3E  F001         	goto	u3150
  3303  000278                     u3151:
  3304  000278  EF3F  F001         	goto	l3892
  3305  00027C                     u3150:
  3306  00027C  8E43               	bsf	___fladd@grs^0,7,c
  3307  00027E                     l3892:
  3308  00027E  3437               	rlcf	(___fladd@b+3)^0,w,c
  3309  000280  3237               	rrcf	(___fladd@b+3)^0,f,c
  3310  000282  3236               	rrcf	(___fladd@b+2)^0,f,c
  3311  000284  3235               	rrcf	(___fladd@b+1)^0,f,c
  3312  000286  3234               	rrcf	___fladd@b^0,f,c
  3313  000288  2A42               	incf	___fladd@bexp^0,f,c
  3314  00028A  EFD4  F001         	goto	l3932
  3315  00028E                     l3896:
  3316  00028E  5038               	movf	___fladd@a^0,w,c
  3317  000290  5C34               	subwf	___fladd@b^0,w,c
  3318  000292  5039               	movf	(___fladd@a+1)^0,w,c
  3319  000294  5835               	subwfb	(___fladd@b+1)^0,w,c
  3320  000296  503A               	movf	(___fladd@a+2)^0,w,c
  3321  000298  5836               	subwfb	(___fladd@b+2)^0,w,c
  3322  00029A  5037               	movf	(___fladd@b+3)^0,w,c
  3323  00029C  0A80               	xorlw	128
  3324  00029E  6E3C               	movwf	??___fladd^0,c
  3325  0002A0  503B               	movf	(___fladd@a+3)^0,w,c
  3326  0002A2  0A80               	xorlw	128
  3327  0002A4  583C               	subwfb	??___fladd^0,w,c
  3328  0002A6  B0D8               	btfsc	status,0,c
  3329  0002A8  EF58  F001         	goto	u3161
  3330  0002AC  EF5A  F001         	goto	u3160
  3331  0002B0                     u3161:
  3332  0002B0  EF85  F001         	goto	l3906
  3333  0002B4                     u3160:
  3334  0002B4  5034               	movf	___fladd@b^0,w,c
  3335  0002B6  5C38               	subwf	___fladd@a^0,w,c
  3336  0002B8  6E3C               	movwf	??___fladd^0,c
  3337  0002BA  5035               	movf	(___fladd@b+1)^0,w,c
  3338  0002BC  5839               	subwfb	(___fladd@a+1)^0,w,c
  3339  0002BE  6E3D               	movwf	(??___fladd+1)^0,c
  3340  0002C0  5036               	movf	(___fladd@b+2)^0,w,c
  3341  0002C2  583A               	subwfb	(___fladd@a+2)^0,w,c
  3342  0002C4  6E3E               	movwf	(??___fladd+2)^0,c
  3343  0002C6  5037               	movf	(___fladd@b+3)^0,w,c
  3344  0002C8  583B               	subwfb	(___fladd@a+3)^0,w,c
  3345  0002CA  6E3F               	movwf	(??___fladd+3)^0,c
  3346  0002CC  0EFF               	movlw	255
  3347  0002CE  243C               	addwf	??___fladd^0,w,c
  3348  0002D0  6E34               	movwf	___fladd@b^0,c
  3349  0002D2  0EFF               	movlw	255
  3350  0002D4  203D               	addwfc	(??___fladd+1)^0,w,c
  3351  0002D6  6E35               	movwf	(___fladd@b+1)^0,c
  3352  0002D8  0EFF               	movlw	255
  3353  0002DA  203E               	addwfc	(??___fladd+2)^0,w,c
  3354  0002DC  6E36               	movwf	(___fladd@b+2)^0,c
  3355  0002DE  0EFF               	movlw	255
  3356  0002E0  203F               	addwfc	(??___fladd+3)^0,w,c
  3357  0002E2  6E37               	movwf	(___fladd@b+3)^0,c
  3358  0002E4  0E80               	movlw	128
  3359  0002E6  1A40               	xorwf	___fladd@signs^0,f,c
  3360  0002E8  6C43               	negf	___fladd@grs^0,c
  3361  0002EA  5043               	movf	___fladd@grs^0,w,c
  3362  0002EC  A4D8               	btfss	status,2,c
  3363  0002EE  EF7B  F001         	goto	u3171
  3364  0002F2  EF7D  F001         	goto	u3170
  3365  0002F6                     u3171:
  3366  0002F6  EF8D  F001         	goto	l1250
  3367  0002FA                     u3170:
  3368  0002FA  0E01               	movlw	1
  3369  0002FC  2634               	addwf	___fladd@b^0,f,c
  3370  0002FE  0E00               	movlw	0
  3371  000300  2235               	addwfc	(___fladd@b+1)^0,f,c
  3372  000302  2236               	addwfc	(___fladd@b+2)^0,f,c
  3373  000304  2237               	addwfc	(___fladd@b+3)^0,f,c
  3374  000306  EF8D  F001         	goto	l1250
  3375  00030A                     l3906:
  3376  00030A  5038               	movf	___fladd@a^0,w,c
  3377  00030C  5E34               	subwf	___fladd@b^0,f,c
  3378  00030E  5039               	movf	(___fladd@a+1)^0,w,c
  3379  000310  5A35               	subwfb	(___fladd@b+1)^0,f,c
  3380  000312  503A               	movf	(___fladd@a+2)^0,w,c
  3381  000314  5A36               	subwfb	(___fladd@b+2)^0,f,c
  3382  000316  503B               	movf	(___fladd@a+3)^0,w,c
  3383  000318  5A37               	subwfb	(___fladd@b+3)^0,f,c
  3384  00031A                     l1250:
  3385  00031A  5034               	movf	___fladd@b^0,w,c
  3386  00031C  1035               	iorwf	(___fladd@b+1)^0,w,c
  3387  00031E  1036               	iorwf	(___fladd@b+2)^0,w,c
  3388  000320  1037               	iorwf	(___fladd@b+3)^0,w,c
  3389  000322  A4D8               	btfss	status,2,c
  3390  000324  EF96  F001         	goto	u3181
  3391  000328  EF98  F001         	goto	u3180
  3392  00032C                     u3181:
  3393  00032C  EFCD  F001         	goto	l3930
  3394  000330                     u3180:
  3395  000330  5043               	movf	___fladd@grs^0,w,c
  3396  000332  A4D8               	btfss	status,2,c
  3397  000334  EF9E  F001         	goto	u3191
  3398  000338  EFA0  F001         	goto	u3190
  3399  00033C                     u3191:
  3400  00033C  EFCD  F001         	goto	l3930
  3401  000340                     u3190:
  3402  000340  0E00               	movlw	0
  3403  000342  6E34               	movwf	?___fladd^0,c
  3404  000344  0E00               	movlw	0
  3405  000346  6E35               	movwf	(?___fladd+1)^0,c
  3406  000348  0E00               	movlw	0
  3407  00034A  6E36               	movwf	(?___fladd+2)^0,c
  3408  00034C  0E00               	movlw	0
  3409  00034E  6E37               	movwf	(?___fladd+3)^0,c
  3410  000350  EF68  F002         	goto	l1242
  3411  000354                     l3914:
  3412  000354  90D8               	bcf	status,0,c
  3413  000356  3634               	rlcf	___fladd@b^0,f,c
  3414  000358  3635               	rlcf	(___fladd@b+1)^0,f,c
  3415  00035A  3636               	rlcf	(___fladd@b+2)^0,f,c
  3416  00035C  3637               	rlcf	(___fladd@b+3)^0,f,c
  3417  00035E  AE43               	btfss	___fladd@grs^0,7,c
  3418  000360  EFB4  F001         	goto	u3201
  3419  000364  EFB6  F001         	goto	u3200
  3420  000368                     u3201:
  3421  000368  EFB7  F001         	goto	l3920
  3422  00036C                     u3200:
  3423  00036C  8034               	bsf	___fladd@b^0,0,c
  3424  00036E                     l3920:
  3425  00036E  A043               	btfss	___fladd@grs^0,0,c
  3426  000370  EFBC  F001         	goto	u3211
  3427  000374  EFBE  F001         	goto	u3210
  3428  000378                     u3211:
  3429  000378  EFC2  F001         	goto	l3924
  3430  00037C                     u3210:
  3431  00037C  80D8               	bsf	status,0,c
  3432  00037E  3643               	rlcf	___fladd@grs^0,f,c
  3433  000380  EFC4  F001         	goto	l3926
  3434  000384                     l3924:
  3435  000384  90D8               	bcf	status,0,c
  3436  000386  3643               	rlcf	___fladd@grs^0,f,c
  3437  000388                     l3926:
  3438  000388  5042               	movf	___fladd@bexp^0,w,c
  3439  00038A  B4D8               	btfsc	status,2,c
  3440  00038C  EFCA  F001         	goto	u3221
  3441  000390  EFCC  F001         	goto	u3220
  3442  000394                     u3221:
  3443  000394  EFCD  F001         	goto	l3930
  3444  000398                     u3220:
  3445  000398  0642               	decf	___fladd@bexp^0,f,c
  3446  00039A                     l3930:
  3447  00039A  AE36               	btfss	(___fladd@b+2)^0,7,c
  3448  00039C  EFD2  F001         	goto	u3231
  3449  0003A0  EFD4  F001         	goto	u3230
  3450  0003A4                     u3231:
  3451  0003A4  EFAA  F001         	goto	l3914
  3452  0003A8                     u3230:
  3453  0003A8                     l3932:
  3454  0003A8  0E00               	movlw	0
  3455  0003AA  6E41               	movwf	___fladd@aexp^0,c
  3456  0003AC  AE43               	btfss	___fladd@grs^0,7,c
  3457  0003AE  EFDB  F001         	goto	u3241
  3458  0003B2  EFDD  F001         	goto	u3240
  3459  0003B6                     u3241:
  3460  0003B6  EFF5  F001         	goto	l1259
  3461  0003BA                     u3240:
  3462  0003BA  C043  F03C         	movff	___fladd@grs,??___fladd
  3463  0003BE  0E7F               	movlw	127
  3464  0003C0  163C               	andwf	??___fladd^0,f,c
  3465  0003C2  B4D8               	btfsc	status,2,c
  3466  0003C4  EFE6  F001         	goto	u3251
  3467  0003C8  EFE8  F001         	goto	u3250
  3468  0003CC                     u3251:
  3469  0003CC  EFEC  F001         	goto	l1260
  3470  0003D0                     u3250:
  3471  0003D0                     l3938:
  3472  0003D0  0E01               	movlw	1
  3473  0003D2  6E41               	movwf	___fladd@aexp^0,c
  3474  0003D4  EFF5  F001         	goto	l1259
  3475  0003D8                     l1260:
  3476  0003D8  A034               	btfss	___fladd@b^0,0,c
  3477  0003DA  EFF1  F001         	goto	u3261
  3478  0003DE  EFF3  F001         	goto	u3260
  3479  0003E2                     u3261:
  3480  0003E2  EFF5  F001         	goto	l1259
  3481  0003E6                     u3260:
  3482  0003E6  EFE8  F001         	goto	l3938
  3483  0003EA                     l1259:
  3484  0003EA  5041               	movf	___fladd@aexp^0,w,c
  3485  0003EC  B4D8               	btfsc	status,2,c
  3486  0003EE  EFFB  F001         	goto	u3271
  3487  0003F2  EFFD  F001         	goto	u3270
  3488  0003F6                     u3271:
  3489  0003F6  EF28  F002         	goto	l3950
  3490  0003FA                     u3270:
  3491  0003FA  0E01               	movlw	1
  3492  0003FC  2634               	addwf	___fladd@b^0,f,c
  3493  0003FE  0E00               	movlw	0
  3494  000400  2235               	addwfc	(___fladd@b+1)^0,f,c
  3495  000402  2236               	addwfc	(___fladd@b+2)^0,f,c
  3496  000404  2237               	addwfc	(___fladd@b+3)^0,f,c
  3497  000406  A037               	btfss	(___fladd@b+3)^0,0,c
  3498  000408  EF08  F002         	goto	u3281
  3499  00040C  EF0A  F002         	goto	u3280
  3500  000410                     u3281:
  3501  000410  EF28  F002         	goto	l3950
  3502  000414                     u3280:
  3503  000414  C034  F03C         	movff	___fladd@b,??___fladd
  3504  000418  C035  F03D         	movff	___fladd@b+1,??___fladd+1
  3505  00041C  C036  F03E         	movff	___fladd@b+2,??___fladd+2
  3506  000420  C037  F03F         	movff	___fladd@b+3,??___fladd+3
  3507  000424  343F               	rlcf	(??___fladd+3)^0,w,c
  3508  000426  323F               	rrcf	(??___fladd+3)^0,f,c
  3509  000428  323E               	rrcf	(??___fladd+2)^0,f,c
  3510  00042A  323D               	rrcf	(??___fladd+1)^0,f,c
  3511  00042C  323C               	rrcf	??___fladd^0,f,c
  3512  00042E  C03C  F034         	movff	??___fladd,___fladd@b
  3513  000432  C03D  F035         	movff	??___fladd+1,___fladd@b+1
  3514  000436  C03E  F036         	movff	??___fladd+2,___fladd@b+2
  3515  00043A  C03F  F037         	movff	??___fladd+3,___fladd@b+3
  3516  00043E  2842               	incf	___fladd@bexp^0,w,c
  3517  000440  B4D8               	btfsc	status,2,c
  3518  000442  EF25  F002         	goto	u3291
  3519  000446  EF27  F002         	goto	u3290
  3520  00044A                     u3291:
  3521  00044A  EF28  F002         	goto	l3950
  3522  00044E                     u3290:
  3523  00044E  2A42               	incf	___fladd@bexp^0,f,c
  3524  000450                     l3950:
  3525  000450  2842               	incf	___fladd@bexp^0,w,c
  3526  000452  B4D8               	btfsc	status,2,c
  3527  000454  EF2E  F002         	goto	u3301
  3528  000458  EF30  F002         	goto	u3300
  3529  00045C                     u3301:
  3530  00045C  EF38  F002         	goto	l3954
  3531  000460                     u3300:
  3532  000460  5042               	movf	___fladd@bexp^0,w,c
  3533  000462  A4D8               	btfss	status,2,c
  3534  000464  EF36  F002         	goto	u3311
  3535  000468  EF38  F002         	goto	u3310
  3536  00046C                     u3311:
  3537  00046C  EF4A  F002         	goto	l3958
  3538  000470                     u3310:
  3539  000470                     l3954:
  3540  000470  0E00               	movlw	0
  3541  000472  6E34               	movwf	___fladd@b^0,c
  3542  000474  0E00               	movlw	0
  3543  000476  6E35               	movwf	(___fladd@b+1)^0,c
  3544  000478  0E00               	movlw	0
  3545  00047A  6E36               	movwf	(___fladd@b+2)^0,c
  3546  00047C  0E00               	movlw	0
  3547  00047E  6E37               	movwf	(___fladd@b+3)^0,c
  3548  000480  5042               	movf	___fladd@bexp^0,w,c
  3549  000482  A4D8               	btfss	status,2,c
  3550  000484  EF46  F002         	goto	u3321
  3551  000488  EF48  F002         	goto	u3320
  3552  00048C                     u3321:
  3553  00048C  EF4A  F002         	goto	l3958
  3554  000490                     u3320:
  3555  000490  0E00               	movlw	0
  3556  000492  6E40               	movwf	___fladd@signs^0,c
  3557  000494                     l3958:
  3558  000494  A042               	btfss	___fladd@bexp^0,0,c
  3559  000496  EF4F  F002         	goto	u3331
  3560  00049A  EF51  F002         	goto	u3330
  3561  00049E                     u3331:
  3562  00049E  EF54  F002         	goto	l3962
  3563  0004A2                     u3330:
  3564  0004A2  8E36               	bsf	(___fladd@b+2)^0,7,c
  3565  0004A4  EF55  F002         	goto	l3964
  3566  0004A8                     l3962:
  3567  0004A8  9E36               	bcf	(___fladd@b+2)^0,7,c
  3568  0004AA                     l3964:
  3569  0004AA  90D8               	bcf	status,0,c
  3570  0004AC  3042               	rrcf	___fladd@bexp^0,w,c
  3571  0004AE  6E37               	movwf	(___fladd@b+3)^0,c
  3572  0004B0  AE40               	btfss	___fladd@signs^0,7,c
  3573  0004B2  EF5D  F002         	goto	u3341
  3574  0004B6  EF5F  F002         	goto	u3340
  3575  0004BA                     u3341:
  3576  0004BA  EF60  F002         	goto	l3970
  3577  0004BE                     u3340:
  3578  0004BE  8E37               	bsf	(___fladd@b+3)^0,7,c
  3579  0004C0                     l3970:
  3580  0004C0  C034  F034         	movff	___fladd@b,?___fladd
  3581  0004C4  C035  F035         	movff	___fladd@b+1,?___fladd+1
  3582  0004C8  C036  F036         	movff	___fladd@b+2,?___fladd+2
  3583  0004CC  C037  F037         	movff	___fladd@b+3,?___fladd+3
  3584  0004D0                     l1242:
  3585  0004D0  0012               	return		;funcret
  3586  0004D2                     __end_of___fladd:
  3587                           	opt callstack 0
  3588                           
  3589 ;; *************** function ___flneg *****************
  3590 ;; Defined at:
  3591 ;;		line 15 in file "C:\Program Files (x86)\Microchip\xc8\v2.10\pic\sources\c99\common\flneg.c"
  3592 ;; Parameters:    Size  Location     Type
  3593 ;;  f1              4    5[COMRAM] unsigned char 
  3594 ;; Auto vars:     Size  Location     Type
  3595 ;;		None
  3596 ;; Return value:  Size  Location     Type
  3597 ;;                  4    5[COMRAM] unsigned char 
  3598 ;; Registers used:
  3599 ;;		wreg, status,2, status,0
  3600 ;; Tracked objects:
  3601 ;;		On entry : 0/0
  3602 ;;		On exit  : 0/0
  3603 ;;		Unchanged: 0/0
  3604 ;; Data sizes:     COMRAM   BANK0   BANK1   BANK2   BANK3   BANK4   BANK5   BANK6   BANK7
  3605 ;;      Params:         4       0       0       0       0       0       0       0       0
  3606 ;;      Locals:         0       0       0       0       0       0       0       0       0
  3607 ;;      Temps:          0       0       0       0       0       0       0       0       0
  3608 ;;      Totals:         4       0       0       0       0       0       0       0       0
  3609 ;;Total ram usage:        4 bytes
  3610 ;; Hardware stack levels used:    1
  3611 ;; Hardware stack levels required when called:    2
  3612 ;; This function calls:
  3613 ;;		Nothing
  3614 ;; This function is called by:
  3615 ;;		_roundf
  3616 ;; This function uses a non-reentrant model
  3617 ;;
  3618                           
  3619                           	psect	text16
  3620  002154                     __ptext16:
  3621                           	opt callstack 0
  3622  002154                     ___flneg:
  3623                           	opt callstack 25
  3624  002154  5006               	movf	___flneg@f1^0,w,c
  3625  002156  1007               	iorwf	(___flneg@f1+1)^0,w,c
  3626  002158  1008               	iorwf	(___flneg@f1+2)^0,w,c
  3627  00215A  1009               	iorwf	(___flneg@f1+3)^0,w,c
  3628  00215C  B4D8               	btfsc	status,2,c
  3629  00215E  EFB3  F010         	goto	u3401
  3630  002162  EFB5  F010         	goto	u3400
  3631  002166                     u3401:
  3632  002166  EFBD  F010         	goto	l4030
  3633  00216A                     u3400:
  3634  00216A  0E00               	movlw	0
  3635  00216C  1A06               	xorwf	___flneg@f1^0,f,c
  3636  00216E  0E00               	movlw	0
  3637  002170  1A07               	xorwf	(___flneg@f1+1)^0,f,c
  3638  002172  0E00               	movlw	0
  3639  002174  1A08               	xorwf	(___flneg@f1+2)^0,f,c
  3640  002176  0E80               	movlw	128
  3641  002178  1A09               	xorwf	(___flneg@f1+3)^0,f,c
  3642  00217A                     l4030:
  3643  00217A  C006  F006         	movff	___flneg@f1,?___flneg
  3644  00217E  C007  F007         	movff	___flneg@f1+1,?___flneg+1
  3645  002182  C008  F008         	movff	___flneg@f1+2,?___flneg+2
  3646  002186  C009  F009         	movff	___flneg@f1+3,?___flneg+3
  3647  00218A  0012               	return		;funcret
  3648  00218C                     __end_of___flneg:
  3649                           	opt callstack 0
  3650                           
  3651 ;; *************** function ___flge *****************
  3652 ;; Defined at:
  3653 ;;		line 4 in file "C:\Program Files (x86)\Microchip\xc8\v2.10\pic\sources\c99\common\flge.c"
  3654 ;; Parameters:    Size  Location     Type
  3655 ;;  ff1             4    5[COMRAM] unsigned char 
  3656 ;;  ff2             4    9[COMRAM] unsigned char 
  3657 ;; Auto vars:     Size  Location     Type
  3658 ;;		None
  3659 ;; Return value:  Size  Location     Type
  3660 ;;		None               void
  3661 ;; Registers used:
  3662 ;;		wreg, status,2, status,0
  3663 ;; Tracked objects:
  3664 ;;		On entry : 0/0
  3665 ;;		On exit  : 0/0
  3666 ;;		Unchanged: 0/0
  3667 ;; Data sizes:     COMRAM   BANK0   BANK1   BANK2   BANK3   BANK4   BANK5   BANK6   BANK7
  3668 ;;      Params:         8       0       0       0       0       0       0       0       0
  3669 ;;      Locals:         0       0       0       0       0       0       0       0       0
  3670 ;;      Temps:          4       0       0       0       0       0       0       0       0
  3671 ;;      Totals:        12       0       0       0       0       0       0       0       0
  3672 ;;Total ram usage:       12 bytes
  3673 ;; Hardware stack levels used:    1
  3674 ;; Hardware stack levels required when called:    2
  3675 ;; This function calls:
  3676 ;;		Nothing
  3677 ;; This function is called by:
  3678 ;;		_forzarEspejeo
  3679 ;;		_probarPID
  3680 ;;		_roundf
  3681 ;;		_hayCruce
  3682 ;;		_decidirDireccion
  3683 ;; This function uses a non-reentrant model
  3684 ;;
  3685                           
  3686                           	psect	text17
  3687  001ADE                     __ptext17:
  3688                           	opt callstack 0
  3689  001ADE                     ___flge:
  3690                           	opt callstack 25
  3691  001ADE  0E00               	movlw	0
  3692  001AE0  1406               	andwf	___flge@ff1^0,w,c
  3693  001AE2  6E0E               	movwf	??___flge^0,c
  3694  001AE4  0E00               	movlw	0
  3695  001AE6  1407               	andwf	(___flge@ff1+1)^0,w,c
  3696  001AE8  6E0F               	movwf	(??___flge+1)^0,c
  3697  001AEA  0E80               	movlw	128
  3698  001AEC  1408               	andwf	(___flge@ff1+2)^0,w,c
  3699  001AEE  6E10               	movwf	(??___flge+2)^0,c
  3700  001AF0  0E7F               	movlw	127
  3701  001AF2  1409               	andwf	(___flge@ff1+3)^0,w,c
  3702  001AF4  6E11               	movwf	(??___flge+3)^0,c
  3703  001AF6  500E               	movf	??___flge^0,w,c
  3704  001AF8  100F               	iorwf	(??___flge+1)^0,w,c
  3705  001AFA  1010               	iorwf	(??___flge+2)^0,w,c
  3706  001AFC  1011               	iorwf	(??___flge+3)^0,w,c
  3707  001AFE  A4D8               	btfss	status,2,c
  3708  001B00  EF84  F00D         	goto	u3351
  3709  001B04  EF86  F00D         	goto	u3350
  3710  001B08                     u3351:
  3711  001B08  EF8E  F00D         	goto	l4008
  3712  001B0C                     u3350:
  3713  001B0C  0E00               	movlw	0
  3714  001B0E  6E06               	movwf	___flge@ff1^0,c
  3715  001B10  0E00               	movlw	0
  3716  001B12  6E07               	movwf	(___flge@ff1+1)^0,c
  3717  001B14  0E00               	movlw	0
  3718  001B16  6E08               	movwf	(___flge@ff1+2)^0,c
  3719  001B18  0E00               	movlw	0
  3720  001B1A  6E09               	movwf	(___flge@ff1+3)^0,c
  3721  001B1C                     l4008:
  3722  001B1C  0E00               	movlw	0
  3723  001B1E  140A               	andwf	___flge@ff2^0,w,c
  3724  001B20  6E0E               	movwf	??___flge^0,c
  3725  001B22  0E00               	movlw	0
  3726  001B24  140B               	andwf	(___flge@ff2+1)^0,w,c
  3727  001B26  6E0F               	movwf	(??___flge+1)^0,c
  3728  001B28  0E80               	movlw	128
  3729  001B2A  140C               	andwf	(___flge@ff2+2)^0,w,c
  3730  001B2C  6E10               	movwf	(??___flge+2)^0,c
  3731  001B2E  0E7F               	movlw	127
  3732  001B30  140D               	andwf	(___flge@ff2+3)^0,w,c
  3733  001B32  6E11               	movwf	(??___flge+3)^0,c
  3734  001B34  500E               	movf	??___flge^0,w,c
  3735  001B36  100F               	iorwf	(??___flge+1)^0,w,c
  3736  001B38  1010               	iorwf	(??___flge+2)^0,w,c
  3737  001B3A  1011               	iorwf	(??___flge+3)^0,w,c
  3738  001B3C  A4D8               	btfss	status,2,c
  3739  001B3E  EFA3  F00D         	goto	u3361
  3740  001B42  EFA5  F00D         	goto	u3360
  3741  001B46                     u3361:
  3742  001B46  EFAD  F00D         	goto	l4012
  3743  001B4A                     u3360:
  3744  001B4A  0E00               	movlw	0
  3745  001B4C  6E0A               	movwf	___flge@ff2^0,c
  3746  001B4E  0E00               	movlw	0
  3747  001B50  6E0B               	movwf	(___flge@ff2+1)^0,c
  3748  001B52  0E00               	movlw	0
  3749  001B54  6E0C               	movwf	(___flge@ff2+2)^0,c
  3750  001B56  0E00               	movlw	0
  3751  001B58  6E0D               	movwf	(___flge@ff2+3)^0,c
  3752  001B5A                     l4012:
  3753  001B5A  AE09               	btfss	(___flge@ff1+3)^0,7,c
  3754  001B5C  EFB2  F00D         	goto	u3371
  3755  001B60  EFB4  F00D         	goto	u3370
  3756  001B64                     u3371:
  3757  001B64  EFBD  F00D         	goto	l4016
  3758  001B68                     u3370:
  3759  001B68  6C06               	negf	___flge@ff1^0,c
  3760  001B6A  1E07               	comf	(___flge@ff1+1)^0,f,c
  3761  001B6C  B0D8               	btfsc	status,0,c
  3762  001B6E  2A07               	incf	(___flge@ff1+1)^0,f,c
  3763  001B70  1E08               	comf	(___flge@ff1+2)^0,f,c
  3764  001B72  B0D8               	btfsc	status,0,c
  3765  001B74  2A08               	incf	(___flge@ff1+2)^0,f,c
  3766  001B76  0E80               	movlw	128
  3767  001B78  5609               	subfwb	(___flge@ff1+3)^0,f,c
  3768  001B7A                     l4016:
  3769  001B7A  AE0D               	btfss	(___flge@ff2+3)^0,7,c
  3770  001B7C  EFC2  F00D         	goto	u3381
  3771  001B80  EFC4  F00D         	goto	u3380
  3772  001B84                     u3381:
  3773  001B84  EFCD  F00D         	goto	l970
  3774  001B88                     u3380:
  3775  001B88  6C0A               	negf	___flge@ff2^0,c
  3776  001B8A  1E0B               	comf	(___flge@ff2+1)^0,f,c
  3777  001B8C  B0D8               	btfsc	status,0,c
  3778  001B8E  2A0B               	incf	(___flge@ff2+1)^0,f,c
  3779  001B90  1E0C               	comf	(___flge@ff2+2)^0,f,c
  3780  001B92  B0D8               	btfsc	status,0,c
  3781  001B94  2A0C               	incf	(___flge@ff2+2)^0,f,c
  3782  001B96  0E80               	movlw	128
  3783  001B98  560D               	subfwb	(___flge@ff2+3)^0,f,c
  3784  001B9A                     l970:
  3785  001B9A  0E00               	movlw	0
  3786  001B9C  1A06               	xorwf	___flge@ff1^0,f,c
  3787  001B9E  0E00               	movlw	0
  3788  001BA0  1A07               	xorwf	(___flge@ff1+1)^0,f,c
  3789  001BA2  0E00               	movlw	0
  3790  001BA4  1A08               	xorwf	(___flge@ff1+2)^0,f,c
  3791  001BA6  0E80               	movlw	128
  3792  001BA8  1A09               	xorwf	(___flge@ff1+3)^0,f,c
  3793  001BAA  0E00               	movlw	0
  3794  001BAC  1A0A               	xorwf	___flge@ff2^0,f,c
  3795  001BAE  0E00               	movlw	0
  3796  001BB0  1A0B               	xorwf	(___flge@ff2+1)^0,f,c
  3797  001BB2  0E00               	movlw	0
  3798  001BB4  1A0C               	xorwf	(___flge@ff2+2)^0,f,c
  3799  001BB6  0E80               	movlw	128
  3800  001BB8  1A0D               	xorwf	(___flge@ff2+3)^0,f,c
  3801  001BBA  500A               	movf	___flge@ff2^0,w,c
  3802  001BBC  5C06               	subwf	___flge@ff1^0,w,c
  3803  001BBE  500B               	movf	(___flge@ff2+1)^0,w,c
  3804  001BC0  5807               	subwfb	(___flge@ff1+1)^0,w,c
  3805  001BC2  500C               	movf	(___flge@ff2+2)^0,w,c
  3806  001BC4  5808               	subwfb	(___flge@ff1+2)^0,w,c
  3807  001BC6  500D               	movf	(___flge@ff2+3)^0,w,c
  3808  001BC8  5809               	subwfb	(___flge@ff1+3)^0,w,c
  3809  001BCA  B0D8               	btfsc	status,0,c
  3810  001BCC  EFEA  F00D         	goto	u3391
  3811  001BD0  EFEC  F00D         	goto	u3390
  3812  001BD4                     u3391:
  3813  001BD4  EFEF  F00D         	goto	l4022
  3814  001BD8                     u3390:
  3815  001BD8  90D8               	bcf	status,0,c
  3816  001BDA  EFF0  F00D         	goto	l975
  3817  001BDE                     l4022:
  3818  001BDE  80D8               	bsf	status,0,c
  3819  001BE0                     l975:
  3820  001BE0  0012               	return		;funcret
  3821  001BE2                     __end_of___flge:
  3822                           	opt callstack 0
  3823                           
  3824 ;; *************** function ___wmul *****************
  3825 ;; Defined at:
  3826 ;;		line 15 in file "C:\Program Files (x86)\Microchip\xc8\v2.10\pic\sources\c99\common\Umul16.c"
  3827 ;; Parameters:    Size  Location     Type
  3828 ;;  multiplier      2    5[COMRAM] unsigned int 
  3829 ;;  multiplicand    2    7[COMRAM] unsigned int 
  3830 ;; Auto vars:     Size  Location     Type
  3831 ;;  product         2    9[COMRAM] unsigned int 
  3832 ;; Return value:  Size  Location     Type
  3833 ;;                  2    5[COMRAM] unsigned int 
  3834 ;; Registers used:
  3835 ;;		wreg, status,2, status,0, prodl, prodh
  3836 ;; Tracked objects:
  3837 ;;		On entry : 0/0
  3838 ;;		On exit  : 0/0
  3839 ;;		Unchanged: 0/0
  3840 ;; Data sizes:     COMRAM   BANK0   BANK1   BANK2   BANK3   BANK4   BANK5   BANK6   BANK7
  3841 ;;      Params:         4       0       0       0       0       0       0       0       0
  3842 ;;      Locals:         2       0       0       0       0       0       0       0       0
  3843 ;;      Temps:          0       0       0       0       0       0       0       0       0
  3844 ;;      Totals:         6       0       0       0       0       0       0       0       0
  3845 ;;Total ram usage:        6 bytes
  3846 ;; Hardware stack levels used:    1
  3847 ;; Hardware stack levels required when called:    2
  3848 ;; This function calls:
  3849 ;;		Nothing
  3850 ;; This function is called by:
  3851 ;;		_PID
  3852 ;; This function uses a non-reentrant model
  3853 ;;
  3854                           
  3855                           	psect	text18
  3856  00218C                     __ptext18:
  3857                           	opt callstack 0
  3858  00218C                     ___wmul:
  3859                           	opt callstack 26
  3860  00218C  5006               	movf	___wmul@multiplier^0,w,c
  3861  00218E  0208               	mulwf	___wmul@multiplicand^0,c
  3862  002190  CFF3 F00A          	movff	prodl,___wmul@product
  3863  002194  CFF4 F00B          	movff	prodh,___wmul@product+1
  3864  002198  5006               	movf	___wmul@multiplier^0,w,c
  3865  00219A  0209               	mulwf	(___wmul@multiplicand+1)^0,c
  3866  00219C  50F3               	movf	243,w,c
  3867  00219E  260B               	addwf	(___wmul@product+1)^0,f,c
  3868  0021A0  5007               	movf	(___wmul@multiplier+1)^0,w,c
  3869  0021A2  0208               	mulwf	___wmul@multiplicand^0,c
  3870  0021A4  50F3               	movf	243,w,c
  3871  0021A6  260B               	addwf	(___wmul@product+1)^0,f,c
  3872  0021A8  C00A  F006         	movff	___wmul@product,?___wmul
  3873  0021AC  C00B  F007         	movff	___wmul@product+1,?___wmul+1
  3874  0021B0  0012               	return		;funcret
  3875  0021B2                     __end_of___wmul:
  3876                           	opt callstack 0
  3877                           
  3878 ;; *************** function _inicializarComportamientoBasico *****************
  3879 ;; Defined at:
  3880 ;;		line 247 in file "main.c"
  3881 ;; Parameters:    Size  Location     Type
  3882 ;;		None
  3883 ;; Auto vars:     Size  Location     Type
  3884 ;;		None
  3885 ;; Return value:  Size  Location     Type
  3886 ;;                  1    wreg      void 
  3887 ;; Registers used:
  3888 ;;		wreg, status,2, status,0, prodl, prodh, cstack
  3889 ;; Tracked objects:
  3890 ;;		On entry : 0/0
  3891 ;;		On exit  : 0/0
  3892 ;;		Unchanged: 0/0
  3893 ;; Data sizes:     COMRAM   BANK0   BANK1   BANK2   BANK3   BANK4   BANK5   BANK6   BANK7
  3894 ;;      Params:         0       0       0       0       0       0       0       0       0
  3895 ;;      Locals:         0       0       0       0       0       0       0       0       0
  3896 ;;      Temps:          0       0       0       0       0       0       0       0       0
  3897 ;;      Totals:         0       0       0       0       0       0       0       0       0
  3898 ;;Total ram usage:        0 bytes
  3899 ;; Hardware stack levels used:    1
  3900 ;; Hardware stack levels required when called:    6
  3901 ;; This function calls:
  3902 ;;		_dameDistancia
  3903 ;;		_velocidadEstandar
  3904 ;; This function is called by:
  3905 ;;		_main
  3906 ;; This function uses a non-reentrant model
  3907 ;;
  3908                           
  3909                           	psect	text19
  3910  002082                     __ptext19:
  3911                           	opt callstack 0
  3912  002082                     _inicializarComportamientoBasico:
  3913                           	opt callstack 24
  3914  002082                     
  3915                           ;main.c: 249:     mouse.curr_state = ENFRENTE;
  3916  002082  0E01               	movlw	1
  3917  002084  6E55               	movwf	_mouse^0,c
  3918  002086                     
  3919                           ;main.c: 251:     oldSensorDerecha = dameDistancia(DERECHA);
  3920  002086  0E03               	movlw	3
  3921  002088  ECB4  F00B         	call	_dameDistancia
  3922  00208C  C01B  F078         	movff	?_dameDistancia,_oldSensorDerecha
  3923  002090  C01C  F079         	movff	?_dameDistancia+1,_oldSensorDerecha+1
  3924  002094  C01D  F07A         	movff	?_dameDistancia+2,_oldSensorDerecha+2
  3925  002098  C01E  F07B         	movff	?_dameDistancia+3,_oldSensorDerecha+3
  3926  00209C                     
  3927                           ;main.c: 252:     oldSensorIzquierda = dameDistancia(IZQUIERDA);
  3928  00209C  0E02               	movlw	2
  3929  00209E  ECB4  F00B         	call	_dameDistancia
  3930  0020A2  C01B  F074         	movff	?_dameDistancia,_oldSensorIzquierda
  3931  0020A6  C01C  F075         	movff	?_dameDistancia+1,_oldSensorIzquierda+1
  3932  0020AA  C01D  F076         	movff	?_dameDistancia+2,_oldSensorIzquierda+2
  3933  0020AE  C01E  F077         	movff	?_dameDistancia+3,_oldSensorIzquierda+3
  3934  0020B2                     
  3935                           ;main.c: 253:     oldSensorEnfrente = dameDistancia(ENFRENTE);
  3936  0020B2  0E01               	movlw	1
  3937  0020B4  ECB4  F00B         	call	_dameDistancia
  3938  0020B8  C01B  F070         	movff	?_dameDistancia,_oldSensorEnfrente
  3939  0020BC  C01C  F071         	movff	?_dameDistancia+1,_oldSensorEnfrente+1
  3940  0020C0  C01D  F072         	movff	?_dameDistancia+2,_oldSensorEnfrente+2
  3941  0020C4  C01E  F073         	movff	?_dameDistancia+3,_oldSensorEnfrente+3
  3942  0020C8                     
  3943                           ;main.c: 255:     velocidadEstandar();
  3944  0020C8  ECD9  F010         	call	_velocidadEstandar	;wreg free
  3945  0020CC  0012               	return		;funcret
  3946  0020CE                     __end_of_inicializarComportamientoBasico:
  3947                           	opt callstack 0
  3948                           
  3949 ;; *************** function _velocidadEstandar *****************
  3950 ;; Defined at:
  3951 ;;		line 1188 in file "main.c"
  3952 ;; Parameters:    Size  Location     Type
  3953 ;;		None
  3954 ;; Auto vars:     Size  Location     Type
  3955 ;;		None
  3956 ;; Return value:  Size  Location     Type
  3957 ;;                  1    wreg      void 
  3958 ;; Registers used:
  3959 ;;		wreg, status,2, status,0, prodl, prodh, cstack
  3960 ;; Tracked objects:
  3961 ;;		On entry : 0/0
  3962 ;;		On exit  : 0/0
  3963 ;;		Unchanged: 0/0
  3964 ;; Data sizes:     COMRAM   BANK0   BANK1   BANK2   BANK3   BANK4   BANK5   BANK6   BANK7
  3965 ;;      Params:         0       0       0       0       0       0       0       0       0
  3966 ;;      Locals:         0       0       0       0       0       0       0       0       0
  3967 ;;      Temps:          0       0       0       0       0       0       0       0       0
  3968 ;;      Totals:         0       0       0       0       0       0       0       0       0
  3969 ;;Total ram usage:        0 bytes
  3970 ;; Hardware stack levels used:    1
  3971 ;; Hardware stack levels required when called:    5
  3972 ;; This function calls:
  3973 ;;		_pwmDuty
  3974 ;; This function is called by:
  3975 ;;		_inicializarComportamientoBasico
  3976 ;;		_forzarEspejeoIzquierda
  3977 ;;		_forzarEspejeoDerecha
  3978 ;;		_comportamientoBasico
  3979 ;;		_regresarPuntoPartida
  3980 ;;		_regresarAlCruce
  3981 ;;		_recorrerCaminoEncontrado
  3982 ;; This function uses a non-reentrant model
  3983 ;;
  3984                           
  3985                           	psect	text20
  3986  0021B2                     __ptext20:
  3987                           	opt callstack 0
  3988  0021B2                     _velocidadEstandar:
  3989                           	opt callstack 21
  3990  0021B2                     
  3991                           ;main.c: 1190:     pwmDuty(100, 1);
  3992  0021B2  0E00               	movlw	0
  3993  0021B4  0100               	movlb	0	; () banked
  3994  0021B6  6FBA               	movwf	(pwmDuty@cicloTrabajo+1)& (0+255),b
  3995  0021B8  0E64               	movlw	100
  3996  0021BA  6FB9               	movwf	pwmDuty@cicloTrabajo& (0+255),b
  3997  0021BC  0E01               	movlw	1
  3998  0021BE  6FBB               	movwf	pwmDuty@channel& (0+255),b
  3999  0021C0  EC3E  F009         	call	_pwmDuty	;wreg free
  4000                           
  4001                           ;main.c: 1191:     pwmDuty(100, 2);
  4002  0021C4  0E00               	movlw	0
  4003  0021C6  0100               	movlb	0	; () banked
  4004  0021C8  6FBA               	movwf	(pwmDuty@cicloTrabajo+1)& (0+255),b
  4005  0021CA  0E64               	movlw	100
  4006  0021CC  6FB9               	movwf	pwmDuty@cicloTrabajo& (0+255),b
  4007  0021CE  0E02               	movlw	2
  4008  0021D0  6FBB               	movwf	pwmDuty@channel& (0+255),b
  4009  0021D2  EC3E  F009         	call	_pwmDuty	;wreg free
  4010  0021D6  0012               	return		;funcret
  4011  0021D8                     __end_of_velocidadEstandar:
  4012                           	opt callstack 0
  4013                           
  4014 ;; *************** function _pwmDuty *****************
  4015 ;; Defined at:
  4016 ;;		line 20 in file "./pwm.h"
  4017 ;; Parameters:    Size  Location     Type
  4018 ;;  cicloTrabajo    2   28[BANK0 ] unsigned int 
  4019 ;;  channel         1   30[BANK0 ] unsigned char 
  4020 ;; Auto vars:     Size  Location     Type
  4021 ;;  duty            4   36[BANK0 ] long 
  4022 ;; Return value:  Size  Location     Type
  4023 ;;                  1    wreg      void 
  4024 ;; Registers used:
  4025 ;;		wreg, status,2, status,0, prodl, prodh, cstack
  4026 ;; Tracked objects:
  4027 ;;		On entry : 0/0
  4028 ;;		On exit  : 0/0
  4029 ;;		Unchanged: 0/0
  4030 ;; Data sizes:     COMRAM   BANK0   BANK1   BANK2   BANK3   BANK4   BANK5   BANK6   BANK7
  4031 ;;      Params:         0       3       0       0       0       0       0       0       0
  4032 ;;      Locals:         0       4       0       0       0       0       0       0       0
  4033 ;;      Temps:          0       5       0       0       0       0       0       0       0
  4034 ;;      Totals:         0      12       0       0       0       0       0       0       0
  4035 ;;Total ram usage:       12 bytes
  4036 ;; Hardware stack levels used:    1
  4037 ;; Hardware stack levels required when called:    4
  4038 ;; This function calls:
  4039 ;;		___fldiv
  4040 ;;		___flmul
  4041 ;;		___fltol
  4042 ;;		___xxtofl
  4043 ;;		_map
  4044 ;; This function is called by:
  4045 ;;		_PID
  4046 ;;		_velocidadEstandar
  4047 ;; This function uses a non-reentrant model
  4048 ;;
  4049                           
  4050                           	psect	text21
  4051  00127C                     __ptext21:
  4052                           	opt callstack 0
  4053  00127C                     _pwmDuty:
  4054                           	opt callstack 21
  4055  00127C                     
  4056                           ;./pwm.h: 22:     T_LONG duty = map(cicloTrabajo, 0, 100, 0, 1023);
  4057  00127C  C0B9  F020         	movff	pwmDuty@cicloTrabajo,map@x
  4058  001280  C0BA  F021         	movff	pwmDuty@cicloTrabajo+1,map@x+1
  4059  001284  6A22               	clrf	(map@x+2)^0,c
  4060  001286  6A23               	clrf	(map@x+3)^0,c
  4061  001288  0E00               	movlw	0
  4062  00128A  6E24               	movwf	map@in_min^0,c
  4063  00128C  0E00               	movlw	0
  4064  00128E  6E25               	movwf	(map@in_min+1)^0,c
  4065  001290  0E00               	movlw	0
  4066  001292  6E26               	movwf	(map@in_min+2)^0,c
  4067  001294  0E00               	movlw	0
  4068  001296  6E27               	movwf	(map@in_min+3)^0,c
  4069  001298  0E64               	movlw	100
  4070  00129A  6E28               	movwf	map@in_max^0,c
  4071  00129C  0E00               	movlw	0
  4072  00129E  6E29               	movwf	(map@in_max+1)^0,c
  4073  0012A0  0E00               	movlw	0
  4074  0012A2  6E2A               	movwf	(map@in_max+2)^0,c
  4075  0012A4  0E00               	movlw	0
  4076  0012A6  6E2B               	movwf	(map@in_max+3)^0,c
  4077  0012A8  0E00               	movlw	0
  4078  0012AA  6E2C               	movwf	map@out_min^0,c
  4079  0012AC  0E00               	movlw	0
  4080  0012AE  6E2D               	movwf	(map@out_min+1)^0,c
  4081  0012B0  0E00               	movlw	0
  4082  0012B2  6E2E               	movwf	(map@out_min+2)^0,c
  4083  0012B4  0E00               	movlw	0
  4084  0012B6  6E2F               	movwf	(map@out_min+3)^0,c
  4085  0012B8  0EFF               	movlw	255
  4086  0012BA  6E30               	movwf	map@out_max^0,c
  4087  0012BC  0E03               	movlw	3
  4088  0012BE  6E31               	movwf	(map@out_max+1)^0,c
  4089  0012C0  0E00               	movlw	0
  4090  0012C2  6E32               	movwf	(map@out_max+2)^0,c
  4091  0012C4  0E00               	movlw	0
  4092  0012C6  6E33               	movwf	(map@out_max+3)^0,c
  4093  0012C8  EC7F  F00E         	call	_map	;wreg free
  4094  0012CC  C020  F0C1         	movff	?_map,pwmDuty@duty
  4095  0012D0  C021  F0C2         	movff	?_map+1,pwmDuty@duty+1
  4096  0012D4  C022  F0C3         	movff	?_map+2,pwmDuty@duty+2
  4097  0012D8  C023  F0C4         	movff	?_map+3,pwmDuty@duty+3
  4098  0012DC                     
  4099                           ;./pwm.h: 24:     if (duty < 1024) {
  4100  0012DC  0100               	movlb	0	; () banked
  4101  0012DE  BFC4               	btfsc	(pwmDuty@duty+3)& (0+255),7,b
  4102  0012E0  EF7E  F009         	goto	u4570
  4103  0012E4  51C4               	movf	(pwmDuty@duty+3)& (0+255),w,b
  4104  0012E6  11C3               	iorwf	(pwmDuty@duty+2)& (0+255),w,b
  4105  0012E8  E107               	bnz	u4571
  4106  0012EA  0E04               	movlw	4
  4107  0012EC  5DC2               	subwf	(pwmDuty@duty+1)& (0+255),w,b
  4108  0012EE  B0D8               	btfsc	status,0,c
  4109  0012F0  EF7C  F009         	goto	u4571
  4110  0012F4  EF7E  F009         	goto	u4570
  4111  0012F8                     u4571:
  4112  0012F8  EF1B  F00A         	goto	l155
  4113  0012FC                     u4570:
  4114  0012FC                     
  4115                           ; BSR set to: 0
  4116                           ;./pwm.h: 26:         duty = ((T_FLOAT) duty / 1023)*(4000000 / (500 * 16));
  4117  0012FC  0E00               	movlw	0
  4118  0012FE  6E1F               	movwf	___flmul@a^0,c
  4119  001300  0E00               	movlw	0
  4120  001302  6E20               	movwf	(___flmul@a+1)^0,c
  4121  001304  0EFA               	movlw	250
  4122  001306  6E21               	movwf	(___flmul@a+2)^0,c
  4123  001308  0E43               	movlw	67
  4124  00130A  6E22               	movwf	(___flmul@a+3)^0,c
  4125  00130C  0E00               	movlw	0
  4126  00130E  6E48               	movwf	___fldiv@a^0,c
  4127  001310  0EC0               	movlw	192
  4128  001312  6E49               	movwf	(___fldiv@a+1)^0,c
  4129  001314  0E7F               	movlw	127
  4130  001316  6E4A               	movwf	(___fldiv@a+2)^0,c
  4131  001318  0E44               	movlw	68
  4132  00131A  6E4B               	movwf	(___fldiv@a+3)^0,c
  4133  00131C  C0C1  F00D         	movff	pwmDuty@duty,___xxtofl@val
  4134  001320  C0C2  F00E         	movff	pwmDuty@duty+1,___xxtofl@val+1
  4135  001324  C0C3  F00F         	movff	pwmDuty@duty+2,___xxtofl@val+2
  4136  001328  C0C4  F010         	movff	pwmDuty@duty+3,___xxtofl@val+3
  4137  00132C  0E01               	movlw	1
  4138  00132E  EC1C  F00A         	call	___xxtofl
  4139  001332  C00D  F044         	movff	?___xxtofl,___fldiv@b
  4140  001336  C00E  F045         	movff	?___xxtofl+1,___fldiv@b+1
  4141  00133A  C00F  F046         	movff	?___xxtofl+2,___fldiv@b+2
  4142  00133E  C010  F047         	movff	?___xxtofl+3,___fldiv@b+3
  4143  001342  EC57  F006         	call	___fldiv	;wreg free
  4144  001346  C044  F01B         	movff	?___fldiv,___flmul@b
  4145  00134A  C045  F01C         	movff	?___fldiv+1,___flmul@b+1
  4146  00134E  C046  F01D         	movff	?___fldiv+2,___flmul@b+2
  4147  001352  C047  F01E         	movff	?___fldiv+3,___flmul@b+3
  4148  001356  EC69  F002         	call	___flmul	;wreg free
  4149  00135A  C01B  F0AF         	movff	?___flmul,___fltol@f1
  4150  00135E  C01C  F0B0         	movff	?___flmul+1,___fltol@f1+1
  4151  001362  C01D  F0B1         	movff	?___flmul+2,___fltol@f1+2
  4152  001366  C01E  F0B2         	movff	?___flmul+3,___fltol@f1+3
  4153  00136A  ECEB  F00C         	call	___fltol	;wreg free
  4154  00136E  C0AF  F0C1         	movff	?___fltol,pwmDuty@duty
  4155  001372  C0B0  F0C2         	movff	?___fltol+1,pwmDuty@duty+1
  4156  001376  C0B1  F0C3         	movff	?___fltol+2,pwmDuty@duty+2
  4157  00137A  C0B2  F0C4         	movff	?___fltol+3,pwmDuty@duty+3
  4158                           
  4159                           ;./pwm.h: 28:         switch (channel) {
  4160  00137E  EF05  F00A         	goto	l5302
  4161  001382                     l5296:
  4162                           
  4163                           ; BSR set to: 0
  4164                           ;./pwm.h: 31:                 CCPR1L = duty >> 2;
  4165  001382  0E02               	movlw	2
  4166  001384  6FBC               	movwf	??_pwmDuty& (0+255),b
  4167  001386  C0C1  F0BD         	movff	pwmDuty@duty,??_pwmDuty+1
  4168  00138A  C0C2  F0BE         	movff	pwmDuty@duty+1,??_pwmDuty+2
  4169  00138E  C0C3  F0BF         	movff	pwmDuty@duty+2,??_pwmDuty+3
  4170  001392  C0C4  F0C0         	movff	pwmDuty@duty+3,??_pwmDuty+4
  4171  001396                     u4585:
  4172  001396  67BC               	tstfsz	??_pwmDuty& (0+255),b
  4173  001398  EFD0  F009         	goto	u4586
  4174  00139C  EFD8  F009         	goto	u4587
  4175  0013A0                     u4586:
  4176  0013A0  35C0               	rlcf	(??_pwmDuty+4)& (0+255),w,b
  4177  0013A2  33C0               	rrcf	(??_pwmDuty+4)& (0+255),f,b
  4178  0013A4  33BF               	rrcf	(??_pwmDuty+3)& (0+255),f,b
  4179  0013A6  33BE               	rrcf	(??_pwmDuty+2)& (0+255),f,b
  4180  0013A8  33BD               	rrcf	(??_pwmDuty+1)& (0+255),f,b
  4181  0013AA  2FBC               	decfsz	??_pwmDuty& (0+255),f,b
  4182  0013AC  EFCB  F009         	goto	u4585
  4183  0013B0                     u4587:
  4184  0013B0  0100               	movlb	0	; () banked
  4185  0013B2  51BD               	movf	(??_pwmDuty+1)& (0+255),w,b
  4186  0013B4  6EBE               	movwf	190,c	;volatile
  4187                           
  4188                           ;./pwm.h: 32:                 CCP1CON &= 0xCF;
  4189  0013B6  0ECF               	movlw	207
  4190  0013B8  16BD               	andwf	189,f,c	;volatile
  4191                           
  4192                           ;./pwm.h: 33:                 CCP1CON |= ((duty << 4)&0x30);
  4193  0013BA  39C1               	swapf	pwmDuty@duty& (0+255),w,b	;volatile
  4194  0013BC  0BF0               	andlw	240
  4195  0013BE  0B30               	andlw	48
  4196  0013C0  12BD               	iorwf	189,f,c	;volatile
  4197                           
  4198                           ;./pwm.h: 34:                 break;
  4199  0013C2  EF1B  F00A         	goto	l155
  4200  0013C6                     l5298:
  4201                           
  4202                           ; BSR set to: 0
  4203                           ;./pwm.h: 37:                 CCPR2L = duty >> 2;
  4204  0013C6  0E02               	movlw	2
  4205  0013C8  6FBC               	movwf	??_pwmDuty& (0+255),b
  4206  0013CA  C0C1  F0BD         	movff	pwmDuty@duty,??_pwmDuty+1
  4207  0013CE  C0C2  F0BE         	movff	pwmDuty@duty+1,??_pwmDuty+2
  4208  0013D2  C0C3  F0BF         	movff	pwmDuty@duty+2,??_pwmDuty+3
  4209  0013D6  C0C4  F0C0         	movff	pwmDuty@duty+3,??_pwmDuty+4
  4210  0013DA                     u4595:
  4211  0013DA  67BC               	tstfsz	??_pwmDuty& (0+255),b
  4212  0013DC  EFF2  F009         	goto	u4596
  4213  0013E0  EFFA  F009         	goto	u4597
  4214  0013E4                     u4596:
  4215  0013E4  35C0               	rlcf	(??_pwmDuty+4)& (0+255),w,b
  4216  0013E6  33C0               	rrcf	(??_pwmDuty+4)& (0+255),f,b
  4217  0013E8  33BF               	rrcf	(??_pwmDuty+3)& (0+255),f,b
  4218  0013EA  33BE               	rrcf	(??_pwmDuty+2)& (0+255),f,b
  4219  0013EC  33BD               	rrcf	(??_pwmDuty+1)& (0+255),f,b
  4220  0013EE  2FBC               	decfsz	??_pwmDuty& (0+255),f,b
  4221  0013F0  EFED  F009         	goto	u4595
  4222  0013F4                     u4597:
  4223  0013F4  0100               	movlb	0	; () banked
  4224  0013F6  51BD               	movf	(??_pwmDuty+1)& (0+255),w,b
  4225  0013F8  6EBB               	movwf	187,c	;volatile
  4226                           
  4227                           ;./pwm.h: 38:                 CCP2CON &= 0xCF;
  4228  0013FA  0ECF               	movlw	207
  4229  0013FC  16BA               	andwf	186,f,c	;volatile
  4230                           
  4231                           ;./pwm.h: 39:                 CCP2CON |= ((duty << 4)&0x30);
  4232  0013FE  39C1               	swapf	pwmDuty@duty& (0+255),w,b	;volatile
  4233  001400  0BF0               	andlw	240
  4234  001402  0B30               	andlw	48
  4235  001404  12BA               	iorwf	186,f,c	;volatile
  4236                           
  4237                           ;./pwm.h: 40:                 break;
  4238  001406  EF1B  F00A         	goto	l155
  4239  00140A                     l5302:
  4240  00140A  0100               	movlb	0	; () banked
  4241  00140C  51BB               	movf	pwmDuty@channel& (0+255),w,b
  4242  00140E  6FBC               	movwf	??_pwmDuty& (0+255),b
  4243  001410  6BBD               	clrf	(??_pwmDuty+1)& (0+255),b
  4244                           
  4245                           ; Switch on 2 bytes has been partitioned into a top level switch of size 1, and 1 sub-sw
      +                          itches
  4246                           ; Switch size 1, requested type "simple"
  4247                           ; Number of cases is 1, Range of values is 0 to 0
  4248                           ; switch strategies available:
  4249                           ; Name         Instructions Cycles
  4250                           ; simple_byte            4     3 (average)
  4251                           ;	Chosen strategy is simple_byte
  4252  001412  51BD               	movf	(??_pwmDuty+1)& (0+255),w,b
  4253  001414  0A00               	xorlw	0	; case 0
  4254  001416  B4D8               	btfsc	status,2,c
  4255  001418  EF10  F00A         	goto	l5812
  4256  00141C  EF1B  F00A         	goto	l155
  4257  001420                     l5812:
  4258                           
  4259                           ; BSR set to: 0
  4260                           ; Switch size 1, requested type "simple"
  4261                           ; Number of cases is 2, Range of values is 1 to 2
  4262                           ; switch strategies available:
  4263                           ; Name         Instructions Cycles
  4264                           ; simple_byte            7     4 (average)
  4265                           ;	Chosen strategy is simple_byte
  4266  001420  51BC               	movf	??_pwmDuty& (0+255),w,b
  4267  001422  0A01               	xorlw	1	; case 1
  4268  001424  B4D8               	btfsc	status,2,c
  4269  001426  EFC1  F009         	goto	l5296
  4270  00142A  0A03               	xorlw	3	; case 2
  4271  00142C  B4D8               	btfsc	status,2,c
  4272  00142E  EFE3  F009         	goto	l5298
  4273  001432  EF1B  F00A         	goto	l155
  4274  001436                     l155:
  4275                           
  4276                           ; BSR set to: 0
  4277  001436  0012               	return		;funcret
  4278  001438                     __end_of_pwmDuty:
  4279                           	opt callstack 0
  4280                           
  4281 ;; *************** function _map *****************
  4282 ;; Defined at:
  4283 ;;		line 16 in file "./pwm.h"
  4284 ;; Parameters:    Size  Location     Type
  4285 ;;  x               4   31[COMRAM] long 
  4286 ;;  in_min          4   35[COMRAM] long 
  4287 ;;  in_max          4   39[COMRAM] long 
  4288 ;;  out_min         4   43[COMRAM] long 
  4289 ;;  out_max         4   47[COMRAM] long 
  4290 ;; Auto vars:     Size  Location     Type
  4291 ;;		None
  4292 ;; Return value:  Size  Location     Type
  4293 ;;                  4   31[COMRAM] long 
  4294 ;; Registers used:
  4295 ;;		wreg, status,2, status,0, cstack
  4296 ;; Tracked objects:
  4297 ;;		On entry : 0/0
  4298 ;;		On exit  : 0/0
  4299 ;;		Unchanged: 0/0
  4300 ;; Data sizes:     COMRAM   BANK0   BANK1   BANK2   BANK3   BANK4   BANK5   BANK6   BANK7
  4301 ;;      Params:        20       0       0       0       0       0       0       0       0
  4302 ;;      Locals:         0       0       0       0       0       0       0       0       0
  4303 ;;      Temps:          0       0       0       0       0       0       0       0       0
  4304 ;;      Totals:        20       0       0       0       0       0       0       0       0
  4305 ;;Total ram usage:       20 bytes
  4306 ;; Hardware stack levels used:    1
  4307 ;; Hardware stack levels required when called:    3
  4308 ;; This function calls:
  4309 ;;		___aldiv
  4310 ;;		___lmul
  4311 ;; This function is called by:
  4312 ;;		_pwmDuty
  4313 ;; This function uses a non-reentrant model
  4314 ;;
  4315                           
  4316                           	psect	text22
  4317  001CFE                     __ptext22:
  4318                           	opt callstack 0
  4319  001CFE                     _map:
  4320                           	opt callstack 21
  4321  001CFE                     
  4322                           ;./pwm.h: 17:     return (x - in_min) * (out_max - out_min) / (in_max - in_min) + out_mi
      +                          n;
  4323  001CFE  5024               	movf	map@in_min^0,w,c
  4324  001D00  5C20               	subwf	map@x^0,w,c
  4325  001D02  6E06               	movwf	___lmul@multiplier^0,c
  4326  001D04  5025               	movf	(map@in_min+1)^0,w,c
  4327  001D06  5821               	subwfb	(map@x+1)^0,w,c
  4328  001D08  6E07               	movwf	(___lmul@multiplier+1)^0,c
  4329  001D0A  5026               	movf	(map@in_min+2)^0,w,c
  4330  001D0C  5822               	subwfb	(map@x+2)^0,w,c
  4331  001D0E  6E08               	movwf	(___lmul@multiplier+2)^0,c
  4332  001D10  5027               	movf	(map@in_min+3)^0,w,c
  4333  001D12  5823               	subwfb	(map@x+3)^0,w,c
  4334  001D14  6E09               	movwf	(___lmul@multiplier+3)^0,c
  4335  001D16  502C               	movf	map@out_min^0,w,c
  4336  001D18  5C30               	subwf	map@out_max^0,w,c
  4337  001D1A  6E0A               	movwf	___lmul@multiplicand^0,c
  4338  001D1C  502D               	movf	(map@out_min+1)^0,w,c
  4339  001D1E  5831               	subwfb	(map@out_max+1)^0,w,c
  4340  001D20  6E0B               	movwf	(___lmul@multiplicand+1)^0,c
  4341  001D22  502E               	movf	(map@out_min+2)^0,w,c
  4342  001D24  5832               	subwfb	(map@out_max+2)^0,w,c
  4343  001D26  6E0C               	movwf	(___lmul@multiplicand+2)^0,c
  4344  001D28  502F               	movf	(map@out_min+3)^0,w,c
  4345  001D2A  5833               	subwfb	(map@out_max+3)^0,w,c
  4346  001D2C  6E0D               	movwf	(___lmul@multiplicand+3)^0,c
  4347  001D2E  EC2E  F00F         	call	___lmul	;wreg free
  4348  001D32  C006  F012         	movff	?___lmul,___aldiv@dividend
  4349  001D36  C007  F013         	movff	?___lmul+1,___aldiv@dividend+1
  4350  001D3A  C008  F014         	movff	?___lmul+2,___aldiv@dividend+2
  4351  001D3E  C009  F015         	movff	?___lmul+3,___aldiv@dividend+3
  4352  001D42  5024               	movf	map@in_min^0,w,c
  4353  001D44  5C28               	subwf	map@in_max^0,w,c
  4354  001D46  6E16               	movwf	___aldiv@divisor^0,c
  4355  001D48  5025               	movf	(map@in_min+1)^0,w,c
  4356  001D4A  5829               	subwfb	(map@in_max+1)^0,w,c
  4357  001D4C  6E17               	movwf	(___aldiv@divisor+1)^0,c
  4358  001D4E  5026               	movf	(map@in_min+2)^0,w,c
  4359  001D50  582A               	subwfb	(map@in_max+2)^0,w,c
  4360  001D52  6E18               	movwf	(___aldiv@divisor+2)^0,c
  4361  001D54  5027               	movf	(map@in_min+3)^0,w,c
  4362  001D56  582B               	subwfb	(map@in_max+3)^0,w,c
  4363  001D58  6E19               	movwf	(___aldiv@divisor+3)^0,c
  4364  001D5A  EC65  F00C         	call	___aldiv	;wreg free
  4365  001D5E  502C               	movf	map@out_min^0,w,c
  4366  001D60  2412               	addwf	?___aldiv^0,w,c
  4367  001D62  6E20               	movwf	?_map^0,c
  4368  001D64  502D               	movf	(map@out_min+1)^0,w,c
  4369  001D66  2013               	addwfc	(?___aldiv+1)^0,w,c
  4370  001D68  6E21               	movwf	(?_map+1)^0,c
  4371  001D6A  502E               	movf	(map@out_min+2)^0,w,c
  4372  001D6C  2014               	addwfc	(?___aldiv+2)^0,w,c
  4373  001D6E  6E22               	movwf	(?_map+2)^0,c
  4374  001D70  502F               	movf	(map@out_min+3)^0,w,c
  4375  001D72  2015               	addwfc	(?___aldiv+3)^0,w,c
  4376  001D74  6E23               	movwf	(?_map+3)^0,c
  4377  001D76  0012               	return		;funcret
  4378  001D78                     __end_of_map:
  4379                           	opt callstack 0
  4380                           
  4381 ;; *************** function ___lmul *****************
  4382 ;; Defined at:
  4383 ;;		line 15 in file "C:\Program Files (x86)\Microchip\xc8\v2.10\pic\sources\c99\common\Umul32.c"
  4384 ;; Parameters:    Size  Location     Type
  4385 ;;  multiplier      4    5[COMRAM] unsigned long 
  4386 ;;  multiplicand    4    9[COMRAM] unsigned long 
  4387 ;; Auto vars:     Size  Location     Type
  4388 ;;  product         4   13[COMRAM] unsigned long 
  4389 ;; Return value:  Size  Location     Type
  4390 ;;                  4    5[COMRAM] unsigned long 
  4391 ;; Registers used:
  4392 ;;		wreg, status,2, status,0
  4393 ;; Tracked objects:
  4394 ;;		On entry : 0/0
  4395 ;;		On exit  : 0/0
  4396 ;;		Unchanged: 0/0
  4397 ;; Data sizes:     COMRAM   BANK0   BANK1   BANK2   BANK3   BANK4   BANK5   BANK6   BANK7
  4398 ;;      Params:         8       0       0       0       0       0       0       0       0
  4399 ;;      Locals:         4       0       0       0       0       0       0       0       0
  4400 ;;      Temps:          0       0       0       0       0       0       0       0       0
  4401 ;;      Totals:        12       0       0       0       0       0       0       0       0
  4402 ;;Total ram usage:       12 bytes
  4403 ;; Hardware stack levels used:    1
  4404 ;; Hardware stack levels required when called:    2
  4405 ;; This function calls:
  4406 ;;		Nothing
  4407 ;; This function is called by:
  4408 ;;		_map
  4409 ;; This function uses a non-reentrant model
  4410 ;;
  4411                           
  4412                           	psect	text23
  4413  001E5C                     __ptext23:
  4414                           	opt callstack 0
  4415  001E5C                     ___lmul:
  4416                           	opt callstack 21
  4417  001E5C  0E00               	movlw	0
  4418  001E5E  6E0E               	movwf	___lmul@product^0,c
  4419  001E60  0E00               	movlw	0
  4420  001E62  6E0F               	movwf	(___lmul@product+1)^0,c
  4421  001E64  0E00               	movlw	0
  4422  001E66  6E10               	movwf	(___lmul@product+2)^0,c
  4423  001E68  0E00               	movlw	0
  4424  001E6A  6E11               	movwf	(___lmul@product+3)^0,c
  4425  001E6C                     l3324:
  4426  001E6C  A006               	btfss	___lmul@multiplier^0,0,c
  4427  001E6E  EF3B  F00F         	goto	u2261
  4428  001E72  EF3D  F00F         	goto	u2260
  4429  001E76                     u2261:
  4430  001E76  EF45  F00F         	goto	l3328
  4431  001E7A                     u2260:
  4432  001E7A  500A               	movf	___lmul@multiplicand^0,w,c
  4433  001E7C  260E               	addwf	___lmul@product^0,f,c
  4434  001E7E  500B               	movf	(___lmul@multiplicand+1)^0,w,c
  4435  001E80  220F               	addwfc	(___lmul@product+1)^0,f,c
  4436  001E82  500C               	movf	(___lmul@multiplicand+2)^0,w,c
  4437  001E84  2210               	addwfc	(___lmul@product+2)^0,f,c
  4438  001E86  500D               	movf	(___lmul@multiplicand+3)^0,w,c
  4439  001E88  2211               	addwfc	(___lmul@product+3)^0,f,c
  4440  001E8A                     l3328:
  4441  001E8A  90D8               	bcf	status,0,c
  4442  001E8C  360A               	rlcf	___lmul@multiplicand^0,f,c
  4443  001E8E  360B               	rlcf	(___lmul@multiplicand+1)^0,f,c
  4444  001E90  360C               	rlcf	(___lmul@multiplicand+2)^0,f,c
  4445  001E92  360D               	rlcf	(___lmul@multiplicand+3)^0,f,c
  4446  001E94  90D8               	bcf	status,0,c
  4447  001E96  3209               	rrcf	(___lmul@multiplier+3)^0,f,c
  4448  001E98  3208               	rrcf	(___lmul@multiplier+2)^0,f,c
  4449  001E9A  3207               	rrcf	(___lmul@multiplier+1)^0,f,c
  4450  001E9C  3206               	rrcf	___lmul@multiplier^0,f,c
  4451  001E9E  5006               	movf	___lmul@multiplier^0,w,c
  4452  001EA0  1007               	iorwf	(___lmul@multiplier+1)^0,w,c
  4453  001EA2  1008               	iorwf	(___lmul@multiplier+2)^0,w,c
  4454  001EA4  1009               	iorwf	(___lmul@multiplier+3)^0,w,c
  4455  001EA6  A4D8               	btfss	status,2,c
  4456  001EA8  EF58  F00F         	goto	u2271
  4457  001EAC  EF5A  F00F         	goto	u2270
  4458  001EB0                     u2271:
  4459  001EB0  EF36  F00F         	goto	l3324
  4460  001EB4                     u2270:
  4461  001EB4  C00E  F006         	movff	___lmul@product,?___lmul
  4462  001EB8  C00F  F007         	movff	___lmul@product+1,?___lmul+1
  4463  001EBC  C010  F008         	movff	___lmul@product+2,?___lmul+2
  4464  001EC0  C011  F009         	movff	___lmul@product+3,?___lmul+3
  4465  001EC4  0012               	return		;funcret
  4466  001EC6                     __end_of___lmul:
  4467                           	opt callstack 0
  4468                           
  4469 ;; *************** function ___fltol *****************
  4470 ;; Defined at:
  4471 ;;		line 43 in file "C:\Program Files (x86)\Microchip\xc8\v2.10\pic\sources\c99\common\fltol.c"
  4472 ;; Parameters:    Size  Location     Type
  4473 ;;  f1              4   18[BANK0 ] unsigned long 
  4474 ;; Auto vars:     Size  Location     Type
  4475 ;;  exp1            1   27[BANK0 ] unsigned char 
  4476 ;;  sign1           1   26[BANK0 ] unsigned char 
  4477 ;; Return value:  Size  Location     Type
  4478 ;;                  4   18[BANK0 ] long 
  4479 ;; Registers used:
  4480 ;;		wreg, status,2, status,0
  4481 ;; Tracked objects:
  4482 ;;		On entry : 0/0
  4483 ;;		On exit  : 0/0
  4484 ;;		Unchanged: 0/0
  4485 ;; Data sizes:     COMRAM   BANK0   BANK1   BANK2   BANK3   BANK4   BANK5   BANK6   BANK7
  4486 ;;      Params:         0       4       0       0       0       0       0       0       0
  4487 ;;      Locals:         0       2       0       0       0       0       0       0       0
  4488 ;;      Temps:          0       4       0       0       0       0       0       0       0
  4489 ;;      Totals:         0      10       0       0       0       0       0       0       0
  4490 ;;Total ram usage:       10 bytes
  4491 ;; Hardware stack levels used:    1
  4492 ;; Hardware stack levels required when called:    2
  4493 ;; This function calls:
  4494 ;;		Nothing
  4495 ;; This function is called by:
  4496 ;;		_pwmDuty
  4497 ;;		_PID
  4498 ;; This function uses a non-reentrant model
  4499 ;;
  4500                           
  4501                           	psect	text24
  4502  0019D6                     __ptext24:
  4503                           	opt callstack 0
  4504  0019D6                     ___fltol:
  4505                           	opt callstack 22
  4506  0019D6  0100               	movlb	0	; () banked
  4507  0019D8  35B1               	rlcf	(___fltol@f1+2)& (0+255),w,b
  4508  0019DA  35B2               	rlcf	(___fltol@f1+3)& (0+255),w,b
  4509  0019DC  6FB8               	movwf	___fltol@exp1& (0+255),b
  4510  0019DE  51B8               	movf	___fltol@exp1& (0+255),w,b
  4511  0019E0  A4D8               	btfss	status,2,c
  4512  0019E2  EFF5  F00C         	goto	u4501
  4513  0019E6  EFF7  F00C         	goto	u4500
  4514  0019EA                     u4501:
  4515  0019EA  EF01  F00D         	goto	l5252
  4516  0019EE                     u4500:
  4517  0019EE                     l5248:
  4518                           
  4519                           ; BSR set to: 0
  4520  0019EE  0E00               	movlw	0
  4521  0019F0  6FAF               	movwf	?___fltol& (0+255),b
  4522  0019F2  0E00               	movlw	0
  4523  0019F4  6FB0               	movwf	(?___fltol+1)& (0+255),b
  4524  0019F6  0E00               	movlw	0
  4525  0019F8  6FB1               	movwf	(?___fltol+2)& (0+255),b
  4526  0019FA  0E00               	movlw	0
  4527  0019FC  6FB2               	movwf	(?___fltol+3)& (0+255),b
  4528  0019FE  EF6E  F00D         	goto	l1002
  4529  001A02                     l5252:
  4530                           
  4531                           ; BSR set to: 0
  4532  001A02  C0AF  F0B3         	movff	___fltol@f1,??___fltol
  4533  001A06  C0B0  F0B4         	movff	___fltol@f1+1,??___fltol+1
  4534  001A0A  C0B1  F0B5         	movff	___fltol@f1+2,??___fltol+2
  4535  001A0E  C0B2  F0B6         	movff	___fltol@f1+3,??___fltol+3
  4536  001A12  0E20               	movlw	32
  4537  001A14  EF11  F00D         	goto	u4510
  4538  001A18                     u4515:
  4539  001A18  90D8               	bcf	status,0,c
  4540  001A1A  33B6               	rrcf	(??___fltol+3)& (0+255),f,b
  4541  001A1C  33B5               	rrcf	(??___fltol+2)& (0+255),f,b
  4542  001A1E  33B4               	rrcf	(??___fltol+1)& (0+255),f,b
  4543  001A20  33B3               	rrcf	??___fltol& (0+255),f,b
  4544  001A22                     u4510:
  4545  001A22  2EE8               	decfsz	wreg,f,c
  4546  001A24  EF0C  F00D         	goto	u4515
  4547  001A28  51B3               	movf	??___fltol& (0+255),w,b
  4548  001A2A  6FB7               	movwf	___fltol@sign1& (0+255),b
  4549  001A2C                     
  4550                           ; BSR set to: 0
  4551  001A2C  8FB1               	bsf	(___fltol@f1+2)& (0+255),7,b
  4552  001A2E                     
  4553                           ; BSR set to: 0
  4554  001A2E  0EFF               	movlw	255
  4555  001A30  17AF               	andwf	___fltol@f1& (0+255),f,b
  4556  001A32  0EFF               	movlw	255
  4557  001A34  17B0               	andwf	(___fltol@f1+1)& (0+255),f,b
  4558  001A36  0EFF               	movlw	255
  4559  001A38  17B1               	andwf	(___fltol@f1+2)& (0+255),f,b
  4560  001A3A  0E00               	movlw	0
  4561  001A3C  17B2               	andwf	(___fltol@f1+3)& (0+255),f,b
  4562  001A3E                     
  4563                           ; BSR set to: 0
  4564  001A3E  0E96               	movlw	150
  4565  001A40  5FB8               	subwf	___fltol@exp1& (0+255),f,b
  4566  001A42                     
  4567                           ; BSR set to: 0
  4568  001A42  BFB8               	btfsc	___fltol@exp1& (0+255),7,b
  4569  001A44  EF28  F00D         	goto	u4520
  4570  001A48  EF26  F00D         	goto	u4521
  4571  001A4C                     u4521:
  4572  001A4C  EF3E  F00D         	goto	l5272
  4573  001A50                     u4520:
  4574  001A50                     
  4575                           ; BSR set to: 0
  4576  001A50  51B8               	movf	___fltol@exp1& (0+255),w,b
  4577  001A52  0A80               	xorlw	128
  4578  001A54  0F97               	addlw	151
  4579  001A56  B0D8               	btfsc	status,0,c
  4580  001A58  EF30  F00D         	goto	u4531
  4581  001A5C  EF32  F00D         	goto	u4530
  4582  001A60                     u4531:
  4583  001A60  EF34  F00D         	goto	l5268
  4584  001A64                     u4530:
  4585  001A64  EFF7  F00C         	goto	l5248
  4586  001A68                     l5268:
  4587                           
  4588                           ; BSR set to: 0
  4589  001A68  90D8               	bcf	status,0,c
  4590  001A6A  33B2               	rrcf	(___fltol@f1+3)& (0+255),f,b
  4591  001A6C  33B1               	rrcf	(___fltol@f1+2)& (0+255),f,b
  4592  001A6E  33B0               	rrcf	(___fltol@f1+1)& (0+255),f,b
  4593  001A70  33AF               	rrcf	___fltol@f1& (0+255),f,b
  4594  001A72                     
  4595                           ; BSR set to: 0
  4596  001A72  3FB8               	incfsz	___fltol@exp1& (0+255),f,b
  4597  001A74  EF34  F00D         	goto	l5268
  4598  001A78  EF56  F00D         	goto	l5282
  4599  001A7C                     l5272:
  4600                           
  4601                           ; BSR set to: 0
  4602  001A7C  0E1F               	movlw	31
  4603  001A7E  65B8               	cpfsgt	___fltol@exp1& (0+255),b
  4604  001A80  EF44  F00D         	goto	u4541
  4605  001A84  EF46  F00D         	goto	u4540
  4606  001A88                     u4541:
  4607  001A88  EF4E  F00D         	goto	l5280
  4608  001A8C                     u4540:
  4609  001A8C  EFF7  F00C         	goto	l5248
  4610  001A90                     l5278:
  4611                           
  4612                           ; BSR set to: 0
  4613  001A90  90D8               	bcf	status,0,c
  4614  001A92  37AF               	rlcf	___fltol@f1& (0+255),f,b
  4615  001A94  37B0               	rlcf	(___fltol@f1+1)& (0+255),f,b
  4616  001A96  37B1               	rlcf	(___fltol@f1+2)& (0+255),f,b
  4617  001A98  37B2               	rlcf	(___fltol@f1+3)& (0+255),f,b
  4618  001A9A  07B8               	decf	___fltol@exp1& (0+255),f,b
  4619  001A9C                     l5280:
  4620                           
  4621                           ; BSR set to: 0
  4622  001A9C  51B8               	movf	___fltol@exp1& (0+255),w,b
  4623  001A9E  A4D8               	btfss	status,2,c
  4624  001AA0  EF54  F00D         	goto	u4551
  4625  001AA4  EF56  F00D         	goto	u4550
  4626  001AA8                     u4551:
  4627  001AA8  EF48  F00D         	goto	l5278
  4628  001AAC                     u4550:
  4629  001AAC                     l5282:
  4630                           
  4631                           ; BSR set to: 0
  4632  001AAC  51B7               	movf	___fltol@sign1& (0+255),w,b
  4633  001AAE  B4D8               	btfsc	status,2,c
  4634  001AB0  EF5C  F00D         	goto	u4561
  4635  001AB4  EF5E  F00D         	goto	u4560
  4636  001AB8                     u4561:
  4637  001AB8  EF66  F00D         	goto	l5286
  4638  001ABC                     u4560:
  4639  001ABC                     
  4640                           ; BSR set to: 0
  4641  001ABC  1FB2               	comf	(___fltol@f1+3)& (0+255),f,b
  4642  001ABE  1FB1               	comf	(___fltol@f1+2)& (0+255),f,b
  4643  001AC0  1FB0               	comf	(___fltol@f1+1)& (0+255),f,b
  4644  001AC2  6DAF               	negf	___fltol@f1& (0+255),b
  4645  001AC4  0E00               	movlw	0
  4646  001AC6  23B0               	addwfc	(___fltol@f1+1)& (0+255),f,b
  4647  001AC8  23B1               	addwfc	(___fltol@f1+2)& (0+255),f,b
  4648  001ACA  23B2               	addwfc	(___fltol@f1+3)& (0+255),f,b
  4649  001ACC                     l5286:
  4650                           
  4651                           ; BSR set to: 0
  4652  001ACC  C0AF  F0AF         	movff	___fltol@f1,?___fltol
  4653  001AD0  C0B0  F0B0         	movff	___fltol@f1+1,?___fltol+1
  4654  001AD4  C0B1  F0B1         	movff	___fltol@f1+2,?___fltol+2
  4655  001AD8  C0B2  F0B2         	movff	___fltol@f1+3,?___fltol+3
  4656  001ADC                     l1002:
  4657                           
  4658                           ; BSR set to: 0
  4659  001ADC  0012               	return		;funcret
  4660  001ADE                     __end_of___fltol:
  4661                           	opt callstack 0
  4662                           
  4663 ;; *************** function ___flmul *****************
  4664 ;; Defined at:
  4665 ;;		line 8 in file "C:\Program Files (x86)\Microchip\xc8\v2.10\pic\sources\c99\common\sprcmul.c"
  4666 ;; Parameters:    Size  Location     Type
  4667 ;;  b               4   26[COMRAM] long 
  4668 ;;  a               4   30[COMRAM] long 
  4669 ;; Auto vars:     Size  Location     Type
  4670 ;;  prod            4   45[COMRAM] struct .
  4671 ;;  grs             4   39[COMRAM] unsigned long 
  4672 ;;  temp            2   49[COMRAM] struct .
  4673 ;;  bexp            1   44[COMRAM] unsigned char 
  4674 ;;  aexp            1   43[COMRAM] unsigned char 
  4675 ;;  sign            1   38[COMRAM] unsigned char 
  4676 ;; Return value:  Size  Location     Type
  4677 ;;                  4   26[COMRAM] unsigned char 
  4678 ;; Registers used:
  4679 ;;		wreg, status,2, status,0, prodl, prodh
  4680 ;; Tracked objects:
  4681 ;;		On entry : 0/0
  4682 ;;		On exit  : 0/0
  4683 ;;		Unchanged: 0/0
  4684 ;; Data sizes:     COMRAM   BANK0   BANK1   BANK2   BANK3   BANK4   BANK5   BANK6   BANK7
  4685 ;;      Params:         8       0       0       0       0       0       0       0       0
  4686 ;;      Locals:        13       0       0       0       0       0       0       0       0
  4687 ;;      Temps:          4       0       0       0       0       0       0       0       0
  4688 ;;      Totals:        25       0       0       0       0       0       0       0       0
  4689 ;;Total ram usage:       25 bytes
  4690 ;; Hardware stack levels used:    1
  4691 ;; Hardware stack levels required when called:    2
  4692 ;; This function calls:
  4693 ;;		Nothing
  4694 ;; This function is called by:
  4695 ;;		_pwmDuty
  4696 ;;		_PID
  4697 ;;		_roundf
  4698 ;; This function uses a non-reentrant model
  4699 ;;
  4700                           
  4701                           	psect	text25
  4702  0004D2                     __ptext25:
  4703                           	opt callstack 0
  4704  0004D2                     ___flmul:
  4705                           	opt callstack 22
  4706  0004D2  501E               	movf	(___flmul@b+3)^0,w,c
  4707  0004D4  0B80               	andlw	128
  4708  0004D6  6E27               	movwf	___flmul@sign^0,c
  4709  0004D8  501E               	movf	(___flmul@b+3)^0,w,c
  4710  0004DA  241E               	addwf	(___flmul@b+3)^0,w,c
  4711  0004DC  6E2D               	movwf	___flmul@bexp^0,c
  4712  0004DE  AE1D               	btfss	(___flmul@b+2)^0,7,c
  4713  0004E0  EF74  F002         	goto	u2571
  4714  0004E4  EF76  F002         	goto	u2570
  4715  0004E8                     u2571:
  4716  0004E8  EF77  F002         	goto	l3524
  4717  0004EC                     u2570:
  4718  0004EC  802D               	bsf	___flmul@bexp^0,0,c
  4719  0004EE                     l3524:
  4720  0004EE  502D               	movf	___flmul@bexp^0,w,c
  4721  0004F0  B4D8               	btfsc	status,2,c
  4722  0004F2  EF7D  F002         	goto	u2581
  4723  0004F6  EF7F  F002         	goto	u2580
  4724  0004FA                     u2581:
  4725  0004FA  EF92  F002         	goto	l3532
  4726  0004FE                     u2580:
  4727  0004FE  282D               	incf	___flmul@bexp^0,w,c
  4728  000500  A4D8               	btfss	status,2,c
  4729  000502  EF85  F002         	goto	u2591
  4730  000506  EF87  F002         	goto	u2590
  4731  00050A                     u2591:
  4732  00050A  EF8F  F002         	goto	l3530
  4733  00050E                     u2590:
  4734  00050E  0E00               	movlw	0
  4735  000510  6E1B               	movwf	___flmul@b^0,c
  4736  000512  0E00               	movlw	0
  4737  000514  6E1C               	movwf	(___flmul@b+1)^0,c
  4738  000516  0E00               	movlw	0
  4739  000518  6E1D               	movwf	(___flmul@b+2)^0,c
  4740  00051A  0E00               	movlw	0
  4741  00051C  6E1E               	movwf	(___flmul@b+3)^0,c
  4742  00051E                     l3530:
  4743  00051E  8E1D               	bsf	(___flmul@b+2)^0,7,c
  4744  000520  EF9A  F002         	goto	l3534
  4745  000524                     l3532:
  4746  000524  0E00               	movlw	0
  4747  000526  6E1B               	movwf	___flmul@b^0,c
  4748  000528  0E00               	movlw	0
  4749  00052A  6E1C               	movwf	(___flmul@b+1)^0,c
  4750  00052C  0E00               	movlw	0
  4751  00052E  6E1D               	movwf	(___flmul@b+2)^0,c
  4752  000530  0E00               	movlw	0
  4753  000532  6E1E               	movwf	(___flmul@b+3)^0,c
  4754  000534                     l3534:
  4755  000534  5022               	movf	(___flmul@a+3)^0,w,c
  4756  000536  0B80               	andlw	128
  4757  000538  1A27               	xorwf	___flmul@sign^0,f,c
  4758  00053A  5022               	movf	(___flmul@a+3)^0,w,c
  4759  00053C  2422               	addwf	(___flmul@a+3)^0,w,c
  4760  00053E  6E2C               	movwf	___flmul@aexp^0,c
  4761  000540  AE21               	btfss	(___flmul@a+2)^0,7,c
  4762  000542  EFA5  F002         	goto	u2601
  4763  000546  EFA7  F002         	goto	u2600
  4764  00054A                     u2601:
  4765  00054A  EFA8  F002         	goto	l3542
  4766  00054E                     u2600:
  4767  00054E  802C               	bsf	___flmul@aexp^0,0,c
  4768  000550                     l3542:
  4769  000550  502C               	movf	___flmul@aexp^0,w,c
  4770  000552  B4D8               	btfsc	status,2,c
  4771  000554  EFAE  F002         	goto	u2611
  4772  000558  EFB0  F002         	goto	u2610
  4773  00055C                     u2611:
  4774  00055C  EFC3  F002         	goto	l3550
  4775  000560                     u2610:
  4776  000560  282C               	incf	___flmul@aexp^0,w,c
  4777  000562  A4D8               	btfss	status,2,c
  4778  000564  EFB6  F002         	goto	u2621
  4779  000568  EFB8  F002         	goto	u2620
  4780  00056C                     u2621:
  4781  00056C  EFC0  F002         	goto	l3548
  4782  000570                     u2620:
  4783  000570  0E00               	movlw	0
  4784  000572  6E1F               	movwf	___flmul@a^0,c
  4785  000574  0E00               	movlw	0
  4786  000576  6E20               	movwf	(___flmul@a+1)^0,c
  4787  000578  0E00               	movlw	0
  4788  00057A  6E21               	movwf	(___flmul@a+2)^0,c
  4789  00057C  0E00               	movlw	0
  4790  00057E  6E22               	movwf	(___flmul@a+3)^0,c
  4791  000580                     l3548:
  4792  000580  8E21               	bsf	(___flmul@a+2)^0,7,c
  4793  000582  EFCB  F002         	goto	l1319
  4794  000586                     l3550:
  4795  000586  0E00               	movlw	0
  4796  000588  6E1F               	movwf	___flmul@a^0,c
  4797  00058A  0E00               	movlw	0
  4798  00058C  6E20               	movwf	(___flmul@a+1)^0,c
  4799  00058E  0E00               	movlw	0
  4800  000590  6E21               	movwf	(___flmul@a+2)^0,c
  4801  000592  0E00               	movlw	0
  4802  000594  6E22               	movwf	(___flmul@a+3)^0,c
  4803  000596                     l1319:
  4804  000596  502C               	movf	___flmul@aexp^0,w,c
  4805  000598  B4D8               	btfsc	status,2,c
  4806  00059A  EFD1  F002         	goto	u2631
  4807  00059E  EFD3  F002         	goto	u2630
  4808  0005A2                     u2631:
  4809  0005A2  EFDB  F002         	goto	l3554
  4810  0005A6                     u2630:
  4811  0005A6  502D               	movf	___flmul@bexp^0,w,c
  4812  0005A8  A4D8               	btfss	status,2,c
  4813  0005AA  EFD9  F002         	goto	u2641
  4814  0005AE  EFDB  F002         	goto	u2640
  4815  0005B2                     u2641:
  4816  0005B2  EFE5  F002         	goto	l3558
  4817  0005B6                     u2640:
  4818  0005B6                     l3554:
  4819  0005B6  0E00               	movlw	0
  4820  0005B8  6E1B               	movwf	?___flmul^0,c
  4821  0005BA  0E00               	movlw	0
  4822  0005BC  6E1C               	movwf	(?___flmul+1)^0,c
  4823  0005BE  0E00               	movlw	0
  4824  0005C0  6E1D               	movwf	(?___flmul+2)^0,c
  4825  0005C2  0E00               	movlw	0
  4826  0005C4  6E1E               	movwf	(?___flmul+3)^0,c
  4827  0005C6  EF7D  F004         	goto	l1323
  4828  0005CA                     l3558:
  4829  0005CA  5021               	movf	(___flmul@a+2)^0,w,c
  4830  0005CC  021B               	mulwf	___flmul@b^0,c
  4831  0005CE  CFF3 F032          	movff	prodl,___flmul@temp
  4832  0005D2  CFF4 F033          	movff	prodh,___flmul@temp+1
  4833  0005D6  5032               	movf	___flmul@temp^0,w,c
  4834  0005D8  6E28               	movwf	___flmul@grs^0,c
  4835  0005DA  6A29               	clrf	(___flmul@grs+1)^0,c
  4836  0005DC  6A2A               	clrf	(___flmul@grs+2)^0,c
  4837  0005DE  6A2B               	clrf	(___flmul@grs+3)^0,c
  4838  0005E0  5033               	movf	(___flmul@temp+1)^0,w,c
  4839  0005E2  6E2E               	movwf	___flmul@prod^0,c
  4840  0005E4  6A2F               	clrf	(___flmul@prod+1)^0,c
  4841  0005E6  6A30               	clrf	(___flmul@prod+2)^0,c
  4842  0005E8  6A31               	clrf	(___flmul@prod+3)^0,c
  4843  0005EA  5020               	movf	(___flmul@a+1)^0,w,c
  4844  0005EC  021C               	mulwf	(___flmul@b+1)^0,c
  4845  0005EE  CFF3 F032          	movff	prodl,___flmul@temp
  4846  0005F2  CFF4 F033          	movff	prodh,___flmul@temp+1
  4847  0005F6  5032               	movf	___flmul@temp^0,w,c
  4848  0005F8  2628               	addwf	___flmul@grs^0,f,c
  4849  0005FA  0E00               	movlw	0
  4850  0005FC  2229               	addwfc	(___flmul@grs+1)^0,f,c
  4851  0005FE  222A               	addwfc	(___flmul@grs+2)^0,f,c
  4852  000600  222B               	addwfc	(___flmul@grs+3)^0,f,c
  4853  000602  5033               	movf	(___flmul@temp+1)^0,w,c
  4854  000604  262E               	addwf	___flmul@prod^0,f,c
  4855  000606  0E00               	movlw	0
  4856  000608  222F               	addwfc	(___flmul@prod+1)^0,f,c
  4857  00060A  2230               	addwfc	(___flmul@prod+2)^0,f,c
  4858  00060C  2231               	addwfc	(___flmul@prod+3)^0,f,c
  4859  00060E  501F               	movf	___flmul@a^0,w,c
  4860  000610  021D               	mulwf	(___flmul@b+2)^0,c
  4861  000612  CFF3 F032          	movff	prodl,___flmul@temp
  4862  000616  CFF4 F033          	movff	prodh,___flmul@temp+1
  4863  00061A  5032               	movf	___flmul@temp^0,w,c
  4864  00061C  2628               	addwf	___flmul@grs^0,f,c
  4865  00061E  0E00               	movlw	0
  4866  000620  2229               	addwfc	(___flmul@grs+1)^0,f,c
  4867  000622  222A               	addwfc	(___flmul@grs+2)^0,f,c
  4868  000624  222B               	addwfc	(___flmul@grs+3)^0,f,c
  4869  000626  5033               	movf	(___flmul@temp+1)^0,w,c
  4870  000628  262E               	addwf	___flmul@prod^0,f,c
  4871  00062A  0E00               	movlw	0
  4872  00062C  222F               	addwfc	(___flmul@prod+1)^0,f,c
  4873  00062E  2230               	addwfc	(___flmul@prod+2)^0,f,c
  4874  000630  2231               	addwfc	(___flmul@prod+3)^0,f,c
  4875  000632  C02A  F02B         	movff	___flmul@grs+2,___flmul@grs+3
  4876  000636  C029  F02A         	movff	___flmul@grs+1,___flmul@grs+2
  4877  00063A  C028  F029         	movff	___flmul@grs,___flmul@grs+1
  4878  00063E  6A28               	clrf	___flmul@grs^0,c
  4879  000640  501F               	movf	___flmul@a^0,w,c
  4880  000642  021C               	mulwf	(___flmul@b+1)^0,c
  4881  000644  CFF3 F032          	movff	prodl,___flmul@temp
  4882  000648  CFF4 F033          	movff	prodh,___flmul@temp+1
  4883  00064C  5032               	movf	___flmul@temp^0,w,c
  4884  00064E  2628               	addwf	___flmul@grs^0,f,c
  4885  000650  5033               	movf	(___flmul@temp+1)^0,w,c
  4886  000652  2229               	addwfc	(___flmul@grs+1)^0,f,c
  4887  000654  0E00               	movlw	0
  4888  000656  222A               	addwfc	(___flmul@grs+2)^0,f,c
  4889  000658  0E00               	movlw	0
  4890  00065A  222B               	addwfc	(___flmul@grs+3)^0,f,c
  4891  00065C  5020               	movf	(___flmul@a+1)^0,w,c
  4892  00065E  021B               	mulwf	___flmul@b^0,c
  4893  000660  CFF3 F032          	movff	prodl,___flmul@temp
  4894  000664  CFF4 F033          	movff	prodh,___flmul@temp+1
  4895  000668  5032               	movf	___flmul@temp^0,w,c
  4896  00066A  2628               	addwf	___flmul@grs^0,f,c
  4897  00066C  5033               	movf	(___flmul@temp+1)^0,w,c
  4898  00066E  2229               	addwfc	(___flmul@grs+1)^0,f,c
  4899  000670  0E00               	movlw	0
  4900  000672  222A               	addwfc	(___flmul@grs+2)^0,f,c
  4901  000674  0E00               	movlw	0
  4902  000676  222B               	addwfc	(___flmul@grs+3)^0,f,c
  4903  000678  C02A  F02B         	movff	___flmul@grs+2,___flmul@grs+3
  4904  00067C  C029  F02A         	movff	___flmul@grs+1,___flmul@grs+2
  4905  000680  C028  F029         	movff	___flmul@grs,___flmul@grs+1
  4906  000684  6A28               	clrf	___flmul@grs^0,c
  4907  000686  501F               	movf	___flmul@a^0,w,c
  4908  000688  021B               	mulwf	___flmul@b^0,c
  4909  00068A  CFF3 F032          	movff	prodl,___flmul@temp
  4910  00068E  CFF4 F033          	movff	prodh,___flmul@temp+1
  4911  000692  5032               	movf	___flmul@temp^0,w,c
  4912  000694  2628               	addwf	___flmul@grs^0,f,c
  4913  000696  5033               	movf	(___flmul@temp+1)^0,w,c
  4914  000698  2229               	addwfc	(___flmul@grs+1)^0,f,c
  4915  00069A  0E00               	movlw	0
  4916  00069C  222A               	addwfc	(___flmul@grs+2)^0,f,c
  4917  00069E  0E00               	movlw	0
  4918  0006A0  222B               	addwfc	(___flmul@grs+3)^0,f,c
  4919  0006A2  5021               	movf	(___flmul@a+2)^0,w,c
  4920  0006A4  021C               	mulwf	(___flmul@b+1)^0,c
  4921  0006A6  CFF3 F032          	movff	prodl,___flmul@temp
  4922  0006AA  CFF4 F033          	movff	prodh,___flmul@temp+1
  4923  0006AE  5032               	movf	___flmul@temp^0,w,c
  4924  0006B0  262E               	addwf	___flmul@prod^0,f,c
  4925  0006B2  5033               	movf	(___flmul@temp+1)^0,w,c
  4926  0006B4  222F               	addwfc	(___flmul@prod+1)^0,f,c
  4927  0006B6  0E00               	movlw	0
  4928  0006B8  2230               	addwfc	(___flmul@prod+2)^0,f,c
  4929  0006BA  0E00               	movlw	0
  4930  0006BC  2231               	addwfc	(___flmul@prod+3)^0,f,c
  4931  0006BE  5020               	movf	(___flmul@a+1)^0,w,c
  4932  0006C0  021D               	mulwf	(___flmul@b+2)^0,c
  4933  0006C2  CFF3 F032          	movff	prodl,___flmul@temp
  4934  0006C6  CFF4 F033          	movff	prodh,___flmul@temp+1
  4935  0006CA  5032               	movf	___flmul@temp^0,w,c
  4936  0006CC  262E               	addwf	___flmul@prod^0,f,c
  4937  0006CE  5033               	movf	(___flmul@temp+1)^0,w,c
  4938  0006D0  222F               	addwfc	(___flmul@prod+1)^0,f,c
  4939  0006D2  0E00               	movlw	0
  4940  0006D4  2230               	addwfc	(___flmul@prod+2)^0,f,c
  4941  0006D6  0E00               	movlw	0
  4942  0006D8  2231               	addwfc	(___flmul@prod+3)^0,f,c
  4943  0006DA  5021               	movf	(___flmul@a+2)^0,w,c
  4944  0006DC  021D               	mulwf	(___flmul@b+2)^0,c
  4945  0006DE  CFF3 F032          	movff	prodl,___flmul@temp
  4946  0006E2  CFF4 F033          	movff	prodh,___flmul@temp+1
  4947  0006E6  5032               	movf	___flmul@temp^0,w,c
  4948  0006E8  6E23               	movwf	??___flmul^0,c
  4949  0006EA  5033               	movf	(___flmul@temp+1)^0,w,c
  4950  0006EC  6E24               	movwf	(??___flmul+1)^0,c
  4951  0006EE  6A25               	clrf	(??___flmul+2)^0,c
  4952  0006F0  6A26               	clrf	(??___flmul+3)^0,c
  4953  0006F2  C025  F026         	movff	??___flmul+2,??___flmul+3
  4954  0006F6  C024  F025         	movff	??___flmul+1,??___flmul+2
  4955  0006FA  C023  F024         	movff	??___flmul,??___flmul+1
  4956  0006FE  6A23               	clrf	??___flmul^0,c
  4957  000700  5023               	movf	??___flmul^0,w,c
  4958  000702  262E               	addwf	___flmul@prod^0,f,c
  4959  000704  5024               	movf	(??___flmul+1)^0,w,c
  4960  000706  222F               	addwfc	(___flmul@prod+1)^0,f,c
  4961  000708  5025               	movf	(??___flmul+2)^0,w,c
  4962  00070A  2230               	addwfc	(___flmul@prod+2)^0,f,c
  4963  00070C  5026               	movf	(??___flmul+3)^0,w,c
  4964  00070E  2231               	addwfc	(___flmul@prod+3)^0,f,c
  4965  000710  C028  F023         	movff	___flmul@grs,??___flmul
  4966  000714  C029  F024         	movff	___flmul@grs+1,??___flmul+1
  4967  000718  C02A  F025         	movff	___flmul@grs+2,??___flmul+2
  4968  00071C  C02B  F026         	movff	___flmul@grs+3,??___flmul+3
  4969  000720  0E19               	movlw	25
  4970  000722  EF98  F003         	goto	u2650
  4971  000726                     u2655:
  4972  000726  90D8               	bcf	status,0,c
  4973  000728  3226               	rrcf	(??___flmul+3)^0,f,c
  4974  00072A  3225               	rrcf	(??___flmul+2)^0,f,c
  4975  00072C  3224               	rrcf	(??___flmul+1)^0,f,c
  4976  00072E  3223               	rrcf	??___flmul^0,f,c
  4977  000730                     u2650:
  4978  000730  2EE8               	decfsz	wreg,f,c
  4979  000732  EF93  F003         	goto	u2655
  4980  000736  5023               	movf	??___flmul^0,w,c
  4981  000738  262E               	addwf	___flmul@prod^0,f,c
  4982  00073A  5024               	movf	(??___flmul+1)^0,w,c
  4983  00073C  222F               	addwfc	(___flmul@prod+1)^0,f,c
  4984  00073E  5025               	movf	(??___flmul+2)^0,w,c
  4985  000740  2230               	addwfc	(___flmul@prod+2)^0,f,c
  4986  000742  5026               	movf	(??___flmul+3)^0,w,c
  4987  000744  2231               	addwfc	(___flmul@prod+3)^0,f,c
  4988  000746  C02A  F02B         	movff	___flmul@grs+2,___flmul@grs+3
  4989  00074A  C029  F02A         	movff	___flmul@grs+1,___flmul@grs+2
  4990  00074E  C028  F029         	movff	___flmul@grs,___flmul@grs+1
  4991  000752  6A28               	clrf	___flmul@grs^0,c
  4992  000754  502C               	movf	___flmul@aexp^0,w,c
  4993  000756  C02D  F023         	movff	___flmul@bexp,??___flmul
  4994  00075A  6A24               	clrf	(??___flmul+1)^0,c
  4995  00075C  2623               	addwf	??___flmul^0,f,c
  4996  00075E  0E00               	movlw	0
  4997  000760  2224               	addwfc	(??___flmul+1)^0,f,c
  4998  000762  0E82               	movlw	130
  4999  000764  2423               	addwf	??___flmul^0,w,c
  5000  000766  6E32               	movwf	___flmul@temp^0,c
  5001  000768  0EFF               	movlw	255
  5002  00076A  2024               	addwfc	(??___flmul+1)^0,w,c
  5003  00076C  6E33               	movwf	(___flmul@temp+1)^0,c
  5004  00076E  EFCE  F003         	goto	l3606
  5005  000772                     l3600:
  5006  000772  90D8               	bcf	status,0,c
  5007  000774  362E               	rlcf	___flmul@prod^0,f,c
  5008  000776  362F               	rlcf	(___flmul@prod+1)^0,f,c
  5009  000778  3630               	rlcf	(___flmul@prod+2)^0,f,c
  5010  00077A  3631               	rlcf	(___flmul@prod+3)^0,f,c
  5011  00077C  AE2B               	btfss	(___flmul@grs+3)^0,7,c
  5012  00077E  EFC3  F003         	goto	u2661
  5013  000782  EFC5  F003         	goto	u2660
  5014  000786                     u2661:
  5015  000786  EFC6  F003         	goto	l1326
  5016  00078A                     u2660:
  5017  00078A  802E               	bsf	___flmul@prod^0,0,c
  5018  00078C                     l1326:
  5019  00078C  90D8               	bcf	status,0,c
  5020  00078E  3628               	rlcf	___flmul@grs^0,f,c
  5021  000790  3629               	rlcf	(___flmul@grs+1)^0,f,c
  5022  000792  362A               	rlcf	(___flmul@grs+2)^0,f,c
  5023  000794  362B               	rlcf	(___flmul@grs+3)^0,f,c
  5024  000796  0632               	decf	___flmul@temp^0,f,c
  5025  000798  A0D8               	btfss	status,0,c
  5026  00079A  0633               	decf	(___flmul@temp+1)^0,f,c
  5027  00079C                     l3606:
  5028  00079C  AE30               	btfss	(___flmul@prod+2)^0,7,c
  5029  00079E  EFD3  F003         	goto	u2671
  5030  0007A2  EFD5  F003         	goto	u2670
  5031  0007A6                     u2671:
  5032  0007A6  EFB9  F003         	goto	l3600
  5033  0007AA                     u2670:
  5034  0007AA  0E00               	movlw	0
  5035  0007AC  6E2C               	movwf	___flmul@aexp^0,c
  5036  0007AE  AE2B               	btfss	(___flmul@grs+3)^0,7,c
  5037  0007B0  EFDC  F003         	goto	u2681
  5038  0007B4  EFDE  F003         	goto	u2680
  5039  0007B8                     u2681:
  5040  0007B8  EF02  F004         	goto	l1328
  5041  0007BC                     u2680:
  5042  0007BC  0EFF               	movlw	255
  5043  0007BE  1428               	andwf	___flmul@grs^0,w,c
  5044  0007C0  6E23               	movwf	??___flmul^0,c
  5045  0007C2  0EFF               	movlw	255
  5046  0007C4  1429               	andwf	(___flmul@grs+1)^0,w,c
  5047  0007C6  6E24               	movwf	(??___flmul+1)^0,c
  5048  0007C8  0EFF               	movlw	255
  5049  0007CA  142A               	andwf	(___flmul@grs+2)^0,w,c
  5050  0007CC  6E25               	movwf	(??___flmul+2)^0,c
  5051  0007CE  0E7F               	movlw	127
  5052  0007D0  142B               	andwf	(___flmul@grs+3)^0,w,c
  5053  0007D2  6E26               	movwf	(??___flmul+3)^0,c
  5054  0007D4  5023               	movf	??___flmul^0,w,c
  5055  0007D6  1024               	iorwf	(??___flmul+1)^0,w,c
  5056  0007D8  1025               	iorwf	(??___flmul+2)^0,w,c
  5057  0007DA  1026               	iorwf	(??___flmul+3)^0,w,c
  5058  0007DC  B4D8               	btfsc	status,2,c
  5059  0007DE  EFF3  F003         	goto	u2691
  5060  0007E2  EFF5  F003         	goto	u2690
  5061  0007E6                     u2691:
  5062  0007E6  EFF9  F003         	goto	l1329
  5063  0007EA                     u2690:
  5064  0007EA                     l3614:
  5065  0007EA  0E01               	movlw	1
  5066  0007EC  6E2C               	movwf	___flmul@aexp^0,c
  5067  0007EE  EF02  F004         	goto	l1328
  5068  0007F2                     l1329:
  5069  0007F2  A02E               	btfss	___flmul@prod^0,0,c
  5070  0007F4  EFFE  F003         	goto	u2701
  5071  0007F8  EF00  F004         	goto	u2700
  5072  0007FC                     u2701:
  5073  0007FC  EF02  F004         	goto	l1328
  5074  000800                     u2700:
  5075  000800  EFF5  F003         	goto	l3614
  5076  000804                     l1328:
  5077  000804  502C               	movf	___flmul@aexp^0,w,c
  5078  000806  B4D8               	btfsc	status,2,c
  5079  000808  EF08  F004         	goto	u2711
  5080  00080C  EF0A  F004         	goto	u2710
  5081  000810                     u2711:
  5082  000810  EF2E  F004         	goto	l3626
  5083  000814                     u2710:
  5084  000814  0E01               	movlw	1
  5085  000816  262E               	addwf	___flmul@prod^0,f,c
  5086  000818  0E00               	movlw	0
  5087  00081A  222F               	addwfc	(___flmul@prod+1)^0,f,c
  5088  00081C  2230               	addwfc	(___flmul@prod+2)^0,f,c
  5089  00081E  2231               	addwfc	(___flmul@prod+3)^0,f,c
  5090  000820  A031               	btfss	(___flmul@prod+3)^0,0,c
  5091  000822  EF15  F004         	goto	u2721
  5092  000826  EF17  F004         	goto	u2720
  5093  00082A                     u2721:
  5094  00082A  EF2E  F004         	goto	l3626
  5095  00082E                     u2720:
  5096  00082E  C02E  F023         	movff	___flmul@prod,??___flmul
  5097  000832  C02F  F024         	movff	___flmul@prod+1,??___flmul+1
  5098  000836  C030  F025         	movff	___flmul@prod+2,??___flmul+2
  5099  00083A  C031  F026         	movff	___flmul@prod+3,??___flmul+3
  5100  00083E  3426               	rlcf	(??___flmul+3)^0,w,c
  5101  000840  3226               	rrcf	(??___flmul+3)^0,f,c
  5102  000842  3225               	rrcf	(??___flmul+2)^0,f,c
  5103  000844  3224               	rrcf	(??___flmul+1)^0,f,c
  5104  000846  3223               	rrcf	??___flmul^0,f,c
  5105  000848  C023  F02E         	movff	??___flmul,___flmul@prod
  5106  00084C  C024  F02F         	movff	??___flmul+1,___flmul@prod+1
  5107  000850  C025  F030         	movff	??___flmul+2,___flmul@prod+2
  5108  000854  C026  F031         	movff	??___flmul+3,___flmul@prod+3
  5109  000858  4A32               	infsnz	___flmul@temp^0,f,c
  5110  00085A  2A33               	incf	(___flmul@temp+1)^0,f,c
  5111  00085C                     l3626:
  5112  00085C  BE33               	btfsc	(___flmul@temp+1)^0,7,c
  5113  00085E  EF39  F004         	goto	u2731
  5114  000862  5033               	movf	(___flmul@temp+1)^0,w,c
  5115  000864  E108               	bnz	u2730
  5116  000866  2832               	incf	___flmul@temp^0,w,c
  5117  000868  A0D8               	btfss	status,0,c
  5118  00086A  EF39  F004         	goto	u2731
  5119  00086E  EF3B  F004         	goto	u2730
  5120  000872                     u2731:
  5121  000872  EF45  F004         	goto	l3630
  5122  000876                     u2730:
  5123  000876  0E00               	movlw	0
  5124  000878  6E2E               	movwf	___flmul@prod^0,c
  5125  00087A  0E00               	movlw	0
  5126  00087C  6E2F               	movwf	(___flmul@prod+1)^0,c
  5127  00087E  0E80               	movlw	128
  5128  000880  6E30               	movwf	(___flmul@prod+2)^0,c
  5129  000882  0E7F               	movlw	127
  5130  000884  6E31               	movwf	(___flmul@prod+3)^0,c
  5131  000886  EF73  F004         	goto	l3642
  5132  00088A                     l3630:
  5133  00088A  BE33               	btfsc	(___flmul@temp+1)^0,7,c
  5134  00088C  EF52  F004         	goto	u2740
  5135  000890  5033               	movf	(___flmul@temp+1)^0,w,c
  5136  000892  E106               	bnz	u2741
  5137  000894  0432               	decf	___flmul@temp^0,w,c
  5138  000896  B0D8               	btfsc	status,0,c
  5139  000898  EF50  F004         	goto	u2741
  5140  00089C  EF52  F004         	goto	u2740
  5141  0008A0                     u2741:
  5142  0008A0  EF5E  F004         	goto	l1336
  5143  0008A4                     u2740:
  5144  0008A4  0E00               	movlw	0
  5145  0008A6  6E2E               	movwf	___flmul@prod^0,c
  5146  0008A8  0E00               	movlw	0
  5147  0008AA  6E2F               	movwf	(___flmul@prod+1)^0,c
  5148  0008AC  0E00               	movlw	0
  5149  0008AE  6E30               	movwf	(___flmul@prod+2)^0,c
  5150  0008B0  0E00               	movlw	0
  5151  0008B2  6E31               	movwf	(___flmul@prod+3)^0,c
  5152  0008B4  0E00               	movlw	0
  5153  0008B6  6E27               	movwf	___flmul@sign^0,c
  5154  0008B8  EF73  F004         	goto	l3642
  5155  0008BC                     l1336:
  5156  0008BC  C032  F02D         	movff	___flmul@temp,___flmul@bexp
  5157  0008C0  0EFF               	movlw	255
  5158  0008C2  162E               	andwf	___flmul@prod^0,f,c
  5159  0008C4  0EFF               	movlw	255
  5160  0008C6  162F               	andwf	(___flmul@prod+1)^0,f,c
  5161  0008C8  0E7F               	movlw	127
  5162  0008CA  1630               	andwf	(___flmul@prod+2)^0,f,c
  5163  0008CC  0E00               	movlw	0
  5164  0008CE  1631               	andwf	(___flmul@prod+3)^0,f,c
  5165  0008D0  A02D               	btfss	___flmul@bexp^0,0,c
  5166  0008D2  EF6D  F004         	goto	u2751
  5167  0008D6  EF6F  F004         	goto	u2750
  5168  0008DA                     u2751:
  5169  0008DA  EF70  F004         	goto	l3640
  5170  0008DE                     u2750:
  5171  0008DE  8E30               	bsf	(___flmul@prod+2)^0,7,c
  5172  0008E0                     l3640:
  5173  0008E0  90D8               	bcf	status,0,c
  5174  0008E2  302D               	rrcf	___flmul@bexp^0,w,c
  5175  0008E4  6E31               	movwf	(___flmul@prod+3)^0,c
  5176  0008E6                     l3642:
  5177  0008E6  5027               	movf	___flmul@sign^0,w,c
  5178  0008E8  1231               	iorwf	(___flmul@prod+3)^0,f,c
  5179  0008EA  C02E  F01B         	movff	___flmul@prod,?___flmul
  5180  0008EE  C02F  F01C         	movff	___flmul@prod+1,?___flmul+1
  5181  0008F2  C030  F01D         	movff	___flmul@prod+2,?___flmul+2
  5182  0008F6  C031  F01E         	movff	___flmul@prod+3,?___flmul+3
  5183  0008FA                     l1323:
  5184  0008FA  0012               	return		;funcret
  5185  0008FC                     __end_of___flmul:
  5186                           	opt callstack 0
  5187                           
  5188 ;; *************** function ___fldiv *****************
  5189 ;; Defined at:
  5190 ;;		line 11 in file "C:\Program Files (x86)\Microchip\xc8\v2.10\pic\sources\c99\common\sprcdiv.c"
  5191 ;; Parameters:    Size  Location     Type
  5192 ;;  b               4   67[COMRAM] unsigned char 
  5193 ;;  a               4   71[COMRAM] unsigned char 
  5194 ;; Auto vars:     Size  Location     Type
  5195 ;;  grs             4    7[BANK0 ] unsigned long 
  5196 ;;  rem             4    0[BANK0 ] unsigned long 
  5197 ;;  new_exp         2    5[BANK0 ] short 
  5198 ;;  aexp            1   12[BANK0 ] unsigned char 
  5199 ;;  bexp            1   11[BANK0 ] unsigned char 
  5200 ;;  sign            1    4[BANK0 ] unsigned char 
  5201 ;; Return value:  Size  Location     Type
  5202 ;;                  4   67[COMRAM] unsigned char 
  5203 ;; Registers used:
  5204 ;;		wreg, status,2, status,0
  5205 ;; Tracked objects:
  5206 ;;		On entry : 0/0
  5207 ;;		On exit  : 0/0
  5208 ;;		Unchanged: 0/0
  5209 ;; Data sizes:     COMRAM   BANK0   BANK1   BANK2   BANK3   BANK4   BANK5   BANK6   BANK7
  5210 ;;      Params:         8       0       0       0       0       0       0       0       0
  5211 ;;      Locals:         0      13       0       0       0       0       0       0       0
  5212 ;;      Temps:          4       0       0       0       0       0       0       0       0
  5213 ;;      Totals:        12      13       0       0       0       0       0       0       0
  5214 ;;Total ram usage:       25 bytes
  5215 ;; Hardware stack levels used:    1
  5216 ;; Hardware stack levels required when called:    2
  5217 ;; This function calls:
  5218 ;;		Nothing
  5219 ;; This function is called by:
  5220 ;;		_pwmDuty
  5221 ;;		_leerSensores
  5222 ;; This function uses a non-reentrant model
  5223 ;;
  5224                           
  5225                           	psect	text26
  5226  000CAE                     __ptext26:
  5227                           	opt callstack 0
  5228  000CAE                     ___fldiv:
  5229                           	opt callstack 26
  5230  000CAE  5047               	movf	(___fldiv@b+3)^0,w,c
  5231  000CB0  0B80               	andlw	128
  5232  000CB2  0100               	movlb	0	; () banked
  5233  000CB4  6FA1               	movwf	___fldiv@sign& (0+255),b
  5234  000CB6  5047               	movf	(___fldiv@b+3)^0,w,c
  5235  000CB8  2447               	addwf	(___fldiv@b+3)^0,w,c
  5236  000CBA  6FA8               	movwf	___fldiv@bexp& (0+255),b
  5237  000CBC                     
  5238                           ; BSR set to: 0
  5239  000CBC  AE46               	btfss	(___fldiv@b+2)^0,7,c
  5240  000CBE  EF63  F006         	goto	u2341
  5241  000CC2  EF65  F006         	goto	u2340
  5242  000CC6                     u2341:
  5243  000CC6  EF66  F006         	goto	l3386
  5244  000CCA                     u2340:
  5245  000CCA                     
  5246                           ; BSR set to: 0
  5247  000CCA  81A8               	bsf	___fldiv@bexp& (0+255),0,b
  5248  000CCC                     l3386:
  5249                           
  5250                           ; BSR set to: 0
  5251  000CCC  51A8               	movf	___fldiv@bexp& (0+255),w,b
  5252  000CCE  B4D8               	btfsc	status,2,c
  5253  000CD0  EF6C  F006         	goto	u2351
  5254  000CD4  EF6E  F006         	goto	u2350
  5255  000CD8                     u2351:
  5256  000CD8  EF83  F006         	goto	l3396
  5257  000CDC                     u2350:
  5258  000CDC                     
  5259                           ; BSR set to: 0
  5260  000CDC  29A8               	incf	___fldiv@bexp& (0+255),w,b
  5261  000CDE  A4D8               	btfss	status,2,c
  5262  000CE0  EF74  F006         	goto	u2361
  5263  000CE4  EF76  F006         	goto	u2360
  5264  000CE8                     u2361:
  5265  000CE8  EF7E  F006         	goto	l3392
  5266  000CEC                     u2360:
  5267  000CEC                     
  5268                           ; BSR set to: 0
  5269  000CEC  0E00               	movlw	0
  5270  000CEE  6E44               	movwf	___fldiv@b^0,c
  5271  000CF0  0E00               	movlw	0
  5272  000CF2  6E45               	movwf	(___fldiv@b+1)^0,c
  5273  000CF4  0E00               	movlw	0
  5274  000CF6  6E46               	movwf	(___fldiv@b+2)^0,c
  5275  000CF8  0E00               	movlw	0
  5276  000CFA  6E47               	movwf	(___fldiv@b+3)^0,c
  5277  000CFC                     l3392:
  5278                           
  5279                           ; BSR set to: 0
  5280  000CFC  8E46               	bsf	(___fldiv@b+2)^0,7,c
  5281  000CFE                     
  5282                           ; BSR set to: 0
  5283  000CFE  0E00               	movlw	0
  5284  000D00  6E47               	movwf	(___fldiv@b+3)^0,c
  5285  000D02  EF8B  F006         	goto	l3398
  5286  000D06                     l3396:
  5287                           
  5288                           ; BSR set to: 0
  5289  000D06  0E00               	movlw	0
  5290  000D08  6E44               	movwf	___fldiv@b^0,c
  5291  000D0A  0E00               	movlw	0
  5292  000D0C  6E45               	movwf	(___fldiv@b+1)^0,c
  5293  000D0E  0E00               	movlw	0
  5294  000D10  6E46               	movwf	(___fldiv@b+2)^0,c
  5295  000D12  0E00               	movlw	0
  5296  000D14  6E47               	movwf	(___fldiv@b+3)^0,c
  5297  000D16                     l3398:
  5298                           
  5299                           ; BSR set to: 0
  5300  000D16  504B               	movf	(___fldiv@a+3)^0,w,c
  5301  000D18  0B80               	andlw	128
  5302  000D1A  1BA1               	xorwf	___fldiv@sign& (0+255),f,b
  5303  000D1C                     
  5304                           ; BSR set to: 0
  5305  000D1C  504B               	movf	(___fldiv@a+3)^0,w,c
  5306  000D1E  244B               	addwf	(___fldiv@a+3)^0,w,c
  5307  000D20  6FA9               	movwf	___fldiv@aexp& (0+255),b
  5308  000D22                     
  5309                           ; BSR set to: 0
  5310  000D22  AE4A               	btfss	(___fldiv@a+2)^0,7,c
  5311  000D24  EF96  F006         	goto	u2371
  5312  000D28  EF98  F006         	goto	u2370
  5313  000D2C                     u2371:
  5314  000D2C  EF99  F006         	goto	l3406
  5315  000D30                     u2370:
  5316  000D30                     
  5317                           ; BSR set to: 0
  5318  000D30  81A9               	bsf	___fldiv@aexp& (0+255),0,b
  5319  000D32                     l3406:
  5320                           
  5321                           ; BSR set to: 0
  5322  000D32  51A9               	movf	___fldiv@aexp& (0+255),w,b
  5323  000D34  B4D8               	btfsc	status,2,c
  5324  000D36  EF9F  F006         	goto	u2381
  5325  000D3A  EFA1  F006         	goto	u2380
  5326  000D3E                     u2381:
  5327  000D3E  EFB6  F006         	goto	l3416
  5328  000D42                     u2380:
  5329  000D42                     
  5330                           ; BSR set to: 0
  5331  000D42  29A9               	incf	___fldiv@aexp& (0+255),w,b
  5332  000D44  A4D8               	btfss	status,2,c
  5333  000D46  EFA7  F006         	goto	u2391
  5334  000D4A  EFA9  F006         	goto	u2390
  5335  000D4E                     u2391:
  5336  000D4E  EFB1  F006         	goto	l3412
  5337  000D52                     u2390:
  5338  000D52                     
  5339                           ; BSR set to: 0
  5340  000D52  0E00               	movlw	0
  5341  000D54  6E48               	movwf	___fldiv@a^0,c
  5342  000D56  0E00               	movlw	0
  5343  000D58  6E49               	movwf	(___fldiv@a+1)^0,c
  5344  000D5A  0E00               	movlw	0
  5345  000D5C  6E4A               	movwf	(___fldiv@a+2)^0,c
  5346  000D5E  0E00               	movlw	0
  5347  000D60  6E4B               	movwf	(___fldiv@a+3)^0,c
  5348  000D62                     l3412:
  5349                           
  5350                           ; BSR set to: 0
  5351  000D62  8E4A               	bsf	(___fldiv@a+2)^0,7,c
  5352  000D64                     
  5353                           ; BSR set to: 0
  5354  000D64  0E00               	movlw	0
  5355  000D66  6E4B               	movwf	(___fldiv@a+3)^0,c
  5356  000D68  EFBE  F006         	goto	l3418
  5357  000D6C                     l3416:
  5358                           
  5359                           ; BSR set to: 0
  5360  000D6C  0E00               	movlw	0
  5361  000D6E  6E48               	movwf	___fldiv@a^0,c
  5362  000D70  0E00               	movlw	0
  5363  000D72  6E49               	movwf	(___fldiv@a+1)^0,c
  5364  000D74  0E00               	movlw	0
  5365  000D76  6E4A               	movwf	(___fldiv@a+2)^0,c
  5366  000D78  0E00               	movlw	0
  5367  000D7A  6E4B               	movwf	(___fldiv@a+3)^0,c
  5368  000D7C                     l3418:
  5369                           
  5370                           ; BSR set to: 0
  5371  000D7C  5048               	movf	___fldiv@a^0,w,c
  5372  000D7E  1049               	iorwf	(___fldiv@a+1)^0,w,c
  5373  000D80  104A               	iorwf	(___fldiv@a+2)^0,w,c
  5374  000D82  104B               	iorwf	(___fldiv@a+3)^0,w,c
  5375  000D84  A4D8               	btfss	status,2,c
  5376  000D86  EFC7  F006         	goto	u2401
  5377  000D8A  EFC9  F006         	goto	u2400
  5378  000D8E                     u2401:
  5379  000D8E  EFE1  F006         	goto	l3430
  5380  000D92                     u2400:
  5381  000D92                     
  5382                           ; BSR set to: 0
  5383  000D92  0E00               	movlw	0
  5384  000D94  6E44               	movwf	___fldiv@b^0,c
  5385  000D96  0E00               	movlw	0
  5386  000D98  6E45               	movwf	(___fldiv@b+1)^0,c
  5387  000D9A  0E00               	movlw	0
  5388  000D9C  6E46               	movwf	(___fldiv@b+2)^0,c
  5389  000D9E  0E00               	movlw	0
  5390  000DA0  6E47               	movwf	(___fldiv@b+3)^0,c
  5391  000DA2                     
  5392                           ; BSR set to: 0
  5393  000DA2  0E80               	movlw	128
  5394  000DA4  1246               	iorwf	(___fldiv@b+2)^0,f,c
  5395  000DA6  0E7F               	movlw	127
  5396  000DA8  1247               	iorwf	(___fldiv@b+3)^0,f,c
  5397  000DAA                     l3424:
  5398                           
  5399                           ; BSR set to: 0
  5400  000DAA  51A1               	movf	___fldiv@sign& (0+255),w,b
  5401  000DAC  1247               	iorwf	(___fldiv@b+3)^0,f,c
  5402  000DAE                     
  5403                           ; BSR set to: 0
  5404  000DAE  C044  F044         	movff	___fldiv@b,?___fldiv
  5405  000DB2  C045  F045         	movff	___fldiv@b+1,?___fldiv+1
  5406  000DB6  C046  F046         	movff	___fldiv@b+2,?___fldiv+2
  5407  000DBA  C047  F047         	movff	___fldiv@b+3,?___fldiv+3
  5408  000DBE  EF24  F008         	goto	l1287
  5409  000DC2                     l3430:
  5410                           
  5411                           ; BSR set to: 0
  5412  000DC2  51A8               	movf	___fldiv@bexp& (0+255),w,b
  5413  000DC4  A4D8               	btfss	status,2,c
  5414  000DC6  EFE7  F006         	goto	u2411
  5415  000DCA  EFE9  F006         	goto	u2410
  5416  000DCE                     u2411:
  5417  000DCE  EFF3  F006         	goto	l3438
  5418  000DD2                     u2410:
  5419  000DD2                     
  5420                           ; BSR set to: 0
  5421  000DD2  0E00               	movlw	0
  5422  000DD4  6E44               	movwf	?___fldiv^0,c
  5423  000DD6  0E00               	movlw	0
  5424  000DD8  6E45               	movwf	(?___fldiv+1)^0,c
  5425  000DDA  0E00               	movlw	0
  5426  000DDC  6E46               	movwf	(?___fldiv+2)^0,c
  5427  000DDE  0E00               	movlw	0
  5428  000DE0  6E47               	movwf	(?___fldiv+3)^0,c
  5429  000DE2  EF24  F008         	goto	l1287
  5430  000DE6                     l3438:
  5431                           
  5432                           ; BSR set to: 0
  5433  000DE6  51A9               	movf	___fldiv@aexp& (0+255),w,b
  5434  000DE8  C0A8  F04C         	movff	___fldiv@bexp,??___fldiv
  5435  000DEC  6A4D               	clrf	(??___fldiv+1)^0,c
  5436  000DEE  5E4C               	subwf	??___fldiv^0,f,c
  5437  000DF0  0E00               	movlw	0
  5438  000DF2  5A4D               	subwfb	(??___fldiv+1)^0,f,c
  5439  000DF4  0E7F               	movlw	127
  5440  000DF6  244C               	addwf	??___fldiv^0,w,c
  5441  000DF8  6FA2               	movwf	___fldiv@new_exp& (0+255),b
  5442  000DFA  0E00               	movlw	0
  5443  000DFC  204D               	addwfc	(??___fldiv+1)^0,w,c
  5444  000DFE  6FA3               	movwf	(___fldiv@new_exp+1)& (0+255),b
  5445  000E00                     
  5446                           ; BSR set to: 0
  5447  000E00  C044  F09D         	movff	___fldiv@b,___fldiv@rem
  5448  000E04  C045  F09E         	movff	___fldiv@b+1,___fldiv@rem+1
  5449  000E08  C046  F09F         	movff	___fldiv@b+2,___fldiv@rem+2
  5450  000E0C  C047  F0A0         	movff	___fldiv@b+3,___fldiv@rem+3
  5451  000E10                     
  5452                           ; BSR set to: 0
  5453  000E10  0E00               	movlw	0
  5454  000E12  6E44               	movwf	___fldiv@b^0,c
  5455  000E14  0E00               	movlw	0
  5456  000E16  6E45               	movwf	(___fldiv@b+1)^0,c
  5457  000E18  0E00               	movlw	0
  5458  000E1A  6E46               	movwf	(___fldiv@b+2)^0,c
  5459  000E1C  0E00               	movlw	0
  5460  000E1E  6E47               	movwf	(___fldiv@b+3)^0,c
  5461  000E20                     
  5462                           ; BSR set to: 0
  5463  000E20  0E00               	movlw	0
  5464  000E22  6FA4               	movwf	___fldiv@grs& (0+255),b
  5465  000E24  0E00               	movlw	0
  5466  000E26  6FA5               	movwf	(___fldiv@grs+1)& (0+255),b
  5467  000E28  0E00               	movlw	0
  5468  000E2A  6FA6               	movwf	(___fldiv@grs+2)& (0+255),b
  5469  000E2C  0E00               	movlw	0
  5470  000E2E  6FA7               	movwf	(___fldiv@grs+3)& (0+255),b
  5471  000E30                     
  5472                           ; BSR set to: 0
  5473  000E30  0E00               	movlw	0
  5474  000E32  6FA9               	movwf	___fldiv@aexp& (0+255),b
  5475  000E34  EF54  F007         	goto	l1289
  5476  000E38                     l3448:
  5477                           
  5478                           ; BSR set to: 0
  5479  000E38  51A9               	movf	___fldiv@aexp& (0+255),w,b
  5480  000E3A  B4D8               	btfsc	status,2,c
  5481  000E3C  EF22  F007         	goto	u2421
  5482  000E40  EF24  F007         	goto	u2420
  5483  000E44                     u2421:
  5484  000E44  EF3B  F007         	goto	l3456
  5485  000E48                     u2420:
  5486  000E48                     
  5487                           ; BSR set to: 0
  5488  000E48  90D8               	bcf	status,0,c
  5489  000E4A  379D               	rlcf	___fldiv@rem& (0+255),f,b
  5490  000E4C  379E               	rlcf	(___fldiv@rem+1)& (0+255),f,b
  5491  000E4E  379F               	rlcf	(___fldiv@rem+2)& (0+255),f,b
  5492  000E50  37A0               	rlcf	(___fldiv@rem+3)& (0+255),f,b
  5493  000E52  90D8               	bcf	status,0,c
  5494  000E54  3644               	rlcf	___fldiv@b^0,f,c
  5495  000E56  3645               	rlcf	(___fldiv@b+1)^0,f,c
  5496  000E58  3646               	rlcf	(___fldiv@b+2)^0,f,c
  5497  000E5A  3647               	rlcf	(___fldiv@b+3)^0,f,c
  5498  000E5C                     
  5499                           ; BSR set to: 0
  5500  000E5C  AFA7               	btfss	(___fldiv@grs+3)& (0+255),7,b
  5501  000E5E  EF33  F007         	goto	u2431
  5502  000E62  EF35  F007         	goto	u2430
  5503  000E66                     u2431:
  5504  000E66  EF36  F007         	goto	l1292
  5505  000E6A                     u2430:
  5506  000E6A                     
  5507                           ; BSR set to: 0
  5508  000E6A  8044               	bsf	___fldiv@b^0,0,c
  5509  000E6C                     l1292:
  5510                           
  5511                           ; BSR set to: 0
  5512  000E6C  90D8               	bcf	status,0,c
  5513  000E6E  37A4               	rlcf	___fldiv@grs& (0+255),f,b
  5514  000E70  37A5               	rlcf	(___fldiv@grs+1)& (0+255),f,b
  5515  000E72  37A6               	rlcf	(___fldiv@grs+2)& (0+255),f,b
  5516  000E74  37A7               	rlcf	(___fldiv@grs+3)& (0+255),f,b
  5517  000E76                     l3456:
  5518                           
  5519                           ; BSR set to: 0
  5520  000E76  5048               	movf	___fldiv@a^0,w,c
  5521  000E78  5D9D               	subwf	___fldiv@rem& (0+255),w,b
  5522  000E7A  5049               	movf	(___fldiv@a+1)^0,w,c
  5523  000E7C  599E               	subwfb	(___fldiv@rem+1)& (0+255),w,b
  5524  000E7E  504A               	movf	(___fldiv@a+2)^0,w,c
  5525  000E80  599F               	subwfb	(___fldiv@rem+2)& (0+255),w,b
  5526  000E82  504B               	movf	(___fldiv@a+3)^0,w,c
  5527  000E84  59A0               	subwfb	(___fldiv@rem+3)& (0+255),w,b
  5528  000E86  A0D8               	btfss	status,0,c
  5529  000E88  EF48  F007         	goto	u2441
  5530  000E8C  EF4A  F007         	goto	u2440
  5531  000E90                     u2441:
  5532  000E90  EF53  F007         	goto	l3462
  5533  000E94                     u2440:
  5534  000E94                     
  5535                           ; BSR set to: 0
  5536  000E94  8DA7               	bsf	(___fldiv@grs+3)& (0+255),6,b
  5537  000E96                     
  5538                           ; BSR set to: 0
  5539  000E96  5048               	movf	___fldiv@a^0,w,c
  5540  000E98  5F9D               	subwf	___fldiv@rem& (0+255),f,b
  5541  000E9A  5049               	movf	(___fldiv@a+1)^0,w,c
  5542  000E9C  5B9E               	subwfb	(___fldiv@rem+1)& (0+255),f,b
  5543  000E9E  504A               	movf	(___fldiv@a+2)^0,w,c
  5544  000EA0  5B9F               	subwfb	(___fldiv@rem+2)& (0+255),f,b
  5545  000EA2  504B               	movf	(___fldiv@a+3)^0,w,c
  5546  000EA4  5BA0               	subwfb	(___fldiv@rem+3)& (0+255),f,b
  5547  000EA6                     l3462:
  5548                           
  5549                           ; BSR set to: 0
  5550  000EA6  2BA9               	incf	___fldiv@aexp& (0+255),f,b
  5551  000EA8                     l1289:
  5552                           
  5553                           ; BSR set to: 0
  5554  000EA8  0E19               	movlw	25
  5555  000EAA  65A9               	cpfsgt	___fldiv@aexp& (0+255),b
  5556  000EAC  EF5A  F007         	goto	u2451
  5557  000EB0  EF5C  F007         	goto	u2450
  5558  000EB4                     u2451:
  5559  000EB4  EF1C  F007         	goto	l3448
  5560  000EB8                     u2450:
  5561  000EB8                     
  5562                           ; BSR set to: 0
  5563  000EB8  519D               	movf	___fldiv@rem& (0+255),w,b
  5564  000EBA  119E               	iorwf	(___fldiv@rem+1)& (0+255),w,b
  5565  000EBC  119F               	iorwf	(___fldiv@rem+2)& (0+255),w,b
  5566  000EBE  11A0               	iorwf	(___fldiv@rem+3)& (0+255),w,b
  5567  000EC0  B4D8               	btfsc	status,2,c
  5568  000EC2  EF65  F007         	goto	u2461
  5569  000EC6  EF67  F007         	goto	u2460
  5570  000ECA                     u2461:
  5571  000ECA  EF7F  F007         	goto	l3474
  5572  000ECE                     u2460:
  5573  000ECE                     
  5574                           ; BSR set to: 0
  5575  000ECE  81A4               	bsf	___fldiv@grs& (0+255),0,b
  5576  000ED0  EF7F  F007         	goto	l3474
  5577  000ED4                     l3468:
  5578                           
  5579                           ; BSR set to: 0
  5580  000ED4  90D8               	bcf	status,0,c
  5581  000ED6  3644               	rlcf	___fldiv@b^0,f,c
  5582  000ED8  3645               	rlcf	(___fldiv@b+1)^0,f,c
  5583  000EDA  3646               	rlcf	(___fldiv@b+2)^0,f,c
  5584  000EDC  3647               	rlcf	(___fldiv@b+3)^0,f,c
  5585  000EDE                     
  5586                           ; BSR set to: 0
  5587  000EDE  AFA7               	btfss	(___fldiv@grs+3)& (0+255),7,b
  5588  000EE0  EF74  F007         	goto	u2471
  5589  000EE4  EF76  F007         	goto	u2470
  5590  000EE8                     u2471:
  5591  000EE8  EF77  F007         	goto	l1298
  5592  000EEC                     u2470:
  5593  000EEC                     
  5594                           ; BSR set to: 0
  5595  000EEC  8044               	bsf	___fldiv@b^0,0,c
  5596  000EEE                     l1298:
  5597                           
  5598                           ; BSR set to: 0
  5599  000EEE  90D8               	bcf	status,0,c
  5600  000EF0  37A4               	rlcf	___fldiv@grs& (0+255),f,b
  5601  000EF2  37A5               	rlcf	(___fldiv@grs+1)& (0+255),f,b
  5602  000EF4  37A6               	rlcf	(___fldiv@grs+2)& (0+255),f,b
  5603  000EF6  37A7               	rlcf	(___fldiv@grs+3)& (0+255),f,b
  5604  000EF8  07A2               	decf	___fldiv@new_exp& (0+255),f,b
  5605  000EFA  A0D8               	btfss	status,0,c
  5606  000EFC  07A3               	decf	(___fldiv@new_exp+1)& (0+255),f,b
  5607  000EFE                     l3474:
  5608                           
  5609                           ; BSR set to: 0
  5610  000EFE  AE46               	btfss	(___fldiv@b+2)^0,7,c
  5611  000F00  EF84  F007         	goto	u2481
  5612  000F04  EF86  F007         	goto	u2480
  5613  000F08                     u2481:
  5614  000F08  EF6A  F007         	goto	l3468
  5615  000F0C                     u2480:
  5616  000F0C                     
  5617                           ; BSR set to: 0
  5618  000F0C  0E00               	movlw	0
  5619  000F0E  6FA9               	movwf	___fldiv@aexp& (0+255),b
  5620  000F10                     
  5621                           ; BSR set to: 0
  5622  000F10  AFA7               	btfss	(___fldiv@grs+3)& (0+255),7,b
  5623  000F12  EF8D  F007         	goto	u2491
  5624  000F16  EF8F  F007         	goto	u2490
  5625  000F1A                     u2491:
  5626  000F1A  EFB3  F007         	goto	l1300
  5627  000F1E                     u2490:
  5628  000F1E                     
  5629                           ; BSR set to: 0
  5630  000F1E  0EFF               	movlw	255
  5631  000F20  15A4               	andwf	___fldiv@grs& (0+255),w,b
  5632  000F22  6E4C               	movwf	??___fldiv^0,c
  5633  000F24  0EFF               	movlw	255
  5634  000F26  15A5               	andwf	(___fldiv@grs+1)& (0+255),w,b
  5635  000F28  6E4D               	movwf	(??___fldiv+1)^0,c
  5636  000F2A  0EFF               	movlw	255
  5637  000F2C  15A6               	andwf	(___fldiv@grs+2)& (0+255),w,b
  5638  000F2E  6E4E               	movwf	(??___fldiv+2)^0,c
  5639  000F30  0E7F               	movlw	127
  5640  000F32  15A7               	andwf	(___fldiv@grs+3)& (0+255),w,b
  5641  000F34  6E4F               	movwf	(??___fldiv+3)^0,c
  5642  000F36  504C               	movf	??___fldiv^0,w,c
  5643  000F38  104D               	iorwf	(??___fldiv+1)^0,w,c
  5644  000F3A  104E               	iorwf	(??___fldiv+2)^0,w,c
  5645  000F3C  104F               	iorwf	(??___fldiv+3)^0,w,c
  5646  000F3E  B4D8               	btfsc	status,2,c
  5647  000F40  EFA4  F007         	goto	u2501
  5648  000F44  EFA6  F007         	goto	u2500
  5649  000F48                     u2501:
  5650  000F48  EFAA  F007         	goto	l1301
  5651  000F4C                     u2500:
  5652  000F4C                     l3482:
  5653                           
  5654                           ; BSR set to: 0
  5655  000F4C  0E01               	movlw	1
  5656  000F4E  6FA9               	movwf	___fldiv@aexp& (0+255),b
  5657  000F50  EFB3  F007         	goto	l1300
  5658  000F54                     l1301:
  5659                           
  5660                           ; BSR set to: 0
  5661  000F54  A044               	btfss	___fldiv@b^0,0,c
  5662  000F56  EFAF  F007         	goto	u2511
  5663  000F5A  EFB1  F007         	goto	u2510
  5664  000F5E                     u2511:
  5665  000F5E  EFB3  F007         	goto	l1300
  5666  000F62                     u2510:
  5667  000F62  EFA6  F007         	goto	l3482
  5668  000F66                     l1300:
  5669                           
  5670                           ; BSR set to: 0
  5671  000F66  51A9               	movf	___fldiv@aexp& (0+255),w,b
  5672  000F68  B4D8               	btfsc	status,2,c
  5673  000F6A  EFB9  F007         	goto	u2521
  5674  000F6E  EFBB  F007         	goto	u2520
  5675  000F72                     u2521:
  5676  000F72  EFDF  F007         	goto	l3494
  5677  000F76                     u2520:
  5678  000F76                     
  5679                           ; BSR set to: 0
  5680  000F76  0E01               	movlw	1
  5681  000F78  2644               	addwf	___fldiv@b^0,f,c
  5682  000F7A  0E00               	movlw	0
  5683  000F7C  2245               	addwfc	(___fldiv@b+1)^0,f,c
  5684  000F7E  2246               	addwfc	(___fldiv@b+2)^0,f,c
  5685  000F80  2247               	addwfc	(___fldiv@b+3)^0,f,c
  5686  000F82                     
  5687                           ; BSR set to: 0
  5688  000F82  A047               	btfss	(___fldiv@b+3)^0,0,c
  5689  000F84  EFC6  F007         	goto	u2531
  5690  000F88  EFC8  F007         	goto	u2530
  5691  000F8C                     u2531:
  5692  000F8C  EFDF  F007         	goto	l3494
  5693  000F90                     u2530:
  5694  000F90                     
  5695                           ; BSR set to: 0
  5696  000F90  C044  F04C         	movff	___fldiv@b,??___fldiv
  5697  000F94  C045  F04D         	movff	___fldiv@b+1,??___fldiv+1
  5698  000F98  C046  F04E         	movff	___fldiv@b+2,??___fldiv+2
  5699  000F9C  C047  F04F         	movff	___fldiv@b+3,??___fldiv+3
  5700  000FA0  344F               	rlcf	(??___fldiv+3)^0,w,c
  5701  000FA2  324F               	rrcf	(??___fldiv+3)^0,f,c
  5702  000FA4  324E               	rrcf	(??___fldiv+2)^0,f,c
  5703  000FA6  324D               	rrcf	(??___fldiv+1)^0,f,c
  5704  000FA8  324C               	rrcf	??___fldiv^0,f,c
  5705  000FAA  C04C  F044         	movff	??___fldiv,___fldiv@b
  5706  000FAE  C04D  F045         	movff	??___fldiv+1,___fldiv@b+1
  5707  000FB2  C04E  F046         	movff	??___fldiv+2,___fldiv@b+2
  5708  000FB6  C04F  F047         	movff	??___fldiv+3,___fldiv@b+3
  5709  000FBA                     
  5710                           ; BSR set to: 0
  5711  000FBA  4BA2               	infsnz	___fldiv@new_exp& (0+255),f,b
  5712  000FBC  2BA3               	incf	(___fldiv@new_exp+1)& (0+255),f,b
  5713  000FBE                     l3494:
  5714                           
  5715                           ; BSR set to: 0
  5716  000FBE  BFA3               	btfsc	(___fldiv@new_exp+1)& (0+255),7,b
  5717  000FC0  EFEA  F007         	goto	u2541
  5718  000FC4  51A3               	movf	(___fldiv@new_exp+1)& (0+255),w,b
  5719  000FC6  E108               	bnz	u2540
  5720  000FC8  29A2               	incf	___fldiv@new_exp& (0+255),w,b
  5721  000FCA  A0D8               	btfss	status,0,c
  5722  000FCC  EFEA  F007         	goto	u2541
  5723  000FD0  EFEC  F007         	goto	u2540
  5724  000FD4                     u2541:
  5725  000FD4  EFF7  F007         	goto	l3498
  5726  000FD8                     u2540:
  5727  000FD8                     
  5728                           ; BSR set to: 0
  5729  000FD8  0E00               	movlw	0
  5730  000FDA  6FA3               	movwf	(___fldiv@new_exp+1)& (0+255),b
  5731  000FDC  69A2               	setf	___fldiv@new_exp& (0+255),b
  5732  000FDE  0E00               	movlw	0
  5733  000FE0  6E44               	movwf	___fldiv@b^0,c
  5734  000FE2  0E00               	movlw	0
  5735  000FE4  6E45               	movwf	(___fldiv@b+1)^0,c
  5736  000FE6  0E00               	movlw	0
  5737  000FE8  6E46               	movwf	(___fldiv@b+2)^0,c
  5738  000FEA  0E00               	movlw	0
  5739  000FEC  6E47               	movwf	(___fldiv@b+3)^0,c
  5740  000FEE                     l3498:
  5741                           
  5742                           ; BSR set to: 0
  5743  000FEE  BFA3               	btfsc	(___fldiv@new_exp+1)& (0+255),7,b
  5744  000FF0  EF04  F008         	goto	u2550
  5745  000FF4  51A3               	movf	(___fldiv@new_exp+1)& (0+255),w,b
  5746  000FF6  E106               	bnz	u2551
  5747  000FF8  05A2               	decf	___fldiv@new_exp& (0+255),w,b
  5748  000FFA  B0D8               	btfsc	status,0,c
  5749  000FFC  EF02  F008         	goto	u2551
  5750  001000  EF04  F008         	goto	u2550
  5751  001004                     u2551:
  5752  001004  EF12  F008         	goto	l3502
  5753  001008                     u2550:
  5754  001008                     
  5755                           ; BSR set to: 0
  5756  001008  0E00               	movlw	0
  5757  00100A  6FA3               	movwf	(___fldiv@new_exp+1)& (0+255),b
  5758  00100C  0E00               	movlw	0
  5759  00100E  6FA2               	movwf	___fldiv@new_exp& (0+255),b
  5760  001010  0E00               	movlw	0
  5761  001012  6E44               	movwf	___fldiv@b^0,c
  5762  001014  0E00               	movlw	0
  5763  001016  6E45               	movwf	(___fldiv@b+1)^0,c
  5764  001018  0E00               	movlw	0
  5765  00101A  6E46               	movwf	(___fldiv@b+2)^0,c
  5766  00101C  0E00               	movlw	0
  5767  00101E  6E47               	movwf	(___fldiv@b+3)^0,c
  5768  001020  0E00               	movlw	0
  5769  001022  6FA1               	movwf	___fldiv@sign& (0+255),b
  5770  001024                     l3502:
  5771                           
  5772                           ; BSR set to: 0
  5773  001024  C0A2  F0A8         	movff	___fldiv@new_exp,___fldiv@bexp
  5774  001028                     
  5775                           ; BSR set to: 0
  5776  001028  A1A8               	btfss	___fldiv@bexp& (0+255),0,b
  5777  00102A  EF19  F008         	goto	u2561
  5778  00102E  EF1B  F008         	goto	u2560
  5779  001032                     u2561:
  5780  001032  EF1E  F008         	goto	l3508
  5781  001036                     u2560:
  5782  001036                     
  5783                           ; BSR set to: 0
  5784  001036  8E46               	bsf	(___fldiv@b+2)^0,7,c
  5785  001038  EF1F  F008         	goto	l3510
  5786  00103C                     l3508:
  5787                           
  5788                           ; BSR set to: 0
  5789  00103C  9E46               	bcf	(___fldiv@b+2)^0,7,c
  5790  00103E                     l3510:
  5791                           
  5792                           ; BSR set to: 0
  5793  00103E  90D8               	bcf	status,0,c
  5794  001040  31A8               	rrcf	___fldiv@bexp& (0+255),w,b
  5795  001042  6E47               	movwf	(___fldiv@b+3)^0,c
  5796  001044  EFD5  F006         	goto	l3424
  5797  001048                     l1287:
  5798                           
  5799                           ; BSR set to: 0
  5800  001048  0012               	return		;funcret
  5801  00104A                     __end_of___fldiv:
  5802                           	opt callstack 0
  5803                           
  5804 ;; *************** function _dameDistancia *****************
  5805 ;; Defined at:
  5806 ;;		line 26 in file "./ultrasonico.h"
  5807 ;; Parameters:    Size  Location     Type
  5808 ;;  numeroSensor    1    wreg     unsigned char 
  5809 ;; Auto vars:     Size  Location     Type
  5810 ;;  numeroSensor    1   32[COMRAM] unsigned char 
  5811 ;;  distancia       4   33[COMRAM] float 
  5812 ;;  conteo          2   37[COMRAM] unsigned int 
  5813 ;; Return value:  Size  Location     Type
  5814 ;;                  4   26[COMRAM] float 
  5815 ;; Registers used:
  5816 ;;		wreg, status,2, status,0, cstack
  5817 ;; Tracked objects:
  5818 ;;		On entry : 0/0
  5819 ;;		On exit  : 0/0
  5820 ;;		Unchanged: 0/0
  5821 ;; Data sizes:     COMRAM   BANK0   BANK1   BANK2   BANK3   BANK4   BANK5   BANK6   BANK7
  5822 ;;      Params:         4       0       0       0       0       0       0       0       0
  5823 ;;      Locals:         7       0       0       0       0       0       0       0       0
  5824 ;;      Temps:          2       0       0       0       0       0       0       0       0
  5825 ;;      Totals:        13       0       0       0       0       0       0       0       0
  5826 ;;Total ram usage:       13 bytes
  5827 ;; Hardware stack levels used:    1
  5828 ;; Hardware stack levels required when called:    3
  5829 ;; This function calls:
  5830 ;;		___lwdiv
  5831 ;;		___xxtofl
  5832 ;; This function is called by:
  5833 ;;		_inicializarComportamientoBasico
  5834 ;;		_leerSensores
  5835 ;; This function uses a non-reentrant model
  5836 ;;
  5837                           
  5838                           	psect	text27
  5839  001768                     __ptext27:
  5840                           	opt callstack 0
  5841  001768                     _dameDistancia:
  5842                           	opt callstack 25
  5843                           
  5844                           ; BSR set to: 0
  5845                           ;incstack = 0
  5846                           ;dameDistancia@numeroSensor stored from wreg
  5847  001768  6E21               	movwf	dameDistancia@numeroSensor^0,c
  5848  00176A                     
  5849                           ;./ultrasonico.h: 28:     T_UINT conteo;;./ultrasonico.h: 29:     T_FLOAT distancia;;./u
      +                          ltrasonico.h: 31:     TMR1H = 0x00;
  5850  00176A  0E00               	movlw	0
  5851  00176C  6ECF               	movwf	207,c	;volatile
  5852                           
  5853                           ;./ultrasonico.h: 32:     TMR1L = 0x00;
  5854  00176E  0E00               	movlw	0
  5855  001770  6ECE               	movwf	206,c	;volatile
  5856                           
  5857                           ;./ultrasonico.h: 33:     conteo = 0;
  5858  001772  0E00               	movlw	0
  5859  001774  6E27               	movwf	(dameDistancia@conteo+1)^0,c
  5860  001776  0E00               	movlw	0
  5861  001778  6E26               	movwf	dameDistancia@conteo^0,c
  5862  00177A                     
  5863                           ;./ultrasonico.h: 34:     LATD3 = 1;
  5864  00177A  868C               	bsf	3980,3,c	;volatile
  5865  00177C                     
  5866                           ;./ultrasonico.h: 35:     _delay((unsigned long)((12)*(4000000/4000000.0)));
  5867  00177C  0E04               	movlw	4
  5868  00177E                     u5057:
  5869  00177E  2EE8               	decfsz	wreg,f,c
  5870  001780  D7FE               	bra	u5057
  5871  001782                     
  5872                           ;./ultrasonico.h: 36:     LATD3 = 0;
  5873  001782  968C               	bcf	3980,3,c	;volatile
  5874                           
  5875                           ;./ultrasonico.h: 38:     switch (numeroSensor) {
  5876  001784  EF0C  F00C         	goto	l4072
  5877  001788                     l183:
  5878  001788  A281               	btfss	129,1,c	;volatile
  5879  00178A  EFC9  F00B         	goto	u3441
  5880  00178E  EFCB  F00B         	goto	u3440
  5881  001792                     u3441:
  5882  001792  EFC4  F00B         	goto	l183
  5883  001796                     u3440:
  5884  001796                     
  5885                           ;./ultrasonico.h: 43:             TMR1ON = 1;
  5886  001796  80CD               	bsf	4045,0,c	;volatile
  5887  001798                     l186:
  5888  001798  A281               	btfss	129,1,c	;volatile
  5889  00179A  EFD1  F00B         	goto	u3451
  5890  00179E  EFD3  F00B         	goto	u3450
  5891  0017A2                     u3451:
  5892  0017A2  EF25  F00C         	goto	l191
  5893  0017A6                     u3450:
  5894  0017A6  A09E               	btfss	3998,0,c	;volatile
  5895  0017A8  EFD8  F00B         	goto	u3461
  5896  0017AC  EFDA  F00B         	goto	u3460
  5897  0017B0                     u3461:
  5898  0017B0  EFCC  F00B         	goto	l186
  5899  0017B4                     u3460:
  5900  0017B4  EF25  F00C         	goto	l191
  5901  0017B8                     l193:
  5902  0017B8  A481               	btfss	129,2,c	;volatile
  5903  0017BA  EFE1  F00B         	goto	u3471
  5904  0017BE  EFE3  F00B         	goto	u3470
  5905  0017C2                     u3471:
  5906  0017C2  EFDC  F00B         	goto	l193
  5907  0017C6                     u3470:
  5908  0017C6                     
  5909                           ;./ultrasonico.h: 51:             TMR1ON = 1;
  5910  0017C6  80CD               	bsf	4045,0,c	;volatile
  5911  0017C8                     l196:
  5912  0017C8  A481               	btfss	129,2,c	;volatile
  5913  0017CA  EFE9  F00B         	goto	u3481
  5914  0017CE  EFEB  F00B         	goto	u3480
  5915  0017D2                     u3481:
  5916  0017D2  EF25  F00C         	goto	l191
  5917  0017D6                     u3480:
  5918  0017D6  A09E               	btfss	3998,0,c	;volatile
  5919  0017D8  EFF0  F00B         	goto	u3491
  5920  0017DC  EFF2  F00B         	goto	u3490
  5921  0017E0                     u3491:
  5922  0017E0  EFE4  F00B         	goto	l196
  5923  0017E4                     u3490:
  5924  0017E4  EF25  F00C         	goto	l191
  5925  0017E8                     l202:
  5926  0017E8  A681               	btfss	129,3,c	;volatile
  5927  0017EA  EFF9  F00B         	goto	u3501
  5928  0017EE  EFFB  F00B         	goto	u3500
  5929  0017F2                     u3501:
  5930  0017F2  EFF4  F00B         	goto	l202
  5931  0017F6                     u3500:
  5932  0017F6                     
  5933                           ;./ultrasonico.h: 59:             TMR1ON = 1;
  5934  0017F6  80CD               	bsf	4045,0,c	;volatile
  5935  0017F8                     l205:
  5936  0017F8  A681               	btfss	129,3,c	;volatile
  5937  0017FA  EF01  F00C         	goto	u3511
  5938  0017FE  EF03  F00C         	goto	u3510
  5939  001802                     u3511:
  5940  001802  EF25  F00C         	goto	l191
  5941  001806                     u3510:
  5942  001806  A09E               	btfss	3998,0,c	;volatile
  5943  001808  EF08  F00C         	goto	u3521
  5944  00180C  EF0A  F00C         	goto	u3520
  5945  001810                     u3521:
  5946  001810  EFFC  F00B         	goto	l205
  5947  001814                     u3520:
  5948  001814  EF25  F00C         	goto	l191
  5949  001818                     l4072:
  5950  001818  5021               	movf	dameDistancia@numeroSensor^0,w,c
  5951  00181A  6E1F               	movwf	??_dameDistancia^0,c
  5952  00181C  6A20               	clrf	(??_dameDistancia+1)^0,c
  5953                           
  5954                           ; Switch on 2 bytes has been partitioned into a top level switch of size 1, and 1 sub-sw
      +                          itches
  5955                           ; Switch size 1, requested type "simple"
  5956                           ; Number of cases is 1, Range of values is 0 to 0
  5957                           ; switch strategies available:
  5958                           ; Name         Instructions Cycles
  5959                           ; simple_byte            4     3 (average)
  5960                           ;	Chosen strategy is simple_byte
  5961  00181E  5020               	movf	(??_dameDistancia+1)^0,w,c
  5962  001820  0A00               	xorlw	0	; case 0
  5963  001822  B4D8               	btfsc	status,2,c
  5964  001824  EF16  F00C         	goto	l5814
  5965  001828  EF25  F00C         	goto	l191
  5966  00182C                     l5814:
  5967                           
  5968                           ; Switch size 1, requested type "simple"
  5969                           ; Number of cases is 3, Range of values is 1 to 3
  5970                           ; switch strategies available:
  5971                           ; Name         Instructions Cycles
  5972                           ; simple_byte           10     6 (average)
  5973                           ;	Chosen strategy is simple_byte
  5974  00182C  501F               	movf	??_dameDistancia^0,w,c
  5975  00182E  0A01               	xorlw	1	; case 1
  5976  001830  B4D8               	btfsc	status,2,c
  5977  001832  EFC4  F00B         	goto	l183
  5978  001836  0A03               	xorlw	3	; case 2
  5979  001838  B4D8               	btfsc	status,2,c
  5980  00183A  EFDC  F00B         	goto	l193
  5981  00183E  0A01               	xorlw	1	; case 3
  5982  001840  B4D8               	btfsc	status,2,c
  5983  001842  EFF4  F00B         	goto	l202
  5984  001846  EF25  F00C         	goto	l191
  5985  00184A                     l191:
  5986                           
  5987                           ;./ultrasonico.h: 66:     TMR1ON = 0;
  5988  00184A  90CD               	bcf	4045,0,c	;volatile
  5989                           
  5990                           ;./ultrasonico.h: 68:     if (!TMR1IF) {
  5991  00184C  B09E               	btfsc	3998,0,c	;volatile
  5992  00184E  EF2B  F00C         	goto	u3531
  5993  001852  EF2D  F00C         	goto	u3530
  5994  001856                     u3531:
  5995  001856  EF53  F00C         	goto	l4078
  5996  00185A                     u3530:
  5997  00185A                     
  5998                           ;./ultrasonico.h: 69:         conteo |= TMR1H << 8;
  5999  00185A  50CF               	movf	207,w,c	;volatile
  6000  00185C  6E20               	movwf	(??_dameDistancia+1)^0,c
  6001  00185E  6A1F               	clrf	??_dameDistancia^0,c
  6002  001860  501F               	movf	??_dameDistancia^0,w,c
  6003  001862  1226               	iorwf	dameDistancia@conteo^0,f,c
  6004  001864  5020               	movf	(??_dameDistancia+1)^0,w,c
  6005  001866  1227               	iorwf	(dameDistancia@conteo+1)^0,f,c
  6006                           
  6007                           ;./ultrasonico.h: 70:         conteo |= TMR1L;
  6008  001868  50CE               	movf	206,w,c	;volatile
  6009  00186A  1226               	iorwf	dameDistancia@conteo^0,f,c
  6010  00186C                     
  6011                           ;./ultrasonico.h: 72:         distancia = conteo / 58;
  6012  00186C  0E00               	movlw	0
  6013  00186E  6E09               	movwf	(___lwdiv@divisor+1)^0,c
  6014  001870  0E3A               	movlw	58
  6015  001872  6E08               	movwf	___lwdiv@divisor^0,c
  6016  001874  C026  F006         	movff	dameDistancia@conteo,___lwdiv@dividend
  6017  001878  C027  F007         	movff	dameDistancia@conteo+1,___lwdiv@dividend+1
  6018  00187C  ECBC  F00E         	call	___lwdiv	;wreg free
  6019  001880  C006  F00D         	movff	?___lwdiv,___xxtofl@val
  6020  001884  C007  F00E         	movff	?___lwdiv+1,___xxtofl@val+1
  6021  001888  6A0F               	clrf	(___xxtofl@val+2)^0,c
  6022  00188A  6A10               	clrf	(___xxtofl@val+3)^0,c
  6023  00188C  0E00               	movlw	0
  6024  00188E  EC1C  F00A         	call	___xxtofl
  6025  001892  C00D  F022         	movff	?___xxtofl,dameDistancia@distancia
  6026  001896  C00E  F023         	movff	?___xxtofl+1,dameDistancia@distancia+1
  6027  00189A  C00F  F024         	movff	?___xxtofl+2,dameDistancia@distancia+2
  6028  00189E  C010  F025         	movff	?___xxtofl+3,dameDistancia@distancia+3
  6029                           
  6030                           ;./ultrasonico.h: 73:     } else {
  6031  0018A2  EF5C  F00C         	goto	l4082
  6032  0018A6                     l4078:
  6033  0018A6                     
  6034                           ;./ultrasonico.h: 75:         TMR1IF = 0;
  6035  0018A6  909E               	bcf	3998,0,c	;volatile
  6036                           
  6037                           ;./ultrasonico.h: 76:         distancia = 0;
  6038  0018A8  0E00               	movlw	0
  6039  0018AA  6E22               	movwf	dameDistancia@distancia^0,c
  6040  0018AC  0E00               	movlw	0
  6041  0018AE  6E23               	movwf	(dameDistancia@distancia+1)^0,c
  6042  0018B0  0E00               	movlw	0
  6043  0018B2  6E24               	movwf	(dameDistancia@distancia+2)^0,c
  6044  0018B4  0E00               	movlw	0
  6045  0018B6  6E25               	movwf	(dameDistancia@distancia+3)^0,c
  6046  0018B8                     l4082:
  6047                           
  6048                           ;./ultrasonico.h: 80:     return distancia;
  6049  0018B8  C022  F01B         	movff	dameDistancia@distancia,?_dameDistancia
  6050  0018BC  C023  F01C         	movff	dameDistancia@distancia+1,?_dameDistancia+1
  6051  0018C0  C024  F01D         	movff	dameDistancia@distancia+2,?_dameDistancia+2
  6052  0018C4  C025  F01E         	movff	dameDistancia@distancia+3,?_dameDistancia+3
  6053  0018C8  0012               	return		;funcret
  6054  0018CA                     __end_of_dameDistancia:
  6055                           	opt callstack 0
  6056                           
  6057 ;; *************** function ___xxtofl *****************
  6058 ;; Defined at:
  6059 ;;		line 10 in file "C:\Program Files (x86)\Microchip\xc8\v2.10\pic\sources\c99\common\xxtofl.c"
  6060 ;; Parameters:    Size  Location     Type
  6061 ;;  sign            1    wreg     unsigned char 
  6062 ;;  val             4   12[COMRAM] long 
  6063 ;; Auto vars:     Size  Location     Type
  6064 ;;  sign            1   20[COMRAM] unsigned char 
  6065 ;;  arg             4   22[COMRAM] unsigned long 
  6066 ;;  exp             1   21[COMRAM] unsigned char 
  6067 ;; Return value:  Size  Location     Type
  6068 ;;                  4   12[COMRAM] unsigned char 
  6069 ;; Registers used:
  6070 ;;		wreg, status,2, status,0
  6071 ;; Tracked objects:
  6072 ;;		On entry : 0/0
  6073 ;;		On exit  : 0/0
  6074 ;;		Unchanged: 0/0
  6075 ;; Data sizes:     COMRAM   BANK0   BANK1   BANK2   BANK3   BANK4   BANK5   BANK6   BANK7
  6076 ;;      Params:         4       0       0       0       0       0       0       0       0
  6077 ;;      Locals:         6       0       0       0       0       0       0       0       0
  6078 ;;      Temps:          4       0       0       0       0       0       0       0       0
  6079 ;;      Totals:        14       0       0       0       0       0       0       0       0
  6080 ;;Total ram usage:       14 bytes
  6081 ;; Hardware stack levels used:    1
  6082 ;; Hardware stack levels required when called:    2
  6083 ;; This function calls:
  6084 ;;		Nothing
  6085 ;; This function is called by:
  6086 ;;		_pwmDuty
  6087 ;;		_dameDistancia
  6088 ;;		_PID
  6089 ;; This function uses a non-reentrant model
  6090 ;;
  6091                           
  6092                           	psect	text28
  6093  001438                     __ptext28:
  6094                           	opt callstack 0
  6095  001438                     ___xxtofl:
  6096                           	opt callstack 25
  6097                           
  6098                           ;incstack = 0
  6099                           ;___xxtofl@sign stored from wreg
  6100  001438  6E15               	movwf	___xxtofl@sign^0,c
  6101  00143A  5015               	movf	___xxtofl@sign^0,w,c
  6102  00143C  B4D8               	btfsc	status,2,c
  6103  00143E  EF23  F00A         	goto	u2831
  6104  001442  EF25  F00A         	goto	u2830
  6105  001446                     u2831:
  6106  001446  EF47  F00A         	goto	l1360
  6107  00144A                     u2830:
  6108  00144A  BE10               	btfsc	(___xxtofl@val+3)^0,7,c
  6109  00144C  EF2C  F00A         	goto	u2840
  6110  001450  EF2A  F00A         	goto	u2841
  6111  001454                     u2841:
  6112  001454  EF47  F00A         	goto	l1360
  6113  001458                     u2840:
  6114  001458  C00D  F011         	movff	___xxtofl@val,??___xxtofl
  6115  00145C  C00E  F012         	movff	___xxtofl@val+1,??___xxtofl+1
  6116  001460  C00F  F013         	movff	___xxtofl@val+2,??___xxtofl+2
  6117  001464  C010  F014         	movff	___xxtofl@val+3,??___xxtofl+3
  6118  001468  1E11               	comf	??___xxtofl^0,f,c
  6119  00146A  1E12               	comf	(??___xxtofl+1)^0,f,c
  6120  00146C  1E13               	comf	(??___xxtofl+2)^0,f,c
  6121  00146E  1E14               	comf	(??___xxtofl+3)^0,f,c
  6122  001470  2A11               	incf	??___xxtofl^0,f,c
  6123  001472  0E00               	movlw	0
  6124  001474  2212               	addwfc	(??___xxtofl+1)^0,f,c
  6125  001476  2213               	addwfc	(??___xxtofl+2)^0,f,c
  6126  001478  2214               	addwfc	(??___xxtofl+3)^0,f,c
  6127  00147A  C011  F017         	movff	??___xxtofl,___xxtofl@arg
  6128  00147E  C012  F018         	movff	??___xxtofl+1,___xxtofl@arg+1
  6129  001482  C013  F019         	movff	??___xxtofl+2,___xxtofl@arg+2
  6130  001486  C014  F01A         	movff	??___xxtofl+3,___xxtofl@arg+3
  6131  00148A  EF4F  F00A         	goto	l3698
  6132  00148E                     l1360:
  6133  00148E  C00D  F017         	movff	___xxtofl@val,___xxtofl@arg
  6134  001492  C00E  F018         	movff	___xxtofl@val+1,___xxtofl@arg+1
  6135  001496  C00F  F019         	movff	___xxtofl@val+2,___xxtofl@arg+2
  6136  00149A  C010  F01A         	movff	___xxtofl@val+3,___xxtofl@arg+3
  6137  00149E                     l3698:
  6138  00149E  500D               	movf	___xxtofl@val^0,w,c
  6139  0014A0  100E               	iorwf	(___xxtofl@val+1)^0,w,c
  6140  0014A2  100F               	iorwf	(___xxtofl@val+2)^0,w,c
  6141  0014A4  1010               	iorwf	(___xxtofl@val+3)^0,w,c
  6142  0014A6  A4D8               	btfss	status,2,c
  6143  0014A8  EF58  F00A         	goto	u2851
  6144  0014AC  EF5A  F00A         	goto	u2850
  6145  0014B0                     u2851:
  6146  0014B0  EF64  F00A         	goto	l3704
  6147  0014B4                     u2850:
  6148  0014B4  0E00               	movlw	0
  6149  0014B6  6E0D               	movwf	?___xxtofl^0,c
  6150  0014B8  0E00               	movlw	0
  6151  0014BA  6E0E               	movwf	(?___xxtofl+1)^0,c
  6152  0014BC  0E00               	movlw	0
  6153  0014BE  6E0F               	movwf	(?___xxtofl+2)^0,c
  6154  0014C0  0E00               	movlw	0
  6155  0014C2  6E10               	movwf	(?___xxtofl+3)^0,c
  6156  0014C4  EFF5  F00A         	goto	l1363
  6157  0014C8                     l3704:
  6158  0014C8  0E96               	movlw	150
  6159  0014CA  6E16               	movwf	___xxtofl@exp^0,c
  6160  0014CC  EF6E  F00A         	goto	l3708
  6161  0014D0                     l3706:
  6162  0014D0  2A16               	incf	___xxtofl@exp^0,f,c
  6163  0014D2  90D8               	bcf	status,0,c
  6164  0014D4  321A               	rrcf	(___xxtofl@arg+3)^0,f,c
  6165  0014D6  3219               	rrcf	(___xxtofl@arg+2)^0,f,c
  6166  0014D8  3218               	rrcf	(___xxtofl@arg+1)^0,f,c
  6167  0014DA  3217               	rrcf	___xxtofl@arg^0,f,c
  6168  0014DC                     l3708:
  6169  0014DC  0E00               	movlw	0
  6170  0014DE  1417               	andwf	___xxtofl@arg^0,w,c
  6171  0014E0  6E11               	movwf	??___xxtofl^0,c
  6172  0014E2  0E00               	movlw	0
  6173  0014E4  1418               	andwf	(___xxtofl@arg+1)^0,w,c
  6174  0014E6  6E12               	movwf	(??___xxtofl+1)^0,c
  6175  0014E8  0E00               	movlw	0
  6176  0014EA  1419               	andwf	(___xxtofl@arg+2)^0,w,c
  6177  0014EC  6E13               	movwf	(??___xxtofl+2)^0,c
  6178  0014EE  0EFE               	movlw	254
  6179  0014F0  141A               	andwf	(___xxtofl@arg+3)^0,w,c
  6180  0014F2  6E14               	movwf	(??___xxtofl+3)^0,c
  6181  0014F4  5011               	movf	??___xxtofl^0,w,c
  6182  0014F6  1012               	iorwf	(??___xxtofl+1)^0,w,c
  6183  0014F8  1013               	iorwf	(??___xxtofl+2)^0,w,c
  6184  0014FA  1014               	iorwf	(??___xxtofl+3)^0,w,c
  6185  0014FC  A4D8               	btfss	status,2,c
  6186  0014FE  EF83  F00A         	goto	u2861
  6187  001502  EF85  F00A         	goto	u2860
  6188  001506                     u2861:
  6189  001506  EF68  F00A         	goto	l3706
  6190  00150A                     u2860:
  6191  00150A  EF93  F00A         	goto	l1367
  6192  00150E                     l3710:
  6193  00150E  2A16               	incf	___xxtofl@exp^0,f,c
  6194  001510  0E01               	movlw	1
  6195  001512  2617               	addwf	___xxtofl@arg^0,f,c
  6196  001514  0E00               	movlw	0
  6197  001516  2218               	addwfc	(___xxtofl@arg+1)^0,f,c
  6198  001518  2219               	addwfc	(___xxtofl@arg+2)^0,f,c
  6199  00151A  221A               	addwfc	(___xxtofl@arg+3)^0,f,c
  6200  00151C  90D8               	bcf	status,0,c
  6201  00151E  321A               	rrcf	(___xxtofl@arg+3)^0,f,c
  6202  001520  3219               	rrcf	(___xxtofl@arg+2)^0,f,c
  6203  001522  3218               	rrcf	(___xxtofl@arg+1)^0,f,c
  6204  001524  3217               	rrcf	___xxtofl@arg^0,f,c
  6205  001526                     l1367:
  6206  001526  0E00               	movlw	0
  6207  001528  1417               	andwf	___xxtofl@arg^0,w,c
  6208  00152A  6E11               	movwf	??___xxtofl^0,c
  6209  00152C  0E00               	movlw	0
  6210  00152E  1418               	andwf	(___xxtofl@arg+1)^0,w,c
  6211  001530  6E12               	movwf	(??___xxtofl+1)^0,c
  6212  001532  0E00               	movlw	0
  6213  001534  1419               	andwf	(___xxtofl@arg+2)^0,w,c
  6214  001536  6E13               	movwf	(??___xxtofl+2)^0,c
  6215  001538  0EFF               	movlw	255
  6216  00153A  141A               	andwf	(___xxtofl@arg+3)^0,w,c
  6217  00153C  6E14               	movwf	(??___xxtofl+3)^0,c
  6218  00153E  5011               	movf	??___xxtofl^0,w,c
  6219  001540  1012               	iorwf	(??___xxtofl+1)^0,w,c
  6220  001542  1013               	iorwf	(??___xxtofl+2)^0,w,c
  6221  001544  1014               	iorwf	(??___xxtofl+3)^0,w,c
  6222  001546  A4D8               	btfss	status,2,c
  6223  001548  EFA8  F00A         	goto	u2871
  6224  00154C  EFAA  F00A         	goto	u2870
  6225  001550                     u2871:
  6226  001550  EF87  F00A         	goto	l3710
  6227  001554                     u2870:
  6228  001554  EFB2  F00A         	goto	l3718
  6229  001558                     l3716:
  6230  001558  0616               	decf	___xxtofl@exp^0,f,c
  6231  00155A  90D8               	bcf	status,0,c
  6232  00155C  3617               	rlcf	___xxtofl@arg^0,f,c
  6233  00155E  3618               	rlcf	(___xxtofl@arg+1)^0,f,c
  6234  001560  3619               	rlcf	(___xxtofl@arg+2)^0,f,c
  6235  001562  361A               	rlcf	(___xxtofl@arg+3)^0,f,c
  6236  001564                     l3718:
  6237  001564  BE19               	btfsc	(___xxtofl@arg+2)^0,7,c
  6238  001566  EFB7  F00A         	goto	u2881
  6239  00156A  EFB9  F00A         	goto	u2880
  6240  00156E                     u2881:
  6241  00156E  EFC1  F00A         	goto	l1374
  6242  001572                     u2880:
  6243  001572  0E02               	movlw	2
  6244  001574  6016               	cpfslt	___xxtofl@exp^0,c
  6245  001576  EFBF  F00A         	goto	u2891
  6246  00157A  EFC1  F00A         	goto	u2890
  6247  00157E                     u2891:
  6248  00157E  EFAC  F00A         	goto	l3716
  6249  001582                     u2890:
  6250  001582                     l1374:
  6251  001582  B016               	btfsc	___xxtofl@exp^0,0,c
  6252  001584  EFC6  F00A         	goto	u2901
  6253  001588  EFC8  F00A         	goto	u2900
  6254  00158C                     u2901:
  6255  00158C  EFC9  F00A         	goto	l3724
  6256  001590                     u2900:
  6257  001590  9E19               	bcf	(___xxtofl@arg+2)^0,7,c
  6258  001592                     l3724:
  6259  001592  90D8               	bcf	status,0,c
  6260  001594  3216               	rrcf	___xxtofl@exp^0,f,c
  6261  001596  C016  F011         	movff	___xxtofl@exp,??___xxtofl
  6262  00159A  6A12               	clrf	(??___xxtofl+1)^0,c
  6263  00159C  6A13               	clrf	(??___xxtofl+2)^0,c
  6264  00159E  6A14               	clrf	(??___xxtofl+3)^0,c
  6265  0015A0  C011  F014         	movff	??___xxtofl,??___xxtofl+3
  6266  0015A4  6A13               	clrf	(??___xxtofl+2)^0,c
  6267  0015A6  6A12               	clrf	(??___xxtofl+1)^0,c
  6268  0015A8  6A11               	clrf	??___xxtofl^0,c
  6269  0015AA  5011               	movf	??___xxtofl^0,w,c
  6270  0015AC  1217               	iorwf	___xxtofl@arg^0,f,c
  6271  0015AE  5012               	movf	(??___xxtofl+1)^0,w,c
  6272  0015B0  1218               	iorwf	(___xxtofl@arg+1)^0,f,c
  6273  0015B2  5013               	movf	(??___xxtofl+2)^0,w,c
  6274  0015B4  1219               	iorwf	(___xxtofl@arg+2)^0,f,c
  6275  0015B6  5014               	movf	(??___xxtofl+3)^0,w,c
  6276  0015B8  121A               	iorwf	(___xxtofl@arg+3)^0,f,c
  6277  0015BA  5015               	movf	___xxtofl@sign^0,w,c
  6278  0015BC  B4D8               	btfsc	status,2,c
  6279  0015BE  EFE3  F00A         	goto	u2911
  6280  0015C2  EFE5  F00A         	goto	u2910
  6281  0015C6                     u2911:
  6282  0015C6  EFED  F00A         	goto	l3734
  6283  0015CA                     u2910:
  6284  0015CA  BE10               	btfsc	(___xxtofl@val+3)^0,7,c
  6285  0015CC  EFEC  F00A         	goto	u2920
  6286  0015D0  EFEA  F00A         	goto	u2921
  6287  0015D4                     u2921:
  6288  0015D4  EFED  F00A         	goto	l3734
  6289  0015D8                     u2920:
  6290  0015D8  8E1A               	bsf	(___xxtofl@arg+3)^0,7,c
  6291  0015DA                     l3734:
  6292  0015DA  C017  F00D         	movff	___xxtofl@arg,?___xxtofl
  6293  0015DE  C018  F00E         	movff	___xxtofl@arg+1,?___xxtofl+1
  6294  0015E2  C019  F00F         	movff	___xxtofl@arg+2,?___xxtofl+2
  6295  0015E6  C01A  F010         	movff	___xxtofl@arg+3,?___xxtofl+3
  6296  0015EA                     l1363:
  6297  0015EA  0012               	return		;funcret
  6298  0015EC                     __end_of___xxtofl:
  6299                           	opt callstack 0
  6300                           
  6301 ;; *************** function ___lwdiv *****************
  6302 ;; Defined at:
  6303 ;;		line 7 in file "C:\Program Files (x86)\Microchip\xc8\v2.10\pic\sources\c99\common\lwdiv.c"
  6304 ;; Parameters:    Size  Location     Type
  6305 ;;  dividend        2    5[COMRAM] unsigned int 
  6306 ;;  divisor         2    7[COMRAM] unsigned int 
  6307 ;; Auto vars:     Size  Location     Type
  6308 ;;  quotient        2    9[COMRAM] unsigned int 
  6309 ;;  counter         1   11[COMRAM] unsigned char 
  6310 ;; Return value:  Size  Location     Type
  6311 ;;                  2    5[COMRAM] unsigned int 
  6312 ;; Registers used:
  6313 ;;		wreg, status,2, status,0
  6314 ;; Tracked objects:
  6315 ;;		On entry : 0/0
  6316 ;;		On exit  : 0/0
  6317 ;;		Unchanged: 0/0
  6318 ;; Data sizes:     COMRAM   BANK0   BANK1   BANK2   BANK3   BANK4   BANK5   BANK6   BANK7
  6319 ;;      Params:         4       0       0       0       0       0       0       0       0
  6320 ;;      Locals:         3       0       0       0       0       0       0       0       0
  6321 ;;      Temps:          0       0       0       0       0       0       0       0       0
  6322 ;;      Totals:         7       0       0       0       0       0       0       0       0
  6323 ;;Total ram usage:        7 bytes
  6324 ;; Hardware stack levels used:    1
  6325 ;; Hardware stack levels required when called:    2
  6326 ;; This function calls:
  6327 ;;		Nothing
  6328 ;; This function is called by:
  6329 ;;		_dameDistancia
  6330 ;; This function uses a non-reentrant model
  6331 ;;
  6332                           
  6333                           	psect	text29
  6334  001D78                     __ptext29:
  6335                           	opt callstack 0
  6336  001D78                     ___lwdiv:
  6337                           	opt callstack 25
  6338  001D78  0E00               	movlw	0
  6339  001D7A  6E0B               	movwf	(___lwdiv@quotient+1)^0,c
  6340  001D7C  0E00               	movlw	0
  6341  001D7E  6E0A               	movwf	___lwdiv@quotient^0,c
  6342  001D80  5008               	movf	___lwdiv@divisor^0,w,c
  6343  001D82  1009               	iorwf	(___lwdiv@divisor+1)^0,w,c
  6344  001D84  B4D8               	btfsc	status,2,c
  6345  001D86  EFC7  F00E         	goto	u3411
  6346  001D8A  EFC9  F00E         	goto	u3410
  6347  001D8E                     u3411:
  6348  001D8E  EFF1  F00E         	goto	l1196
  6349  001D92                     u3410:
  6350  001D92  0E01               	movlw	1
  6351  001D94  6E0C               	movwf	___lwdiv@counter^0,c
  6352  001D96  EFD1  F00E         	goto	l4042
  6353  001D9A                     l4040:
  6354  001D9A  90D8               	bcf	status,0,c
  6355  001D9C  3608               	rlcf	___lwdiv@divisor^0,f,c
  6356  001D9E  3609               	rlcf	(___lwdiv@divisor+1)^0,f,c
  6357  001DA0  2A0C               	incf	___lwdiv@counter^0,f,c
  6358  001DA2                     l4042:
  6359  001DA2  AE09               	btfss	(___lwdiv@divisor+1)^0,7,c
  6360  001DA4  EFD6  F00E         	goto	u3421
  6361  001DA8  EFD8  F00E         	goto	u3420
  6362  001DAC                     u3421:
  6363  001DAC  EFCD  F00E         	goto	l4040
  6364  001DB0                     u3420:
  6365  001DB0                     l4044:
  6366  001DB0  90D8               	bcf	status,0,c
  6367  001DB2  360A               	rlcf	___lwdiv@quotient^0,f,c
  6368  001DB4  360B               	rlcf	(___lwdiv@quotient+1)^0,f,c
  6369  001DB6  5008               	movf	___lwdiv@divisor^0,w,c
  6370  001DB8  5C06               	subwf	___lwdiv@dividend^0,w,c
  6371  001DBA  5009               	movf	(___lwdiv@divisor+1)^0,w,c
  6372  001DBC  5807               	subwfb	(___lwdiv@dividend+1)^0,w,c
  6373  001DBE  A0D8               	btfss	status,0,c
  6374  001DC0  EFE4  F00E         	goto	u3431
  6375  001DC4  EFE6  F00E         	goto	u3430
  6376  001DC8                     u3431:
  6377  001DC8  EFEB  F00E         	goto	l4052
  6378  001DCC                     u3430:
  6379  001DCC  5008               	movf	___lwdiv@divisor^0,w,c
  6380  001DCE  5E06               	subwf	___lwdiv@dividend^0,f,c
  6381  001DD0  5009               	movf	(___lwdiv@divisor+1)^0,w,c
  6382  001DD2  5A07               	subwfb	(___lwdiv@dividend+1)^0,f,c
  6383  001DD4  800A               	bsf	___lwdiv@quotient^0,0,c
  6384  001DD6                     l4052:
  6385  001DD6  90D8               	bcf	status,0,c
  6386  001DD8  3209               	rrcf	(___lwdiv@divisor+1)^0,f,c
  6387  001DDA  3208               	rrcf	___lwdiv@divisor^0,f,c
  6388  001DDC  2E0C               	decfsz	___lwdiv@counter^0,f,c
  6389  001DDE  EFD8  F00E         	goto	l4044
  6390  001DE2                     l1196:
  6391  001DE2  C00A  F006         	movff	___lwdiv@quotient,?___lwdiv
  6392  001DE6  C00B  F007         	movff	___lwdiv@quotient+1,?___lwdiv+1
  6393  001DEA  0012               	return		;funcret
  6394  001DEC                     __end_of___lwdiv:
  6395                           	opt callstack 0
  6396                           
  6397 ;; *************** function _configurarAdc *****************
  6398 ;; Defined at:
  6399 ;;		line 7 in file "./adc.h"
  6400 ;; Parameters:    Size  Location     Type
  6401 ;;		None
  6402 ;; Auto vars:     Size  Location     Type
  6403 ;;		None
  6404 ;; Return value:  Size  Location     Type
  6405 ;;                  1    wreg      void 
  6406 ;; Registers used:
  6407 ;;		wreg, status,2
  6408 ;; Tracked objects:
  6409 ;;		On entry : 0/0
  6410 ;;		On exit  : 0/0
  6411 ;;		Unchanged: 0/0
  6412 ;; Data sizes:     COMRAM   BANK0   BANK1   BANK2   BANK3   BANK4   BANK5   BANK6   BANK7
  6413 ;;      Params:         0       0       0       0       0       0       0       0       0
  6414 ;;      Locals:         0       0       0       0       0       0       0       0       0
  6415 ;;      Temps:          0       0       0       0       0       0       0       0       0
  6416 ;;      Totals:         0       0       0       0       0       0       0       0       0
  6417 ;;Total ram usage:        0 bytes
  6418 ;; Hardware stack levels used:    1
  6419 ;; Hardware stack levels required when called:    2
  6420 ;; This function calls:
  6421 ;;		Nothing
  6422 ;; This function is called by:
  6423 ;;		_main
  6424 ;; This function uses a non-reentrant model
  6425 ;;
  6426                           
  6427                           	psect	text30
  6428  002288                     __ptext30:
  6429                           	opt callstack 0
  6430  002288                     _configurarAdc:
  6431                           	opt callstack 28
  6432  002288                     
  6433                           ;./adc.h: 8:     ADCON1 = 0b00001110;
  6434  002288  0E0E               	movlw	14
  6435  00228A  6EC1               	movwf	193,c	;volatile
  6436                           
  6437                           ;./adc.h: 9:     ADCON2 = 0b10100101;
  6438  00228C  0EA5               	movlw	165
  6439  00228E  6EC0               	movwf	192,c	;volatile
  6440  002290  0012               	return		;funcret
  6441  002292                     __end_of_configurarAdc:
  6442                           	opt callstack 0
  6443                           
  6444 ;; *************** function _configPwm *****************
  6445 ;; Defined at:
  6446 ;;		line 47 in file "./pwm.h"
  6447 ;; Parameters:    Size  Location     Type
  6448 ;;  channel         1    wreg     unsigned char 
  6449 ;; Auto vars:     Size  Location     Type
  6450 ;;  channel         1    7[COMRAM] unsigned char 
  6451 ;; Return value:  Size  Location     Type
  6452 ;;                  1    wreg      void 
  6453 ;; Registers used:
  6454 ;;		wreg, status,2, status,0
  6455 ;; Tracked objects:
  6456 ;;		On entry : 0/0
  6457 ;;		On exit  : 0/0
  6458 ;;		Unchanged: 0/0
  6459 ;; Data sizes:     COMRAM   BANK0   BANK1   BANK2   BANK3   BANK4   BANK5   BANK6   BANK7
  6460 ;;      Params:         0       0       0       0       0       0       0       0       0
  6461 ;;      Locals:         1       0       0       0       0       0       0       0       0
  6462 ;;      Temps:          2       0       0       0       0       0       0       0       0
  6463 ;;      Totals:         3       0       0       0       0       0       0       0       0
  6464 ;;Total ram usage:        3 bytes
  6465 ;; Hardware stack levels used:    1
  6466 ;; Hardware stack levels required when called:    2
  6467 ;; This function calls:
  6468 ;;		Nothing
  6469 ;; This function is called by:
  6470 ;;		_main
  6471 ;; This function uses a non-reentrant model
  6472 ;;
  6473                           
  6474                           	psect	text31
  6475  002032                     __ptext31:
  6476                           	opt callstack 0
  6477  002032                     _configPwm:
  6478                           	opt callstack 28
  6479                           
  6480                           ;incstack = 0
  6481                           ;configPwm@channel stored from wreg
  6482  002032  6E08               	movwf	configPwm@channel^0,c
  6483  002034                     
  6484                           ;./pwm.h: 56:         T2CKPS0 = 1;
  6485  002034  80CA               	bsf	4042,0,c	;volatile
  6486                           
  6487                           ;./pwm.h: 57:         T2CKPS1 = 1;
  6488  002036  82CA               	bsf	4042,1,c	;volatile
  6489  002038                     
  6490                           ;./pwm.h: 61:     PR2 = (4000000 / (500 * 4 * 16)) - 1;
  6491  002038  0E7C               	movlw	124
  6492  00203A  6ECB               	movwf	203,c	;volatile
  6493                           
  6494                           ;./pwm.h: 63:     switch (channel) {
  6495  00203C  EF2A  F010         	goto	l4236
  6496  002040                     l163:
  6497                           
  6498                           ;./pwm.h: 66:             TRISC2 = 0;
  6499  002040  9494               	bcf	3988,2,c	;volatile
  6500                           
  6501                           ;./pwm.h: 67:             CCP1M3 = 1;
  6502  002042  86BD               	bsf	4029,3,c	;volatile
  6503                           
  6504                           ;./pwm.h: 68:             CCP1M2 = 1;
  6505  002044  84BD               	bsf	4029,2,c	;volatile
  6506                           
  6507                           ;./pwm.h: 71:             break;
  6508  002046  EF3F  F010         	goto	l164
  6509  00204A                     l165:
  6510                           
  6511                           ;./pwm.h: 74:             TRISC1 = 0;
  6512  00204A  9294               	bcf	3988,1,c	;volatile
  6513                           
  6514                           ;./pwm.h: 75:             CCP2M3 = 1;
  6515  00204C  86BA               	bsf	4026,3,c	;volatile
  6516                           
  6517                           ;./pwm.h: 76:             CCP2M2 = 1;
  6518  00204E  84BA               	bsf	4026,2,c	;volatile
  6519                           
  6520                           ;./pwm.h: 77:             break;
  6521  002050  EF3F  F010         	goto	l164
  6522  002054                     l4236:
  6523  002054  5008               	movf	configPwm@channel^0,w,c
  6524  002056  6E06               	movwf	??_configPwm^0,c
  6525  002058  6A07               	clrf	(??_configPwm+1)^0,c
  6526                           
  6527                           ; Switch on 2 bytes has been partitioned into a top level switch of size 1, and 1 sub-sw
      +                          itches
  6528                           ; Switch size 1, requested type "simple"
  6529                           ; Number of cases is 1, Range of values is 0 to 0
  6530                           ; switch strategies available:
  6531                           ; Name         Instructions Cycles
  6532                           ; simple_byte            4     3 (average)
  6533                           ;	Chosen strategy is simple_byte
  6534  00205A  5007               	movf	(??_configPwm+1)^0,w,c
  6535  00205C  0A00               	xorlw	0	; case 0
  6536  00205E  B4D8               	btfsc	status,2,c
  6537  002060  EF34  F010         	goto	l5816
  6538  002064  EF3F  F010         	goto	l164
  6539  002068                     l5816:
  6540                           
  6541                           ; Switch size 1, requested type "simple"
  6542                           ; Number of cases is 2, Range of values is 1 to 2
  6543                           ; switch strategies available:
  6544                           ; Name         Instructions Cycles
  6545                           ; simple_byte            7     4 (average)
  6546                           ;	Chosen strategy is simple_byte
  6547  002068  5006               	movf	??_configPwm^0,w,c
  6548  00206A  0A01               	xorlw	1	; case 1
  6549  00206C  B4D8               	btfsc	status,2,c
  6550  00206E  EF20  F010         	goto	l163
  6551  002072  0A03               	xorlw	3	; case 2
  6552  002074  B4D8               	btfsc	status,2,c
  6553  002076  EF25  F010         	goto	l165
  6554  00207A  EF3F  F010         	goto	l164
  6555  00207E                     l164:
  6556                           
  6557                           ;./pwm.h: 81:     TMR2ON = 1;
  6558  00207E  84CA               	bsf	4042,2,c	;volatile
  6559  002080  0012               	return		;funcret
  6560  002082                     __end_of_configPwm:
  6561                           	opt callstack 0
  6562                           
  6563 ;; *************** function _UART_init *****************
  6564 ;; Defined at:
  6565 ;;		line 13 in file "./UART.h"
  6566 ;; Parameters:    Size  Location     Type
  6567 ;;  BAUD            4   31[COMRAM] long 
  6568 ;; Auto vars:     Size  Location     Type
  6569 ;;  frecuenciaCr    4    0        long 
  6570 ;; Return value:  Size  Location     Type
  6571 ;;                  1    wreg      void 
  6572 ;; Registers used:
  6573 ;;		wreg, status,2, status,0, cstack
  6574 ;; Tracked objects:
  6575 ;;		On entry : 0/0
  6576 ;;		On exit  : 0/0
  6577 ;;		Unchanged: 0/0
  6578 ;; Data sizes:     COMRAM   BANK0   BANK1   BANK2   BANK3   BANK4   BANK5   BANK6   BANK7
  6579 ;;      Params:         4       0       0       0       0       0       0       0       0
  6580 ;;      Locals:         8       0       0       0       0       0       0       0       0
  6581 ;;      Temps:          0       0       0       0       0       0       0       0       0
  6582 ;;      Totals:        12       0       0       0       0       0       0       0       0
  6583 ;;Total ram usage:       12 bytes
  6584 ;; Hardware stack levels used:    1
  6585 ;; Hardware stack levels required when called:    3
  6586 ;; This function calls:
  6587 ;;		___aldiv
  6588 ;; This function is called by:
  6589 ;;		_main
  6590 ;; This function uses a non-reentrant model
  6591 ;;
  6592                           
  6593                           	psect	text32
  6594  001DEC                     __ptext32:
  6595                           	opt callstack 0
  6596  001DEC                     _UART_init:
  6597                           	opt callstack 27
  6598  001DEC                     
  6599                           ;./UART.h: 16:     TRISC6 = 0;
  6600  001DEC  9C94               	bcf	3988,6,c	;volatile
  6601  001DEE                     
  6602                           ;./UART.h: 17:     TRISC7 = 1;
  6603  001DEE  8E94               	bsf	3988,7,c	;volatile
  6604  001DF0                     
  6605                           ;./UART.h: 20:     SPBRG = (frecuenciaCristal / 16 / BAUD) - 1;
  6606  001DF0  0E10               	movlw	16
  6607  001DF2  6E16               	movwf	___aldiv@divisor^0,c
  6608  001DF4  0E00               	movlw	0
  6609  001DF6  6E17               	movwf	(___aldiv@divisor+1)^0,c
  6610  001DF8  0E00               	movlw	0
  6611  001DFA  6E18               	movwf	(___aldiv@divisor+2)^0,c
  6612  001DFC  0E00               	movlw	0
  6613  001DFE  6E19               	movwf	(___aldiv@divisor+3)^0,c
  6614  001E00  0E00               	movlw	0
  6615  001E02  6E12               	movwf	___aldiv@dividend^0,c
  6616  001E04  0E09               	movlw	9
  6617  001E06  6E13               	movwf	(___aldiv@dividend+1)^0,c
  6618  001E08  0E3D               	movlw	61
  6619  001E0A  6E14               	movwf	(___aldiv@dividend+2)^0,c
  6620  001E0C  0E00               	movlw	0
  6621  001E0E  6E15               	movwf	(___aldiv@dividend+3)^0,c
  6622  001E10  EC65  F00C         	call	___aldiv	;wreg free
  6623  001E14  C012  F028         	movff	?___aldiv,_UART_init$1506
  6624  001E18  C013  F029         	movff	?___aldiv+1,_UART_init$1506+1
  6625  001E1C  C014  F02A         	movff	?___aldiv+2,_UART_init$1506+2
  6626  001E20  C015  F02B         	movff	?___aldiv+3,_UART_init$1506+3
  6627  001E24                     
  6628                           ;./UART.h: 20:     SPBRG = (frecuenciaCristal / 16 / BAUD) - 1;
  6629  001E24  C028  F012         	movff	_UART_init$1506,___aldiv@dividend
  6630  001E28  C029  F013         	movff	_UART_init$1506+1,___aldiv@dividend+1
  6631  001E2C  C02A  F014         	movff	_UART_init$1506+2,___aldiv@dividend+2
  6632  001E30  C02B  F015         	movff	_UART_init$1506+3,___aldiv@dividend+3
  6633  001E34  C020  F016         	movff	UART_init@BAUD,___aldiv@divisor
  6634  001E38  C021  F017         	movff	UART_init@BAUD+1,___aldiv@divisor+1
  6635  001E3C  C022  F018         	movff	UART_init@BAUD+2,___aldiv@divisor+2
  6636  001E40  C023  F019         	movff	UART_init@BAUD+3,___aldiv@divisor+3
  6637  001E44  EC65  F00C         	call	___aldiv	;wreg free
  6638  001E48  0412               	decf	?___aldiv^0,w,c
  6639  001E4A  6EAF               	movwf	175,c	;volatile
  6640  001E4C                     
  6641                           ;./UART.h: 23:     TXSTAbits.BRGH = 1;
  6642  001E4C  84AC               	bsf	172,2,c	;volatile
  6643  001E4E                     
  6644                           ;./UART.h: 24:     TXSTAbits.SYNC = 0;
  6645  001E4E  98AC               	bcf	172,4,c	;volatile
  6646  001E50                     
  6647                           ;./UART.h: 25:     RCSTAbits.SPEN = 1;
  6648  001E50  8EAB               	bsf	171,7,c	;volatile
  6649  001E52                     
  6650                           ;./UART.h: 28:     TXSTAbits.TX9 = 0;
  6651  001E52  9CAC               	bcf	172,6,c	;volatile
  6652  001E54                     
  6653                           ;./UART.h: 29:     TXSTAbits.TXEN = 1;
  6654  001E54  8AAC               	bsf	172,5,c	;volatile
  6655  001E56                     
  6656                           ;./UART.h: 32:     RCSTAbits.RC9 = 0;
  6657  001E56  9CAB               	bcf	171,6,c	;volatile
  6658  001E58                     
  6659                           ;./UART.h: 33:     RCSTAbits.CREN = 1;
  6660  001E58  88AB               	bsf	171,4,c	;volatile
  6661  001E5A  0012               	return		;funcret
  6662  001E5C                     __end_of_UART_init:
  6663                           	opt callstack 0
  6664                           
  6665 ;; *************** function ___aldiv *****************
  6666 ;; Defined at:
  6667 ;;		line 7 in file "C:\Program Files (x86)\Microchip\xc8\v2.10\pic\sources\c99\common\aldiv.c"
  6668 ;; Parameters:    Size  Location     Type
  6669 ;;  dividend        4   17[COMRAM] long 
  6670 ;;  divisor         4   21[COMRAM] long 
  6671 ;; Auto vars:     Size  Location     Type
  6672 ;;  quotient        4   27[COMRAM] long 
  6673 ;;  sign            1   26[COMRAM] unsigned char 
  6674 ;;  counter         1   25[COMRAM] unsigned char 
  6675 ;; Return value:  Size  Location     Type
  6676 ;;                  4   17[COMRAM] long 
  6677 ;; Registers used:
  6678 ;;		wreg, status,2, status,0
  6679 ;; Tracked objects:
  6680 ;;		On entry : 0/0
  6681 ;;		On exit  : 0/0
  6682 ;;		Unchanged: 0/0
  6683 ;; Data sizes:     COMRAM   BANK0   BANK1   BANK2   BANK3   BANK4   BANK5   BANK6   BANK7
  6684 ;;      Params:         8       0       0       0       0       0       0       0       0
  6685 ;;      Locals:         6       0       0       0       0       0       0       0       0
  6686 ;;      Temps:          0       0       0       0       0       0       0       0       0
  6687 ;;      Totals:        14       0       0       0       0       0       0       0       0
  6688 ;;Total ram usage:       14 bytes
  6689 ;; Hardware stack levels used:    1
  6690 ;; Hardware stack levels required when called:    2
  6691 ;; This function calls:
  6692 ;;		Nothing
  6693 ;; This function is called by:
  6694 ;;		_map
  6695 ;;		_UART_init
  6696 ;; This function uses a non-reentrant model
  6697 ;;
  6698                           
  6699                           	psect	text33
  6700  0018CA                     __ptext33:
  6701                           	opt callstack 0
  6702  0018CA                     ___aldiv:
  6703                           	opt callstack 21
  6704  0018CA  0E00               	movlw	0
  6705  0018CC  6E1B               	movwf	___aldiv@sign^0,c
  6706  0018CE  BE19               	btfsc	(___aldiv@divisor+3)^0,7,c
  6707  0018D0  EF6E  F00C         	goto	u2280
  6708  0018D4  EF6C  F00C         	goto	u2281
  6709  0018D8                     u2281:
  6710  0018D8  EF78  F00C         	goto	l3340
  6711  0018DC                     u2280:
  6712  0018DC  1E19               	comf	(___aldiv@divisor+3)^0,f,c
  6713  0018DE  1E18               	comf	(___aldiv@divisor+2)^0,f,c
  6714  0018E0  1E17               	comf	(___aldiv@divisor+1)^0,f,c
  6715  0018E2  6C16               	negf	___aldiv@divisor^0,c
  6716  0018E4  0E00               	movlw	0
  6717  0018E6  2217               	addwfc	(___aldiv@divisor+1)^0,f,c
  6718  0018E8  2218               	addwfc	(___aldiv@divisor+2)^0,f,c
  6719  0018EA  2219               	addwfc	(___aldiv@divisor+3)^0,f,c
  6720  0018EC  0E01               	movlw	1
  6721  0018EE  6E1B               	movwf	___aldiv@sign^0,c
  6722  0018F0                     l3340:
  6723  0018F0  BE15               	btfsc	(___aldiv@dividend+3)^0,7,c
  6724  0018F2  EF7F  F00C         	goto	u2290
  6725  0018F6  EF7D  F00C         	goto	u2291
  6726  0018FA                     u2291:
  6727  0018FA  EF89  F00C         	goto	l3346
  6728  0018FE                     u2290:
  6729  0018FE  1E15               	comf	(___aldiv@dividend+3)^0,f,c
  6730  001900  1E14               	comf	(___aldiv@dividend+2)^0,f,c
  6731  001902  1E13               	comf	(___aldiv@dividend+1)^0,f,c
  6732  001904  6C12               	negf	___aldiv@dividend^0,c
  6733  001906  0E00               	movlw	0
  6734  001908  2213               	addwfc	(___aldiv@dividend+1)^0,f,c
  6735  00190A  2214               	addwfc	(___aldiv@dividend+2)^0,f,c
  6736  00190C  2215               	addwfc	(___aldiv@dividend+3)^0,f,c
  6737  00190E  0E01               	movlw	1
  6738  001910  1A1B               	xorwf	___aldiv@sign^0,f,c
  6739  001912                     l3346:
  6740  001912  0E00               	movlw	0
  6741  001914  6E1C               	movwf	___aldiv@quotient^0,c
  6742  001916  0E00               	movlw	0
  6743  001918  6E1D               	movwf	(___aldiv@quotient+1)^0,c
  6744  00191A  0E00               	movlw	0
  6745  00191C  6E1E               	movwf	(___aldiv@quotient+2)^0,c
  6746  00191E  0E00               	movlw	0
  6747  001920  6E1F               	movwf	(___aldiv@quotient+3)^0,c
  6748  001922  5016               	movf	___aldiv@divisor^0,w,c
  6749  001924  1017               	iorwf	(___aldiv@divisor+1)^0,w,c
  6750  001926  1018               	iorwf	(___aldiv@divisor+2)^0,w,c
  6751  001928  1019               	iorwf	(___aldiv@divisor+3)^0,w,c
  6752  00192A  B4D8               	btfsc	status,2,c
  6753  00192C  EF9A  F00C         	goto	u2301
  6754  001930  EF9C  F00C         	goto	u2300
  6755  001934                     u2301:
  6756  001934  EFD2  F00C         	goto	l3368
  6757  001938                     u2300:
  6758  001938  0E01               	movlw	1
  6759  00193A  6E1A               	movwf	___aldiv@counter^0,c
  6760  00193C  EFA6  F00C         	goto	l3354
  6761  001940                     l3352:
  6762  001940  90D8               	bcf	status,0,c
  6763  001942  3616               	rlcf	___aldiv@divisor^0,f,c
  6764  001944  3617               	rlcf	(___aldiv@divisor+1)^0,f,c
  6765  001946  3618               	rlcf	(___aldiv@divisor+2)^0,f,c
  6766  001948  3619               	rlcf	(___aldiv@divisor+3)^0,f,c
  6767  00194A  2A1A               	incf	___aldiv@counter^0,f,c
  6768  00194C                     l3354:
  6769  00194C  AE19               	btfss	(___aldiv@divisor+3)^0,7,c
  6770  00194E  EFAB  F00C         	goto	u2311
  6771  001952  EFAD  F00C         	goto	u2310
  6772  001956                     u2311:
  6773  001956  EFA0  F00C         	goto	l3352
  6774  00195A                     u2310:
  6775  00195A                     l3356:
  6776  00195A  90D8               	bcf	status,0,c
  6777  00195C  361C               	rlcf	___aldiv@quotient^0,f,c
  6778  00195E  361D               	rlcf	(___aldiv@quotient+1)^0,f,c
  6779  001960  361E               	rlcf	(___aldiv@quotient+2)^0,f,c
  6780  001962  361F               	rlcf	(___aldiv@quotient+3)^0,f,c
  6781  001964  5016               	movf	___aldiv@divisor^0,w,c
  6782  001966  5C12               	subwf	___aldiv@dividend^0,w,c
  6783  001968  5017               	movf	(___aldiv@divisor+1)^0,w,c
  6784  00196A  5813               	subwfb	(___aldiv@dividend+1)^0,w,c
  6785  00196C  5018               	movf	(___aldiv@divisor+2)^0,w,c
  6786  00196E  5814               	subwfb	(___aldiv@dividend+2)^0,w,c
  6787  001970  5019               	movf	(___aldiv@divisor+3)^0,w,c
  6788  001972  5815               	subwfb	(___aldiv@dividend+3)^0,w,c
  6789  001974  A0D8               	btfss	status,0,c
  6790  001976  EFBF  F00C         	goto	u2321
  6791  00197A  EFC1  F00C         	goto	u2320
  6792  00197E                     u2321:
  6793  00197E  EFCA  F00C         	goto	l3364
  6794  001982                     u2320:
  6795  001982  5016               	movf	___aldiv@divisor^0,w,c
  6796  001984  5E12               	subwf	___aldiv@dividend^0,f,c
  6797  001986  5017               	movf	(___aldiv@divisor+1)^0,w,c
  6798  001988  5A13               	subwfb	(___aldiv@dividend+1)^0,f,c
  6799  00198A  5018               	movf	(___aldiv@divisor+2)^0,w,c
  6800  00198C  5A14               	subwfb	(___aldiv@dividend+2)^0,f,c
  6801  00198E  5019               	movf	(___aldiv@divisor+3)^0,w,c
  6802  001990  5A15               	subwfb	(___aldiv@dividend+3)^0,f,c
  6803  001992  801C               	bsf	___aldiv@quotient^0,0,c
  6804  001994                     l3364:
  6805  001994  90D8               	bcf	status,0,c
  6806  001996  3219               	rrcf	(___aldiv@divisor+3)^0,f,c
  6807  001998  3218               	rrcf	(___aldiv@divisor+2)^0,f,c
  6808  00199A  3217               	rrcf	(___aldiv@divisor+1)^0,f,c
  6809  00199C  3216               	rrcf	___aldiv@divisor^0,f,c
  6810  00199E  2E1A               	decfsz	___aldiv@counter^0,f,c
  6811  0019A0  EFAD  F00C         	goto	l3356
  6812  0019A4                     l3368:
  6813  0019A4  501B               	movf	___aldiv@sign^0,w,c
  6814  0019A6  B4D8               	btfsc	status,2,c
  6815  0019A8  EFD8  F00C         	goto	u2331
  6816  0019AC  EFDA  F00C         	goto	u2330
  6817  0019B0                     u2331:
  6818  0019B0  EFE2  F00C         	goto	l3372
  6819  0019B4                     u2330:
  6820  0019B4  1E1F               	comf	(___aldiv@quotient+3)^0,f,c
  6821  0019B6  1E1E               	comf	(___aldiv@quotient+2)^0,f,c
  6822  0019B8  1E1D               	comf	(___aldiv@quotient+1)^0,f,c
  6823  0019BA  6C1C               	negf	___aldiv@quotient^0,c
  6824  0019BC  0E00               	movlw	0
  6825  0019BE  221D               	addwfc	(___aldiv@quotient+1)^0,f,c
  6826  0019C0  221E               	addwfc	(___aldiv@quotient+2)^0,f,c
  6827  0019C2  221F               	addwfc	(___aldiv@quotient+3)^0,f,c
  6828  0019C4                     l3372:
  6829  0019C4  C01C  F012         	movff	___aldiv@quotient,?___aldiv
  6830  0019C8  C01D  F013         	movff	___aldiv@quotient+1,?___aldiv+1
  6831  0019CC  C01E  F014         	movff	___aldiv@quotient+2,?___aldiv+2
  6832  0019D0  C01F  F015         	movff	___aldiv@quotient+3,?___aldiv+3
  6833  0019D4  0012               	return		;funcret
  6834  0019D6                     __end_of___aldiv:
  6835                           	opt callstack 0
  6836                           
  6837 ;; *************** function _boton *****************
  6838 ;; Defined at:
  6839 ;;		line 120 in file "main.c"
  6840 ;; Parameters:    Size  Location     Type
  6841 ;;		None
  6842 ;; Auto vars:     Size  Location     Type
  6843 ;;		None
  6844 ;; Return value:  Size  Location     Type
  6845 ;;                  1    wreg      void 
  6846 ;; Registers used:
  6847 ;;		wreg, status,2, status,0, cstack
  6848 ;; Tracked objects:
  6849 ;;		On entry : 0/0
  6850 ;;		On exit  : 0/0
  6851 ;;		Unchanged: 0/0
  6852 ;; Data sizes:     COMRAM   BANK0   BANK1   BANK2   BANK3   BANK4   BANK5   BANK6   BANK7
  6853 ;;      Params:         0       0       0       0       0       0       0       0       0
  6854 ;;      Locals:         0       0       0       0       0       0       0       0       0
  6855 ;;      Temps:          2       0       0       0       0       0       0       0       0
  6856 ;;      Totals:         2       0       0       0       0       0       0       0       0
  6857 ;;Total ram usage:        2 bytes
  6858 ;; Hardware stack levels used:    1
  6859 ;; Hardware stack levels required when called:    1
  6860 ;; This function calls:
  6861 ;;		_antiRebote
  6862 ;; This function is called by:
  6863 ;;		Interrupt level 2
  6864 ;; This function uses a non-reentrant model
  6865 ;;
  6866                           
  6867                           	psect	intcode
  6868  000008                     __pintcode:
  6869                           	opt callstack 0
  6870  000008                     _boton:
  6871                           	opt callstack 21
  6872                           
  6873                           ;incstack = 0
  6874  000008  825A               	bsf	int$flags,1,c	;set compiler interrupt flag (level 2)
  6875  00000A  EDEF  F00F         	call	int_func,f	;refresh shadow registers
  6876                           
  6877                           	psect	intcode_body
  6878  001FDE                     __pintcode_body:
  6879                           	opt callstack 21
  6880  001FDE                     int_func:
  6881                           	opt callstack 21
  6882  001FDE  0006               	pop		; remove dummy address from shadow register refresh
  6883  001FE0                     
  6884                           ;main.c: 122:     if (INT0IF)
  6885  001FE0  A2F2               	btfss	4082,1,c	;volatile
  6886  001FE2  EFF5  F00F         	goto	i2u377_41
  6887  001FE6  EFF7  F00F         	goto	i2u377_40
  6888  001FEA                     i2u377_41:
  6889  001FEA  EF17  F010         	goto	i2l278
  6890  001FEE                     i2u377_40:
  6891  001FEE                     
  6892                           ;main.c: 123:     {;main.c: 124:         antiRebote(1);
  6893  001FEE  0E01               	movlw	1
  6894  001FF0  ECC3  F00F         	call	_antiRebote
  6895  001FF4                     
  6896                           ;main.c: 125:         if (pausa) {
  6897  001FF4  0100               	movlb	0	; () banked
  6898  001FF6  51DA               	movf	_pausa& (0+255),w,b
  6899  001FF8  B4D8               	btfsc	status,2,c
  6900  001FFA  EF01  F010         	goto	i2u378_41
  6901  001FFE  EF03  F010         	goto	i2u378_40
  6902  002002                     i2u378_41:
  6903  002002  EF13  F010         	goto	i2l276
  6904  002006                     i2u378_40:
  6905  002006                     
  6906                           ; BSR set to: 0
  6907                           ;main.c: 126:             pausa = 0;
  6908  002006  0E00               	movlw	0
  6909  002008  6FDA               	movwf	_pausa& (0+255),b
  6910  00200A                     
  6911                           ; BSR set to: 0
  6912                           ;main.c: 127:             LATD2 = 1;
  6913  00200A  848C               	bsf	3980,2,c	;volatile
  6914  00200C                     
  6915                           ; BSR set to: 0
  6916                           ;main.c: 128:             _delay((unsigned long)((3000)*(4000000/4000.0)));
  6917  00200C  0E10               	movlw	16
  6918  00200E  6E05               	movwf	(??_boton+1)^0,c
  6919  002010  0E39               	movlw	57
  6920  002012  6E04               	movwf	??_boton^0,c
  6921  002014  0E0E               	movlw	14
  6922  002016                     i2u506_47:
  6923  002016  2EE8               	decfsz	wreg,f,c
  6924  002018  D7FE               	bra	i2u506_47
  6925  00201A  2E04               	decfsz	??_boton^0,f,c
  6926  00201C  D7FC               	bra	i2u506_47
  6927  00201E  2E05               	decfsz	(??_boton+1)^0,f,c
  6928  002020  D7FA               	bra	i2u506_47
  6929                           
  6930                           ;main.c: 129:         } else {
  6931  002022  EF16  F010         	goto	i2l4338
  6932  002026                     i2l276:
  6933                           
  6934                           ; BSR set to: 0
  6935                           ;main.c: 130:             LATD2 = 0;
  6936  002026  948C               	bcf	3980,2,c	;volatile
  6937  002028                     
  6938                           ; BSR set to: 0
  6939                           ;main.c: 131:             pausa = 1;
  6940  002028  0E01               	movlw	1
  6941  00202A  6FDA               	movwf	_pausa& (0+255),b
  6942  00202C                     i2l4338:
  6943                           
  6944                           ;main.c: 134:         INT0IF = 0;
  6945  00202C  92F2               	bcf	4082,1,c	;volatile
  6946  00202E                     i2l278:
  6947  00202E  925A               	bcf	int$flags,1,c	;clear compiler interrupt flag (level 2)
  6948  002030  0011               	retfie		f
  6949  002032                     __end_of_boton:
  6950                           	opt callstack 0
  6951                           
  6952 ;; *************** function _antiRebote *****************
  6953 ;; Defined at:
  6954 ;;		line 232 in file "main.c"
  6955 ;; Parameters:    Size  Location     Type
  6956 ;;  pin             1    wreg     unsigned char 
  6957 ;; Auto vars:     Size  Location     Type
  6958 ;;  pin             1    2[COMRAM] unsigned char 
  6959 ;; Return value:  Size  Location     Type
  6960 ;;                  1    wreg      void 
  6961 ;; Registers used:
  6962 ;;		wreg, status,2, status,0
  6963 ;; Tracked objects:
  6964 ;;		On entry : 0/0
  6965 ;;		On exit  : 0/0
  6966 ;;		Unchanged: 0/0
  6967 ;; Data sizes:     COMRAM   BANK0   BANK1   BANK2   BANK3   BANK4   BANK5   BANK6   BANK7
  6968 ;;      Params:         0       0       0       0       0       0       0       0       0
  6969 ;;      Locals:         1       0       0       0       0       0       0       0       0
  6970 ;;      Temps:          2       0       0       0       0       0       0       0       0
  6971 ;;      Totals:         3       0       0       0       0       0       0       0       0
  6972 ;;Total ram usage:        3 bytes
  6973 ;; Hardware stack levels used:    1
  6974 ;; This function calls:
  6975 ;;		Nothing
  6976 ;; This function is called by:
  6977 ;;		_boton
  6978 ;; This function uses a non-reentrant model
  6979 ;;
  6980                           
  6981                           	psect	text35
  6982  001F86                     __ptext35:
  6983                           	opt callstack 0
  6984  001F86                     _antiRebote:
  6985                           	opt callstack 21
  6986                           
  6987                           ;incstack = 0
  6988                           ;antiRebote@pin stored from wreg
  6989  001F86  6E03               	movwf	antiRebote@pin^0,c
  6990  001F88                     
  6991                           ;main.c: 234:     switch (pin) {
  6992  001F88  EFDD  F00F         	goto	i2l4282
  6993  001F8C                     i2l312:
  6994  001F8C  A081               	btfss	129,0,c	;volatile
  6995  001F8E  EFCB  F00F         	goto	i2u373_41
  6996  001F92  EFCD  F00F         	goto	i2u373_40
  6997  001F96                     i2u373_41:
  6998  001F96  EFC6  F00F         	goto	i2l312
  6999  001F9A                     i2u373_40:
  7000  001F9A                     i2l315:
  7001  001F9A  B081               	btfsc	129,0,c	;volatile
  7002  001F9C  EFD2  F00F         	goto	i2u374_41
  7003  001FA0  EFD4  F00F         	goto	i2u374_40
  7004  001FA4                     i2u374_41:
  7005  001FA4  EFCD  F00F         	goto	i2l315
  7006  001FA8                     i2u374_40:
  7007  001FA8                     
  7008                           ;main.c: 238:             _delay((unsigned long)((100)*(4000000/4000.0)));
  7009  001FA8  0E82               	movlw	130
  7010  001FAA  6E01               	movwf	??_antiRebote^0,c
  7011  001FAC  0EDE               	movlw	222
  7012  001FAE                     i2u507_47:
  7013  001FAE  2EE8               	decfsz	wreg,f,c
  7014  001FB0  D7FE               	bra	i2u507_47
  7015  001FB2  2E01               	decfsz	??_antiRebote^0,f,c
  7016  001FB4  D7FC               	bra	i2u507_47
  7017                           
  7018                           ;main.c: 239:             break;
  7019  001FB6  EFEE  F00F         	goto	i2l320
  7020  001FBA                     i2l4282:
  7021  001FBA  5003               	movf	antiRebote@pin^0,w,c
  7022  001FBC  6E01               	movwf	??_antiRebote^0,c
  7023  001FBE  6A02               	clrf	(??_antiRebote+1)^0,c
  7024                           
  7025                           ; Switch on 2 bytes has been partitioned into a top level switch of size 1, and 1 sub-sw
      +                          itches
  7026                           ; Switch size 1, requested type "simple"
  7027                           ; Number of cases is 1, Range of values is 0 to 0
  7028                           ; switch strategies available:
  7029                           ; Name         Instructions Cycles
  7030                           ; simple_byte            4     3 (average)
  7031                           ;	Chosen strategy is simple_byte
  7032  001FC0  5002               	movf	(??_antiRebote+1)^0,w,c
  7033  001FC2  0A00               	xorlw	0	; case 0
  7034  001FC4  B4D8               	btfsc	status,2,c
  7035  001FC6  EFE7  F00F         	goto	i2l5818
  7036  001FCA  EFEE  F00F         	goto	i2l320
  7037  001FCE                     i2l5818:
  7038                           
  7039                           ; Switch size 1, requested type "simple"
  7040                           ; Number of cases is 1, Range of values is 1 to 1
  7041                           ; switch strategies available:
  7042                           ; Name         Instructions Cycles
  7043                           ; simple_byte            4     3 (average)
  7044                           ;	Chosen strategy is simple_byte
  7045  001FCE  5001               	movf	??_antiRebote^0,w,c
  7046  001FD0  0A01               	xorlw	1	; case 1
  7047  001FD2  B4D8               	btfsc	status,2,c
  7048  001FD4  EFC6  F00F         	goto	i2l312
  7049  001FD8  EFEE  F00F         	goto	i2l320
  7050  001FDC                     i2l320:
  7051  001FDC  0012               	return		;funcret
  7052  001FDE                     __end_of_antiRebote:
  7053                           	opt callstack 0
  7054                           
  7055                           	psect	rparam
  7056  0000                     
  7057                           	psect	temp
  7058  00005A                     btemp:
  7059                           	opt callstack 0
  7060  00005A                     	ds	1
  7061  0000                     int$flags	set	btemp
  7062  0000                     wtemp8	set	btemp+1
  7063  0000                     ttemp5	set	btemp+1
  7064  0000                     ttemp6	set	btemp+4
  7065  0000                     ttemp7	set	btemp+8
  7066                           tosu	equ	0xFFF
  7067                           tosh	equ	0xFFE
  7068                           tosl	equ	0xFFD
  7069                           stkptr	equ	0xFFC
  7070                           pclatu	equ	0xFFB
  7071                           pclath	equ	0xFFA
  7072                           pcl	equ	0xFF9
  7073                           tblptru	equ	0xFF8
  7074                           tblptrh	equ	0xFF7
  7075                           tblptrl	equ	0xFF6
  7076                           tablat	equ	0xFF5
  7077                           prodh	equ	0xFF4
  7078                           prodl	equ	0xFF3
  7079                           indf0	equ	0xFEF
  7080                           postinc0	equ	0xFEE
  7081                           postdec0	equ	0xFED
  7082                           preinc0	equ	0xFEC
  7083                           plusw0	equ	0xFEB
  7084                           fsr0h	equ	0xFEA
  7085                           fsr0l	equ	0xFE9
  7086                           wreg	equ	0xFE8
  7087                           indf1	equ	0xFE7
  7088                           postinc1	equ	0xFE6
  7089                           postdec1	equ	0xFE5
  7090                           preinc1	equ	0xFE4
  7091                           plusw1	equ	0xFE3
  7092                           fsr1h	equ	0xFE2
  7093                           fsr1l	equ	0xFE1
  7094                           bsr	equ	0xFE0
  7095                           indf2	equ	0xFDF
  7096                           postinc2	equ	0xFDE
  7097                           postdec2	equ	0xFDD
  7098                           preinc2	equ	0xFDC
  7099                           plusw2	equ	0xFDB
  7100                           fsr2h	equ	0xFDA
  7101                           fsr2l	equ	0xFD9
  7102                           status	equ	0xFD8


Data Sizes:
    Strings     324
    Constant    4
    Data        4
    BSS         1316
    Persistent  0
    Stack       0

Auto Spaces:
    Space          Size  Autos    Used
    COMRAM           94     84      89
    BANK0           160     61     126
    BANK1           256      0     250
    BANK2           256      0       0
    BANK3           256      0       0
    BANK4           256      0       0
    BANK5           256      0       0
    BANK6           256      0       0
    BANK7           256      0       0

Pointer List with Targets:

    vfprintf$2	PTR PTR void  size(2) Largest target is 2
		 -> sprintf@ap(COMRAM[2]), 

    vfprintf$1	PTR const unsigned char  size(2) Largest target is 34
		 -> STR_11(CODE[32]), STR_6(CODE[17]), STR_5(CODE[19]), STR_4(CODE[18]), 
		 -> STR_3(CODE[34]), 

    vfprintf$0	PTR struct _IO_FILE size(2) Largest target is 7
		 -> sprintf@f(COMRAM[6]), 

    S1234_IO_FILE$buffer	PTR unsigned char  size(2) Largest target is 50
		 -> buffer(BANK1[50]), 

    f.buffer	PTR unsigned char  size(2) Largest target is 50
		 -> buffer(BANK1[50]), 


Critical Paths under _main in COMRAM

    _main->_probarPID
    _leerSensores->___fldiv
    _PID->_roundf
    _roundf->___flsub
    ___flsub->___fladd
    ___fladd->___flmul
    _map->___aldiv
    ___fltol->_roundf
    ___flmul->___xxtofl
    ___fldiv->___fladd
    _dameDistancia->___xxtofl
    ___xxtofl->___lwdiv
    _UART_init->___aldiv
    ___aldiv->___lmul

Critical Paths under _boton in COMRAM

    _boton->_antiRebote

Critical Paths under _main in BANK0

    _probarPID->_PID
    _leerSensores->___fldiv
    _PID->_pwmDuty
    _velocidadEstandar->_pwmDuty
    _pwmDuty->___fltol
    ___fltol->_roundf

Critical Paths under _boton in BANK0

    None.

Critical Paths under _main in BANK1

    None.

Critical Paths under _boton in BANK1

    None.

Critical Paths under _main in BANK2

    None.

Critical Paths under _boton in BANK2

    None.

Critical Paths under _main in BANK3

    None.

Critical Paths under _boton in BANK3

    None.

Critical Paths under _main in BANK4

    None.

Critical Paths under _boton in BANK4

    None.

Critical Paths under _main in BANK5

    None.

Critical Paths under _boton in BANK5

    None.

Critical Paths under _main in BANK6

    None.

Critical Paths under _boton in BANK6

    None.

Critical Paths under _main in BANK7

    None.

Critical Paths under _boton in BANK7

    None.

Call Graph Tables:

 ---------------------------------------------------------------------------------
 (Depth) Function   	        Calls       Base Space   Used Autos Params    Refs
 ---------------------------------------------------------------------------------
 (0) _main                                                 3     3      0   68599
                                             58 BANK0      3     3      0
                          _UART_init
                          _configPwm
                      _configurarAdc
                     _forzarParoAuto
    _inicializarComportamientoBasico
                          _probarPID
 ---------------------------------------------------------------------------------
 (1) _probarPID                                            1     1      0   58852
                                             83 COMRAM     1     1      0
                                _PID
                             ___flge
                 _finalizarRecorrido
                       _leerSensores
                              _mover
 ---------------------------------------------------------------------------------
 (2) _mover                                                2     2      0       0
                                              5 COMRAM     2     2      0
 ---------------------------------------------------------------------------------
 (2) _leerSensores                                         0     0      0    6801
                            ___fladd
                            ___fldiv
                      _dameDistancia
 ---------------------------------------------------------------------------------
 (2) _finalizarRecorrido                                   0     0      0   17242
                      _forzarEspejeo
                     _forzarParoAuto
 ---------------------------------------------------------------------------------
 (3) _forzarEspejeo                                        0     0      0   17242
                             ___flge
               _forzarEspejeoDerecha
             _forzarEspejeoIzquierda
 ---------------------------------------------------------------------------------
 (4) _forzarEspejeoIzquierda                               0     0      0    7770
                _forzarGiroIzquierda
                     _forzarParoAuto
                      _forzarReversa
                  _velocidadEstandar
 ---------------------------------------------------------------------------------
 (5) _forzarGiroIzquierda                                  2     2      0       0
                                              5 COMRAM     2     2      0
 ---------------------------------------------------------------------------------
 (4) _forzarEspejeoDerecha                                 0     0      0    7770
                  _forzarGiroDerecha
                     _forzarParoAuto
                      _forzarReversa
                  _velocidadEstandar
 ---------------------------------------------------------------------------------
 (5) _forzarReversa                                        2     2      0       0
                                              5 COMRAM     2     2      0
 ---------------------------------------------------------------------------------
 (3) _forzarParoAuto                                       0     0      0       0
 ---------------------------------------------------------------------------------
 (5) _forzarGiroDerecha                                    2     2      0       0
                                              5 COMRAM     2     2      0
 ---------------------------------------------------------------------------------
 (2) _PID                                                 18    18      0   33107
                                             40 BANK0     18    18      0
                            ___fladd
                            ___flmul
                            ___flsub
                            ___fltol
                             ___wmul
                           ___xxtofl
                            _pwmDuty
                             _roundf
 ---------------------------------------------------------------------------------
 (3) _roundf                                              26    22      4   12929
                                             75 COMRAM     8     4      4
                                              0 BANK0     18    18      0
                            ___fladd
                             ___flge
                            ___flmul
                            ___flneg
                            ___flsub
                             ___wmul (ARG)
                           ___xxtofl (ARG)
 ---------------------------------------------------------------------------------
 (4) ___flsub                                              8     0      8    4409
                                             67 COMRAM     8     0      8
                            ___fladd
 ---------------------------------------------------------------------------------
 (3) ___fladd                                             16     8      8    3934
                                             51 COMRAM    16     8      8
                            ___flmul (ARG)
                             ___wmul (ARG)
                           ___xxtofl (ARG)
                      _dameDistancia (ARG)
 ---------------------------------------------------------------------------------
 (4) ___flneg                                              4     0      4     197
                                              5 COMRAM     4     0      4
 ---------------------------------------------------------------------------------
 (4) ___flge                                              12     4      8    1702
                                              5 COMRAM    12     4      8
 ---------------------------------------------------------------------------------
 (3) ___wmul                                               6     2      4     311
                                              5 COMRAM     6     2      4
 ---------------------------------------------------------------------------------
 (1) _inicializarComportamientoBasico                      0     0      0    8782
                      _dameDistancia
                  _velocidadEstandar
 ---------------------------------------------------------------------------------
 (5) _velocidadEstandar                                    0     0      0    7770
                            _pwmDuty
 ---------------------------------------------------------------------------------
 (6) _pwmDuty                                             12     9      3    7770
                                             28 BANK0     12     9      3
                            ___fldiv
                            ___flmul
                            ___fltol
                           ___xxtofl
                                _map
 ---------------------------------------------------------------------------------
 (7) _map                                                 20     0     20    1660
                                             31 COMRAM    20     0     20
                            ___aldiv
                             ___lmul
 ---------------------------------------------------------------------------------
 (8) ___lmul                                              12     4      8     370
                                              5 COMRAM    12     4      8
 ---------------------------------------------------------------------------------
 (7) ___fltol                                             10     6      4     607
                                             18 BANK0     10     6      4
                            ___fladd (ARG)
                            ___fldiv (ARG)
                            ___flmul (ARG)
                            ___flsub (ARG)
                             ___wmul (ARG)
                           ___xxtofl (ARG)
                             _roundf (ARG)
 ---------------------------------------------------------------------------------
 (7) ___flmul                                             25    17      8    2048
                                             26 COMRAM    25    17      8
                           ___xxtofl (ARG)
 ---------------------------------------------------------------------------------
 (3) ___fldiv                                             25    17      8    1855
                                             67 COMRAM    12     4      8
                                              0 BANK0     13    13      0
                            ___fladd (ARG)
                            ___flmul (ARG)
                           ___xxtofl (ARG)
                      _dameDistancia (ARG)
 ---------------------------------------------------------------------------------
 (3) _dameDistancia                                       13     9      4    1012
                                             26 COMRAM    13     9      4
                            ___lwdiv
                           ___xxtofl
 ---------------------------------------------------------------------------------
 (4) ___xxtofl                                            14    10      4     626
                                             12 COMRAM    14    10      4
                            ___lwdiv (ARG)
                             ___wmul (ARG)
 ---------------------------------------------------------------------------------
 (4) ___lwdiv                                              7     3      4     314
                                              5 COMRAM     7     3      4
 ---------------------------------------------------------------------------------
 (1) _configurarAdc                                        0     0      0       0
 ---------------------------------------------------------------------------------
 (1) _configPwm                                            3     3      0      22
                                              5 COMRAM     3     3      0
 ---------------------------------------------------------------------------------
 (1) _UART_init                                           12     8      4     900
                                             31 COMRAM    12     8      4
                            ___aldiv
 ---------------------------------------------------------------------------------
 (8) ___aldiv                                             14     6      8     756
                                             17 COMRAM    14     6      8
                             ___lmul (ARG)
 ---------------------------------------------------------------------------------
 Estimated maximum stack depth 8
 ---------------------------------------------------------------------------------
 (Depth) Function   	        Calls       Base Space   Used Autos Params    Refs
 ---------------------------------------------------------------------------------
 (9) _boton                                                2     2      0      22
                                              3 COMRAM     2     2      0
                         _antiRebote
 ---------------------------------------------------------------------------------
 (10) _antiRebote                                          3     3      0      22
                                              0 COMRAM     3     3      0
 ---------------------------------------------------------------------------------
 Estimated maximum stack depth 10
 ---------------------------------------------------------------------------------

 Call Graph Graphs:

 _main (ROOT)
   _UART_init
     ___aldiv
       ___lmul (ARG)
   _configPwm
   _configurarAdc
   _forzarParoAuto
   _inicializarComportamientoBasico
     _dameDistancia
       ___lwdiv
       ___xxtofl
         ___lwdiv (ARG)
         ___wmul (ARG)
     _velocidadEstandar
       _pwmDuty
         ___fldiv
           ___fladd (ARG)
             ___flmul (ARG)
               ___xxtofl (ARG)
                 ___lwdiv (ARG)
                 ___wmul (ARG)
             ___wmul (ARG)
             ___xxtofl (ARG)
               ___lwdiv (ARG)
               ___wmul (ARG)
             _dameDistancia (ARG)
               ___lwdiv
               ___xxtofl
                 ___lwdiv (ARG)
                 ___wmul (ARG)
           ___flmul (ARG)
             ___xxtofl (ARG)
               ___lwdiv (ARG)
               ___wmul (ARG)
           ___xxtofl (ARG)
             ___lwdiv (ARG)
             ___wmul (ARG)
           _dameDistancia (ARG)
             ___lwdiv
             ___xxtofl
               ___lwdiv (ARG)
               ___wmul (ARG)
         ___flmul
           ___xxtofl (ARG)
             ___lwdiv (ARG)
             ___wmul (ARG)
         ___fltol
           ___fladd (ARG)
             ___flmul (ARG)
               ___xxtofl (ARG)
                 ___lwdiv (ARG)
                 ___wmul (ARG)
             ___wmul (ARG)
             ___xxtofl (ARG)
               ___lwdiv (ARG)
               ___wmul (ARG)
             _dameDistancia (ARG)
               ___lwdiv
               ___xxtofl
                 ___lwdiv (ARG)
                 ___wmul (ARG)
           ___fldiv (ARG)
             ___fladd (ARG)
               ___flmul (ARG)
                 ___xxtofl (ARG)
                   ___lwdiv (ARG)
                   ___wmul (ARG)
               ___wmul (ARG)
               ___xxtofl (ARG)
                 ___lwdiv (ARG)
                 ___wmul (ARG)
               _dameDistancia (ARG)
                 ___lwdiv
                 ___xxtofl
                   ___lwdiv (ARG)
                   ___wmul (ARG)
             ___flmul (ARG)
               ___xxtofl (ARG)
                 ___lwdiv (ARG)
                 ___wmul (ARG)
             ___xxtofl (ARG)
               ___lwdiv (ARG)
               ___wmul (ARG)
             _dameDistancia (ARG)
               ___lwdiv
               ___xxtofl
                 ___lwdiv (ARG)
                 ___wmul (ARG)
           ___flmul (ARG)
             ___xxtofl (ARG)
               ___lwdiv (ARG)
               ___wmul (ARG)
           ___flsub (ARG)
             ___fladd
               ___flmul (ARG)
                 ___xxtofl (ARG)
                   ___lwdiv (ARG)
                   ___wmul (ARG)
               ___wmul (ARG)
               ___xxtofl (ARG)
                 ___lwdiv (ARG)
                 ___wmul (ARG)
               _dameDistancia (ARG)
                 ___lwdiv
                 ___xxtofl
                   ___lwdiv (ARG)
                   ___wmul (ARG)
           ___wmul (ARG)
           ___xxtofl (ARG)
             ___lwdiv (ARG)
             ___wmul (ARG)
           _roundf (ARG)
             ___fladd
               ___flmul (ARG)
                 ___xxtofl (ARG)
                   ___lwdiv (ARG)
                   ___wmul (ARG)
               ___wmul (ARG)
               ___xxtofl (ARG)
                 ___lwdiv (ARG)
                 ___wmul (ARG)
               _dameDistancia (ARG)
                 ___lwdiv
                 ___xxtofl
                   ___lwdiv (ARG)
                   ___wmul (ARG)
             ___flge
             ___flmul
               ___xxtofl (ARG)
                 ___lwdiv (ARG)
                 ___wmul (ARG)
             ___flneg
             ___flsub
               ___fladd
                 ___flmul (ARG)
                   ___xxtofl (ARG)
                     ___lwdiv (ARG)
                     ___wmul (ARG)
                 ___wmul (ARG)
                 ___xxtofl (ARG)
                   ___lwdiv (ARG)
                   ___wmul (ARG)
                 _dameDistancia (ARG)
                   ___lwdiv
                   ___xxtofl
                     ___lwdiv (ARG)
                     ___wmul (ARG)
             ___wmul (ARG)
             ___xxtofl (ARG)
               ___lwdiv (ARG)
               ___wmul (ARG)
         ___xxtofl
           ___lwdiv (ARG)
           ___wmul (ARG)
         _map
           ___aldiv
             ___lmul (ARG)
           ___lmul
   _probarPID
     _PID
       ___fladd
         ___flmul (ARG)
           ___xxtofl (ARG)
             ___lwdiv (ARG)
             ___wmul (ARG)
         ___wmul (ARG)
         ___xxtofl (ARG)
           ___lwdiv (ARG)
           ___wmul (ARG)
         _dameDistancia (ARG)
           ___lwdiv
           ___xxtofl
             ___lwdiv (ARG)
             ___wmul (ARG)
       ___flmul
         ___xxtofl (ARG)
           ___lwdiv (ARG)
           ___wmul (ARG)
       ___flsub
         ___fladd
           ___flmul (ARG)
             ___xxtofl (ARG)
               ___lwdiv (ARG)
               ___wmul (ARG)
           ___wmul (ARG)
           ___xxtofl (ARG)
             ___lwdiv (ARG)
             ___wmul (ARG)
           _dameDistancia (ARG)
             ___lwdiv
             ___xxtofl
               ___lwdiv (ARG)
               ___wmul (ARG)
       ___fltol
         ___fladd (ARG)
           ___flmul (ARG)
             ___xxtofl (ARG)
               ___lwdiv (ARG)
               ___wmul (ARG)
           ___wmul (ARG)
           ___xxtofl (ARG)
             ___lwdiv (ARG)
             ___wmul (ARG)
           _dameDistancia (ARG)
             ___lwdiv
             ___xxtofl
               ___lwdiv (ARG)
               ___wmul (ARG)
         ___fldiv (ARG)
           ___fladd (ARG)
             ___flmul (ARG)
               ___xxtofl (ARG)
                 ___lwdiv (ARG)
                 ___wmul (ARG)
             ___wmul (ARG)
             ___xxtofl (ARG)
               ___lwdiv (ARG)
               ___wmul (ARG)
             _dameDistancia (ARG)
               ___lwdiv
               ___xxtofl
                 ___lwdiv (ARG)
                 ___wmul (ARG)
           ___flmul (ARG)
             ___xxtofl (ARG)
               ___lwdiv (ARG)
               ___wmul (ARG)
           ___xxtofl (ARG)
             ___lwdiv (ARG)
             ___wmul (ARG)
           _dameDistancia (ARG)
             ___lwdiv
             ___xxtofl
               ___lwdiv (ARG)
               ___wmul (ARG)
         ___flmul (ARG)
           ___xxtofl (ARG)
             ___lwdiv (ARG)
             ___wmul (ARG)
         ___flsub (ARG)
           ___fladd
             ___flmul (ARG)
               ___xxtofl (ARG)
                 ___lwdiv (ARG)
                 ___wmul (ARG)
             ___wmul (ARG)
             ___xxtofl (ARG)
               ___lwdiv (ARG)
               ___wmul (ARG)
             _dameDistancia (ARG)
               ___lwdiv
               ___xxtofl
                 ___lwdiv (ARG)
                 ___wmul (ARG)
         ___wmul (ARG)
         ___xxtofl (ARG)
           ___lwdiv (ARG)
           ___wmul (ARG)
         _roundf (ARG)
           ___fladd
             ___flmul (ARG)
               ___xxtofl (ARG)
                 ___lwdiv (ARG)
                 ___wmul (ARG)
             ___wmul (ARG)
             ___xxtofl (ARG)
               ___lwdiv (ARG)
               ___wmul (ARG)
             _dameDistancia (ARG)
               ___lwdiv
               ___xxtofl
                 ___lwdiv (ARG)
                 ___wmul (ARG)
           ___flge
           ___flmul
             ___xxtofl (ARG)
               ___lwdiv (ARG)
               ___wmul (ARG)
           ___flneg
           ___flsub
             ___fladd
               ___flmul (ARG)
                 ___xxtofl (ARG)
                   ___lwdiv (ARG)
                   ___wmul (ARG)
               ___wmul (ARG)
               ___xxtofl (ARG)
                 ___lwdiv (ARG)
                 ___wmul (ARG)
               _dameDistancia (ARG)
                 ___lwdiv
                 ___xxtofl
                   ___lwdiv (ARG)
                   ___wmul (ARG)
           ___wmul (ARG)
           ___xxtofl (ARG)
             ___lwdiv (ARG)
             ___wmul (ARG)
       ___wmul
       ___xxtofl
         ___lwdiv (ARG)
         ___wmul (ARG)
       _pwmDuty
         ___fldiv
           ___fladd (ARG)
             ___flmul (ARG)
               ___xxtofl (ARG)
                 ___lwdiv (ARG)
                 ___wmul (ARG)
             ___wmul (ARG)
             ___xxtofl (ARG)
               ___lwdiv (ARG)
               ___wmul (ARG)
             _dameDistancia (ARG)
               ___lwdiv
               ___xxtofl
                 ___lwdiv (ARG)
                 ___wmul (ARG)
           ___flmul (ARG)
             ___xxtofl (ARG)
               ___lwdiv (ARG)
               ___wmul (ARG)
           ___xxtofl (ARG)
             ___lwdiv (ARG)
             ___wmul (ARG)
           _dameDistancia (ARG)
             ___lwdiv
             ___xxtofl
               ___lwdiv (ARG)
               ___wmul (ARG)
         ___flmul
           ___xxtofl (ARG)
             ___lwdiv (ARG)
             ___wmul (ARG)
         ___fltol
           ___fladd (ARG)
             ___flmul (ARG)
               ___xxtofl (ARG)
                 ___lwdiv (ARG)
                 ___wmul (ARG)
             ___wmul (ARG)
             ___xxtofl (ARG)
               ___lwdiv (ARG)
               ___wmul (ARG)
             _dameDistancia (ARG)
               ___lwdiv
               ___xxtofl
                 ___lwdiv (ARG)
                 ___wmul (ARG)
           ___fldiv (ARG)
             ___fladd (ARG)
               ___flmul (ARG)
                 ___xxtofl (ARG)
                   ___lwdiv (ARG)
                   ___wmul (ARG)
               ___wmul (ARG)
               ___xxtofl (ARG)
                 ___lwdiv (ARG)
                 ___wmul (ARG)
               _dameDistancia (ARG)
                 ___lwdiv
                 ___xxtofl
                   ___lwdiv (ARG)
                   ___wmul (ARG)
             ___flmul (ARG)
               ___xxtofl (ARG)
                 ___lwdiv (ARG)
                 ___wmul (ARG)
             ___xxtofl (ARG)
               ___lwdiv (ARG)
               ___wmul (ARG)
             _dameDistancia (ARG)
               ___lwdiv
               ___xxtofl
                 ___lwdiv (ARG)
                 ___wmul (ARG)
           ___flmul (ARG)
             ___xxtofl (ARG)
               ___lwdiv (ARG)
               ___wmul (ARG)
           ___flsub (ARG)
             ___fladd
               ___flmul (ARG)
                 ___xxtofl (ARG)
                   ___lwdiv (ARG)
                   ___wmul (ARG)
               ___wmul (ARG)
               ___xxtofl (ARG)
                 ___lwdiv (ARG)
                 ___wmul (ARG)
               _dameDistancia (ARG)
                 ___lwdiv
                 ___xxtofl
                   ___lwdiv (ARG)
                   ___wmul (ARG)
           ___wmul (ARG)
           ___xxtofl (ARG)
             ___lwdiv (ARG)
             ___wmul (ARG)
           _roundf (ARG)
             ___fladd
               ___flmul (ARG)
                 ___xxtofl (ARG)
                   ___lwdiv (ARG)
                   ___wmul (ARG)
               ___wmul (ARG)
               ___xxtofl (ARG)
                 ___lwdiv (ARG)
                 ___wmul (ARG)
               _dameDistancia (ARG)
                 ___lwdiv
                 ___xxtofl
                   ___lwdiv (ARG)
                   ___wmul (ARG)
             ___flge
             ___flmul
               ___xxtofl (ARG)
                 ___lwdiv (ARG)
                 ___wmul (ARG)
             ___flneg
             ___flsub
               ___fladd
                 ___flmul (ARG)
                   ___xxtofl (ARG)
                     ___lwdiv (ARG)
                     ___wmul (ARG)
                 ___wmul (ARG)
                 ___xxtofl (ARG)
                   ___lwdiv (ARG)
                   ___wmul (ARG)
                 _dameDistancia (ARG)
                   ___lwdiv
                   ___xxtofl
                     ___lwdiv (ARG)
                     ___wmul (ARG)
             ___wmul (ARG)
             ___xxtofl (ARG)
               ___lwdiv (ARG)
               ___wmul (ARG)
         ___xxtofl
           ___lwdiv (ARG)
           ___wmul (ARG)
         _map
           ___aldiv
             ___lmul (ARG)
           ___lmul
       _roundf
         ___fladd
           ___flmul (ARG)
             ___xxtofl (ARG)
               ___lwdiv (ARG)
               ___wmul (ARG)
           ___wmul (ARG)
           ___xxtofl (ARG)
             ___lwdiv (ARG)
             ___wmul (ARG)
           _dameDistancia (ARG)
             ___lwdiv
             ___xxtofl
               ___lwdiv (ARG)
               ___wmul (ARG)
         ___flge
         ___flmul
           ___xxtofl (ARG)
             ___lwdiv (ARG)
             ___wmul (ARG)
         ___flneg
         ___flsub
           ___fladd
             ___flmul (ARG)
               ___xxtofl (ARG)
                 ___lwdiv (ARG)
                 ___wmul (ARG)
             ___wmul (ARG)
             ___xxtofl (ARG)
               ___lwdiv (ARG)
               ___wmul (ARG)
             _dameDistancia (ARG)
               ___lwdiv
               ___xxtofl
                 ___lwdiv (ARG)
                 ___wmul (ARG)
         ___wmul (ARG)
         ___xxtofl (ARG)
           ___lwdiv (ARG)
           ___wmul (ARG)
     ___flge
     _finalizarRecorrido
       _forzarEspejeo
         ___flge
         _forzarEspejeoDerecha
           _forzarGiroDerecha
           _forzarParoAuto
           _forzarReversa
           _velocidadEstandar
             _pwmDuty
               ___fldiv
                 ___fladd (ARG)
                   ___flmul (ARG)
                     ___xxtofl (ARG)
                       ___lwdiv (ARG)
                       ___wmul (ARG)
                   ___wmul (ARG)
                   ___xxtofl (ARG)
                     ___lwdiv (ARG)
                     ___wmul (ARG)
                   _dameDistancia (ARG)
                     ___lwdiv
                     ___xxtofl
                       ___lwdiv (ARG)
                       ___wmul (ARG)
                 ___flmul (ARG)
                   ___xxtofl (ARG)
                     ___lwdiv (ARG)
                     ___wmul (ARG)
                 ___xxtofl (ARG)
                   ___lwdiv (ARG)
                   ___wmul (ARG)
                 _dameDistancia (ARG)
                   ___lwdiv
                   ___xxtofl
                     ___lwdiv (ARG)
                     ___wmul (ARG)
               ___flmul
                 ___xxtofl (ARG)
                   ___lwdiv (ARG)
                   ___wmul (ARG)
               ___fltol
                 ___fladd (ARG)
                   ___flmul (ARG)
                     ___xxtofl (ARG)
                       ___lwdiv (ARG)
                       ___wmul (ARG)
                   ___wmul (ARG)
                   ___xxtofl (ARG)
                     ___lwdiv (ARG)
                     ___wmul (ARG)
                   _dameDistancia (ARG)
                     ___lwdiv
                     ___xxtofl
                       ___lwdiv (ARG)
                       ___wmul (ARG)
                 ___fldiv (ARG)
                   ___fladd (ARG)
                     ___flmul (ARG)
                       ___xxtofl (ARG)
                         ___lwdiv (ARG)
                         ___wmul (ARG)
                     ___wmul (ARG)
                     ___xxtofl (ARG)
                       ___lwdiv (ARG)
                       ___wmul (ARG)
                     _dameDistancia (ARG)
                       ___lwdiv
                       ___xxtofl
                         ___lwdiv (ARG)
                         ___wmul (ARG)
                   ___flmul (ARG)
                     ___xxtofl (ARG)
                       ___lwdiv (ARG)
                       ___wmul (ARG)
                   ___xxtofl (ARG)
                     ___lwdiv (ARG)
                     ___wmul (ARG)
                   _dameDistancia (ARG)
                     ___lwdiv
                     ___xxtofl
                       ___lwdiv (ARG)
                       ___wmul (ARG)
                 ___flmul (ARG)
                   ___xxtofl (ARG)
                     ___lwdiv (ARG)
                     ___wmul (ARG)
                 ___flsub (ARG)
                   ___fladd
                     ___flmul (ARG)
                       ___xxtofl (ARG)
                         ___lwdiv (ARG)
                         ___wmul (ARG)
                     ___wmul (ARG)
                     ___xxtofl (ARG)
                       ___lwdiv (ARG)
                       ___wmul (ARG)
                     _dameDistancia (ARG)
                       ___lwdiv
                       ___xxtofl
                         ___lwdiv (ARG)
                         ___wmul (ARG)
                 ___wmul (ARG)
                 ___xxtofl (ARG)
                   ___lwdiv (ARG)
                   ___wmul (ARG)
                 _roundf (ARG)
                   ___fladd
                     ___flmul (ARG)
                       ___xxtofl (ARG)
                         ___lwdiv (ARG)
                         ___wmul (ARG)
                     ___wmul (ARG)
                     ___xxtofl (ARG)
                       ___lwdiv (ARG)
                       ___wmul (ARG)
                     _dameDistancia (ARG)
                       ___lwdiv
                       ___xxtofl
                         ___lwdiv (ARG)
                         ___wmul (ARG)
                   ___flge
                   ___flmul
                     ___xxtofl (ARG)
                       ___lwdiv (ARG)
                       ___wmul (ARG)
                   ___flneg
                   ___flsub
                     ___fladd
                       ___flmul (ARG)
                         ___xxtofl (ARG)
                           ___lwdiv (ARG)
                           ___wmul (ARG)
                       ___wmul (ARG)
                       ___xxtofl (ARG)
                         ___lwdiv (ARG)
                         ___wmul (ARG)
                       _dameDistancia (ARG)
                         ___lwdiv
                         ___xxtofl
                           ___lwdiv (ARG)
                           ___wmul (ARG)
                   ___wmul (ARG)
                   ___xxtofl (ARG)
                     ___lwdiv (ARG)
                     ___wmul (ARG)
               ___xxtofl
                 ___lwdiv (ARG)
                 ___wmul (ARG)
               _map
                 ___aldiv
                   ___lmul (ARG)
                 ___lmul
         _forzarEspejeoIzquierda
           _forzarGiroIzquierda
           _forzarParoAuto
           _forzarReversa
           _velocidadEstandar
             _pwmDuty
               ___fldiv
                 ___fladd (ARG)
                   ___flmul (ARG)
                     ___xxtofl (ARG)
                       ___lwdiv (ARG)
                       ___wmul (ARG)
                   ___wmul (ARG)
                   ___xxtofl (ARG)
                     ___lwdiv (ARG)
                     ___wmul (ARG)
                   _dameDistancia (ARG)
                     ___lwdiv
                     ___xxtofl
                       ___lwdiv (ARG)
                       ___wmul (ARG)
                 ___flmul (ARG)
                   ___xxtofl (ARG)
                     ___lwdiv (ARG)
                     ___wmul (ARG)
                 ___xxtofl (ARG)
                   ___lwdiv (ARG)
                   ___wmul (ARG)
                 _dameDistancia (ARG)
                   ___lwdiv
                   ___xxtofl
                     ___lwdiv (ARG)
                     ___wmul (ARG)
               ___flmul
                 ___xxtofl (ARG)
                   ___lwdiv (ARG)
                   ___wmul (ARG)
               ___fltol
                 ___fladd (ARG)
                   ___flmul (ARG)
                     ___xxtofl (ARG)
                       ___lwdiv (ARG)
                       ___wmul (ARG)
                   ___wmul (ARG)
                   ___xxtofl (ARG)
                     ___lwdiv (ARG)
                     ___wmul (ARG)
                   _dameDistancia (ARG)
                     ___lwdiv
                     ___xxtofl
                       ___lwdiv (ARG)
                       ___wmul (ARG)
                 ___fldiv (ARG)
                   ___fladd (ARG)
                     ___flmul (ARG)
                       ___xxtofl (ARG)
                         ___lwdiv (ARG)
                         ___wmul (ARG)
                     ___wmul (ARG)
                     ___xxtofl (ARG)
                       ___lwdiv (ARG)
                       ___wmul (ARG)
                     _dameDistancia (ARG)
                       ___lwdiv
                       ___xxtofl
                         ___lwdiv (ARG)
                         ___wmul (ARG)
                   ___flmul (ARG)
                     ___xxtofl (ARG)
                       ___lwdiv (ARG)
                       ___wmul (ARG)
                   ___xxtofl (ARG)
                     ___lwdiv (ARG)
                     ___wmul (ARG)
                   _dameDistancia (ARG)
                     ___lwdiv
                     ___xxtofl
                       ___lwdiv (ARG)
                       ___wmul (ARG)
                 ___flmul (ARG)
                   ___xxtofl (ARG)
                     ___lwdiv (ARG)
                     ___wmul (ARG)
                 ___flsub (ARG)
                   ___fladd
                     ___flmul (ARG)
                       ___xxtofl (ARG)
                         ___lwdiv (ARG)
                         ___wmul (ARG)
                     ___wmul (ARG)
                     ___xxtofl (ARG)
                       ___lwdiv (ARG)
                       ___wmul (ARG)
                     _dameDistancia (ARG)
                       ___lwdiv
                       ___xxtofl
                         ___lwdiv (ARG)
                         ___wmul (ARG)
                 ___wmul (ARG)
                 ___xxtofl (ARG)
                   ___lwdiv (ARG)
                   ___wmul (ARG)
                 _roundf (ARG)
                   ___fladd
                     ___flmul (ARG)
                       ___xxtofl (ARG)
                         ___lwdiv (ARG)
                         ___wmul (ARG)
                     ___wmul (ARG)
                     ___xxtofl (ARG)
                       ___lwdiv (ARG)
                       ___wmul (ARG)
                     _dameDistancia (ARG)
                       ___lwdiv
                       ___xxtofl
                         ___lwdiv (ARG)
                         ___wmul (ARG)
                   ___flge
                   ___flmul
                     ___xxtofl (ARG)
                       ___lwdiv (ARG)
                       ___wmul (ARG)
                   ___flneg
                   ___flsub
                     ___fladd
                       ___flmul (ARG)
                         ___xxtofl (ARG)
                           ___lwdiv (ARG)
                           ___wmul (ARG)
                       ___wmul (ARG)
                       ___xxtofl (ARG)
                         ___lwdiv (ARG)
                         ___wmul (ARG)
                       _dameDistancia (ARG)
                         ___lwdiv
                         ___xxtofl
                           ___lwdiv (ARG)
                           ___wmul (ARG)
                   ___wmul (ARG)
                   ___xxtofl (ARG)
                     ___lwdiv (ARG)
                     ___wmul (ARG)
               ___xxtofl
                 ___lwdiv (ARG)
                 ___wmul (ARG)
               _map
                 ___aldiv
                   ___lmul (ARG)
                 ___lmul
       _forzarParoAuto
     _leerSensores
       ___fladd
         ___flmul (ARG)
           ___xxtofl (ARG)
             ___lwdiv (ARG)
             ___wmul (ARG)
         ___wmul (ARG)
         ___xxtofl (ARG)
           ___lwdiv (ARG)
           ___wmul (ARG)
         _dameDistancia (ARG)
           ___lwdiv
           ___xxtofl
             ___lwdiv (ARG)
             ___wmul (ARG)
       ___fldiv
         ___fladd (ARG)
           ___flmul (ARG)
             ___xxtofl (ARG)
               ___lwdiv (ARG)
               ___wmul (ARG)
           ___wmul (ARG)
           ___xxtofl (ARG)
             ___lwdiv (ARG)
             ___wmul (ARG)
           _dameDistancia (ARG)
             ___lwdiv
             ___xxtofl
               ___lwdiv (ARG)
               ___wmul (ARG)
         ___flmul (ARG)
           ___xxtofl (ARG)
             ___lwdiv (ARG)
             ___wmul (ARG)
         ___xxtofl (ARG)
           ___lwdiv (ARG)
           ___wmul (ARG)
         _dameDistancia (ARG)
           ___lwdiv
           ___xxtofl
             ___lwdiv (ARG)
             ___wmul (ARG)
       _dameDistancia
         ___lwdiv
         ___xxtofl
           ___lwdiv (ARG)
           ___wmul (ARG)
     _mover

 _boton (ROOT)
   _antiRebote

 Address spaces:
Name               Size   Autos  Total    Cost      Usage
BIGRAM             7FF      0     3E8      21       48.9%
EEDATA             100      0       0       0        0.0%
BITBANK7           100      0       0      18        0.0%
BANK7              100      0       0      19        0.0%
BITBANK6           100      0       0      16        0.0%
BANK6              100      0       0      17        0.0%
BITBANK5           100      0       0      14        0.0%
BANK5              100      0       0      15        0.0%
BITBANK4           100      0       0      12        0.0%
BANK4              100      0       0      13        0.0%
BITBANK3           100      0       0      10        0.0%
BANK3              100      0       0      11        0.0%
BITBANK2           100      0       0       8        0.0%
BANK2              100      0       0       9        0.0%
BITBANK1           100      0       0       6        0.0%
BANK1              100      0      FA       7       97.7%
BITBANK0            A0      0       0       4        0.0%
BANK0               A0     3D      7E       5       78.8%
BITCOMRAM           5E      0       0       0        0.0%
COMRAM              5E     54      59       1       94.7%
BITSFR               0      0       0     200        0.0%
SFR                  0      0       0     200        0.0%
STACK                0      0       0       2        0.0%
NULL                 0      0       0       0        0.0%
ABS                  0      0     1D1      20        0.0%
DATA                 0      0     5B9       3        0.0%
CODE                 0      0       0       0        0.0%


Microchip Technology PIC18 Macro Assembler V2.10 build 88905656 
Symbol Table                                                                                   Fri Sep 04 23:53:13 2020

                              ___fldiv@aexp 00A9                                ___fldiv@bexp 00A8  
                              ___fldiv@sign 00A1                              ?_configurarAdc 0001  
                       ___wmul@multiplicand 0008                                 __CFG_BORV$3 000000  
                              __CFG_CP0$OFF 000000                                __CFG_CP1$OFF 000000  
                              __CFG_CP2$OFF 000000                                __CFG_CP3$OFF 000000  
           comportamientoBasico@caminoFinal 01FA                                         l202 17E8  
                                       l212 18C8                                         l204 17F6  
                                       l205 17F8                                         l215 1E5A  
                                       l160 2034                                         l401 2286  
                                       l410 2238                                         l163 2040  
                                       l147 1D76                                         l155 1436  
                                       l323 20CC                                         l164 207E  
                                       l236 2290                                         l404 21F8  
                                       l165 204A                                         l413 2252  
                                       l421 2152                                         l166 2080  
                                       l191 184A                                         l183 1788  
                                       l407 2218                                         l416 226C  
                                       l440 1CB6                                         l193 17B8  
                                       l185 1796                                         l441 1CFC  
                                       l186 1798                                         l195 17C6  
                                       l196 17C8                                         l436 1C7C  
                                       l438 1C88                                         l439 1CAA  
                                       l705 21B0                                         l650 1746  
                                       l716 1EB4                                         l644 1736  
                                       l717 1EC4                                         l398 227C  
                                       l656 1766                                         l649 1756  
                                       l682 1F84                                         l685 21D6  
                                       l677 127A                                         l784 19D4  
                                       l970 1B9A                                         l975 1BE0  
                                       l979 218A                                __CFG_CPB$OFF 000000  
                                       _PR2 000FCB                                         _PID 104A  
                              __CFG_CPD$OFF 000000                                __CFG_BOR$OFF 000000  
                                       _map 1CFE                                         wreg 000FE8  
                              ___flmul@aexp 002C                                ___flmul@bexp 002D  
                  _DISTANCIA_PRIORIDAD_BAJA 0064                    _DISTANCIA_PRIORIDAD_ALTA 006C  
                              ___flmul@sign 0027                                ___flmul@temp 0032  
                              ___flmul@prod 002E                                __CFG_LVP$OFF 000000  
                                      ?_PID 0001                                ___fltol@exp1 00B8  
                              __CFG_WDT$OFF 000000                                        l1002 1ADC  
                                      l1203 1DEA                                        l1300 0F66  
                                      l1301 0F54                                        l1233 0200  
                                      l1250 031A                                        l1242 04D0  
                                      l1234 01EE                                        l1323 08FA  
                                      l1235 01B4                                        l1260 03D8  
                                      l1326 078C                                        l1319 0596  
                                      l1360 148E                                        l1336 08BC  
                                      l1328 0804                                        l4000 20DE  
                                      l1329 07F2                                        l4010 1B4A  
                                      l1363 15EA                                        l1259 03EA  
                                      l1275 2112                                        l1196 1DE2  
                                      l1292 0E6C                                        l4020 1BD8  
                                      l4012 1B5A                                        l4004 1ADE  
                                      l4100 0966                                        l1374 1582  
                                      l4022 1BDE                                        l4014 1B68  
                                      l4006 1B0C                                        l4030 217A  
                                      l4102 097A                                        l1367 1526  
                                      l1287 1048                                        l1391 0CAC  
                                      l4040 1D9A                                        l3400 0D1C  
                                      l4016 1B7A                                        l4008 1B1C  
                                      l4120 0C08                                        l4112 0A30  
                                      l4104 09B6                                        l1289 0EA8  
                                      l4050 1DD4                                        l4042 1DA2  
                                      l4034 1D78                                        l1298 0EEE  
                                      l3410 0D52                                        l3402 0D22  
                                      l3330 1E94                                        l3322 1E5C  
                                      l4130 218C                                        l4018 1B88  
                                      l4026 2154                                        l4122 0C3C  
                                      l4114 0AFE                                        l4106 09DA  
                                      l3340 18F0                                        l3332 18CA  
                                      l4052 1DD6                                        l4044 1DB0  
                                      l4036 1D80                                        l4060 177C  
                                      l3500 1008                                        l3420 0D92  
                                      l3412 0D62                                        l3404 0D30  
                                      l3324 1E6C                                        l4132 21A8  
                                      l4028 216A                                        l4124 0C78  
                                      l4116 0B6A                                        l4108 09F8  
                                      l3350 1938                                        l3342 18FE  
                                      l3334 18CE                                        l4054 1DDC  
                                      l4046 1DB6                                        l4038 1D92  
                                      l4062 1782                                        l3510 103E  
                                      l3502 1024                                        l3422 0DA2  
                                      l3430 0DC2                                        l3414 0D64  
                                      l3406 0D32                                        l3326 1E7A  
                                      l4126 0C9C                                        l4118 0B9C  
                                      l3360 1982                                        l3352 1940  
                                      l3344 190E                                        l3336 18DC  
                                      l4232 2038                                        l4048 1DCC  
                                      l4080 18A6                                        l4064 17A6  
                                      l4072 1818                                        l4056 176A  
                                      l3504 1028                                        l3440 0E00  
                                      l3432 0DD2                                        l3424 0DAA  
                                      l3408 0D42                                        l3416 0D6C  
                                      l3600 0772                                        l3520 04DE  
                                      l3328 1E8A                                        l4152 15EC  
                                      l3370 19B4                                        l3362 1992  
                                      l3354 194C                                        l3346 1912  
                                      l3338 18EC                                        l4250 1E24  
                                      l4242 1DEC                                        l4226 2034  
                                      l4082 18B8                                        l4074 185A  
                                      l4066 17D6                                        l4058 177A  
                                      l3506 1036                                        l3450 0E48  
                                      l3442 0E10                                        l3434 0DD2  
                                      l3426 0DAE                                        l3418 0D7C  
                                      l3610 07AE                                        l3602 077C  
                                      l3530 051E                                        l3522 04EC  
                                      l4154 1706                                        l4170 1C90  
                                      l3372 19C4                                        l3364 1994  
                                      l3356 195A                                        l3348 1922  
                                      l4260 1E54                                        l4252 1E4C  
                                      l4244 1DEC                                        l4236 2054  
                                      l3700 14B4                                        l4076 186C  
                                      l4068 1806                                        l3508 103C  
                                      l3460 0E96                                        l3452 0E5C  
                                      l3444 0E20                                        l3380 0CAE  
                                      l3620 0820                                        l3612 07BC  
                                      l3604 078A                                        l3540 054E  
                                      l3532 0524                                        l3524 04EE  
                                      l4156 1716                                        l3366 199E  
                                      l3358 1964                                        l4262 1E56  
                                      l4254 1E4E                                        l4246 1DEE  
                                      l3710 150E                                        l4078 18A6  
                                      l3470 0EDE                                        l3462 0EA6  
                                      l3454 0E6A                                        l3446 0E30  
                                      l3438 0DE6                                        l3390 0CEC  
                                      l3382 0CBC                                        l3630 088A  
                                      l3622 082E                                        l3614 07EA  
                                      l3606 079C                                        l3550 0586  
                                      l3542 0550                                        l3534 0534  
                                      l3526 04FE                                        l3518 04D2  
                                      l5302 140A                                        l5310 223A  
                                      l4158 1726                                        l3368 19A4  
                                      l4264 1E58                                        l4256 1E50  
                                      l4248 1DF0                                        l3720 1572  
                                      l3712 1510                                        l3704 14C8  
                                      l3480 0F1E                                        l3472 0EEC  
                                      l3464 0EB8                                        l3456 0E76  
                                      l3448 0E38                                        l3392 0CFC  
                                      l3384 0CCA                                        l3640 08E0  
                                      l3632 08A4                                        l3624 0858  
                                      l3608 07AA                                        l3560 05D6  
                                      l3552 05A6                                        l3544 0560  
                                      l3536 053A                                        l3528 050E  
                                      l3376 1CFE                                        l3800 00A6  
                                      l4096 08FC                                        l5320 224E  
                                      l5312 223E                                        l4176 1CC2  
                                      l4168 1C78                                        l5400 1F68  
                                      l4258 1E52                                        l4274 2288  
                                      l3730 15CA                                        l3722 1590  
                                      l3714 151C                                        l3706 14D0  
                                      l3490 0F90                                        l3482 0F4C  
                                      l3466 0ECE                                        l3474 0EFE  
                                      l3458 0E94                                        l3394 0CFE  
                                      l3386 0CCC                                        l3634 08C0  
                                      l3642 08E6                                        l3618 0814  
                                      l3626 085C                                        l3570 0626  
                                      l3562 05E0                                        l3554 05B6  
                                      l3546 0570                                        l3538 0540  
                                      l3810 00DA                                        l3802 00A8  
                                      l4098 091C                                        l5330 2264  
                                      l5322 2254                                        l5314 2242  
                                      l5402 1F70                                        l3732 15D8  
                                      l3724 1592                                        l3716 1558  
                                      l3708 14DC                                        l3492 0FBA  
                                      l3476 0F0C                                        l3468 0ED4  
                                      l3388 0CDC                                        l3396 0D06  
                                      l3644 08EA                                        l3636 08D0  
                                      l3628 0876                                        l3580 0668  
                                      l3572 0632                                        l3564 05F6  
                                      l3548 0580                                        l5260 1A42  
                                      l5252 1A02                                        l5308 21B2  
                                      l3900 02E8                                        l3820 0116  
                                      l3804 00B8                                        l3812 00E2  
                                      l5340 104A                                        l5332 2268  
                                      l5324 2258                                        l5316 2246  
                                      l5404 1F74                                        l3734 15DA  
                                      l3726 1596                                        l3718 1564  
                                      l3486 0F76                                        l3494 0FBE  
                                      l3478 0F10                                        l3398 0D16  
                                      l3638 08DE                                        l3590 06CA  
                                      l3582 0678                                        l3574 0640  
                                      l3566 0602                                        l3558 05CA  
                                      l5270 1A72                                        l5262 1A50  
                                      l5254 1A2C                                        l5246 19D6  
                                      l3910 0340                                        l3902 02EA  
                                      l3830 012A                                        l3822 011A  
                                      l3814 00F2                                        l3806 00C8  
                                      l5350 116E                                        l5342 1054  
                                      l5326 225C                                        l5318 224A  
                                      l5334 2114                                        ?_map 0020  
                                      l3728 15BA                                        l3496 0FD8  
                                      l3488 0F82                                        l3592 06E6  
                                      l3584 0692                                        l3576 064C  
                                      l3568 061A                                        l5280 1A9C  
                                      l5272 1A7C                                        l5256 1A2E  
                                      l5248 19EE                                        l3920 036E  
                                      l3904 02FA                                        l3840 013E  
                                      l3832 012E                                        l3824 011E  
                                      l3816 0104                                        l3808 00D8  
                                      l5352 1190                                        l5360 11E4  
                                      l5344 1094                                        l3760 21D8  
                                      l5328 2260                                        l5336 2146  
                                      l3498 0FEE                                        l3594 0710  
                                      l3586 06A2                                        l3578 065C  
                                      l5282 1AAC                                        l5258 1A3E  
                                      l5290 127C                                        l3922 037C  
                                      l3914 0354                                        l3930 039A  
                                      l3906 030A                                        l3842 0142  
                                      l3834 0132                                        l3826 0122  
                                      l3818 0112                                        l3850 0152  
                                      l5370 1244                                        l5362 11EC  
                                      l5354 11BC                                        l5346 1136  
                                      l3770 2222                                        l3762 21E0  
                                      l5338 214E                                        l3692 143A  
                                      l3596 0746                                        l3588 06BE  
                                      l5284 1ABC                                        l5268 1A68  
                                      l5292 12DC                                        l3924 0384  
                                      l3916 035E                                        l3908 0330  
                                      l3932 03A8                                        l3860 01C2  
                                      l3852 0156                                        l3844 0146  
                                      l3836 0136                                        l3828 0126  
                                      l3780 003E                                        l3772 0012  
                                      l5364 1204                                        l5372 1250  
                                      l5356 11D0                                        l5348 1166  
                                      l3764 21FA                                        l5380 2272  
                                      l5700 1C58                                        l3694 144A  
                                      l3598 0754                                        l5286 1ACC  
                                      l5278 1A90                                        l5294 12FC  
                                      l5390 20B2                                        l3942 03FA  
                                      l3950 0450                                        l3934 03AC  
                                      l3926 0388                                        l3918 036C  
                                      l3870 01EC                                        l3862 01CE  
                                      l3854 0180                                        l3846 014A  
                                      l3838 013A                                        l3790 0078  
                                      l3782 004E                                        l3774 001E  
                                      l5374 1258                                        l5366 122C  
                                      l5358 11D8                                        l3758 227E  
                                      l3766 2202                                        l5382 2276  
                                      l5702 1C5C                                        l3696 1458  
                                      l5296 1382                                        l5392 20C8  
                                      l5384 2082                                        l3960 04A2  
                                      l3952 0460                                        l3944 0406  
                                      l3936 03BA                                        l3928 0398  
                                      l3880 0242                                        l3872 020E  
                                      l3864 01D2                                        l3856 019C  
                                      l3848 014E                                        l3792 007E  
                                      l3784 005E                                        l3776 002C  
                                      l5376 1268                                        l5368 123C  
                                      l3768 221A                                        l5704 1C60  
                                      l3698 149E                                        l5298 13C6  
                                      l5386 2086                                        l3970 04C0  
                                      l3962 04A8                                        l3954 0470  
                                      l3946 0414                                        l3938 03D0  
                                      l3890 027C                                        l3882 0250  
                                      l3874 021E                                        l3866 01E0  
                                      l3858 01AC                                        l3794 0090  
                                      l3786 0060                                        l3778 002E  
                                      l5378 226E                                        l5810 1CD6  
                                      l5394 1F2A                                        l5706 1C64  
                                      l5650 1BE8                                        l5812 1420  
                                      l5388 209C                                        l3964 04AA  
                                      l3956 0490                                        l3948 044E  
                                      l3892 027E                                        l3884 025E  
                                      l3868 01E2                                        l3796 0092  
                                      l3788 0068                                        l5396 1F60  
                                      l5708 1C6C                                        l5660 1BF2  
                                      l5652 1BEA                                        l5814 182C  
                                      l3966 04B0                                        l3958 0494  
                                      l3894 0288                                        l3886 026A  
                                      l3878 0232                                        l3798 0098  
                                      l5398 1F64                                        l5670 1BFC  
                                      l5662 1BF4                                        l5654 1BEC  
                                      l5816 2068                                        l3968 04BE  
                                      l3888 026E                                        l3896 028E  
                                      l5680 1C06                                        l5672 1BFE  
                                      l5664 1BF6                                        l5656 1BEE  
                                      l5648 1BE2                                        l3898 02B4  
                                      l5690 1C18                                        l5682 1C08  
                                      l5674 1C00                                        l5666 1BF8  
                                      l5658 1BF0                                        l5692 1C1E  
                                      l5684 1C0A                                        l5676 1C02  
                                      l5668 1BFA                                        l3998 20CE  
                                      l5694 1C22                                        l5686 1C0C  
                                      l5678 1C04                                        l5696 1C36  
                                      l5688 1C12                                        l5698 1C48  
                                      STR_1 7F8D                                        STR_2 7F74  
                                      STR_3 7F32                                        STR_4 7FB8  
                                      STR_5 7FA5                                        STR_6 7FCA  
                                      STR_7 7FE6                                        STR_8 7FDB  
                                      STR_9 7FF0                                        u3000 00A6  
                                      u3001 00A2                                        u3010 00B8  
                                      u3011 00B4                                        u2300 1938  
                                      u3100 0200                                        u3020 00C8  
                                      u2301 1934                                        u3101 01FC  
                                      u3021 00C4                                        u2310 195A  
                                      u3110 020E                                        u3030 0104  
                                      u2311 1956                                        u3111 020A  
                                      u3031 0100                                        u2320 1982  
                                      u2400 0D92                                        u3200 036C  
                                      u3120 021E                                        u3040 0112  
                                      u2321 197E                                        u2401 0D8E  
                                      u3201 0368                                        u3121 021A  
                                      u3041 010E                                        u2330 19B4  
                                      u2410 0DD2                                        u3210 037C  
                                      u3130 0250                                        u3050 0180  
                                      u2331 19B0                                        u2411 0DCE  
                                      u3211 0378                                        u3131 024C  
                                      u3051 017C                                        u2500 0F4C  
                                      u2420 0E48                                        u2340 0CCA  
                                      u2260 1E7A                                        u3300 0460  
                                      u3220 0398                                        u3140 025E  
                                      u3060 0198                                        u2501 0F48  
                                      u2421 0E44                                        u2341 0CC6  
                                      u2261 1E76                                        u3301 045C  
                                      u3221 0394                                        u3141 025A  
                                      u3061 0192                                        u2510 0F62  
                                      u2430 0E6A                                        u2350 0CDC  
                                      u2270 1EB4                                        u3310 0470  
                                      u3230 03A8                                        u3150 027C  
                                      u3070 019A                                        u2511 0F5E  
                                      u2431 0E66                                        u2351 0CD8  
                                      u2271 1EB0                                        u3311 046C  
                                      u3231 03A4                                        u3151 0278  
                                      u2280 18DC                                        u2520 0F76  
                                      u2440 0E94                                        u2360 0CEC  
                                      u2600 054E                                        u3400 216A  
                                      u3320 0490                                        u3240 03BA  
                                      u3160 02B4                                        u3080 01C2  
                                      u2281 18D8                                        u2521 0F72  
                                      u2441 0E90                                        u2361 0CE8  
                                      u2601 054A                                        u3401 2166  
                                      u3321 048C                                        u3241 03B6  
                                      u3161 02B0                                        u3081 01BE  
                                      u2290 18FE                                        u3410 1D92  
                                      u2530 0F90                                        u2450 0EB8  
                                      u2370 0D30                                        u2610 0560  
                                      u3330 04A2                                        u3250 03D0  
                                      u3170 02FA                                        u3090 01E0  
                                      u2291 18FA                                        u3411 1D8E  
                                      u2531 0F8C                                        u2451 0EB4  
                                      u2371 0D2C                                        u2611 055C  
                                      u3331 049E                                        u3251 03CC  
                                      u3171 02F6                                        u3091 01DC  
                                      u3420 1DB0                                        u3500 17F6  
                                      u2540 0FD8                                        u2460 0ECE  
                                      u2380 0D42                                        u2700 0800  
                                      u2620 0570                                        u3340 04BE  
                                      u3260 03E6                                        u3180 0330  
                                      u3421 1DAC                                        u3501 17F2  
                                      u2541 0FD4                                        u2461 0ECA  
                                      u2381 0D3E                                        u2701 07FC  
                                      u2621 056C                                        u3341 04BA  
                                      u3261 03E2                                        u3181 032C  
                                      u3430 1DCC                                        u3510 1806  
                                      u2550 1008                                        u2470 0EEC  
                                      u2390 0D52                                        u2710 0814  
                                      u2630 05A6                                        u3350 1B0C  
                                      u3270 03FA                                        u3190 0340  
                                      u3431 1DC8                                        u3511 1802  
                                      u2551 1004                                        u2471 0EE8  
                                      u2391 0D4E                                        u2711 0810  
                                      u2631 05A2                                        u3351 1B08  
                                      u3271 03F6                                        u3191 033C  
                                      u5007 1F7A                                        u3520 1814  
                                      u3440 1796                                        u2560 1036  
                                      u2480 0F0C                                        u2720 082E  
                                      u2640 05B6                                        u3360 1B4A  
                                      u3280 0414                                        u3600 0AFE  
                                      u3521 1810                                        u3441 1792  
                                      u2561 1032                                        u2481 0F08  
                                      u2721 082A                                        u2641 05B2  
                                      u3361 1B46                                        u3281 0410  
                                      u3601 0AFA                                        u5017 1C9A  
                                      u3530 185A                                        u3450 17A6  
                                      u2490 0F1E                                        u2730 0876  
                                      u2650 0730                                        u2570 04EC  
                                      u3370 1B68                                        u3290 044E  
                                      u3610 0B9C                                        u3531 1856  
                                      u3451 17A2                                        u2491 0F1A  
                                      u2731 0872                                        u2571 04E8  
                                      u3371 1B64                                        u3291 044A  
                                      u3611 0B98                                        u5027 220C  
                                      u2900 1590                                        u3460 17B4  
                                      u2740 08A4                                        u2660 078A  
                                      u2580 04FE                                        u4500 19EE  
                                      u3380 1B88                                        u3620 0C5C  
                                      u2901 158C                                        u3461 17B0  
                                      u2741 08A0                                        u2661 0786  
                                      u2581 04FA                                        u4501 19EA  
                                      u3381 1B84                                        u5037 21EA  
                                      u2910 15CA                                        u2830 144A  
                                      u3470 17C6                                        u2750 08DE  
                                      u2670 07AA                                        u2590 050E  
                                      u4510 1A22                                        u3390 1BD8  
                                      u3630 0C78                                        u3550 093C  
                                      u2911 15C6                                        u2831 1446  
                                      u3471 17C2                                        u2751 08DA  
                                      u2671 07A6                                        u2655 0726  
                                      u2591 050A                                        u3391 1BD4  
                                      u3631 0C74                                        u5047 222C  
                                      u2920 15D8                                        u2840 1458  
                                      u3480 17D6                                        u2680 07BC  
                                      u4520 1A50                                        u3560 0966  
                                      u4600 2146                                        u2921 15D4  
                                      u2841 1454                                        u3481 17D2  
                                      u5057 177E                                        u2681 07B8  
                                      u4521 1A4C                                        u3625 0C52  
                                      u3561 0962                                        u4601 2142  
                                      u2850 14B4                                        u3490 17E4  
                                      u2690 07EA                                        u4530 1A64  
                                      u3570 099A                                        u4610 1190  
                                      u2851 14B0                                        u3491 17E0  
                                      u2691 07E6                                        u4531 1A60  
                                      u4515 1A18                                        u3555 0932  
                                      u4611 118C                                        u2860 150A  
                                      u4540 1A8C                                        u3580 09B6  
                                      u4620 11BC                                        u2861 1506  
                                      u4541 1A88                                        u3581 09B2  
                                      u4621 11B8                                        u2870 1554  
                                      u4550 1AAC                                        u3590 09F8  
                                      u4630 1204                                        u2871 1550  
                                      u4551 1AA8                                        u3591 09F4  
                                      u3575 0990                                        u4631 1200  
                                      u2880 1572                                        u4560 1ABC  
                                      u2960 002C                                        u4640 122C  
                                      u2881 156E                                        u4561 1AB8  
                                      u2961 0028                                        u4641 1228  
                                      u2890 1582                                        u4570 12FC  
                                      u2970 003E                                        u4650 1F60  
                                      u2891 157E                                        u4571 12F8  
                                      u2971 003A                                        u4651 1F5C  
                                      u2980 004E                                        _RCIF 007CF5  
                                      u2981 004A                                        u2990 0090  
                                      u2991 008C                                        u4585 1396  
                                      u4586 13A0                                        u4595 13DA  
                                      u4587 13B0                                        u4596 13E4  
                                      u4597 13F4                                        u4980 1C48  
                                      u4981 1C44                                        u4990 1C58  
                                      u4991 1C54        comportamientoBasico@caminoEncontrado 008A  
                          ??_forzarParoAuto 0006                                        _main 1BE2  
                                      fsr1h 000FE2                                        fsr1l 000FE1  
                                      map@x 0020                                        btemp 005A  
                                      prodh 000FF4                                        prodl 000FF3  
                                      start 000E                               __CFG_IESO$OFF 000000  
                           ___fldiv@new_exp 00A2                               __CFG_MCLRE$ON 000000  
                             ?_leerSensores 0001                                ___param_bank 000000  
                                     ??_PID 00C5                                       ??_map 0034  
                             __CFG_PLLDIV$1 000000                              __CFG_CCP2MX$ON 000000  
                             ___fltol@sign1 00B7                             __end_of___aldiv 19D6  
                           __end_of___fladd 04D2                                       ?_main 0001  
                           __end_of___fldiv 104A                             __end_of___flneg 218C  
                                     STR_10 7FF9                                       STR_11 7F54  
                                     STR_12 7EFA                                       STR_13 7EBB  
                           __end_of___flmul 08FC                             __end_of___flsub 2114  
                           __end_of___fltol 1ADE                                       _T1CON 000FCD  
                                     _LATB4 007C54                                       _LATB5 007C55  
                                     _LATD2 007C62                                       _LATB6 007C56  
                                     _LATD3 007C63                                       _LATB7 007C57  
                           __end_of___lwdiv 1DEC                                       i2l320 1FDC  
                                     i2l312 1F8C                                       i2l315 1F9A  
                                     i2l276 2026                                       i2l278 202E  
                              main@iniciado 00D9                                       _RCREG 000FAE  
                                     _TMR1H 000FCF                                       _TMR1L 000FCE  
                                     _SPBRG 000FAF                               __CFG_USBDIV$1 000000  
                                     _TXREG 000FAD                               __CFG_PWRT$OFF 000000  
                             __CFG_WRT0$OFF 000000                               __CFG_WRT1$OFF 000000  
                             __CFG_WRT2$OFF 000000                         ___lmul@multiplicand 000A  
                             __CFG_WRT3$OFF 000000                              __CFG_EBTR0$OFF 000000  
                            __CFG_FCMEN$OFF 000000                              __CFG_EBTR1$OFF 000000  
                            __CFG_EBTR2$OFF 000000                              __CFG_EBTR3$OFF 000000  
                             __CFG_WRTB$OFF 000000                               __CFG_WRTC$OFF 000000  
                             __CFG_WRTD$OFF 000000                              __CFG_EBTRB$OFF 000000  
                        __size_of_UART_init 0070                                       _boton 0008  
                                     _pausa 00DA                                       _mover 1C78  
                                     _mouse 0055                                       _toint 7EB7  
                                     tablat 000FF5                             __end_of_pwmDuty 1438  
                                     ttemp5 005B                                       ttemp6 005E  
                                     ttemp7 0062                                       status 000FD8  
                                     wtemp8 005B                              __CFG_ICPRT$OFF 000000  
                            ??_leerSensores 0050                             __initialization 1EC6  
                              __end_of_main 1C78                             ??_configurarAdc 0006  
                       dameDistancia@conteo 0026                      dameDistancia@distancia 0022  
                                    ??_main 0055         comportamientoBasico@caminosRecorrer 0092  
                             __activetblptr 000002                                      PID@dif 00D3  
                                    _ADCON1 000FC1                                      _ADCON2 000FC0  
                                    ?_boton 0001                                      _CCP1M2 007DEA  
                                    _CCP1M3 007DEB                                      _CCP2M2 007DD2  
                                    _CCP2M3 007DD3                                      _ADRESH 000FC4  
                                    _ADRESL 000FC3                                      _CCPR1L 000FBE  
                                    _CCPR2L 000FBB                                      ?_mover 0001  
                                    _INT0IF 007F91                                      i2l4330 2006  
                                    i2l4332 200A                                      i2l4324 1FE0  
                                    i2l4334 200C                                      i2l4326 1FEE  
                                    i2l4336 2028                                      i2l4328 1FF4  
                                    i2l4282 1FBA                                      i2l4338 202C  
                                    i2l4276 1F88                                      i2l4278 1FA8  
                                    i2l5818 1FCE                                      _TMR1IF 007CF0  
                                    _TMR1ON 007E68                                      _TMR2ON 007E52  
                                    _TRISB0 007C98                                      _TRISB1 007C99  
                                    _TRISB2 007C9A                                      _TRISC1 007CA1  
                                    _TRISB3 007C9B                                      _TRISC2 007CA2  
                                    _TRISB4 007C9C                                      _TRISB5 007C9D  
                                    _TRISB6 007C9E                                      _TRISD3 007CAB  
                                    _TRISB7 007C9F                                      _TRISC6 007CA6  
                                    _TRISC7 007CA7                            __end_of___xxtofl 15EC  
                            __CFG_XINST$OFF 000000          comportamientoBasico@numMovimientos 0097  
                 dameDistancia@numeroSensor 0021                                      ___flge 1ADE  
                                    ___lmul 1E5C                                   ??___aldiv 001A  
                                 ??___fladd 003C                                      ___wmul 218C  
                         __end_of_UART_init 1E5C                                   ??___fldiv 004C  
                                 ??___flneg 000A          comportamientoBasico@espejearCarroY 008D  
                                 ??___flmul 0023                                   ??___flsub 004C  
                                 ??___fltol 00B3                                   ??___lwdiv 000A  
                                    _buffer 01C8                         _forzarGiroIzquierda 21FA  
                                    clear_0 1EEE                                      clear_1 1F00  
                                    clear_2 1F0C                                      _roundf 08FC  
                         _oldSensorEnfrente 0070                       _SENSOR_PRIORIDAD_BAJA 00DB  
                     _SENSOR_PRIORIDAD_ALTA 00DD                                __mediumconst 7EB6  
                   ?_forzarEspejeoIzquierda 0001                                      tblptrh 000FF7  
                                    tblptrl 000FF6                                      tblptru 000FF8  
                    __size_of_forzarEspejeo 0040                                   ??_pwmDuty 00BC  
                          _posicionDestinoX 008F                            _posicionDestinoY 008E  
                      ?_forzarGiroIzquierda 0001                      __size_of_forzarReversa 0022  
                                ___flge@ff1 0006                           _velocidadEstandar 21B2  
                                ___flge@ff2 000A                                ___xxtofl@arg 0017  
                              ___xxtofl@exp 0016                                ___xxtofl@val 000D  
                                __accesstop 0060                     __end_of__initialization 1F1C  
                           __CFG_PBADEN$OFF 000000                                  ___flneg@f1 0006  
                           __CFG_FOSC$XT_XT 000000                          ?_velocidadEstandar 0001  
                __end_of_finalizarRecorrido 227E                               ___rparam_used 000001  
             __size_of_forzarEspejeoDerecha 001A                                  ___fltol@f1 00AF  
                    __size_of_dameDistancia 0162                              __pcstackCOMRAM 0001  
                       ??_velocidadEstandar 0054                                __pidataBANK0 2292  
                           _sensorIzquierda 0080                               __end_of_boton 2032  
                             __end_of_mover 1CFE                               __end_of_toint 7EBB  
                         _forzarGiroDerecha 221A                          ?_forzarGiroDerecha 0001  
            __end_of_forzarEspejeoIzquierda 2254   comportamientoBasico@numMovimientosTotales 0095  
 comportamientoBasico@movimientosRealizados 0100                        __end_of_leerSensores 1768  
                        __size_of_configPwm 0050                                   PID@difAnt 0088  
                 __end_of_velocidadEstandar 21D8                                     ??_boton 0004  
                     ??_forzarGiroIzquierda 0006                         ??_forzarGiroDerecha 0006  
                                   ??_mover 0006                                  __pbssBANK0 0060  
                                __pbssBANK1 0100                       PID@velocidadIzquierda 00CB  
                             _forzarEspejeo 2114                                     ?___flge 0006  
                                   ?___lmul 0006                                     ?___wmul 0006  
                 __end_of_forzarGiroDerecha 223A                               _forzarReversa 21D8  
                                   _CCP1CON 000FBD                                     _CCP2CON 000FBA  
                            ___lmul@product 000E                                  _antiRebote 1F86  
                                   ?_roundf 004C                                     _T2CKPS0 007E50  
                                   _T2CKPS1 007E51                                     _PID$741 00CD  
                                   _PID$743 00D1                          __size_of_probarPID 005C  
                                 ?___xxtofl 000D                               _dameDistancia 1768  
                           __CFG_VREGEN$OFF 000000   comportamientoBasico@contCaminosRecorridos 009B  
                                   __Hparam 0000                              ?_forzarEspejeo 0001  
                                   __Lparam 0000                           __end_of_configPwm 2082  
                                   ___aldiv 18CA                             __size_of___flge 0104  
                            ?_forzarReversa 0001                                     ___fladd 0012  
                                   ___fldiv 0CAE                                     ___flneg 2154  
                           __size_of___lmul 006A                                     ___flmul 04D2  
                                   ___flsub 20CE                                     ___fltol 19D6  
                           __size_of___wmul 0026                                     ___lwdiv 1D78  
                           __CFG_STVREN$OFF 000000                                     __pcinit 1EC6  
                                   __ramtop 0800                                     __ptext0 1BE2  
                                   __ptext1 1F2A                                     __ptext2 1C78  
                                   __ptext3 15EC                                     __ptext4 226E  
                                   __ptext5 2114                                     __ptext6 223A  
                                   __ptext7 21FA                                     __ptext8 2254  
                                   __ptext9 21D8                             __size_of_roundf 03B2  
                              __size_of_PID 0232                                __size_of_map 007A  
                                ??___xxtofl 0011                              ?_dameDistancia 001B  
                          ___aldiv@dividend 0012                                     _pwmDuty 127C  
                __size_of_velocidadEstandar 0026                              __pintcode_body 1FDE  
                      end_of_initialization 1F1C                               __Lmediumconst 7EB6  
                                   int_func 1FDE                      _SENSOR_PRIORIDAD_MEDIA 00DC  
                         __end_of_probarPID 1F86                                   _RCSTAbits 000FAB  
                          ___aldiv@quotient 001C                                     postdec1 000FE5  
                                   postinc0 000FEE                     __size_of_forzarParoAuto 000A  
                                   roundf@e 00A1                                     roundf@u 00A7  
                                   roundf@x 004C                                     roundf@y 00AB  
                __size_of_forzarGiroDerecha 0020                       __end_of_configurarAdc 2292  
                               ?_antiRebote 0001                                   _PORTBbits 000F81  
                                 _UART_init 1DEC                       __size_of_leerSensores 017C  
                               ___fladd@grs 0043                                 pwmDuty@duty 00C1  
                             ___xxtofl@sign 0015                                   _TRISDbits 000F95  
                               ___fldiv@grs 00A4                          _oldSensorIzquierda 0074  
                               ___fldiv@rem 009D        comportamientoBasico@posicionInvCruce 009C  
                                map@out_max 0030                                  map@out_min 002C  
                               ___flmul@grs 0028                              _UART_init$1506 0028  
                                 _TXSTAbits 000FAC                             ??_forzarEspejeo 0054  
                           ??_forzarReversa 0006                                _leerSensores 15EC  
                            __end_of___flge 1BE2                              __end_of___lmul 1EC6  
                            __end_of___wmul 21B2                          _finalizarRecorrido 226E  
                                ?_UART_init 0020                __end_of_forzarEspejeoDerecha 226E  
                           ??_dameDistancia 001F       comportamientoBasico@investigandoCruce 0058  
                            __end_of_roundf 0CAE                         start_initialization 1EC6  
                       PID@velocidadDerecha 00CF                                 __end_of_PID 127C  
                       ?_finalizarRecorrido 0001                                 __end_of_map 1D78  
                       __size_of_antiRebote 0058                         pwmDuty@cicloTrabajo 00B9  
                      ??_finalizarRecorrido 0054                                    ??___flge 000E  
                                  ??___lmul 000E                                    ??___wmul 000A  
                          _oldSensorDerecha 0078                  comportamientoBasico@mapear 008C  
                            _sensorEnfrente 007C                                 __pdataBANK0 00DA  
                          __CFG_LPT1OSC$OFF 000000                                    ??_roundf 0050  
                                 ___fladd@a 0038                                   ___fladd@b 0034  
               __end_of_forzarGiroIzquierda 221A                                   ___fldiv@a 0048  
                                 ___fldiv@b 0044                                 __pbssBIGRAM 01FA  
                              _llegoDestino 0057                                   ___flmul@a 001F  
                                 ___flmul@b 001B                                 __pbssCOMRAM 0055  
                                 ___flsub@a 0048                                   ___flsub@b 0044  
          comportamientoBasico@caminoActual 009A                               __pcstackBANK0 009D  
                         __size_of___xxtofl 01B4                                    PID@error 00D5  
                 _DISTANCIA_PRIORIDAD_MEDIA 0068                            ___lwdiv@dividend 0006  
                                 __pintcode 0008                               __pmediumconst 7EB6  
                            _forzarParoAuto 227E                                    ?___aldiv 0012  
                                  ?___fladd 0034                                    ?___fldiv 0044  
                                  ?___flneg 0006                                    ?___flmul 001B  
                                  ?___flsub 0044                                    ?___fltol 00AF  
                                  ?___lwdiv 0006                                   _configPwm 2032  
                               ??_UART_init 0024  comportamientoBasico@cambioOrientacionCarro 0099  
                                  ?_pwmDuty 00B9                            ___lwdiv@quotient 000A  
                            __size_of_boton 202A                                    _PID$1507 00C7  
                            __size_of_mover 0086                             ___aldiv@divisor 0016  
                           ___aldiv@counter 001A                              ___wmul@product 000A  
                      _forzarEspejeoDerecha 2254                      __end_of_forzarParoAuto 2288  
                                  i2u506_47 2016                                    i2u507_47 1FAE  
                                  i2u373_40 1F9A                                    i2u373_41 1F96  
                                  i2u374_40 1FA8                                    i2u374_41 1FA4  
                                  i2u377_40 1FEE                                    i2u377_41 1FEA  
                                  i2u378_40 2006                                    i2u378_41 2002  
                          __CFG_WDTPS$32768 000000                                   _probarPID 1F2A  
                  ??_forzarEspejeoIzquierda 0054                                ??_antiRebote 0001  
                                ?_configPwm 0001                                   map@in_max 0028  
                                 map@in_min 0024                                  _ADCON0bits 000FC2  
                         ___wmul@multiplier 0006                            configPwm@channel 0008  
                         ___lmul@multiplier 0006                                 _INTCON2bits 000FF1  
                                 copy_data0 1EDA                       ?_forzarEspejeoDerecha 0001  
                        __end_of_antiRebote 1FDE                                  roundf@F525 0060  
                                  __Hrparam 0000                             ?_forzarParoAuto 0001  
                             UART_init@BAUD 0020                               _sensorDerecha 0084  
                                  __Lrparam 0000                                  ?_probarPID 0001  
                            _posicionCarroX 0091                              _posicionCarroY 0090  
                          __size_of___aldiv 010C                            __size_of___fladd 04C0  
                          __size_of___fldiv 039C                            __size_of___flneg 0038  
                          __size_of___flmul 042A                            __size_of___flsub 0046  
                          __size_of___fltol 0108                            __size_of___lwdiv 0074  
                                  ___xxtofl 1438                             ___lwdiv@divisor 0008  
                           ___lwdiv@counter 000C                                    __ptext10 227E  
                                  __ptext11 221A                                    __ptext20 21B2  
                                  __ptext12 104A                                    __ptext21 127C  
                                  __ptext13 08FC                                    __ptext30 2288  
                                  __ptext22 1CFE                                    __ptext14 20CE  
                                  __ptext31 2032                                    __ptext23 1E5C  
                                  __ptext15 0012                                    __ptext32 1DEC  
                                  __ptext24 19D6                                    __ptext16 2154  
                                  __ptext33 18CA                                    __ptext25 04D2  
                                  __ptext17 1ADE                                    __ptext26 0CAE  
                                  __ptext18 218C                                    __ptext35 1F86  
                                  __ptext27 1768                                    __ptext19 2082  
                                  __ptext28 1438                                    __ptext29 1D78  
                          __size_of_pwmDuty 01BC     __end_of_inicializarComportamientoBasico 20CE  
  __size_of_inicializarComportamientoBasico 004C           ??_inicializarComportamientoBasico 0054  
          ?_inicializarComportamientoBasico 0001             _inicializarComportamientoBasico 2082  
                             antiRebote@pin 0003          comportamientoBasico@cruceDetectado 008B  
                    __size_of_configurarAdc 000A                               __size_of_main 0096  
                     __end_of_forzarEspejeo 2154                       __end_of_forzarReversa 21FA  
                                  int$flags 005A             __size_of_forzarEspejeoIzquierda 001A  
                               ??_configPwm 0006                       __CFG_CPUDIV$OSC1_PLL2 000000  
                                _INTCONbits 000FF2                       __end_of_dameDistancia 18CA  
                                  intlevel2 0000                      ??_forzarEspejeoDerecha 0054  
               __size_of_finalizarRecorrido 0010                                 ??_probarPID 0054  
                             _configurarAdc 2288                              pwmDuty@channel 00BB  
        comportamientoBasico@carroEspejeado 0059                                ___aldiv@sign 001B  
                             ___fladd@signs 0040                      _forzarEspejeoIzquierda 223A  
              __size_of_forzarGiroIzquierda 0020                                ___fladd@aexp 0041  
                              ___fladd@bexp 0042                                 _roundf$1508 00A3  
                               _roundf$1509 009D  
