

Microchip MPLAB XC8 Assembler V2.10 build 88905656 
                                                                                               Mon Jul 13 11:08:23 2020

Microchip MPLAB XC8 C Compiler v2.10 (Free license) build 20190730164152 Og1 
     1                           	processor	18F4550
     2                           	fnconf	rparam,??,?,0
     3                           	opt	pw 120
     4                           	opt	flic
     5                           	psect	smallconst,global,reloc=2,class=SMALLCONST,delta=1,noexec
     6                           	psect	cinit,global,reloc=2,class=CODE,delta=1
     7                           	psect	bssBANK0,global,class=BANK0,space=1,delta=1,lowdata,noexec
     8                           	psect	cstackBANK0,global,class=BANK0,space=1,delta=1,noexec
     9                           	psect	cstackCOMRAM,global,class=COMRAM,space=1,delta=1,noexec
    10                           	psect	text0,global,reloc=2,class=CODE,delta=1
    11                           	psect	text1,global,reloc=2,class=CODE,delta=1,group=2
    12                           	psect	text2,global,reloc=2,class=CODE,delta=1
    13                           	psect	text3,global,reloc=2,class=CODE,delta=1
    14                           	psect	text4,global,reloc=2,class=CODE,delta=1
    15                           	psect	text5,global,reloc=2,class=CODE,delta=1
    16                           	psect	text6,global,reloc=2,class=CODE,delta=1,group=2
    17                           	psect	text7,global,reloc=2,class=CODE,delta=1,group=2
    18                           	psect	text8,global,reloc=2,class=CODE,delta=1,group=2
    19                           	psect	text9,global,reloc=2,class=CODE,delta=1,group=2
    20                           	psect	text10,global,reloc=2,class=CODE,delta=1,group=2
    21                           	psect	text11,global,reloc=2,class=CODE,delta=1,group=1
    22                           	psect	text12,global,reloc=2,class=CODE,delta=1,group=1
    23                           	psect	text13,global,reloc=2,class=CODE,delta=1
    24                           	psect	text14,global,reloc=2,class=CODE,delta=1
    25                           	psect	text15,global,reloc=2,class=CODE,delta=1,group=1
    26                           	psect	text16,global,reloc=2,class=CODE,delta=1,group=1
    27                           	psect	text17,global,reloc=2,class=CODE,delta=1,group=1
    28                           	psect	text18,global,reloc=2,class=CODE,delta=1,group=1
    29                           	psect	text19,global,reloc=2,class=CODE,delta=1,group=1
    30                           	psect	text20,global,reloc=2,class=CODE,delta=1
    31                           	psect	text21,global,reloc=2,class=CODE,delta=1,group=1
    32                           	psect	text22,global,reloc=2,class=CODE,delta=1
    33                           	psect	text23,global,reloc=2,class=CODE,delta=1
    34                           	psect	text24,global,reloc=2,class=CODE,delta=1
    35                           	psect	text25,global,reloc=2,class=CODE,delta=1
    36                           	psect	text26,global,reloc=2,class=CODE,delta=1,group=1
    37                           	psect	intsave_regs,global,class=BIGRAM,space=1,delta=1,noexec
    38                           	psect	rparam,global,class=COMRAM,space=1,delta=1,noexec
    39  0000                     
    40                           ; Version 2.10
    41                           ; Generated 31/07/2019 GMT
    42                           ; 
    43                           ; Copyright © 2019, Microchip Technology Inc. and its subsidiaries ("Microchip")
    44                           ; All rights reserved.
    45                           ; 
    46                           ; This software is developed by Microchip Technology Inc. and its subsidiaries ("Microch
      +                          ip").
    47                           ; 
    48                           ; Redistribution and use in source and binary forms, with or without modification, are
    49                           ; permitted provided that the following conditions are met:
    50                           ; 
    51                           ;     1. Redistributions of source code must retain the above copyright notice, this lis
      +                          t of
    52                           ;        conditions and the following disclaimer.
    53                           ; 
    54                           ;     2. Redistributions in binary form must reproduce the above copyright notice, this 
      +                          list
    55                           ;        of conditions and the following disclaimer in the documentation and/or other
    56                           ;        materials provided with the distribution.
    57                           ; 
    58                           ;     3. Microchip's name may not be used to endorse or promote products derived from th
      +                          is
    59                           ;        software without specific prior written permission.
    60                           ; 
    61                           ; THIS SOFTWARE IS PROVIDED BY MICROCHIP "AS IS" AND ANY EXPRESS OR IMPLIED WARRANTIES,
    62                           ; INCLUDING, BUT NOT LIMITED TO, THE IMPLIED WARRANTIES OF MERCHANTABILITY AND FITNESS F
      +                          OR
    63                           ; PURPOSE ARE DISCLAIMED.  IN NO EVENT SHALL MICROCHIP BE LIABLE FOR ANY DIRECT, INDIREC
      +                          T,
    64                           ; INCIDENTAL, SPECIAL, EXEMPLARY, OR CONSEQUENTIAL DAMAGES (INCLUDING BUT NOT LIMITED TO
    65                           ; PROCUREMENT OF SUBSTITUTE GOODS OR SERVICES; LOSS OF USE, DATA OR PROFITS; OR BUSINESS
    66                           ; INTERRUPTION) HOWSOEVER CAUSED AND ON ANY THEORY OF LIABILITY, WHETHER IN CONTRACT, ST
      +                          RICT
    67                           ; LIABILITY, OR TORT (INCLUDING NEGLIGENCE OR OTHERWISE) ARISING IN ANY WAY OUT OF THE U
      +                          SE OF
    68                           ; THIS SOFTWARE, EVEN IF ADVISED OF THE POSSIBILITY OF SUCH DAMAGE.
    69                           ; 
    70                           ; 
    71                           ; Code-generator required, PIC18F4550 Definitions
    72                           ; 
    73                           ; SFR Addresses
    74  0000                     _T1CON	set	4045
    75  0000                     _TXREG	set	4013
    76  0000                     _RCREG	set	4014
    77  0000                     _RCSTAbits	set	4011
    78  0000                     _TXSTAbits	set	4012
    79  0000                     _SPBRG	set	4015
    80  0000                     _PORTBbits	set	3969
    81  0000                     _TMR1L	set	4046
    82  0000                     _TMR1H	set	4047
    83  0000                     _PR2	set	4043
    84  0000                     _CCP2CON	set	4026
    85  0000                     _CCPR2L	set	4027
    86  0000                     _CCP1CON	set	4029
    87  0000                     _CCPR1L	set	4030
    88  0000                     _TRISB3	set	31899
    89  0000                     _TRISB2	set	31898
    90  0000                     _TRISB1	set	31897
    91  0000                     _TRISB0	set	31896
    92  0000                     _RCIF	set	31989
    93  0000                     _TRISC7	set	31911
    94  0000                     _TRISC6	set	31910
    95  0000                     _TMR1IF	set	31984
    96  0000                     _TMR1ON	set	32360
    97  0000                     _LATB0	set	31824
    98  0000                     _TMR2ON	set	32338
    99  0000                     _CCP2M2	set	32210
   100  0000                     _CCP2M3	set	32211
   101  0000                     _TRISC1	set	31905
   102  0000                     _CCP1M2	set	32234
   103  0000                     _CCP1M3	set	32235
   104  0000                     _TRISC2	set	31906
   105  0000                     _T2CKPS1	set	32337
   106  0000                     _T2CKPS0	set	32336
   107                           
   108                           	psect	smallconst
   109  000800                     __psmallconst:
   110                           	opt callstack 0
   111  000800  00                 	db	0
   112  000801                     STR_1:
   113  000801  0D                 	db	13
   114  000802  44                 	db	68	;'D'
   115  000803  69                 	db	105	;'i'
   116  000804  73                 	db	115	;'s'
   117  000805  74                 	db	116	;'t'
   118  000806  61                 	db	97	;'a'
   119  000807  6E                 	db	110	;'n'
   120  000808  63                 	db	99	;'c'
   121  000809  69                 	db	105	;'i'
   122  00080A  61                 	db	97	;'a'
   123  00080B  3A                 	db	58	;':'
   124  00080C  20                 	db	32
   125  00080D  25                 	db	37
   126  00080E  64                 	db	100	;'d'
   127  00080F  20                 	db	32
   128  000810  63                 	db	99	;'c'
   129  000811  6D                 	db	109	;'m'
   130  000812  0D                 	db	13
   131  000813  0A                 	db	10
   132  000814  00                 	db	0
   133                           
   134                           ; #config settings
   135  000815  00                 	db	0	; dummy byte at the end
   136  0000                     
   137                           	psect	cinit
   138  0023EE                     __pcinit:
   139                           	opt callstack 0
   140  0023EE                     start_initialization:
   141                           	opt callstack 0
   142  0023EE                     __initialization:
   143                           	opt callstack 0
   144                           
   145                           ; Clear objects allocated to BANK0 (90 bytes)
   146  0023EE  EE00  F060         	lfsr	0,__pbssBANK0
   147  0023F2  0E5A               	movlw	90
   148  0023F4                     clear_0:
   149  0023F4  6AEE               	clrf	postinc0,c
   150  0023F6  06E8               	decf	wreg,f,c
   151  0023F8  E1FD               	bnz	clear_0
   152  0023FA                     end_of_initialization:
   153                           	opt callstack 0
   154  0023FA                     __end_of__initialization:
   155                           	opt callstack 0
   156  0023FA  0E00               	movlw	low (__Lmediumconst shr (0+16))
   157  0023FC  6EF8               	movwf	tblptru,c
   158  0023FE  0100               	movlb	0
   159  002400  EFCF  F00F         	goto	_main	;jump to C main() function
   160                           
   161                           	psect	bssBANK0
   162  000060                     __pbssBANK0:
   163                           	opt callstack 0
   164  000060                     _nout:
   165                           	opt callstack 0
   166  000060                     	ds	2
   167  000062                     _width:
   168                           	opt callstack 0
   169  000062                     	ds	2
   170  000064                     _prec:
   171                           	opt callstack 0
   172  000064                     	ds	2
   173  000066                     _flags:
   174                           	opt callstack 0
   175  000066                     	ds	2
   176  000068                     _buffer:
   177                           	opt callstack 0
   178  000068                     	ds	50
   179  00009A                     _dbuf:
   180                           	opt callstack 0
   181  00009A                     	ds	32
   182                           
   183                           	psect	cstackBANK0
   184  0000BA                     __pcstackBANK0:
   185                           	opt callstack 0
   186  0000BA                     	ds	2
   187  0000BC                     sprintf@ap:
   188                           	opt callstack 0
   189                           
   190                           ; 2 bytes @ 0x2
   191  0000BC                     	ds	2
   192  0000BE                     sprintf@f:
   193                           	opt callstack 0
   194                           
   195                           ; 6 bytes @ 0x4
   196  0000BE                     	ds	6
   197                           
   198                           	psect	cstackCOMRAM
   199  000001                     __pcstackCOMRAM:
   200                           	opt callstack 0
   201  000001                     ??_configPwm:
   202  000001                     ?_strlen:
   203                           	opt callstack 0
   204  000001                     ?___lwdiv:
   205                           	opt callstack 0
   206  000001                     ?___lmul:
   207                           	opt callstack 0
   208  000001                     ?___xxtofl:
   209                           	opt callstack 0
   210  000001                     ?___aodiv:
   211                           	opt callstack 0
   212  000001                     ?___aomod:
   213                           	opt callstack 0
   214  000001                     UART_write@dato:
   215                           	opt callstack 0
   216  000001                     ___lwdiv@dividend:
   217                           	opt callstack 0
   218  000001                     fputc@c:
   219                           	opt callstack 0
   220  000001                     strlen@s:
   221                           	opt callstack 0
   222  000001                     ___lmul@multiplier:
   223                           	opt callstack 0
   224  000001                     ___xxtofl@val:
   225                           	opt callstack 0
   226  000001                     ___aodiv@dividend:
   227                           	opt callstack 0
   228  000001                     ___aomod@dividend:
   229                           	opt callstack 0
   230                           
   231                           ; 8 bytes @ 0x0
   232  000001                     	ds	1
   233  000002                     UART_printf@cadena:
   234                           	opt callstack 0
   235                           
   236                           ; 2 bytes @ 0x1
   237  000002                     	ds	1
   238  000003                     configPwm@channel:
   239                           	opt callstack 0
   240  000003                     ___lwdiv@divisor:
   241                           	opt callstack 0
   242  000003                     fputc@fp:
   243                           	opt callstack 0
   244  000003                     strlen@a:
   245                           	opt callstack 0
   246                           
   247                           ; 2 bytes @ 0x2
   248  000003                     	ds	1
   249  000004                     
   250                           ; 1 bytes @ 0x3
   251  000004                     	ds	1
   252  000005                     ??_fputc:
   253  000005                     ??___xxtofl:
   254  000005                     ___lwdiv@quotient:
   255                           	opt callstack 0
   256  000005                     ___lmul@multiplicand:
   257                           	opt callstack 0
   258                           
   259                           ; 4 bytes @ 0x4
   260  000005                     	ds	2
   261  000007                     ___lwdiv@counter:
   262                           	opt callstack 0
   263                           
   264                           ; 1 bytes @ 0x6
   265  000007                     	ds	1
   266  000008                     ?_dameDistancia:
   267                           	opt callstack 0
   268                           
   269                           ; 2 bytes @ 0x7
   270  000008                     	ds	1
   271  000009                     ___xxtofl@sign:
   272                           	opt callstack 0
   273  000009                     ___lmul@product:
   274                           	opt callstack 0
   275  000009                     ___aodiv@divisor:
   276                           	opt callstack 0
   277  000009                     ___aomod@divisor:
   278                           	opt callstack 0
   279                           
   280                           ; 8 bytes @ 0x8
   281  000009                     	ds	1
   282  00000A                     ??_dameDistancia:
   283  00000A                     ___xxtofl@exp:
   284                           	opt callstack 0
   285  00000A                     fputs@s:
   286                           	opt callstack 0
   287                           
   288                           ; 2 bytes @ 0x9
   289  00000A                     	ds	1
   290  00000B                     ___xxtofl@arg:
   291                           	opt callstack 0
   292                           
   293                           ; 4 bytes @ 0xA
   294  00000B                     	ds	1
   295  00000C                     dameDistancia@numeroSensor:
   296                           	opt callstack 0
   297  00000C                     fputs@fp:
   298                           	opt callstack 0
   299                           
   300                           ; 2 bytes @ 0xB
   301  00000C                     	ds	1
   302  00000D                     ?___aldiv:
   303                           	opt callstack 0
   304  00000D                     dameDistancia@distancia:
   305                           	opt callstack 0
   306  00000D                     ___aldiv@dividend:
   307                           	opt callstack 0
   308                           
   309                           ; 4 bytes @ 0xC
   310  00000D                     	ds	1
   311  00000E                     fputs@c:
   312                           	opt callstack 0
   313                           
   314                           ; 1 bytes @ 0xD
   315  00000E                     	ds	1
   316  00000F                     ?___fldiv:
   317                           	opt callstack 0
   318  00000F                     dameDistancia@conteo:
   319                           	opt callstack 0
   320  00000F                     fputs@i:
   321                           	opt callstack 0
   322  00000F                     ___fldiv@b:
   323                           	opt callstack 0
   324                           
   325                           ; 4 bytes @ 0xE
   326  00000F                     	ds	2
   327  000011                     ?_pad:
   328                           	opt callstack 0
   329  000011                     ___aodiv@counter:
   330                           	opt callstack 0
   331  000011                     ___aomod@counter:
   332                           	opt callstack 0
   333  000011                     pad@fp:
   334                           	opt callstack 0
   335  000011                     ___aldiv@divisor:
   336                           	opt callstack 0
   337                           
   338                           ; 4 bytes @ 0x10
   339  000011                     	ds	1
   340  000012                     ___aodiv@sign:
   341                           	opt callstack 0
   342  000012                     ___aomod@sign:
   343                           	opt callstack 0
   344                           
   345                           ; 1 bytes @ 0x11
   346  000012                     	ds	1
   347  000013                     ?_abs:
   348                           	opt callstack 0
   349  000013                     pad@buf:
   350                           	opt callstack 0
   351  000013                     abs@a:
   352                           	opt callstack 0
   353  000013                     ___fldiv@a:
   354                           	opt callstack 0
   355  000013                     ___aodiv@quotient:
   356                           	opt callstack 0
   357                           
   358                           ; 8 bytes @ 0x12
   359  000013                     	ds	2
   360  000015                     ??_abs:
   361  000015                     ___aldiv@counter:
   362                           	opt callstack 0
   363  000015                     pad@p:
   364                           	opt callstack 0
   365                           
   366                           ; 2 bytes @ 0x14
   367  000015                     	ds	1
   368  000016                     ___aldiv@sign:
   369                           	opt callstack 0
   370                           
   371                           ; 1 bytes @ 0x15
   372  000016                     	ds	1
   373  000017                     ??___fldiv:
   374  000017                     ??_pad:
   375  000017                     ___aldiv@quotient:
   376                           	opt callstack 0
   377                           
   378                           ; 4 bytes @ 0x16
   379  000017                     	ds	1
   380  000018                     pad@i:
   381                           	opt callstack 0
   382                           
   383                           ; 2 bytes @ 0x17
   384  000018                     	ds	2
   385  00001A                     pad@w:
   386                           	opt callstack 0
   387                           
   388                           ; 2 bytes @ 0x19
   389  00001A                     	ds	1
   390  00001B                     ?_map:
   391                           	opt callstack 0
   392  00001B                     map@x:
   393                           	opt callstack 0
   394  00001B                     UART_init@BAUD:
   395                           	opt callstack 0
   396  00001B                     ___fldiv@rem:
   397                           	opt callstack 0
   398                           
   399                           ; 4 bytes @ 0x1A
   400  00001B                     	ds	1
   401  00001C                     ?_dtoa:
   402                           	opt callstack 0
   403  00001C                     dtoa@fp:
   404                           	opt callstack 0
   405                           
   406                           ; 2 bytes @ 0x1B
   407  00001C                     	ds	2
   408  00001E                     dtoa@d:
   409                           	opt callstack 0
   410                           
   411                           ; 8 bytes @ 0x1D
   412  00001E                     	ds	1
   413  00001F                     ___fldiv@sign:
   414                           	opt callstack 0
   415  00001F                     map@in_min:
   416                           	opt callstack 0
   417                           
   418                           ; 4 bytes @ 0x1E
   419  00001F                     	ds	1
   420  000020                     ___fldiv@new_exp:
   421                           	opt callstack 0
   422                           
   423                           ; 2 bytes @ 0x1F
   424  000020                     	ds	2
   425  000022                     ___fldiv@grs:
   426                           	opt callstack 0
   427                           
   428                           ; 4 bytes @ 0x21
   429  000022                     	ds	1
   430  000023                     map@in_max:
   431                           	opt callstack 0
   432  000023                     _UART_init$1035:
   433                           	opt callstack 0
   434                           
   435                           ; 4 bytes @ 0x22
   436  000023                     	ds	3
   437  000026                     ??_dtoa:
   438  000026                     ___fldiv@bexp:
   439                           	opt callstack 0
   440                           
   441                           ; 1 bytes @ 0x25
   442  000026                     	ds	1
   443  000027                     ___fldiv@aexp:
   444                           	opt callstack 0
   445  000027                     map@out_min:
   446                           	opt callstack 0
   447                           
   448                           ; 4 bytes @ 0x26
   449  000027                     	ds	1
   450  000028                     ?___flmul:
   451                           	opt callstack 0
   452  000028                     ___flmul@b:
   453                           	opt callstack 0
   454                           
   455                           ; 4 bytes @ 0x27
   456  000028                     	ds	3
   457  00002B                     map@out_max:
   458                           	opt callstack 0
   459                           
   460                           ; 4 bytes @ 0x2A
   461  00002B                     	ds	1
   462  00002C                     ___flmul@a:
   463                           	opt callstack 0
   464                           
   465                           ; 4 bytes @ 0x2B
   466  00002C                     	ds	2
   467  00002E                     _dtoa$328:
   468                           	opt callstack 0
   469                           
   470                           ; 2 bytes @ 0x2D
   471  00002E                     	ds	1
   472  00002F                     
   473                           ; 1 bytes @ 0x2E
   474  00002F                     	ds	1
   475  000030                     ??___flmul:
   476  000030                     dtoa@p:
   477                           	opt callstack 0
   478                           
   479                           ; 2 bytes @ 0x2F
   480  000030                     	ds	2
   481  000032                     dtoa@w:
   482                           	opt callstack 0
   483                           
   484                           ; 2 bytes @ 0x31
   485  000032                     	ds	2
   486  000034                     ___flmul@sign:
   487                           	opt callstack 0
   488  000034                     dtoa@s:
   489                           	opt callstack 0
   490                           
   491                           ; 2 bytes @ 0x33
   492  000034                     	ds	1
   493  000035                     ___flmul@grs:
   494                           	opt callstack 0
   495                           
   496                           ; 4 bytes @ 0x34
   497  000035                     	ds	1
   498  000036                     dtoa@n:
   499                           	opt callstack 0
   500                           
   501                           ; 8 bytes @ 0x35
   502  000036                     	ds	3
   503  000039                     ___flmul@aexp:
   504                           	opt callstack 0
   505                           
   506                           ; 1 bytes @ 0x38
   507  000039                     	ds	1
   508  00003A                     ___flmul@bexp:
   509                           	opt callstack 0
   510                           
   511                           ; 1 bytes @ 0x39
   512  00003A                     	ds	1
   513  00003B                     ___flmul@prod:
   514                           	opt callstack 0
   515                           
   516                           ; 4 bytes @ 0x3A
   517  00003B                     	ds	3
   518  00003E                     dtoa@i:
   519                           	opt callstack 0
   520                           
   521                           ; 2 bytes @ 0x3D
   522  00003E                     	ds	1
   523  00003F                     ___flmul@temp:
   524                           	opt callstack 0
   525                           
   526                           ; 2 bytes @ 0x3E
   527  00003F                     	ds	1
   528  000040                     ?_vfpfcnvrt:
   529                           	opt callstack 0
   530  000040                     vfpfcnvrt@fp:
   531                           	opt callstack 0
   532                           
   533                           ; 2 bytes @ 0x3F
   534  000040                     	ds	1
   535  000041                     ?___fltol:
   536                           	opt callstack 0
   537  000041                     ___fltol@f1:
   538                           	opt callstack 0
   539                           
   540                           ; 4 bytes @ 0x40
   541  000041                     	ds	1
   542  000042                     vfpfcnvrt@fmt:
   543                           	opt callstack 0
   544                           
   545                           ; 2 bytes @ 0x41
   546  000042                     	ds	2
   547  000044                     vfpfcnvrt@ap:
   548                           	opt callstack 0
   549                           
   550                           ; 2 bytes @ 0x43
   551  000044                     	ds	1
   552  000045                     ??___fltol:
   553                           
   554                           ; 1 bytes @ 0x44
   555  000045                     	ds	1
   556  000046                     ??_vfpfcnvrt:
   557                           
   558                           ; 1 bytes @ 0x45
   559  000046                     	ds	2
   560  000048                     vfpfcnvrt@ll:
   561                           	opt callstack 0
   562                           
   563                           ; 8 bytes @ 0x47
   564  000048                     	ds	1
   565  000049                     ___fltol@sign1:
   566                           	opt callstack 0
   567                           
   568                           ; 1 bytes @ 0x48
   569  000049                     	ds	1
   570  00004A                     ___fltol@exp1:
   571                           	opt callstack 0
   572                           
   573                           ; 1 bytes @ 0x49
   574  00004A                     	ds	1
   575  00004B                     pwmDuty@cicloTrabajo:
   576                           	opt callstack 0
   577                           
   578                           ; 2 bytes @ 0x4A
   579  00004B                     	ds	2
   580  00004D                     pwmDuty@channel:
   581                           	opt callstack 0
   582                           
   583                           ; 1 bytes @ 0x4C
   584  00004D                     	ds	1
   585  00004E                     ??_pwmDuty:
   586                           
   587                           ; 1 bytes @ 0x4D
   588  00004E                     	ds	2
   589  000050                     ?_vfprintf:
   590                           	opt callstack 0
   591  000050                     vfprintf@fp:
   592                           	opt callstack 0
   593                           
   594                           ; 2 bytes @ 0x4F
   595  000050                     	ds	2
   596  000052                     vfprintf@fmt:
   597                           	opt callstack 0
   598                           
   599                           ; 2 bytes @ 0x51
   600  000052                     	ds	1
   601  000053                     pwmDuty@duty:
   602                           	opt callstack 0
   603                           
   604                           ; 4 bytes @ 0x52
   605  000053                     	ds	1
   606  000054                     vfprintf@ap:
   607                           	opt callstack 0
   608                           
   609                           ; 2 bytes @ 0x53
   610  000054                     	ds	2
   611  000056                     vfprintf@cfmt:
   612                           	opt callstack 0
   613                           
   614                           ; 2 bytes @ 0x55
   615  000056                     	ds	2
   616  000058                     ?_sprintf:
   617                           	opt callstack 0
   618  000058                     sprintf@s:
   619                           	opt callstack 0
   620                           
   621                           ; 2 bytes @ 0x57
   622  000058                     	ds	2
   623  00005A                     sprintf@fmt:
   624                           	opt callstack 0
   625                           
   626                           ; 2 bytes @ 0x59
   627  00005A                     	ds	4
   628  00005E                     ??_main:
   629                           
   630                           ; 1 bytes @ 0x5D
   631  00005E                     	ds	2
   632                           
   633 ;;
   634 ;;Main: autosize = 0, tempsize = 2, incstack = 0, save=0
   635 ;;
   636 ;; *************** function _main *****************
   637 ;; Defined at:
   638 ;;		line 11 in file "main.c"
   639 ;; Parameters:    Size  Location     Type
   640 ;;		None
   641 ;; Auto vars:     Size  Location     Type
   642 ;;		None
   643 ;; Return value:  Size  Location     Type
   644 ;;                  1    wreg      void 
   645 ;; Registers used:
   646 ;;		wreg, fsr1l, fsr1h, fsr2l, fsr2h, status,2, status,0, tblptrl, tblptrh, tblptru, prodl, prodh, cstack
   647 ;; Tracked objects:
   648 ;;		On entry : 0/0
   649 ;;		On exit  : 0/0
   650 ;;		Unchanged: 0/0
   651 ;; Data sizes:     COMRAM   BANK0   BANK1   BANK2   BANK3   BANK4   BANK5   BANK6   BANK7
   652 ;;      Params:         0       0       0       0       0       0       0       0       0
   653 ;;      Locals:         0       0       0       0       0       0       0       0       0
   654 ;;      Temps:          2       0       0       0       0       0       0       0       0
   655 ;;      Totals:         2       0       0       0       0       0       0       0       0
   656 ;;Total ram usage:        2 bytes
   657 ;; Hardware stack levels required when called:    8
   658 ;; This function calls:
   659 ;;		_UART_init
   660 ;;		_UART_printf
   661 ;;		_configPwm
   662 ;;		_dameDistancia
   663 ;;		_pwmDuty
   664 ;;		_sprintf
   665 ;; This function is called by:
   666 ;;		Startup code after reset
   667 ;; This function uses a non-reentrant model
   668 ;;
   669                           
   670                           	psect	text0
   671  001F9E                     __ptext0:
   672                           	opt callstack 0
   673  001F9E                     _main:
   674                           	opt callstack 23
   675  001F9E                     
   676                           ;main.c: 13:     TRISB0 = 0;
   677  001F9E  9093               	bcf	3987,0,c	;volatile
   678                           
   679                           ;main.c: 14:     TRISB1 = 1;
   680  001FA0  8293               	bsf	3987,1,c	;volatile
   681                           
   682                           ;main.c: 15:     TRISB2 = 1;
   683  001FA2  8493               	bsf	3987,2,c	;volatile
   684                           
   685                           ;main.c: 16:     TRISB3 = 1;
   686  001FA4  8693               	bsf	3987,3,c	;volatile
   687                           
   688                           ;main.c: 18:     LATB0 = 0;
   689  001FA6  908A               	bcf	3978,0,c	;volatile
   690  001FA8                     
   691                           ;main.c: 19:     T1CON = 0b00000000;
   692  001FA8  0E00               	movlw	0
   693  001FAA  6ECD               	movwf	205,c	;volatile
   694  001FAC                     
   695                           ;main.c: 21:     configPwm(1);
   696  001FAC  0E01               	movlw	1
   697  001FAE  EC5A  F011         	call	_configPwm
   698  001FB2                     
   699                           ;main.c: 22:     configPwm(2);
   700  001FB2  0E02               	movlw	2
   701  001FB4  EC5A  F011         	call	_configPwm
   702  001FB8                     
   703                           ;main.c: 24:     UART_init(9600);
   704  001FB8  0E80               	movlw	128
   705  001FBA  6E1B               	movwf	UART_init@BAUD^0,c
   706  001FBC  0E25               	movlw	37
   707  001FBE  6E1C               	movwf	(UART_init@BAUD+1)^0,c
   708  001FC0  0E00               	movlw	0
   709  001FC2  6E1D               	movwf	(UART_init@BAUD+2)^0,c
   710  001FC4  0E00               	movlw	0
   711  001FC6  6E1E               	movwf	(UART_init@BAUD+3)^0,c
   712  001FC8  EC93  F010         	call	_UART_init	;wreg free
   713  001FCC                     
   714                           ;main.c: 26:     pwmDuty(0, 1);
   715  001FCC  0E00               	movlw	0
   716  001FCE  6E4C               	movwf	(pwmDuty@cicloTrabajo+1)^0,c
   717  001FD0  0E00               	movlw	0
   718  001FD2  6E4B               	movwf	pwmDuty@cicloTrabajo^0,c
   719  001FD4  0E01               	movlw	1
   720  001FD6  6E4D               	movwf	pwmDuty@channel^0,c
   721  001FD8  EC38  F00A         	call	_pwmDuty	;wreg free
   722  001FDC                     
   723                           ;main.c: 27:     pwmDuty(0, 2);
   724  001FDC  0E00               	movlw	0
   725  001FDE  6E4C               	movwf	(pwmDuty@cicloTrabajo+1)^0,c
   726  001FE0  0E00               	movlw	0
   727  001FE2  6E4B               	movwf	pwmDuty@cicloTrabajo^0,c
   728  001FE4  0E02               	movlw	2
   729  001FE6  6E4D               	movwf	pwmDuty@channel^0,c
   730  001FE8  EC38  F00A         	call	_pwmDuty	;wreg free
   731  001FEC                     l2605:
   732                           
   733                           ;main.c: 31:         sprintf(buffer, "\rDistancia: %d cm\r\n", dameDistancia(1));
   734  001FEC  0E68               	movlw	low _buffer
   735  001FEE  6E58               	movwf	sprintf@s^0,c
   736  001FF0  0E00               	movlw	high _buffer
   737  001FF2  6E59               	movwf	(sprintf@s+1)^0,c
   738  001FF4  0E01               	movlw	low STR_1
   739  001FF6  6E5A               	movwf	sprintf@fmt^0,c
   740  001FF8  0E08               	movlw	high STR_1
   741  001FFA  6E5B               	movwf	(sprintf@fmt+1)^0,c
   742  001FFC  0E01               	movlw	1
   743  001FFE  EC62  F00D         	call	_dameDistancia
   744  002002  C008  F05C         	movff	?_dameDistancia,?_sprintf+4
   745  002006  C009  F05D         	movff	?_dameDistancia+1,?_sprintf+5
   746  00200A  EC31  F011         	call	_sprintf	;wreg free
   747  00200E                     
   748                           ;main.c: 32:         UART_printf(buffer);
   749  00200E  0E68               	movlw	low _buffer
   750  002010  6E02               	movwf	UART_printf@cadena^0,c
   751  002012  0E00               	movlw	high _buffer
   752  002014  6E03               	movwf	(UART_printf@cadena+1)^0,c
   753  002016  ECDF  F011         	call	_UART_printf	;wreg free
   754  00201A                     
   755                           ;main.c: 33:         _delay((unsigned long)((1000)*(4000000/4000.0)));
   756  00201A  0E06               	movlw	6
   757  00201C  6E5F               	movwf	(??_main+1)^0,c
   758  00201E  0E13               	movlw	19
   759  002020  6E5E               	movwf	??_main^0,c
   760  002022  0EAE               	movlw	174
   761  002024                     u2607:
   762  002024  2EE8               	decfsz	wreg,f,c
   763  002026  D7FE               	bra	u2607
   764  002028  2E5E               	decfsz	??_main^0,f,c
   765  00202A  D7FC               	bra	u2607
   766  00202C  2E5F               	decfsz	(??_main+1)^0,f,c
   767  00202E  D7FA               	bra	u2607
   768  002030  EFF6  F00F         	goto	l2605
   769  002034  EF00  F000         	goto	start
   770  002038                     __end_of_main:
   771                           	opt callstack 0
   772                           
   773 ;; *************** function _sprintf *****************
   774 ;; Defined at:
   775 ;;		line 9 in file "C:\Program Files (x86)\Microchip\xc8\v2.10\pic\sources\c99\common\nf_sprintf.c"
   776 ;; Parameters:    Size  Location     Type
   777 ;;  s               2   87[COMRAM] PTR unsigned char 
   778 ;;		 -> buffer(50), 
   779 ;;  fmt             2   89[COMRAM] PTR const unsigned char 
   780 ;;		 -> STR_1(20), 
   781 ;; Auto vars:     Size  Location     Type
   782 ;;  f               6    4[BANK0 ] struct _IO_FILE
   783 ;;  ap              2    2[BANK0 ] PTR void [1]
   784 ;;		 -> ?_sprintf(2), 
   785 ;;  ret             2    0        int 
   786 ;; Return value:  Size  Location     Type
   787 ;;                  2   87[COMRAM] int 
   788 ;; Registers used:
   789 ;;		wreg, fsr1l, fsr1h, fsr2l, fsr2h, status,2, status,0, tblptrl, tblptrh, tblptru, cstack
   790 ;; Tracked objects:
   791 ;;		On entry : 0/0
   792 ;;		On exit  : 0/0
   793 ;;		Unchanged: 0/0
   794 ;; Data sizes:     COMRAM   BANK0   BANK1   BANK2   BANK3   BANK4   BANK5   BANK6   BANK7
   795 ;;      Params:         6       0       0       0       0       0       0       0       0
   796 ;;      Locals:         0      10       0       0       0       0       0       0       0
   797 ;;      Temps:          0       0       0       0       0       0       0       0       0
   798 ;;      Totals:         6      10       0       0       0       0       0       0       0
   799 ;;Total ram usage:       16 bytes
   800 ;; Hardware stack levels used:    1
   801 ;; Hardware stack levels required when called:    7
   802 ;; This function calls:
   803 ;;		_vfprintf
   804 ;; This function is called by:
   805 ;;		_main
   806 ;; This function uses a non-reentrant model
   807 ;;
   808                           
   809                           	psect	text1
   810  002262                     __ptext1:
   811                           	opt callstack 0
   812  002262                     _sprintf:
   813                           	opt callstack 23
   814  002262  0E5C               	movlw	low (?_sprintf+4)
   815  002264  0100               	movlb	0	; () banked
   816  002266  6FBC               	movwf	sprintf@ap& (0+255),b
   817  002268  0E00               	movlw	high (?_sprintf+4)
   818  00226A  6FBD               	movwf	(sprintf@ap+1)& (0+255),b
   819  00226C  C058  F0BE         	movff	sprintf@s,sprintf@f
   820  002270  C059  F0BF         	movff	sprintf@s+1,sprintf@f+1
   821  002274                     
   822                           ; BSR set to: 0
   823  002274  0E00               	movlw	0
   824  002276  6FC1               	movwf	(sprintf@f+3)& (0+255),b
   825  002278  0E00               	movlw	0
   826  00227A  6FC0               	movwf	(sprintf@f+2)& (0+255),b
   827  00227C                     
   828                           ; BSR set to: 0
   829  00227C  0E00               	movlw	0
   830  00227E  6FC3               	movwf	(sprintf@f+5)& (0+255),b
   831  002280  0E00               	movlw	0
   832  002282  6FC2               	movwf	(sprintf@f+4)& (0+255),b
   833  002284                     
   834                           ; BSR set to: 0
   835  002284  0EBE               	movlw	low sprintf@f
   836  002286  6E50               	movwf	vfprintf@fp^0,c
   837  002288  0E00               	movlw	high sprintf@f
   838  00228A  6E51               	movwf	(vfprintf@fp+1)^0,c
   839  00228C  C05A  F052         	movff	sprintf@fmt,vfprintf@fmt
   840  002290  C05B  F053         	movff	sprintf@fmt+1,vfprintf@fmt+1
   841  002294  0EBC               	movlw	low sprintf@ap
   842  002296  6E54               	movwf	vfprintf@ap^0,c
   843  002298  0E00               	movlw	high sprintf@ap
   844  00229A  6E55               	movwf	(vfprintf@ap+1)^0,c
   845  00229C  EC00  F011         	call	_vfprintf	;wreg free
   846  0022A0  0100               	movlb	0	; () banked
   847  0022A2  51C0               	movf	(sprintf@f+2)& (0+255),w,b
   848  0022A4  2458               	addwf	sprintf@s^0,w,c
   849  0022A6  6ED9               	movwf	fsr2l,c
   850  0022A8  51C1               	movf	(sprintf@f+3)& (0+255),w,b
   851  0022AA  2059               	addwfc	(sprintf@s+1)^0,w,c
   852  0022AC  6EDA               	movwf	fsr2h,c
   853  0022AE  0E00               	movlw	0
   854  0022B0  6EDF               	movwf	indf2,c
   855  0022B2                     
   856                           ; BSR set to: 0
   857  0022B2  0012               	return		;funcret
   858  0022B4                     __end_of_sprintf:
   859                           	opt callstack 0
   860                           
   861 ;; *************** function _vfprintf *****************
   862 ;; Defined at:
   863 ;;		line 1368 in file "C:\Program Files (x86)\Microchip\xc8\v2.10\pic\sources\c99\common\doprnt.c"
   864 ;; Parameters:    Size  Location     Type
   865 ;;  fp              2   79[COMRAM] PTR struct _IO_FILE
   866 ;;		 -> sprintf@f(6), 
   867 ;;  fmt             2   81[COMRAM] PTR const unsigned char 
   868 ;;		 -> STR_1(20), 
   869 ;;  ap              2   83[COMRAM] PTR PTR void 
   870 ;;		 -> sprintf@ap(2), 
   871 ;; Auto vars:     Size  Location     Type
   872 ;;  cfmt            2   85[COMRAM] PTR unsigned char 
   873 ;;		 -> STR_1(20), 
   874 ;; Return value:  Size  Location     Type
   875 ;;                  2   79[COMRAM] int 
   876 ;; Registers used:
   877 ;;		wreg, fsr1l, fsr1h, fsr2l, fsr2h, status,2, status,0, tblptrl, tblptrh, tblptru, cstack
   878 ;; Tracked objects:
   879 ;;		On entry : 0/0
   880 ;;		On exit  : 0/0
   881 ;;		Unchanged: 0/0
   882 ;; Data sizes:     COMRAM   BANK0   BANK1   BANK2   BANK3   BANK4   BANK5   BANK6   BANK7
   883 ;;      Params:         6       0       0       0       0       0       0       0       0
   884 ;;      Locals:         2       0       0       0       0       0       0       0       0
   885 ;;      Temps:          0       0       0       0       0       0       0       0       0
   886 ;;      Totals:         8       0       0       0       0       0       0       0       0
   887 ;;Total ram usage:        8 bytes
   888 ;; Hardware stack levels used:    1
   889 ;; Hardware stack levels required when called:    6
   890 ;; This function calls:
   891 ;;		_vfpfcnvrt
   892 ;; This function is called by:
   893 ;;		_sprintf
   894 ;; This function uses a non-reentrant model
   895 ;;
   896                           
   897                           	psect	text2
   898  002200                     __ptext2:
   899                           	opt callstack 0
   900  002200                     _vfprintf:
   901                           	opt callstack 23
   902  002200                     
   903                           ;C:\Program Files (x86)\Microchip\xc8\v2.10\pic\sources\c99\common\doprnt.c: 1368: int v
      +                          fprintf(FILE *fp, const char *fmt, va_list ap);C:\Program Files (x86)\Microchip\xc8\v2.1
      +                          0\pic\sources\c99\common\doprnt.c: 1369: {;C:\Program Files (x86)\Microchip\xc8\v2.10\pi
      +                          c\sources\c99\common\doprnt.c: 1371:     char *cfmt;;C:\Program Files (x86)\Microchip\xc
      +                          8\v2.10\pic\sources\c99\common\doprnt.c: 1373:     cfmt = (char *)fmt;
   904  002200  C052  F056         	movff	vfprintf@fmt,vfprintf@cfmt
   905  002204  C053  F057         	movff	vfprintf@fmt+1,vfprintf@cfmt+1
   906  002208                     
   907                           ;C:\Program Files (x86)\Microchip\xc8\v2.10\pic\sources\c99\common\doprnt.c: 1374:     n
      +                          out = 0;
   908  002208  0E00               	movlw	0
   909  00220A  0100               	movlb	0	; () banked
   910  00220C  6F61               	movwf	(_nout+1)& (0+255),b
   911  00220E  0E00               	movlw	0
   912  002210  6F60               	movwf	_nout& (0+255),b
   913                           
   914                           ;C:\Program Files (x86)\Microchip\xc8\v2.10\pic\sources\c99\common\doprnt.c: 1375:     w
      +                          hile (*cfmt) {
   915  002212  EF1E  F011         	goto	l2097
   916  002216                     l2095:
   917                           
   918                           ; BSR set to: 0
   919                           ;C:\Program Files (x86)\Microchip\xc8\v2.10\pic\sources\c99\common\doprnt.c: 1376:      
      +                             nout += vfpfcnvrt(fp, &cfmt, ap);
   920  002216  C050  F040         	movff	vfprintf@fp,vfpfcnvrt@fp
   921  00221A  C051  F041         	movff	vfprintf@fp+1,vfpfcnvrt@fp+1
   922  00221E  0E56               	movlw	low vfprintf@cfmt
   923  002220  6E42               	movwf	vfpfcnvrt@fmt^0,c
   924  002222  0E00               	movlw	high vfprintf@cfmt
   925  002224  6E43               	movwf	(vfpfcnvrt@fmt+1)^0,c
   926  002226  C054  F044         	movff	vfprintf@ap,vfpfcnvrt@ap
   927  00222A  C055  F045         	movff	vfprintf@ap+1,vfpfcnvrt@ap+1
   928  00222E  EC5E  F009         	call	_vfpfcnvrt	;wreg free
   929  002232  5040               	movf	?_vfpfcnvrt^0,w,c
   930  002234  0100               	movlb	0	; () banked
   931  002236  2760               	addwf	_nout& (0+255),f,b
   932  002238  5041               	movf	(?_vfpfcnvrt+1)^0,w,c
   933  00223A  2361               	addwfc	(_nout+1)& (0+255),f,b
   934  00223C                     l2097:
   935                           
   936                           ; BSR set to: 0
   937                           ;C:\Program Files (x86)\Microchip\xc8\v2.10\pic\sources\c99\common\doprnt.c: 1375:     w
      +                          hile (*cfmt) {
   938  00223C  C056  FFF6         	movff	vfprintf@cfmt,tblptrl
   939  002240  C057  FFF7         	movff	vfprintf@cfmt+1,tblptrh
   940  002244                     	if	0	;tblptru may be non-zero
   941  002244                     	endif
   942  002244                     	if	0	;tblptru may be non-zero
   943  002244                     	endif
   944  002244  0008               	tblrd		*
   945  002246  50F5               	movf	tablat,w,c
   946  002248  0900               	iorlw	0
   947  00224A  A4D8               	btfss	status,2,c
   948  00224C  EF2A  F011         	goto	u1831
   949  002250  EF2C  F011         	goto	u1830
   950  002254                     u1831:
   951  002254  EF0B  F011         	goto	l2095
   952  002258                     u1830:
   953  002258                     
   954                           ; BSR set to: 0
   955                           ;C:\Program Files (x86)\Microchip\xc8\v2.10\pic\sources\c99\common\doprnt.c: 1378:     r
      +                          eturn nout;
   956  002258  C060  F050         	movff	_nout,?_vfprintf
   957  00225C  C061  F051         	movff	_nout+1,?_vfprintf+1
   958  002260                     
   959                           ; BSR set to: 0
   960  002260  0012               	return		;funcret
   961  002262                     __end_of_vfprintf:
   962                           	opt callstack 0
   963                           
   964 ;; *************** function _vfpfcnvrt *****************
   965 ;; Defined at:
   966 ;;		line 670 in file "C:\Program Files (x86)\Microchip\xc8\v2.10\pic\sources\c99\common\doprnt.c"
   967 ;; Parameters:    Size  Location     Type
   968 ;;  fp              2   63[COMRAM] PTR struct _IO_FILE
   969 ;;		 -> sprintf@f(6), 
   970 ;;  fmt             2   65[COMRAM] PTR PTR unsigned char 
   971 ;;		 -> vfprintf@cfmt(2), 
   972 ;;  ap              2   67[COMRAM] PTR PTR void 
   973 ;;		 -> sprintf@ap(2), 
   974 ;; Auto vars:     Size  Location     Type
   975 ;;  ll              8   71[COMRAM] long long 
   976 ;;  llu             8    0        unsigned long long 
   977 ;;  f               4    0        unsigned long long 
   978 ;;  vp              3    0        PTR void 
   979 ;;  ct              3    0        unsigned char [3]
   980 ;;  cp              3    0        PTR unsigned char 
   981 ;;  i               2    0        int 
   982 ;;  done            2    0        int 
   983 ;;  c               1    0        unsigned char 
   984 ;; Return value:  Size  Location     Type
   985 ;;                  2   63[COMRAM] int 
   986 ;; Registers used:
   987 ;;		wreg, fsr1l, fsr1h, fsr2l, fsr2h, status,2, status,0, tblptrl, tblptrh, tblptru, cstack
   988 ;; Tracked objects:
   989 ;;		On entry : 0/0
   990 ;;		On exit  : 0/0
   991 ;;		Unchanged: 0/0
   992 ;; Data sizes:     COMRAM   BANK0   BANK1   BANK2   BANK3   BANK4   BANK5   BANK6   BANK7
   993 ;;      Params:         6       0       0       0       0       0       0       0       0
   994 ;;      Locals:         8       0       0       0       0       0       0       0       0
   995 ;;      Temps:          2       0       0       0       0       0       0       0       0
   996 ;;      Totals:        16       0       0       0       0       0       0       0       0
   997 ;;Total ram usage:       16 bytes
   998 ;; Hardware stack levels used:    1
   999 ;; Hardware stack levels required when called:    5
  1000 ;; This function calls:
  1001 ;;		_dtoa
  1002 ;;		_fputc
  1003 ;; This function is called by:
  1004 ;;		_vfprintf
  1005 ;; This function uses a non-reentrant model
  1006 ;;
  1007                           
  1008                           	psect	text3
  1009  0012BC                     __ptext3:
  1010                           	opt callstack 0
  1011  0012BC                     _vfpfcnvrt:
  1012                           	opt callstack 23
  1013  0012BC                     
  1014                           ;C:\Program Files (x86)\Microchip\xc8\v2.10\pic\sources\c99\common\doprnt.c: 670: static
      +                           int vfpfcnvrt(FILE *fp, char *fmt[], va_list ap);C:\Program Files (x86)\Microchip\xc8\v
      +                          2.10\pic\sources\c99\common\doprnt.c: 671: {;C:\Program Files (x86)\Microchip\xc8\v2.10\
      +                          pic\sources\c99\common\doprnt.c: 672:     char c, *cp, ct[3];;C:\Program Files (x86)\Mic
      +                          rochip\xc8\v2.10\pic\sources\c99\common\doprnt.c: 673:     int done, i;;C:\Program Files
      +                           (x86)\Microchip\xc8\v2.10\pic\sources\c99\common\doprnt.c: 674:     long long ll;
  1015  0012BC  C042  FFD9         	movff	vfpfcnvrt@fmt,fsr2l
  1016  0012C0  C043  FFDA         	movff	vfpfcnvrt@fmt+1,fsr2h
  1017  0012C4  CFDE FFF6          	movff	postinc2,tblptrl
  1018  0012C8  CFDD FFF7          	movff	postdec2,tblptrh
  1019  0012CC                     	if	0	;tblptru may be non-zero
  1020  0012CC                     	endif
  1021  0012CC                     	if	0	;tblptru may be non-zero
  1022  0012CC                     	endif
  1023  0012CC  0008               	tblrd		*
  1024  0012CE  50F5               	movf	tablat,w,c
  1025  0012D0  0A25               	xorlw	37
  1026  0012D2  A4D8               	btfss	status,2,c
  1027  0012D4  EF6E  F009         	goto	u1701
  1028  0012D8  EF70  F009         	goto	u1700
  1029  0012DC                     u1701:
  1030  0012DC  EF1C  F00A         	goto	l2023
  1031  0012E0                     u1700:
  1032  0012E0                     
  1033                           ;C:\Program Files (x86)\Microchip\xc8\v2.10\pic\sources\c99\common\doprnt.c: 681:       
      +                            ++*fmt;
  1034  0012E0  C042  FFD9         	movff	vfpfcnvrt@fmt,fsr2l
  1035  0012E4  C043  FFDA         	movff	vfpfcnvrt@fmt+1,fsr2h
  1036  0012E8  2ADE               	incf	postinc2,f,c
  1037  0012EA  0E00               	movlw	0
  1038  0012EC  22DD               	addwfc	postdec2,f,c
  1039  0012EE                     
  1040                           ;C:\Program Files (x86)\Microchip\xc8\v2.10\pic\sources\c99\common\doprnt.c: 683:       
      +                            flags = width = 0;
  1041  0012EE  0E00               	movlw	0
  1042  0012F0  0100               	movlb	0	; () banked
  1043  0012F2  6F63               	movwf	(_width+1)& (0+255),b
  1044  0012F4  0E00               	movlw	0
  1045  0012F6  6F62               	movwf	_width& (0+255),b
  1046  0012F8  C062  F066         	movff	_width,_flags
  1047  0012FC  C063  F067         	movff	_width+1,_flags+1
  1048  001300                     
  1049                           ; BSR set to: 0
  1050                           ;C:\Program Files (x86)\Microchip\xc8\v2.10\pic\sources\c99\common\doprnt.c: 684:       
      +                            prec = -1;
  1051  001300  6964               	setf	_prec& (0+255),b
  1052  001302  6965               	setf	(_prec+1)& (0+255),b
  1053  001304                     
  1054                           ; BSR set to: 0
  1055                           ;C:\Program Files (x86)\Microchip\xc8\v2.10\pic\sources\c99\common\doprnt.c: 825:       
      +                            if ((*fmt[0] == 'd') || (*fmt[0] == 'i')) {
  1056  001304  C042  FFD9         	movff	vfpfcnvrt@fmt,fsr2l
  1057  001308  C043  FFDA         	movff	vfpfcnvrt@fmt+1,fsr2h
  1058  00130C  CFDE FFF6          	movff	postinc2,tblptrl
  1059  001310  CFDD FFF7          	movff	postdec2,tblptrh
  1060  001314                     	if	0	;tblptru may be non-zero
  1061  001314                     	endif
  1062  001314                     	if	0	;tblptru may be non-zero
  1063  001314                     	endif
  1064  001314  0008               	tblrd		*
  1065  001316  50F5               	movf	tablat,w,c
  1066  001318  0A64               	xorlw	100
  1067  00131A  B4D8               	btfsc	status,2,c
  1068  00131C  EF92  F009         	goto	u1711
  1069  001320  EF94  F009         	goto	u1710
  1070  001324                     u1711:
  1071  001324  EFA6  F009         	goto	l2001
  1072  001328                     u1710:
  1073  001328                     
  1074                           ; BSR set to: 0
  1075  001328  C042  FFD9         	movff	vfpfcnvrt@fmt,fsr2l
  1076  00132C  C043  FFDA         	movff	vfpfcnvrt@fmt+1,fsr2h
  1077  001330  CFDE FFF6          	movff	postinc2,tblptrl
  1078  001334  CFDD FFF7          	movff	postdec2,tblptrh
  1079  001338                     	if	0	;tblptru may be non-zero
  1080  001338                     	endif
  1081  001338                     	if	0	;tblptru may be non-zero
  1082  001338                     	endif
  1083  001338  0008               	tblrd		*
  1084  00133A  50F5               	movf	tablat,w,c
  1085  00133C  0A69               	xorlw	105
  1086  00133E  A4D8               	btfss	status,2,c
  1087  001340  EFA4  F009         	goto	u1721
  1088  001344  EFA6  F009         	goto	u1720
  1089  001348                     u1721:
  1090  001348  EFE6  F009         	goto	l2007
  1091  00134C                     u1720:
  1092  00134C                     l2001:
  1093                           
  1094                           ; BSR set to: 0
  1095                           ;C:\Program Files (x86)\Microchip\xc8\v2.10\pic\sources\c99\common\doprnt.c: 827:       
      +                                ++*fmt;
  1096  00134C  C042  FFD9         	movff	vfpfcnvrt@fmt,fsr2l
  1097  001350  C043  FFDA         	movff	vfpfcnvrt@fmt+1,fsr2h
  1098  001354  2ADE               	incf	postinc2,f,c
  1099  001356  0E00               	movlw	0
  1100  001358  22DD               	addwfc	postdec2,f,c
  1101                           
  1102                           ;C:\Program Files (x86)\Microchip\xc8\v2.10\pic\sources\c99\common\doprnt.c: 828:       
      +                                ll = (long long)(*(int *)__va_arg(*(int **)ap, (int)0));
  1103  00135A  C044  FFD9         	movff	vfpfcnvrt@ap,fsr2l
  1104  00135E  C045  FFDA         	movff	vfpfcnvrt@ap+1,fsr2h
  1105  001362  CFDF F046          	movff	indf2,??_vfpfcnvrt
  1106  001366  0E02               	movlw	2
  1107  001368  26DE               	addwf	postinc2,f,c
  1108  00136A  CFDF F047          	movff	indf2,??_vfpfcnvrt+1
  1109  00136E  0E00               	movlw	0
  1110  001370  22DD               	addwfc	postdec2,f,c
  1111  001372  C046  FFD9         	movff	??_vfpfcnvrt,fsr2l
  1112  001376  C047  FFDA         	movff	??_vfpfcnvrt+1,fsr2h
  1113  00137A  CFDE F048          	movff	postinc2,vfpfcnvrt@ll
  1114  00137E  CFDD F049          	movff	postdec2,vfpfcnvrt@ll+1
  1115  001382  0E00               	movlw	0
  1116  001384  BE49               	btfsc	(vfpfcnvrt@ll+1)^0,7,c
  1117  001386  0EFF               	movlw	-1
  1118  001388  6E4A               	movwf	(vfpfcnvrt@ll+2)^0,c
  1119  00138A  6E4B               	movwf	(vfpfcnvrt@ll+3)^0,c
  1120  00138C  6E4C               	movwf	(vfpfcnvrt@ll+4)^0,c
  1121  00138E  6E4D               	movwf	(vfpfcnvrt@ll+5)^0,c
  1122  001390  6E4E               	movwf	(vfpfcnvrt@ll+6)^0,c
  1123  001392  6E4F               	movwf	(vfpfcnvrt@ll+7)^0,c
  1124  001394                     
  1125                           ; BSR set to: 0
  1126                           ;C:\Program Files (x86)\Microchip\xc8\v2.10\pic\sources\c99\common\doprnt.c: 830:       
      +                                return dtoa(fp, ll);
  1127  001394  C040  F01C         	movff	vfpfcnvrt@fp,dtoa@fp
  1128  001398  C041  F01D         	movff	vfpfcnvrt@fp+1,dtoa@fp+1
  1129  00139C  C048  F01E         	movff	vfpfcnvrt@ll,dtoa@d
  1130  0013A0  C049  F01F         	movff	vfpfcnvrt@ll+1,dtoa@d+1
  1131  0013A4  C04A  F020         	movff	vfpfcnvrt@ll+2,dtoa@d+2
  1132  0013A8  C04B  F021         	movff	vfpfcnvrt@ll+3,dtoa@d+3
  1133  0013AC  C04C  F022         	movff	vfpfcnvrt@ll+4,dtoa@d+4
  1134  0013B0  C04D  F023         	movff	vfpfcnvrt@ll+5,dtoa@d+5
  1135  0013B4  C04E  F024         	movff	vfpfcnvrt@ll+6,dtoa@d+6
  1136  0013B8  C04F  F025         	movff	vfpfcnvrt@ll+7,dtoa@d+7
  1137  0013BC  ECED  F007         	call	_dtoa	;wreg free
  1138  0013C0  C01C  F040         	movff	?_dtoa,?_vfpfcnvrt
  1139  0013C4  C01D  F041         	movff	?_dtoa+1,?_vfpfcnvrt+1
  1140  0013C8  EF37  F00A         	goto	l223
  1141  0013CC                     l2007:
  1142                           
  1143                           ; BSR set to: 0
  1144                           ;C:\Program Files (x86)\Microchip\xc8\v2.10\pic\sources\c99\common\doprnt.c: 1350:      
      +                             if ((*fmt)[0] == '%') {
  1145  0013CC  C042  FFD9         	movff	vfpfcnvrt@fmt,fsr2l
  1146  0013D0  C043  FFDA         	movff	vfpfcnvrt@fmt+1,fsr2h
  1147  0013D4  CFDE FFF6          	movff	postinc2,tblptrl
  1148  0013D8  CFDD FFF7          	movff	postdec2,tblptrh
  1149  0013DC                     	if	0	;tblptru may be non-zero
  1150  0013DC                     	endif
  1151  0013DC                     	if	0	;tblptru may be non-zero
  1152  0013DC                     	endif
  1153  0013DC  0008               	tblrd		*
  1154  0013DE  50F5               	movf	tablat,w,c
  1155  0013E0  0A25               	xorlw	37
  1156  0013E2  A4D8               	btfss	status,2,c
  1157  0013E4  EFF6  F009         	goto	u1731
  1158  0013E8  EFF8  F009         	goto	u1730
  1159  0013EC                     u1731:
  1160  0013EC  EF0F  F00A         	goto	l2017
  1161  0013F0                     u1730:
  1162  0013F0                     
  1163                           ; BSR set to: 0
  1164                           ;C:\Program Files (x86)\Microchip\xc8\v2.10\pic\sources\c99\common\doprnt.c: 1351:      
      +                                 ++*fmt;
  1165  0013F0  C042  FFD9         	movff	vfpfcnvrt@fmt,fsr2l
  1166  0013F4  C043  FFDA         	movff	vfpfcnvrt@fmt+1,fsr2h
  1167  0013F8  2ADE               	incf	postinc2,f,c
  1168  0013FA  0E00               	movlw	0
  1169  0013FC  22DD               	addwfc	postdec2,f,c
  1170  0013FE                     
  1171                           ; BSR set to: 0
  1172                           ;C:\Program Files (x86)\Microchip\xc8\v2.10\pic\sources\c99\common\doprnt.c: 1352:      
      +                                 fputc((int)'%', fp);
  1173  0013FE  0E00               	movlw	0
  1174  001400  6E02               	movwf	(fputc@c+1)^0,c
  1175  001402  0E25               	movlw	37
  1176  001404  6E01               	movwf	fputc@c^0,c
  1177  001406  C040  F003         	movff	vfpfcnvrt@fp,fputc@fp
  1178  00140A  C041  F004         	movff	vfpfcnvrt@fp+1,fputc@fp+1
  1179  00140E  EC07  F00F         	call	_fputc	;wreg free
  1180  001412                     l2013:
  1181                           
  1182                           ;C:\Program Files (x86)\Microchip\xc8\v2.10\pic\sources\c99\common\doprnt.c: 1353:      
      +                                 return 1;
  1183  001412  0E00               	movlw	0
  1184  001414  6E41               	movwf	(?_vfpfcnvrt+1)^0,c
  1185  001416  0E01               	movlw	1
  1186  001418  6E40               	movwf	?_vfpfcnvrt^0,c
  1187  00141A  EF37  F00A         	goto	l223
  1188  00141E                     l2017:
  1189                           
  1190                           ; BSR set to: 0
  1191                           ;C:\Program Files (x86)\Microchip\xc8\v2.10\pic\sources\c99\common\doprnt.c: 1357:      
      +                             ++*fmt;
  1192  00141E  C042  FFD9         	movff	vfpfcnvrt@fmt,fsr2l
  1193  001422  C043  FFDA         	movff	vfpfcnvrt@fmt+1,fsr2h
  1194  001426  2ADE               	incf	postinc2,f,c
  1195  001428  0E00               	movlw	0
  1196  00142A  22DD               	addwfc	postdec2,f,c
  1197  00142C                     
  1198                           ; BSR set to: 0
  1199                           ;C:\Program Files (x86)\Microchip\xc8\v2.10\pic\sources\c99\common\doprnt.c: 1358:      
      +                             return 0;
  1200  00142C  0E00               	movlw	0
  1201  00142E  6E41               	movwf	(?_vfpfcnvrt+1)^0,c
  1202  001430  0E00               	movlw	0
  1203  001432  6E40               	movwf	?_vfpfcnvrt^0,c
  1204  001434  EF37  F00A         	goto	l223
  1205  001438                     l2023:
  1206                           
  1207                           ;C:\Program Files (x86)\Microchip\xc8\v2.10\pic\sources\c99\common\doprnt.c: 1362:     f
      +                          putc((int)(*fmt)[0], fp);
  1208  001438  C042  FFD9         	movff	vfpfcnvrt@fmt,fsr2l
  1209  00143C  C043  FFDA         	movff	vfpfcnvrt@fmt+1,fsr2h
  1210  001440  CFDE FFF6          	movff	postinc2,tblptrl
  1211  001444  CFDD FFF7          	movff	postdec2,tblptrh
  1212  001448                     	if	0	;tblptru may be non-zero
  1213  001448                     	endif
  1214  001448                     	if	0	;tblptru may be non-zero
  1215  001448                     	endif
  1216  001448  0008               	tblrd		*
  1217  00144A  50F5               	movf	tablat,w,c
  1218  00144C  6E01               	movwf	fputc@c^0,c
  1219  00144E  6A02               	clrf	(fputc@c+1)^0,c
  1220  001450  C040  F003         	movff	vfpfcnvrt@fp,fputc@fp
  1221  001454  C041  F004         	movff	vfpfcnvrt@fp+1,fputc@fp+1
  1222  001458  EC07  F00F         	call	_fputc	;wreg free
  1223  00145C                     
  1224                           ;C:\Program Files (x86)\Microchip\xc8\v2.10\pic\sources\c99\common\doprnt.c: 1363:     +
      +                          +*fmt;
  1225  00145C  C042  FFD9         	movff	vfpfcnvrt@fmt,fsr2l
  1226  001460  C043  FFDA         	movff	vfpfcnvrt@fmt+1,fsr2h
  1227  001464  2ADE               	incf	postinc2,f,c
  1228  001466  0E00               	movlw	0
  1229  001468  22DD               	addwfc	postdec2,f,c
  1230  00146A  EF09  F00A         	goto	l2013
  1231  00146E                     l223:
  1232  00146E  0012               	return		;funcret
  1233  001470                     __end_of_vfpfcnvrt:
  1234                           	opt callstack 0
  1235                           
  1236 ;; *************** function _dtoa *****************
  1237 ;; Defined at:
  1238 ;;		line 274 in file "C:\Program Files (x86)\Microchip\xc8\v2.10\pic\sources\c99\common\doprnt.c"
  1239 ;; Parameters:    Size  Location     Type
  1240 ;;  fp              2   27[COMRAM] PTR struct _IO_FILE
  1241 ;;		 -> sprintf@f(6), 
  1242 ;;  d               8   29[COMRAM] long long 
  1243 ;; Auto vars:     Size  Location     Type
  1244 ;;  n               8   53[COMRAM] long long 
  1245 ;;  i               2   61[COMRAM] int 
  1246 ;;  s               2   51[COMRAM] int 
  1247 ;;  w               2   49[COMRAM] int 
  1248 ;;  p               2   47[COMRAM] int 
  1249 ;; Return value:  Size  Location     Type
  1250 ;;                  2   27[COMRAM] int 
  1251 ;; Registers used:
  1252 ;;		wreg, fsr1l, fsr1h, fsr2l, fsr2h, status,2, status,0, cstack
  1253 ;; Tracked objects:
  1254 ;;		On entry : 0/0
  1255 ;;		On exit  : 0/0
  1256 ;;		Unchanged: 0/0
  1257 ;; Data sizes:     COMRAM   BANK0   BANK1   BANK2   BANK3   BANK4   BANK5   BANK6   BANK7
  1258 ;;      Params:        10       0       0       0       0       0       0       0       0
  1259 ;;      Locals:        18       0       0       0       0       0       0       0       0
  1260 ;;      Temps:          8       0       0       0       0       0       0       0       0
  1261 ;;      Totals:        36       0       0       0       0       0       0       0       0
  1262 ;;Total ram usage:       36 bytes
  1263 ;; Hardware stack levels used:    1
  1264 ;; Hardware stack levels required when called:    4
  1265 ;; This function calls:
  1266 ;;		___aodiv
  1267 ;;		___aomod
  1268 ;;		_abs
  1269 ;;		_pad
  1270 ;; This function is called by:
  1271 ;;		_vfpfcnvrt
  1272 ;; This function uses a non-reentrant model
  1273 ;;
  1274                           
  1275                           	psect	text4
  1276  000FDA                     __ptext4:
  1277                           	opt callstack 0
  1278  000FDA                     _dtoa:
  1279                           	opt callstack 23
  1280  000FDA                     
  1281                           ;C:\Program Files (x86)\Microchip\xc8\v2.10\pic\sources\c99\common\doprnt.c: 274: static
      +                           int dtoa(FILE *fp, long long d);C:\Program Files (x86)\Microchip\xc8\v2.10\pic\sources\
      +                          c99\common\doprnt.c: 275: {;C:\Program Files (x86)\Microchip\xc8\v2.10\pic\sources\c99\c
      +                          ommon\doprnt.c: 276:     int i, p, s, w;;C:\Program Files (x86)\Microchip\xc8\v2.10\pic\
      +                          sources\c99\common\doprnt.c: 277:     long long n;;C:\Program Files (x86)\Microchip\xc8\
      +                          v2.10\pic\sources\c99\common\doprnt.c: 280:     n = d;
  1282  000FDA  C01E  F036         	movff	dtoa@d,dtoa@n
  1283  000FDE  C01F  F037         	movff	dtoa@d+1,dtoa@n+1
  1284  000FE2  C020  F038         	movff	dtoa@d+2,dtoa@n+2
  1285  000FE6  C021  F039         	movff	dtoa@d+3,dtoa@n+3
  1286  000FEA  C022  F03A         	movff	dtoa@d+4,dtoa@n+4
  1287  000FEE  C023  F03B         	movff	dtoa@d+5,dtoa@n+5
  1288  000FF2  C024  F03C         	movff	dtoa@d+6,dtoa@n+6
  1289  000FF6  C025  F03D         	movff	dtoa@d+7,dtoa@n+7
  1290  000FFA                     
  1291                           ;C:\Program Files (x86)\Microchip\xc8\v2.10\pic\sources\c99\common\doprnt.c: 281:     s 
      +                          = n < 0 ? 1 : 0;
  1292  000FFA  BE3D               	btfsc	(dtoa@n+7)^0,7,c
  1293  000FFC  EF02  F008         	goto	u1551
  1294  001000  EF05  F008         	goto	u1550
  1295  001004                     u1551:
  1296  001004  0E01               	movlw	1
  1297  001006  EF06  F008         	goto	u1560
  1298  00100A                     u1550:
  1299  00100A  0E00               	movlw	0
  1300  00100C                     u1560:
  1301  00100C  6E34               	movwf	dtoa@s^0,c
  1302  00100E  6A35               	clrf	(dtoa@s+1)^0,c
  1303                           
  1304                           ;C:\Program Files (x86)\Microchip\xc8\v2.10\pic\sources\c99\common\doprnt.c: 282:     if
      +                           (s) {
  1305  001010  5034               	movf	dtoa@s^0,w,c
  1306  001012  1035               	iorwf	(dtoa@s+1)^0,w,c
  1307  001014  B4D8               	btfsc	status,2,c
  1308  001016  EF0F  F008         	goto	u1571
  1309  00101A  EF11  F008         	goto	u1570
  1310  00101E                     u1571:
  1311  00101E  EF21  F008         	goto	l1933
  1312  001022                     u1570:
  1313  001022                     
  1314                           ;C:\Program Files (x86)\Microchip\xc8\v2.10\pic\sources\c99\common\doprnt.c: 283:       
      +                            n = -n;
  1315  001022  1E3D               	comf	(dtoa@n+7)^0,f,c
  1316  001024  1E3C               	comf	(dtoa@n+6)^0,f,c
  1317  001026  1E3B               	comf	(dtoa@n+5)^0,f,c
  1318  001028  1E3A               	comf	(dtoa@n+4)^0,f,c
  1319  00102A  1E39               	comf	(dtoa@n+3)^0,f,c
  1320  00102C  1E38               	comf	(dtoa@n+2)^0,f,c
  1321  00102E  1E37               	comf	(dtoa@n+1)^0,f,c
  1322  001030  6C36               	negf	dtoa@n^0,c
  1323  001032  0E00               	movlw	0
  1324  001034  2237               	addwfc	(dtoa@n+1)^0,f,c
  1325  001036  2238               	addwfc	(dtoa@n+2)^0,f,c
  1326  001038  2239               	addwfc	(dtoa@n+3)^0,f,c
  1327  00103A  223A               	addwfc	(dtoa@n+4)^0,f,c
  1328  00103C  223B               	addwfc	(dtoa@n+5)^0,f,c
  1329  00103E  223C               	addwfc	(dtoa@n+6)^0,f,c
  1330  001040  223D               	addwfc	(dtoa@n+7)^0,f,c
  1331  001042                     l1933:
  1332                           
  1333                           ;C:\Program Files (x86)\Microchip\xc8\v2.10\pic\sources\c99\common\doprnt.c: 287:     if
      +                           (!(prec < 0)) {
  1334  001042  0100               	movlb	0	; () banked
  1335  001044  BF65               	btfsc	(_prec+1)& (0+255),7,b
  1336  001046  EF27  F008         	goto	u1581
  1337  00104A  EF29  F008         	goto	u1580
  1338  00104E                     u1581:
  1339  00104E  EF2A  F008         	goto	l1937
  1340  001052                     u1580:
  1341  001052                     
  1342                           ; BSR set to: 0
  1343                           ;C:\Program Files (x86)\Microchip\xc8\v2.10\pic\sources\c99\common\doprnt.c: 288:       
      +                            flags &= ~(1 << 1);
  1344  001052  9366               	bcf	_flags& (0+255),1,b
  1345  001054                     l1937:
  1346                           
  1347                           ; BSR set to: 0
  1348                           ;C:\Program Files (x86)\Microchip\xc8\v2.10\pic\sources\c99\common\doprnt.c: 290:     p 
      +                          = (0 < prec) ? prec : 1;
  1349  001054  BF65               	btfsc	(_prec+1)& (0+255),7,b
  1350  001056  EF37  F008         	goto	u1590
  1351  00105A  5165               	movf	(_prec+1)& (0+255),w,b
  1352  00105C  E106               	bnz	u1591
  1353  00105E  0564               	decf	_prec& (0+255),w,b
  1354  001060  B0D8               	btfsc	status,0,c
  1355  001062  EF35  F008         	goto	u1591
  1356  001066  EF37  F008         	goto	u1590
  1357  00106A                     u1591:
  1358  00106A  EF3D  F008         	goto	l196
  1359  00106E                     u1590:
  1360  00106E                     
  1361                           ; BSR set to: 0
  1362  00106E  0E00               	movlw	0
  1363  001070  6E31               	movwf	(dtoa@p+1)^0,c
  1364  001072  0E01               	movlw	1
  1365  001074  6E30               	movwf	dtoa@p^0,c
  1366  001076  EF41  F008         	goto	l198
  1367  00107A                     l196:
  1368                           
  1369                           ; BSR set to: 0
  1370  00107A  C064  F030         	movff	_prec,dtoa@p
  1371  00107E  C065  F031         	movff	_prec+1,dtoa@p+1
  1372  001082                     l198:
  1373                           
  1374                           ; BSR set to: 0
  1375                           ;C:\Program Files (x86)\Microchip\xc8\v2.10\pic\sources\c99\common\doprnt.c: 291:     w 
      +                          = width;
  1376  001082  C062  F032         	movff	_width,dtoa@w
  1377  001086  C063  F033         	movff	_width+1,dtoa@w+1
  1378  00108A                     
  1379                           ; BSR set to: 0
  1380                           ;C:\Program Files (x86)\Microchip\xc8\v2.10\pic\sources\c99\common\doprnt.c: 292:     if
      +                           (s || (flags & (1 << 2))) {
  1381  00108A  5034               	movf	dtoa@s^0,w,c
  1382  00108C  1035               	iorwf	(dtoa@s+1)^0,w,c
  1383  00108E  A4D8               	btfss	status,2,c
  1384  001090  EF4C  F008         	goto	u1601
  1385  001094  EF4E  F008         	goto	u1600
  1386  001098                     u1601:
  1387  001098  EF55  F008         	goto	l1945
  1388  00109C                     u1600:
  1389  00109C                     
  1390                           ; BSR set to: 0
  1391  00109C  A566               	btfss	_flags& (0+255),2,b
  1392  00109E  EF53  F008         	goto	u1611
  1393  0010A2  EF55  F008         	goto	u1610
  1394  0010A6                     u1611:
  1395  0010A6  EF58  F008         	goto	l1947
  1396  0010AA                     u1610:
  1397  0010AA                     l1945:
  1398                           
  1399                           ; BSR set to: 0
  1400                           ;C:\Program Files (x86)\Microchip\xc8\v2.10\pic\sources\c99\common\doprnt.c: 293:       
      +                            --w;
  1401  0010AA  0632               	decf	dtoa@w^0,f,c
  1402  0010AC  A0D8               	btfss	status,0,c
  1403  0010AE  0633               	decf	(dtoa@w+1)^0,f,c
  1404  0010B0                     l1947:
  1405                           
  1406                           ; BSR set to: 0
  1407                           ;C:\Program Files (x86)\Microchip\xc8\v2.10\pic\sources\c99\common\doprnt.c: 297:     i 
      +                          = sizeof(dbuf) - 1;
  1408  0010B0  0E00               	movlw	0
  1409  0010B2  6E3F               	movwf	(dtoa@i+1)^0,c
  1410  0010B4  0E1F               	movlw	31
  1411  0010B6  6E3E               	movwf	dtoa@i^0,c
  1412  0010B8                     
  1413                           ; BSR set to: 0
  1414                           ;C:\Program Files (x86)\Microchip\xc8\v2.10\pic\sources\c99\common\doprnt.c: 298:     db
      +                          uf[i] = '\0';
  1415  0010B8  0E00               	movlw	0
  1416  0010BA  6FB9               	movwf	(_dbuf+31)& (0+255),b
  1417                           
  1418                           ;C:\Program Files (x86)\Microchip\xc8\v2.10\pic\sources\c99\common\doprnt.c: 299:     wh
      +                          ile (!(i < 1) && (n || (0 < p) || ((0 < w) && (flags & (1 << 1))))) {
  1419  0010BC  EFDC  F008         	goto	l1961
  1420  0010C0                     l1951:
  1421                           
  1422                           ;C:\Program Files (x86)\Microchip\xc8\v2.10\pic\sources\c99\common\doprnt.c: 300:       
      +                            --i;
  1423  0010C0  063E               	decf	dtoa@i^0,f,c
  1424  0010C2  A0D8               	btfss	status,0,c
  1425  0010C4  063F               	decf	(dtoa@i+1)^0,f,c
  1426  0010C6                     
  1427                           ;C:\Program Files (x86)\Microchip\xc8\v2.10\pic\sources\c99\common\doprnt.c: 301:       
      +                            dbuf[i] = '0' + abs(n % 10);
  1428  0010C6  0E9A               	movlw	low _dbuf
  1429  0010C8  243E               	addwf	dtoa@i^0,w,c
  1430  0010CA  6ED9               	movwf	fsr2l,c
  1431  0010CC  0E00               	movlw	high _dbuf
  1432  0010CE  203F               	addwfc	(dtoa@i+1)^0,w,c
  1433  0010D0  6EDA               	movwf	fsr2h,c
  1434  0010D2  C036  F001         	movff	dtoa@n,___aomod@dividend
  1435  0010D6  C037  F002         	movff	dtoa@n+1,___aomod@dividend+1
  1436  0010DA  C038  F003         	movff	dtoa@n+2,___aomod@dividend+2
  1437  0010DE  C039  F004         	movff	dtoa@n+3,___aomod@dividend+3
  1438  0010E2  C03A  F005         	movff	dtoa@n+4,___aomod@dividend+4
  1439  0010E6  C03B  F006         	movff	dtoa@n+5,___aomod@dividend+5
  1440  0010EA  C03C  F007         	movff	dtoa@n+6,___aomod@dividend+6
  1441  0010EE  C03D  F008         	movff	dtoa@n+7,___aomod@dividend+7
  1442  0010F2  0E0A               	movlw	10
  1443  0010F4  6E09               	movwf	___aomod@divisor^0,c
  1444  0010F6  0E00               	movlw	0
  1445  0010F8  6E0A               	movwf	(___aomod@divisor+1)^0,c
  1446  0010FA  0E00               	movlw	0
  1447  0010FC  6E0B               	movwf	(___aomod@divisor+2)^0,c
  1448  0010FE  0E00               	movlw	0
  1449  001100  6E0C               	movwf	(___aomod@divisor+3)^0,c
  1450  001102  0E00               	movlw	0
  1451  001104  6E0D               	movwf	(___aomod@divisor+4)^0,c
  1452  001106  0E00               	movlw	0
  1453  001108  6E0E               	movwf	(___aomod@divisor+5)^0,c
  1454  00110A  0E00               	movlw	0
  1455  00110C  6E0F               	movwf	(___aomod@divisor+6)^0,c
  1456  00110E  0E00               	movlw	0
  1457  001110  6E10               	movwf	(___aomod@divisor+7)^0,c
  1458  001112  ECB0  F00C         	call	___aomod	;wreg free
  1459  001116  C001  F026         	movff	?___aomod,??_dtoa
  1460  00111A  C002  F027         	movff	?___aomod+1,??_dtoa+1
  1461  00111E  C003  F028         	movff	?___aomod+2,??_dtoa+2
  1462  001122  C004  F029         	movff	?___aomod+3,??_dtoa+3
  1463  001126  C005  F02A         	movff	?___aomod+4,??_dtoa+4
  1464  00112A  C006  F02B         	movff	?___aomod+5,??_dtoa+5
  1465  00112E  C007  F02C         	movff	?___aomod+6,??_dtoa+6
  1466  001132  C008  F02D         	movff	?___aomod+7,??_dtoa+7
  1467  001136  C026  F013         	movff	??_dtoa,abs@a
  1468  00113A  C028  F014         	movff	??_dtoa+2,abs@a+1
  1469  00113E  ECA4  F011         	call	_abs	;wreg free
  1470  001142  5013               	movf	?_abs^0,w,c
  1471  001144  0F30               	addlw	48
  1472  001146  6EDF               	movwf	indf2,c
  1473  001148                     
  1474                           ;C:\Program Files (x86)\Microchip\xc8\v2.10\pic\sources\c99\common\doprnt.c: 302:       
      +                            --p;
  1475  001148  0630               	decf	dtoa@p^0,f,c
  1476  00114A  A0D8               	btfss	status,0,c
  1477  00114C  0631               	decf	(dtoa@p+1)^0,f,c
  1478  00114E                     
  1479                           ;C:\Program Files (x86)\Microchip\xc8\v2.10\pic\sources\c99\common\doprnt.c: 303:       
      +                            --w;
  1480  00114E  0632               	decf	dtoa@w^0,f,c
  1481  001150  A0D8               	btfss	status,0,c
  1482  001152  0633               	decf	(dtoa@w+1)^0,f,c
  1483  001154                     
  1484                           ;C:\Program Files (x86)\Microchip\xc8\v2.10\pic\sources\c99\common\doprnt.c: 304:       
      +                            n = n / 10;
  1485  001154  C036  F001         	movff	dtoa@n,___aodiv@dividend
  1486  001158  C037  F002         	movff	dtoa@n+1,___aodiv@dividend+1
  1487  00115C  C038  F003         	movff	dtoa@n+2,___aodiv@dividend+2
  1488  001160  C039  F004         	movff	dtoa@n+3,___aodiv@dividend+3
  1489  001164  C03A  F005         	movff	dtoa@n+4,___aodiv@dividend+4
  1490  001168  C03B  F006         	movff	dtoa@n+5,___aodiv@dividend+5
  1491  00116C  C03C  F007         	movff	dtoa@n+6,___aodiv@dividend+6
  1492  001170  C03D  F008         	movff	dtoa@n+7,___aodiv@dividend+7
  1493  001174  0E0A               	movlw	10
  1494  001176  6E09               	movwf	___aodiv@divisor^0,c
  1495  001178  0E00               	movlw	0
  1496  00117A  6E0A               	movwf	(___aodiv@divisor+1)^0,c
  1497  00117C  0E00               	movlw	0
  1498  00117E  6E0B               	movwf	(___aodiv@divisor+2)^0,c
  1499  001180  0E00               	movlw	0
  1500  001182  6E0C               	movwf	(___aodiv@divisor+3)^0,c
  1501  001184  0E00               	movlw	0
  1502  001186  6E0D               	movwf	(___aodiv@divisor+4)^0,c
  1503  001188  0E00               	movlw	0
  1504  00118A  6E0E               	movwf	(___aodiv@divisor+5)^0,c
  1505  00118C  0E00               	movlw	0
  1506  00118E  6E0F               	movwf	(___aodiv@divisor+6)^0,c
  1507  001190  0E00               	movlw	0
  1508  001192  6E10               	movwf	(___aodiv@divisor+7)^0,c
  1509  001194  ECEC  F00B         	call	___aodiv	;wreg free
  1510  001198  C001  F036         	movff	?___aodiv,dtoa@n
  1511  00119C  C002  F037         	movff	?___aodiv+1,dtoa@n+1
  1512  0011A0  C003  F038         	movff	?___aodiv+2,dtoa@n+2
  1513  0011A4  C004  F039         	movff	?___aodiv+3,dtoa@n+3
  1514  0011A8  C005  F03A         	movff	?___aodiv+4,dtoa@n+4
  1515  0011AC  C006  F03B         	movff	?___aodiv+5,dtoa@n+5
  1516  0011B0  C007  F03C         	movff	?___aodiv+6,dtoa@n+6
  1517  0011B4  C008  F03D         	movff	?___aodiv+7,dtoa@n+7
  1518  0011B8                     l1961:
  1519                           
  1520                           ;C:\Program Files (x86)\Microchip\xc8\v2.10\pic\sources\c99\common\doprnt.c: 299:     wh
      +                          ile (!(i < 1) && (n || (0 < p) || ((0 < w) && (flags & (1 << 1))))) {
  1521  0011B8  BE3F               	btfsc	(dtoa@i+1)^0,7,c
  1522  0011BA  EFE7  F008         	goto	u1621
  1523  0011BE  503F               	movf	(dtoa@i+1)^0,w,c
  1524  0011C0  E108               	bnz	u1620
  1525  0011C2  043E               	decf	dtoa@i^0,w,c
  1526  0011C4  A0D8               	btfss	status,0,c
  1527  0011C6  EFE7  F008         	goto	u1621
  1528  0011CA  EFE9  F008         	goto	u1620
  1529  0011CE                     u1621:
  1530  0011CE  EF1A  F009         	goto	l1971
  1531  0011D2                     u1620:
  1532  0011D2  5036               	movf	dtoa@n^0,w,c
  1533  0011D4  1037               	iorwf	(dtoa@n+1)^0,w,c
  1534  0011D6  1038               	iorwf	(dtoa@n+2)^0,w,c
  1535  0011D8  1039               	iorwf	(dtoa@n+3)^0,w,c
  1536  0011DA  103A               	iorwf	(dtoa@n+4)^0,w,c
  1537  0011DC  103B               	iorwf	(dtoa@n+5)^0,w,c
  1538  0011DE  103C               	iorwf	(dtoa@n+6)^0,w,c
  1539  0011E0  103D               	iorwf	(dtoa@n+7)^0,w,c
  1540  0011E2  A4D8               	btfss	status,2,c
  1541  0011E4  EFF6  F008         	goto	u1631
  1542  0011E8  EFF8  F008         	goto	u1630
  1543  0011EC                     u1631:
  1544  0011EC  EF60  F008         	goto	l1951
  1545  0011F0                     u1630:
  1546  0011F0  BE31               	btfsc	(dtoa@p+1)^0,7,c
  1547  0011F2  EF05  F009         	goto	u1640
  1548  0011F6  5031               	movf	(dtoa@p+1)^0,w,c
  1549  0011F8  E106               	bnz	u1641
  1550  0011FA  0430               	decf	dtoa@p^0,w,c
  1551  0011FC  B0D8               	btfsc	status,0,c
  1552  0011FE  EF03  F009         	goto	u1641
  1553  001202  EF05  F009         	goto	u1640
  1554  001206                     u1641:
  1555  001206  EF60  F008         	goto	l1951
  1556  00120A                     u1640:
  1557  00120A  BE33               	btfsc	(dtoa@w+1)^0,7,c
  1558  00120C  EF10  F009         	goto	u1651
  1559  001210  5033               	movf	(dtoa@w+1)^0,w,c
  1560  001212  E108               	bnz	u1650
  1561  001214  0432               	decf	dtoa@w^0,w,c
  1562  001216  A0D8               	btfss	status,0,c
  1563  001218  EF10  F009         	goto	u1651
  1564  00121C  EF12  F009         	goto	u1650
  1565  001220                     u1651:
  1566  001220  EF1A  F009         	goto	l1971
  1567  001224                     u1650:
  1568  001224  0100               	movlb	0	; () banked
  1569  001226  B366               	btfsc	_flags& (0+255),1,b
  1570  001228  EF18  F009         	goto	u1661
  1571  00122C  EF1A  F009         	goto	u1660
  1572  001230                     u1661:
  1573  001230  EF60  F008         	goto	l1951
  1574  001234                     u1660:
  1575  001234                     l1971:
  1576                           
  1577                           ;C:\Program Files (x86)\Microchip\xc8\v2.10\pic\sources\c99\common\doprnt.c: 308:     if
      +                           (s || (flags & (1 << 2))) {
  1578  001234  5034               	movf	dtoa@s^0,w,c
  1579  001236  1035               	iorwf	(dtoa@s+1)^0,w,c
  1580  001238  A4D8               	btfss	status,2,c
  1581  00123A  EF21  F009         	goto	u1671
  1582  00123E  EF23  F009         	goto	u1670
  1583  001242                     u1671:
  1584  001242  EF2B  F009         	goto	l1975
  1585  001246                     u1670:
  1586  001246  0100               	movlb	0	; () banked
  1587  001248  A566               	btfss	_flags& (0+255),2,b
  1588  00124A  EF29  F009         	goto	u1681
  1589  00124E  EF2B  F009         	goto	u1680
  1590  001252                     u1681:
  1591  001252  EF49  F009         	goto	l1985
  1592  001256                     u1680:
  1593  001256                     l1975:
  1594                           
  1595                           ;C:\Program Files (x86)\Microchip\xc8\v2.10\pic\sources\c99\common\doprnt.c: 309:       
      +                            --i;
  1596  001256  063E               	decf	dtoa@i^0,f,c
  1597  001258  A0D8               	btfss	status,0,c
  1598  00125A  063F               	decf	(dtoa@i+1)^0,f,c
  1599  00125C                     
  1600                           ;C:\Program Files (x86)\Microchip\xc8\v2.10\pic\sources\c99\common\doprnt.c: 310:       
      +                            dbuf[i] = s ? '-' : '+';
  1601  00125C  5034               	movf	dtoa@s^0,w,c
  1602  00125E  1035               	iorwf	(dtoa@s+1)^0,w,c
  1603  001260  A4D8               	btfss	status,2,c
  1604  001262  EF35  F009         	goto	u1691
  1605  001266  EF37  F009         	goto	u1690
  1606  00126A                     u1691:
  1607  00126A  EF3D  F009         	goto	l1981
  1608  00126E                     u1690:
  1609  00126E  0E00               	movlw	0
  1610  001270  6E2F               	movwf	(_dtoa$328+1)^0,c
  1611  001272  0E2B               	movlw	43
  1612  001274  6E2E               	movwf	_dtoa$328^0,c
  1613  001276  EF41  F009         	goto	l1983
  1614  00127A                     l1981:
  1615  00127A  0E00               	movlw	0
  1616  00127C  6E2F               	movwf	(_dtoa$328+1)^0,c
  1617  00127E  0E2D               	movlw	45
  1618  001280  6E2E               	movwf	_dtoa$328^0,c
  1619  001282                     l1983:
  1620  001282  0E9A               	movlw	low _dbuf
  1621  001284  243E               	addwf	dtoa@i^0,w,c
  1622  001286  6ED9               	movwf	fsr2l,c
  1623  001288  0E00               	movlw	high _dbuf
  1624  00128A  203F               	addwfc	(dtoa@i+1)^0,w,c
  1625  00128C  6EDA               	movwf	fsr2h,c
  1626  00128E  C02E  FFDF         	movff	_dtoa$328,indf2
  1627  001292                     l1985:
  1628                           
  1629                           ;C:\Program Files (x86)\Microchip\xc8\v2.10\pic\sources\c99\common\doprnt.c: 314:     re
      +                          turn pad(fp, &dbuf[i], w);
  1630  001292  C01C  F011         	movff	dtoa@fp,pad@fp
  1631  001296  C01D  F012         	movff	dtoa@fp+1,pad@fp+1
  1632  00129A  0E9A               	movlw	low _dbuf
  1633  00129C  243E               	addwf	dtoa@i^0,w,c
  1634  00129E  6E13               	movwf	pad@buf^0,c
  1635  0012A0  0E00               	movlw	high _dbuf
  1636  0012A2  203F               	addwfc	(dtoa@i+1)^0,w,c
  1637  0012A4  6E14               	movwf	(pad@buf+1)^0,c
  1638  0012A6  C032  F015         	movff	dtoa@w,pad@p
  1639  0012AA  C033  F016         	movff	dtoa@w+1,pad@p+1
  1640  0012AE  EC6C  F00F         	call	_pad	;wreg free
  1641  0012B2  C011  F01C         	movff	?_pad,?_dtoa
  1642  0012B6  C012  F01D         	movff	?_pad+1,?_dtoa+1
  1643  0012BA  0012               	return		;funcret
  1644  0012BC                     __end_of_dtoa:
  1645                           	opt callstack 0
  1646                           
  1647 ;; *************** function _pad *****************
  1648 ;; Defined at:
  1649 ;;		line 72 in file "C:\Program Files (x86)\Microchip\xc8\v2.10\pic\sources\c99\common\doprnt.c"
  1650 ;; Parameters:    Size  Location     Type
  1651 ;;  fp              2   16[COMRAM] PTR struct _IO_FILE
  1652 ;;		 -> sprintf@f(6), 
  1653 ;;  buf             2   18[COMRAM] PTR unsigned char 
  1654 ;;		 -> dbuf(32), 
  1655 ;;  p               2   20[COMRAM] int 
  1656 ;; Auto vars:     Size  Location     Type
  1657 ;;  w               2   25[COMRAM] int 
  1658 ;;  i               2   23[COMRAM] int 
  1659 ;; Return value:  Size  Location     Type
  1660 ;;                  2   16[COMRAM] int 
  1661 ;; Registers used:
  1662 ;;		wreg, fsr1l, fsr1h, fsr2l, fsr2h, status,2, status,0, cstack
  1663 ;; Tracked objects:
  1664 ;;		On entry : 0/0
  1665 ;;		On exit  : 0/0
  1666 ;;		Unchanged: 0/0
  1667 ;; Data sizes:     COMRAM   BANK0   BANK1   BANK2   BANK3   BANK4   BANK5   BANK6   BANK7
  1668 ;;      Params:         6       0       0       0       0       0       0       0       0
  1669 ;;      Locals:         4       0       0       0       0       0       0       0       0
  1670 ;;      Temps:          1       0       0       0       0       0       0       0       0
  1671 ;;      Totals:        11       0       0       0       0       0       0       0       0
  1672 ;;Total ram usage:       11 bytes
  1673 ;; Hardware stack levels used:    1
  1674 ;; Hardware stack levels required when called:    3
  1675 ;; This function calls:
  1676 ;;		_fputc
  1677 ;;		_fputs
  1678 ;;		_strlen
  1679 ;; This function is called by:
  1680 ;;		_dtoa
  1681 ;; This function uses a non-reentrant model
  1682 ;;
  1683                           
  1684                           	psect	text5
  1685  001ED8                     __ptext5:
  1686                           	opt callstack 0
  1687  001ED8                     _pad:
  1688                           	opt callstack 23
  1689  001ED8                     
  1690                           ;C:\Program Files (x86)\Microchip\xc8\v2.10\pic\sources\c99\common\doprnt.c: 72: static 
      +                          int pad(FILE *fp, char *buf, int p);C:\Program Files (x86)\Microchip\xc8\v2.10\pic\sourc
      +                          es\c99\common\doprnt.c: 73: {;C:\Program Files (x86)\Microchip\xc8\v2.10\pic\sources\c99
      +                          \common\doprnt.c: 74:     int i, w;;C:\Program Files (x86)\Microchip\xc8\v2.10\pic\sourc
      +                          es\c99\common\doprnt.c: 77:     if (flags & (1 << 0)) {
  1691  001ED8  0100               	movlb	0	; () banked
  1692  001EDA  A166               	btfss	_flags& (0+255),0,b
  1693  001EDC  EF72  F00F         	goto	u1371
  1694  001EE0  EF74  F00F         	goto	u1370
  1695  001EE4                     u1371:
  1696  001EE4  EF7E  F00F         	goto	l1825
  1697  001EE8                     u1370:
  1698  001EE8                     
  1699                           ; BSR set to: 0
  1700                           ;C:\Program Files (x86)\Microchip\xc8\v2.10\pic\sources\c99\common\doprnt.c: 78:        
      +                           fputs((const char *)buf, fp);
  1701  001EE8  C013  F00A         	movff	pad@buf,fputs@s
  1702  001EEC  C014  F00B         	movff	pad@buf+1,fputs@s+1
  1703  001EF0  C011  F00C         	movff	pad@fp,fputs@fp
  1704  001EF4  C012  F00D         	movff	pad@fp+1,fputs@fp+1
  1705  001EF8  EC82  F011         	call	_fputs	;wreg free
  1706  001EFC                     l1825:
  1707                           
  1708                           ;C:\Program Files (x86)\Microchip\xc8\v2.10\pic\sources\c99\common\doprnt.c: 82:     w =
      +                           (p < 0) ? 0 : p;
  1709  001EFC  BE16               	btfsc	(pad@p+1)^0,7,c
  1710  001EFE  EF83  F00F         	goto	u1381
  1711  001F02  EF85  F00F         	goto	u1380
  1712  001F06                     u1381:
  1713  001F06  EF8B  F00F         	goto	l1829
  1714  001F0A                     u1380:
  1715  001F0A  C015  F01A         	movff	pad@p,pad@w
  1716  001F0E  C016  F01B         	movff	pad@p+1,pad@w+1
  1717  001F12  EF8F  F00F         	goto	l185
  1718  001F16                     l1829:
  1719  001F16  0E00               	movlw	0
  1720  001F18  6E1B               	movwf	(pad@w+1)^0,c
  1721  001F1A  0E00               	movlw	0
  1722  001F1C  6E1A               	movwf	pad@w^0,c
  1723  001F1E                     l185:
  1724                           
  1725                           ;C:\Program Files (x86)\Microchip\xc8\v2.10\pic\sources\c99\common\doprnt.c: 83:     i =
      +                           0;
  1726  001F1E  0E00               	movlw	0
  1727  001F20  6E19               	movwf	(pad@i+1)^0,c
  1728  001F22  0E00               	movlw	0
  1729  001F24  6E18               	movwf	pad@i^0,c
  1730                           
  1731                           ;C:\Program Files (x86)\Microchip\xc8\v2.10\pic\sources\c99\common\doprnt.c: 84:     whi
      +                          le (i < w) {
  1732  001F26  EFA1  F00F         	goto	l1835
  1733  001F2A                     l1831:
  1734                           
  1735                           ;C:\Program Files (x86)\Microchip\xc8\v2.10\pic\sources\c99\common\doprnt.c: 85:        
      +                           fputc(' ', fp);
  1736  001F2A  0E00               	movlw	0
  1737  001F2C  6E02               	movwf	(fputc@c+1)^0,c
  1738  001F2E  0E20               	movlw	32
  1739  001F30  6E01               	movwf	fputc@c^0,c
  1740  001F32  C011  F003         	movff	pad@fp,fputc@fp
  1741  001F36  C012  F004         	movff	pad@fp+1,fputc@fp+1
  1742  001F3A  EC07  F00F         	call	_fputc	;wreg free
  1743  001F3E                     
  1744                           ;C:\Program Files (x86)\Microchip\xc8\v2.10\pic\sources\c99\common\doprnt.c: 86:        
      +                           ++i;
  1745  001F3E  4A18               	infsnz	pad@i^0,f,c
  1746  001F40  2A19               	incf	(pad@i+1)^0,f,c
  1747  001F42                     l1835:
  1748                           
  1749                           ;C:\Program Files (x86)\Microchip\xc8\v2.10\pic\sources\c99\common\doprnt.c: 84:     whi
      +                          le (i < w) {
  1750  001F42  501A               	movf	pad@w^0,w,c
  1751  001F44  5C18               	subwf	pad@i^0,w,c
  1752  001F46  5019               	movf	(pad@i+1)^0,w,c
  1753  001F48  0A80               	xorlw	128
  1754  001F4A  6E17               	movwf	??_pad^0,c
  1755  001F4C  501B               	movf	(pad@w+1)^0,w,c
  1756  001F4E  0A80               	xorlw	128
  1757  001F50  5817               	subwfb	??_pad^0,w,c
  1758  001F52  A0D8               	btfss	status,0,c
  1759  001F54  EFAE  F00F         	goto	u1391
  1760  001F58  EFB0  F00F         	goto	u1390
  1761  001F5C                     u1391:
  1762  001F5C  EF95  F00F         	goto	l1831
  1763  001F60                     u1390:
  1764  001F60                     
  1765                           ;C:\Program Files (x86)\Microchip\xc8\v2.10\pic\sources\c99\common\doprnt.c: 90:     if 
      +                          (!(flags & (1 << 0))) {
  1766  001F60  0100               	movlb	0	; () banked
  1767  001F62  B166               	btfsc	_flags& (0+255),0,b
  1768  001F64  EFB6  F00F         	goto	u1401
  1769  001F68  EFB8  F00F         	goto	u1400
  1770  001F6C                     u1401:
  1771  001F6C  EFC2  F00F         	goto	l1839
  1772  001F70                     u1400:
  1773  001F70                     
  1774                           ; BSR set to: 0
  1775                           ;C:\Program Files (x86)\Microchip\xc8\v2.10\pic\sources\c99\common\doprnt.c: 91:        
      +                           fputs((const char *)buf, fp);
  1776  001F70  C013  F00A         	movff	pad@buf,fputs@s
  1777  001F74  C014  F00B         	movff	pad@buf+1,fputs@s+1
  1778  001F78  C011  F00C         	movff	pad@fp,fputs@fp
  1779  001F7C  C012  F00D         	movff	pad@fp+1,fputs@fp+1
  1780  001F80  EC82  F011         	call	_fputs	;wreg free
  1781  001F84                     l1839:
  1782                           
  1783                           ;C:\Program Files (x86)\Microchip\xc8\v2.10\pic\sources\c99\common\doprnt.c: 94:     ret
      +                          urn strlen(buf) + w;
  1784  001F84  C013  F001         	movff	pad@buf,strlen@s
  1785  001F88  C014  F002         	movff	pad@buf+1,strlen@s+1
  1786  001F8C  ECC4  F011         	call	_strlen	;wreg free
  1787  001F90  501A               	movf	pad@w^0,w,c
  1788  001F92  2401               	addwf	?_strlen^0,w,c
  1789  001F94  6E11               	movwf	?_pad^0,c
  1790  001F96  501B               	movf	(pad@w+1)^0,w,c
  1791  001F98  2002               	addwfc	(?_strlen+1)^0,w,c
  1792  001F9A  6E12               	movwf	(?_pad+1)^0,c
  1793  001F9C  0012               	return		;funcret
  1794  001F9E                     __end_of_pad:
  1795                           	opt callstack 0
  1796                           
  1797 ;; *************** function _strlen *****************
  1798 ;; Defined at:
  1799 ;;		line 5 in file "C:\Program Files (x86)\Microchip\xc8\v2.10\pic\sources\c99\common\strlen.c"
  1800 ;; Parameters:    Size  Location     Type
  1801 ;;  s               2    0[COMRAM] PTR const unsigned char 
  1802 ;;		 -> dbuf(32), 
  1803 ;; Auto vars:     Size  Location     Type
  1804 ;;  a               2    2[COMRAM] PTR const unsigned char 
  1805 ;;		 -> dbuf(32), 
  1806 ;; Return value:  Size  Location     Type
  1807 ;;                  2    0[COMRAM] unsigned int 
  1808 ;; Registers used:
  1809 ;;		wreg, fsr2l, fsr2h, status,2, status,0
  1810 ;; Tracked objects:
  1811 ;;		On entry : 0/0
  1812 ;;		On exit  : 0/0
  1813 ;;		Unchanged: 0/0
  1814 ;; Data sizes:     COMRAM   BANK0   BANK1   BANK2   BANK3   BANK4   BANK5   BANK6   BANK7
  1815 ;;      Params:         2       0       0       0       0       0       0       0       0
  1816 ;;      Locals:         2       0       0       0       0       0       0       0       0
  1817 ;;      Temps:          0       0       0       0       0       0       0       0       0
  1818 ;;      Totals:         4       0       0       0       0       0       0       0       0
  1819 ;;Total ram usage:        4 bytes
  1820 ;; Hardware stack levels used:    1
  1821 ;; This function calls:
  1822 ;;		Nothing
  1823 ;; This function is called by:
  1824 ;;		_pad
  1825 ;; This function uses a non-reentrant model
  1826 ;;
  1827                           
  1828                           	psect	text6
  1829  002388                     __ptext6:
  1830                           	opt callstack 0
  1831  002388                     _strlen:
  1832                           	opt callstack 25
  1833  002388  C001  F003         	movff	strlen@s,strlen@a
  1834  00238C  C002  F004         	movff	strlen@s+1,strlen@a+1
  1835  002390  EFCC  F011         	goto	l1815
  1836  002394                     l1813:
  1837  002394  4A01               	infsnz	strlen@s^0,f,c
  1838  002396  2A02               	incf	(strlen@s+1)^0,f,c
  1839  002398                     l1815:
  1840  002398  C001  FFD9         	movff	strlen@s,fsr2l
  1841  00239C  C002  FFDA         	movff	strlen@s+1,fsr2h
  1842  0023A0  50DF               	movf	indf2,w,c
  1843  0023A2  A4D8               	btfss	status,2,c
  1844  0023A4  EFD6  F011         	goto	u1361
  1845  0023A8  EFD8  F011         	goto	u1360
  1846  0023AC                     u1361:
  1847  0023AC  EFCA  F011         	goto	l1813
  1848  0023B0                     u1360:
  1849  0023B0  5003               	movf	strlen@a^0,w,c
  1850  0023B2  5C01               	subwf	strlen@s^0,w,c
  1851  0023B4  6E01               	movwf	?_strlen^0,c
  1852  0023B6  5004               	movf	(strlen@a+1)^0,w,c
  1853  0023B8  5802               	subwfb	(strlen@s+1)^0,w,c
  1854  0023BA  6E02               	movwf	(?_strlen+1)^0,c
  1855  0023BC  0012               	return		;funcret
  1856  0023BE                     __end_of_strlen:
  1857                           	opt callstack 0
  1858                           
  1859 ;; *************** function _fputs *****************
  1860 ;; Defined at:
  1861 ;;		line 8 in file "C:\Program Files (x86)\Microchip\xc8\v2.10\pic\sources\c99\common\nf_fputs.c"
  1862 ;; Parameters:    Size  Location     Type
  1863 ;;  s               2    9[COMRAM] PTR const unsigned char 
  1864 ;;		 -> dbuf(32), 
  1865 ;;  fp              2   11[COMRAM] PTR struct _IO_FILE
  1866 ;;		 -> sprintf@f(6), 
  1867 ;; Auto vars:     Size  Location     Type
  1868 ;;  i               2   14[COMRAM] int 
  1869 ;;  c               1   13[COMRAM] unsigned char 
  1870 ;; Return value:  Size  Location     Type
  1871 ;;                  2    9[COMRAM] int 
  1872 ;; Registers used:
  1873 ;;		wreg, fsr1l, fsr1h, fsr2l, fsr2h, status,2, status,0, cstack
  1874 ;; Tracked objects:
  1875 ;;		On entry : 0/0
  1876 ;;		On exit  : 0/0
  1877 ;;		Unchanged: 0/0
  1878 ;; Data sizes:     COMRAM   BANK0   BANK1   BANK2   BANK3   BANK4   BANK5   BANK6   BANK7
  1879 ;;      Params:         4       0       0       0       0       0       0       0       0
  1880 ;;      Locals:         3       0       0       0       0       0       0       0       0
  1881 ;;      Temps:          0       0       0       0       0       0       0       0       0
  1882 ;;      Totals:         7       0       0       0       0       0       0       0       0
  1883 ;;Total ram usage:        7 bytes
  1884 ;; Hardware stack levels used:    1
  1885 ;; Hardware stack levels required when called:    2
  1886 ;; This function calls:
  1887 ;;		_fputc
  1888 ;; This function is called by:
  1889 ;;		_pad
  1890 ;; This function uses a non-reentrant model
  1891 ;;
  1892                           
  1893                           	psect	text7
  1894  002304                     __ptext7:
  1895                           	opt callstack 0
  1896  002304                     _fputs:
  1897                           	opt callstack 23
  1898  002304  0E00               	movlw	0
  1899  002306  6E10               	movwf	(fputs@i+1)^0,c
  1900  002308  0E00               	movlw	0
  1901  00230A  6E0F               	movwf	fputs@i^0,c
  1902  00230C  EF93  F011         	goto	l1809
  1903  002310                     l1805:
  1904  002310  C00E  F001         	movff	fputs@c,fputc@c
  1905  002314  6A02               	clrf	(fputc@c+1)^0,c
  1906  002316  C00C  F003         	movff	fputs@fp,fputc@fp
  1907  00231A  C00D  F004         	movff	fputs@fp+1,fputc@fp+1
  1908  00231E  EC07  F00F         	call	_fputc	;wreg free
  1909  002322  4A0F               	infsnz	fputs@i^0,f,c
  1910  002324  2A10               	incf	(fputs@i+1)^0,f,c
  1911  002326                     l1809:
  1912  002326  500F               	movf	fputs@i^0,w,c
  1913  002328  240A               	addwf	fputs@s^0,w,c
  1914  00232A  6ED9               	movwf	fsr2l,c
  1915  00232C  5010               	movf	(fputs@i+1)^0,w,c
  1916  00232E  200B               	addwfc	(fputs@s+1)^0,w,c
  1917  002330  6EDA               	movwf	fsr2h,c
  1918  002332  50DF               	movf	indf2,w,c
  1919  002334  6E0E               	movwf	fputs@c^0,c
  1920  002336  500E               	movf	fputs@c^0,w,c
  1921  002338  A4D8               	btfss	status,2,c
  1922  00233A  EFA1  F011         	goto	u1351
  1923  00233E  EFA3  F011         	goto	u1350
  1924  002342                     u1351:
  1925  002342  EF88  F011         	goto	l1805
  1926  002346                     u1350:
  1927  002346  0012               	return		;funcret
  1928  002348                     __end_of_fputs:
  1929                           	opt callstack 0
  1930                           
  1931 ;; *************** function _fputc *****************
  1932 ;; Defined at:
  1933 ;;		line 8 in file "C:\Program Files (x86)\Microchip\xc8\v2.10\pic\sources\c99\common\nf_fputc.c"
  1934 ;; Parameters:    Size  Location     Type
  1935 ;;  c               2    0[COMRAM] int 
  1936 ;;  fp              2    2[COMRAM] PTR struct _IO_FILE
  1937 ;;		 -> sprintf@f(6), 
  1938 ;; Auto vars:     Size  Location     Type
  1939 ;;		None
  1940 ;; Return value:  Size  Location     Type
  1941 ;;                  2    0[COMRAM] int 
  1942 ;; Registers used:
  1943 ;;		wreg, fsr1l, fsr1h, fsr2l, fsr2h, status,2, status,0, cstack
  1944 ;; Tracked objects:
  1945 ;;		On entry : 0/0
  1946 ;;		On exit  : 0/0
  1947 ;;		Unchanged: 0/0
  1948 ;; Data sizes:     COMRAM   BANK0   BANK1   BANK2   BANK3   BANK4   BANK5   BANK6   BANK7
  1949 ;;      Params:         4       0       0       0       0       0       0       0       0
  1950 ;;      Locals:         0       0       0       0       0       0       0       0       0
  1951 ;;      Temps:          5       0       0       0       0       0       0       0       0
  1952 ;;      Totals:         9       0       0       0       0       0       0       0       0
  1953 ;;Total ram usage:        9 bytes
  1954 ;; Hardware stack levels used:    1
  1955 ;; Hardware stack levels required when called:    1
  1956 ;; This function calls:
  1957 ;;		_putch
  1958 ;; This function is called by:
  1959 ;;		_pad
  1960 ;;		_vfpfcnvrt
  1961 ;;		_fputs
  1962 ;; This function uses a non-reentrant model
  1963 ;;
  1964                           
  1965                           	psect	text8
  1966  001E0E                     __ptext8:
  1967                           	opt callstack 0
  1968  001E0E                     _fputc:
  1969                           	opt callstack 26
  1970  001E0E  5003               	movf	fputc@fp^0,w,c
  1971  001E10  1004               	iorwf	(fputc@fp+1)^0,w,c
  1972  001E12  B4D8               	btfsc	status,2,c
  1973  001E14  EF0E  F00F         	goto	u1311
  1974  001E18  EF10  F00F         	goto	u1310
  1975  001E1C                     u1311:
  1976  001E1C  EF19  F00F         	goto	l1793
  1977  001E20                     u1310:
  1978  001E20  5003               	movf	fputc@fp^0,w,c
  1979  001E22  1004               	iorwf	(fputc@fp+1)^0,w,c
  1980  001E24  A4D8               	btfss	status,2,c
  1981  001E26  EF17  F00F         	goto	u1321
  1982  001E2A  EF19  F00F         	goto	u1320
  1983  001E2E                     u1321:
  1984  001E2E  EF1E  F00F         	goto	l1795
  1985  001E32                     u1320:
  1986  001E32                     l1793:
  1987  001E32  5001               	movf	fputc@c^0,w,c
  1988  001E34  EC0D  F012         	call	_putch
  1989  001E38  EF6B  F00F         	goto	l923
  1990  001E3C                     l1795:
  1991  001E3C  EE20 F004          	lfsr	2,4
  1992  001E40  5003               	movf	fputc@fp^0,w,c
  1993  001E42  26D9               	addwf	fsr2l,f,c
  1994  001E44  5004               	movf	(fputc@fp+1)^0,w,c
  1995  001E46  22DA               	addwfc	fsr2h,f,c
  1996  001E48  50DE               	movf	postinc2,w,c
  1997  001E4A  10DE               	iorwf	postinc2,w,c
  1998  001E4C  B4D8               	btfsc	status,2,c
  1999  001E4E  EF2B  F00F         	goto	u1331
  2000  001E52  EF2D  F00F         	goto	u1330
  2001  001E56                     u1331:
  2002  001E56  EF48  F00F         	goto	l1799
  2003  001E5A                     u1330:
  2004  001E5A  EE20 F004          	lfsr	2,4
  2005  001E5E  5003               	movf	fputc@fp^0,w,c
  2006  001E60  26D9               	addwf	fsr2l,f,c
  2007  001E62  5004               	movf	(fputc@fp+1)^0,w,c
  2008  001E64  22DA               	addwfc	fsr2h,f,c
  2009  001E66  EE10 F002          	lfsr	1,2
  2010  001E6A  5003               	movf	fputc@fp^0,w,c
  2011  001E6C  26E1               	addwf	fsr1l,f,c
  2012  001E6E  5004               	movf	(fputc@fp+1)^0,w,c
  2013  001E70  22E2               	addwfc	fsr1h,f,c
  2014  001E72  50DE               	movf	postinc2,w,c
  2015  001E74  5CE6               	subwf	postinc1,w,c
  2016  001E76  50E6               	movf	postinc1,w,c
  2017  001E78  0A80               	xorlw	128
  2018  001E7A  6E09               	movwf	(??_fputc+4)^0,c
  2019  001E7C  50DE               	movf	postinc2,w,c
  2020  001E7E  0A80               	xorlw	128
  2021  001E80  5809               	subwfb	(??_fputc+4)^0,w,c
  2022  001E82  B0D8               	btfsc	status,0,c
  2023  001E84  EF46  F00F         	goto	u1341
  2024  001E88  EF48  F00F         	goto	u1340
  2025  001E8C                     u1341:
  2026  001E8C  EF6B  F00F         	goto	l923
  2027  001E90                     u1340:
  2028  001E90                     l1799:
  2029  001E90  EE20 F002          	lfsr	2,2
  2030  001E94  5003               	movf	fputc@fp^0,w,c
  2031  001E96  26D9               	addwf	fsr2l,f,c
  2032  001E98  5004               	movf	(fputc@fp+1)^0,w,c
  2033  001E9A  22DA               	addwfc	fsr2h,f,c
  2034  001E9C  CFDE F005          	movff	postinc2,??_fputc
  2035  001EA0  CFDD F006          	movff	postdec2,??_fputc+1
  2036  001EA4  C003  FFD9         	movff	fputc@fp,fsr2l
  2037  001EA8  C004  FFDA         	movff	fputc@fp+1,fsr2h
  2038  001EAC  CFDE F007          	movff	postinc2,??_fputc+2
  2039  001EB0  CFDD F008          	movff	postdec2,??_fputc+3
  2040  001EB4  5005               	movf	??_fputc^0,w,c
  2041  001EB6  2407               	addwf	(??_fputc+2)^0,w,c
  2042  001EB8  6ED9               	movwf	fsr2l,c
  2043  001EBA  5006               	movf	(??_fputc+1)^0,w,c
  2044  001EBC  2008               	addwfc	(??_fputc+3)^0,w,c
  2045  001EBE  6EDA               	movwf	fsr2h,c
  2046  001EC0  C001  FFDF         	movff	fputc@c,indf2
  2047  001EC4  EE20 F002          	lfsr	2,2
  2048  001EC8  5003               	movf	fputc@fp^0,w,c
  2049  001ECA  26D9               	addwf	fsr2l,f,c
  2050  001ECC  5004               	movf	(fputc@fp+1)^0,w,c
  2051  001ECE  22DA               	addwfc	fsr2h,f,c
  2052  001ED0  2ADE               	incf	postinc2,f,c
  2053  001ED2  0E00               	movlw	0
  2054  001ED4  22DD               	addwfc	postdec2,f,c
  2055  001ED6                     l923:
  2056  001ED6  0012               	return		;funcret
  2057  001ED8                     __end_of_fputc:
  2058                           	opt callstack 0
  2059                           
  2060 ;; *************** function _putch *****************
  2061 ;; Defined at:
  2062 ;;		line 7 in file "C:\Program Files (x86)\Microchip\xc8\v2.10\pic\sources\c99\common\putch.c"
  2063 ;; Parameters:    Size  Location     Type
  2064 ;;  c               1    wreg     unsigned char 
  2065 ;; Auto vars:     Size  Location     Type
  2066 ;;  c               1    0[COMRAM] unsigned char 
  2067 ;; Return value:  Size  Location     Type
  2068 ;;                  1    wreg      void 
  2069 ;; Registers used:
  2070 ;;		wreg
  2071 ;; Tracked objects:
  2072 ;;		On entry : 0/0
  2073 ;;		On exit  : 0/0
  2074 ;;		Unchanged: 0/0
  2075 ;; Data sizes:     COMRAM   BANK0   BANK1   BANK2   BANK3   BANK4   BANK5   BANK6   BANK7
  2076 ;;      Params:         0       0       0       0       0       0       0       0       0
  2077 ;;      Locals:         0       0       0       0       0       0       0       0       0
  2078 ;;      Temps:          0       0       0       0       0       0       0       0       0
  2079 ;;      Totals:         0       0       0       0       0       0       0       0       0
  2080 ;;Total ram usage:        0 bytes
  2081 ;; Hardware stack levels used:    1
  2082 ;; This function calls:
  2083 ;;		Nothing
  2084 ;; This function is called by:
  2085 ;;		_fputc
  2086 ;; This function uses a non-reentrant model
  2087 ;;
  2088                           
  2089                           	psect	text9
  2090  00241A                     __ptext9:
  2091                           	opt callstack 0
  2092  00241A                     _putch:
  2093                           	opt callstack 26
  2094  00241A  0012               	return		;funcret
  2095  00241C                     __end_of_putch:
  2096                           	opt callstack 0
  2097                           
  2098 ;; *************** function _abs *****************
  2099 ;; Defined at:
  2100 ;;		line 1 in file "C:\Program Files (x86)\Microchip\xc8\v2.10\pic\sources\c99\common\abs.c"
  2101 ;; Parameters:    Size  Location     Type
  2102 ;;  a               2   18[COMRAM] int 
  2103 ;; Auto vars:     Size  Location     Type
  2104 ;;		None
  2105 ;; Return value:  Size  Location     Type
  2106 ;;                  2   18[COMRAM] int 
  2107 ;; Registers used:
  2108 ;;		wreg, status,2, status,0
  2109 ;; Tracked objects:
  2110 ;;		On entry : 0/0
  2111 ;;		On exit  : 0/0
  2112 ;;		Unchanged: 0/0
  2113 ;; Data sizes:     COMRAM   BANK0   BANK1   BANK2   BANK3   BANK4   BANK5   BANK6   BANK7
  2114 ;;      Params:         2       0       0       0       0       0       0       0       0
  2115 ;;      Locals:         0       0       0       0       0       0       0       0       0
  2116 ;;      Temps:          2       0       0       0       0       0       0       0       0
  2117 ;;      Totals:         4       0       0       0       0       0       0       0       0
  2118 ;;Total ram usage:        4 bytes
  2119 ;; Hardware stack levels used:    1
  2120 ;; This function calls:
  2121 ;;		Nothing
  2122 ;; This function is called by:
  2123 ;;		_dtoa
  2124 ;; This function uses a non-reentrant model
  2125 ;;
  2126                           
  2127                           	psect	text10
  2128  002348                     __ptext10:
  2129                           	opt callstack 0
  2130  002348                     _abs:
  2131                           	opt callstack 26
  2132  002348  BE14               	btfsc	(abs@a+1)^0,7,c
  2133  00234A  EFB1  F011         	goto	u1410
  2134  00234E  5014               	movf	(abs@a+1)^0,w,c
  2135  002350  E106               	bnz	u1411
  2136  002352  0413               	decf	abs@a^0,w,c
  2137  002354  B0D8               	btfsc	status,0,c
  2138  002356  EFAF  F011         	goto	u1411
  2139  00235A  EFB1  F011         	goto	u1410
  2140  00235E                     u1411:
  2141  00235E  EFBF  F011         	goto	l908
  2142  002362                     u1410:
  2143  002362  C013  F015         	movff	abs@a,??_abs
  2144  002366  C014  F016         	movff	abs@a+1,??_abs+1
  2145  00236A  1E15               	comf	??_abs^0,f,c
  2146  00236C  1E16               	comf	(??_abs+1)^0,f,c
  2147  00236E  4A15               	infsnz	??_abs^0,f,c
  2148  002370  2A16               	incf	(??_abs+1)^0,f,c
  2149  002372  C015  F013         	movff	??_abs,?_abs
  2150  002376  C016  F014         	movff	??_abs+1,?_abs+1
  2151  00237A  EFC3  F011         	goto	l911
  2152  00237E                     l908:
  2153  00237E  C013  F013         	movff	abs@a,?_abs
  2154  002382  C014  F014         	movff	abs@a+1,?_abs+1
  2155  002386                     l911:
  2156  002386  0012               	return		;funcret
  2157  002388                     __end_of_abs:
  2158                           	opt callstack 0
  2159                           
  2160 ;; *************** function ___aomod *****************
  2161 ;; Defined at:
  2162 ;;		line 9 in file "C:\Program Files (x86)\Microchip\xc8\v2.10\pic\sources\c99\common\aomod.c"
  2163 ;; Parameters:    Size  Location     Type
  2164 ;;  dividend        8    0[COMRAM] long long 
  2165 ;;  divisor         8    8[COMRAM] long long 
  2166 ;; Auto vars:     Size  Location     Type
  2167 ;;  sign            1   17[COMRAM] unsigned char 
  2168 ;;  counter         1   16[COMRAM] unsigned char 
  2169 ;; Return value:  Size  Location     Type
  2170 ;;                  8    0[COMRAM] long long 
  2171 ;; Registers used:
  2172 ;;		wreg, status,2, status,0
  2173 ;; Tracked objects:
  2174 ;;		On entry : 0/0
  2175 ;;		On exit  : 0/0
  2176 ;;		Unchanged: 0/0
  2177 ;; Data sizes:     COMRAM   BANK0   BANK1   BANK2   BANK3   BANK4   BANK5   BANK6   BANK7
  2178 ;;      Params:        16       0       0       0       0       0       0       0       0
  2179 ;;      Locals:         2       0       0       0       0       0       0       0       0
  2180 ;;      Temps:          0       0       0       0       0       0       0       0       0
  2181 ;;      Totals:        18       0       0       0       0       0       0       0       0
  2182 ;;Total ram usage:       18 bytes
  2183 ;; Hardware stack levels used:    1
  2184 ;; This function calls:
  2185 ;;		Nothing
  2186 ;; This function is called by:
  2187 ;;		_dtoa
  2188 ;; This function uses a non-reentrant model
  2189 ;;
  2190                           
  2191                           	psect	text11
  2192  001960                     __ptext11:
  2193                           	opt callstack 0
  2194  001960                     ___aomod:
  2195                           	opt callstack 26
  2196  001960  0E00               	movlw	0
  2197  001962  6E12               	movwf	___aomod@sign^0,c
  2198  001964  BE08               	btfsc	(___aomod@dividend+7)^0,7,c
  2199  001966  EFB9  F00C         	goto	u1490
  2200  00196A  EFB7  F00C         	goto	u1491
  2201  00196E                     u1491:
  2202  00196E  EFCB  F00C         	goto	l1899
  2203  001972                     u1490:
  2204  001972  1E08               	comf	(___aomod@dividend+7)^0,f,c
  2205  001974  1E07               	comf	(___aomod@dividend+6)^0,f,c
  2206  001976  1E06               	comf	(___aomod@dividend+5)^0,f,c
  2207  001978  1E05               	comf	(___aomod@dividend+4)^0,f,c
  2208  00197A  1E04               	comf	(___aomod@dividend+3)^0,f,c
  2209  00197C  1E03               	comf	(___aomod@dividend+2)^0,f,c
  2210  00197E  1E02               	comf	(___aomod@dividend+1)^0,f,c
  2211  001980  6C01               	negf	___aomod@dividend^0,c
  2212  001982  0E00               	movlw	0
  2213  001984  2202               	addwfc	(___aomod@dividend+1)^0,f,c
  2214  001986  2203               	addwfc	(___aomod@dividend+2)^0,f,c
  2215  001988  2204               	addwfc	(___aomod@dividend+3)^0,f,c
  2216  00198A  2205               	addwfc	(___aomod@dividend+4)^0,f,c
  2217  00198C  2206               	addwfc	(___aomod@dividend+5)^0,f,c
  2218  00198E  2207               	addwfc	(___aomod@dividend+6)^0,f,c
  2219  001990  2208               	addwfc	(___aomod@dividend+7)^0,f,c
  2220  001992  0E01               	movlw	1
  2221  001994  6E12               	movwf	___aomod@sign^0,c
  2222  001996                     l1899:
  2223  001996  BE10               	btfsc	(___aomod@divisor+7)^0,7,c
  2224  001998  EFD2  F00C         	goto	u1500
  2225  00199C  EFD0  F00C         	goto	u1501
  2226  0019A0                     u1501:
  2227  0019A0  EFE2  F00C         	goto	l1903
  2228  0019A4                     u1500:
  2229  0019A4  1E10               	comf	(___aomod@divisor+7)^0,f,c
  2230  0019A6  1E0F               	comf	(___aomod@divisor+6)^0,f,c
  2231  0019A8  1E0E               	comf	(___aomod@divisor+5)^0,f,c
  2232  0019AA  1E0D               	comf	(___aomod@divisor+4)^0,f,c
  2233  0019AC  1E0C               	comf	(___aomod@divisor+3)^0,f,c
  2234  0019AE  1E0B               	comf	(___aomod@divisor+2)^0,f,c
  2235  0019B0  1E0A               	comf	(___aomod@divisor+1)^0,f,c
  2236  0019B2  6C09               	negf	___aomod@divisor^0,c
  2237  0019B4  0E00               	movlw	0
  2238  0019B6  220A               	addwfc	(___aomod@divisor+1)^0,f,c
  2239  0019B8  220B               	addwfc	(___aomod@divisor+2)^0,f,c
  2240  0019BA  220C               	addwfc	(___aomod@divisor+3)^0,f,c
  2241  0019BC  220D               	addwfc	(___aomod@divisor+4)^0,f,c
  2242  0019BE  220E               	addwfc	(___aomod@divisor+5)^0,f,c
  2243  0019C0  220F               	addwfc	(___aomod@divisor+6)^0,f,c
  2244  0019C2  2210               	addwfc	(___aomod@divisor+7)^0,f,c
  2245  0019C4                     l1903:
  2246  0019C4  5009               	movf	___aomod@divisor^0,w,c
  2247  0019C6  100A               	iorwf	(___aomod@divisor+1)^0,w,c
  2248  0019C8  100B               	iorwf	(___aomod@divisor+2)^0,w,c
  2249  0019CA  100C               	iorwf	(___aomod@divisor+3)^0,w,c
  2250  0019CC  100D               	iorwf	(___aomod@divisor+4)^0,w,c
  2251  0019CE  100E               	iorwf	(___aomod@divisor+5)^0,w,c
  2252  0019D0  100F               	iorwf	(___aomod@divisor+6)^0,w,c
  2253  0019D2  1010               	iorwf	(___aomod@divisor+7)^0,w,c
  2254  0019D4  B4D8               	btfsc	status,2,c
  2255  0019D6  EFEF  F00C         	goto	u1511
  2256  0019DA  EFF1  F00C         	goto	u1510
  2257  0019DE                     u1511:
  2258  0019DE  EF39  F00D         	goto	l1919
  2259  0019E2                     u1510:
  2260  0019E2  0E01               	movlw	1
  2261  0019E4  6E11               	movwf	___aomod@counter^0,c
  2262  0019E6  EFFF  F00C         	goto	l1909
  2263  0019EA                     l1907:
  2264  0019EA  90D8               	bcf	status,0,c
  2265  0019EC  3609               	rlcf	___aomod@divisor^0,f,c
  2266  0019EE  360A               	rlcf	(___aomod@divisor+1)^0,f,c
  2267  0019F0  360B               	rlcf	(___aomod@divisor+2)^0,f,c
  2268  0019F2  360C               	rlcf	(___aomod@divisor+3)^0,f,c
  2269  0019F4  360D               	rlcf	(___aomod@divisor+4)^0,f,c
  2270  0019F6  360E               	rlcf	(___aomod@divisor+5)^0,f,c
  2271  0019F8  360F               	rlcf	(___aomod@divisor+6)^0,f,c
  2272  0019FA  3610               	rlcf	(___aomod@divisor+7)^0,f,c
  2273  0019FC  2A11               	incf	___aomod@counter^0,f,c
  2274  0019FE                     l1909:
  2275  0019FE  AE10               	btfss	(___aomod@divisor+7)^0,7,c
  2276  001A00  EF04  F00D         	goto	u1521
  2277  001A04  EF06  F00D         	goto	u1520
  2278  001A08                     u1521:
  2279  001A08  EFF5  F00C         	goto	l1907
  2280  001A0C                     u1520:
  2281  001A0C                     l1911:
  2282  001A0C  5009               	movf	___aomod@divisor^0,w,c
  2283  001A0E  5C01               	subwf	___aomod@dividend^0,w,c
  2284  001A10  500A               	movf	(___aomod@divisor+1)^0,w,c
  2285  001A12  5802               	subwfb	(___aomod@dividend+1)^0,w,c
  2286  001A14  500B               	movf	(___aomod@divisor+2)^0,w,c
  2287  001A16  5803               	subwfb	(___aomod@dividend+2)^0,w,c
  2288  001A18  500C               	movf	(___aomod@divisor+3)^0,w,c
  2289  001A1A  5804               	subwfb	(___aomod@dividend+3)^0,w,c
  2290  001A1C  500D               	movf	(___aomod@divisor+4)^0,w,c
  2291  001A1E  5805               	subwfb	(___aomod@dividend+4)^0,w,c
  2292  001A20  500E               	movf	(___aomod@divisor+5)^0,w,c
  2293  001A22  5806               	subwfb	(___aomod@dividend+5)^0,w,c
  2294  001A24  500F               	movf	(___aomod@divisor+6)^0,w,c
  2295  001A26  5807               	subwfb	(___aomod@dividend+6)^0,w,c
  2296  001A28  5010               	movf	(___aomod@divisor+7)^0,w,c
  2297  001A2A  5808               	subwfb	(___aomod@dividend+7)^0,w,c
  2298  001A2C  A0D8               	btfss	status,0,c
  2299  001A2E  EF1B  F00D         	goto	u1531
  2300  001A32  EF1D  F00D         	goto	u1530
  2301  001A36                     u1531:
  2302  001A36  EF2D  F00D         	goto	l1915
  2303  001A3A                     u1530:
  2304  001A3A  5009               	movf	___aomod@divisor^0,w,c
  2305  001A3C  5E01               	subwf	___aomod@dividend^0,f,c
  2306  001A3E  500A               	movf	(___aomod@divisor+1)^0,w,c
  2307  001A40  5A02               	subwfb	(___aomod@dividend+1)^0,f,c
  2308  001A42  500B               	movf	(___aomod@divisor+2)^0,w,c
  2309  001A44  5A03               	subwfb	(___aomod@dividend+2)^0,f,c
  2310  001A46  500C               	movf	(___aomod@divisor+3)^0,w,c
  2311  001A48  5A04               	subwfb	(___aomod@dividend+3)^0,f,c
  2312  001A4A  500D               	movf	(___aomod@divisor+4)^0,w,c
  2313  001A4C  5A05               	subwfb	(___aomod@dividend+4)^0,f,c
  2314  001A4E  500E               	movf	(___aomod@divisor+5)^0,w,c
  2315  001A50  5A06               	subwfb	(___aomod@dividend+5)^0,f,c
  2316  001A52  500F               	movf	(___aomod@divisor+6)^0,w,c
  2317  001A54  5A07               	subwfb	(___aomod@dividend+6)^0,f,c
  2318  001A56  5010               	movf	(___aomod@divisor+7)^0,w,c
  2319  001A58  5A08               	subwfb	(___aomod@dividend+7)^0,f,c
  2320  001A5A                     l1915:
  2321  001A5A  90D8               	bcf	status,0,c
  2322  001A5C  3210               	rrcf	(___aomod@divisor+7)^0,f,c
  2323  001A5E  320F               	rrcf	(___aomod@divisor+6)^0,f,c
  2324  001A60  320E               	rrcf	(___aomod@divisor+5)^0,f,c
  2325  001A62  320D               	rrcf	(___aomod@divisor+4)^0,f,c
  2326  001A64  320C               	rrcf	(___aomod@divisor+3)^0,f,c
  2327  001A66  320B               	rrcf	(___aomod@divisor+2)^0,f,c
  2328  001A68  320A               	rrcf	(___aomod@divisor+1)^0,f,c
  2329  001A6A  3209               	rrcf	___aomod@divisor^0,f,c
  2330  001A6C  2E11               	decfsz	___aomod@counter^0,f,c
  2331  001A6E  EF06  F00D         	goto	l1911
  2332  001A72                     l1919:
  2333  001A72  5012               	movf	___aomod@sign^0,w,c
  2334  001A74  B4D8               	btfsc	status,2,c
  2335  001A76  EF3F  F00D         	goto	u1541
  2336  001A7A  EF41  F00D         	goto	u1540
  2337  001A7E                     u1541:
  2338  001A7E  EF51  F00D         	goto	l1923
  2339  001A82                     u1540:
  2340  001A82  1E08               	comf	(___aomod@dividend+7)^0,f,c
  2341  001A84  1E07               	comf	(___aomod@dividend+6)^0,f,c
  2342  001A86  1E06               	comf	(___aomod@dividend+5)^0,f,c
  2343  001A88  1E05               	comf	(___aomod@dividend+4)^0,f,c
  2344  001A8A  1E04               	comf	(___aomod@dividend+3)^0,f,c
  2345  001A8C  1E03               	comf	(___aomod@dividend+2)^0,f,c
  2346  001A8E  1E02               	comf	(___aomod@dividend+1)^0,f,c
  2347  001A90  6C01               	negf	___aomod@dividend^0,c
  2348  001A92  0E00               	movlw	0
  2349  001A94  2202               	addwfc	(___aomod@dividend+1)^0,f,c
  2350  001A96  2203               	addwfc	(___aomod@dividend+2)^0,f,c
  2351  001A98  2204               	addwfc	(___aomod@dividend+3)^0,f,c
  2352  001A9A  2205               	addwfc	(___aomod@dividend+4)^0,f,c
  2353  001A9C  2206               	addwfc	(___aomod@dividend+5)^0,f,c
  2354  001A9E  2207               	addwfc	(___aomod@dividend+6)^0,f,c
  2355  001AA0  2208               	addwfc	(___aomod@dividend+7)^0,f,c
  2356  001AA2                     l1923:
  2357  001AA2  C001  F001         	movff	___aomod@dividend,?___aomod
  2358  001AA6  C002  F002         	movff	___aomod@dividend+1,?___aomod+1
  2359  001AAA  C003  F003         	movff	___aomod@dividend+2,?___aomod+2
  2360  001AAE  C004  F004         	movff	___aomod@dividend+3,?___aomod+3
  2361  001AB2  C005  F005         	movff	___aomod@dividend+4,?___aomod+4
  2362  001AB6  C006  F006         	movff	___aomod@dividend+5,?___aomod+5
  2363  001ABA  C007  F007         	movff	___aomod@dividend+6,?___aomod+6
  2364  001ABE  C008  F008         	movff	___aomod@dividend+7,?___aomod+7
  2365  001AC2  0012               	return		;funcret
  2366  001AC4                     __end_of___aomod:
  2367                           	opt callstack 0
  2368                           
  2369 ;; *************** function ___aodiv *****************
  2370 ;; Defined at:
  2371 ;;		line 9 in file "C:\Program Files (x86)\Microchip\xc8\v2.10\pic\sources\c99\common\aodiv.c"
  2372 ;; Parameters:    Size  Location     Type
  2373 ;;  dividend        8    0[COMRAM] long long 
  2374 ;;  divisor         8    8[COMRAM] long long 
  2375 ;; Auto vars:     Size  Location     Type
  2376 ;;  quotient        8   18[COMRAM] long long 
  2377 ;;  sign            1   17[COMRAM] unsigned char 
  2378 ;;  counter         1   16[COMRAM] unsigned char 
  2379 ;; Return value:  Size  Location     Type
  2380 ;;                  8    0[COMRAM] long long 
  2381 ;; Registers used:
  2382 ;;		wreg, fsr2l, fsr2h, status,2, status,0
  2383 ;; Tracked objects:
  2384 ;;		On entry : 0/0
  2385 ;;		On exit  : 0/0
  2386 ;;		Unchanged: 0/0
  2387 ;; Data sizes:     COMRAM   BANK0   BANK1   BANK2   BANK3   BANK4   BANK5   BANK6   BANK7
  2388 ;;      Params:        16       0       0       0       0       0       0       0       0
  2389 ;;      Locals:        10       0       0       0       0       0       0       0       0
  2390 ;;      Temps:          0       0       0       0       0       0       0       0       0
  2391 ;;      Totals:        26       0       0       0       0       0       0       0       0
  2392 ;;Total ram usage:       26 bytes
  2393 ;; Hardware stack levels used:    1
  2394 ;; This function calls:
  2395 ;;		Nothing
  2396 ;; This function is called by:
  2397 ;;		_dtoa
  2398 ;; This function uses a non-reentrant model
  2399 ;;
  2400                           
  2401                           	psect	text12
  2402  0017D8                     __ptext12:
  2403                           	opt callstack 0
  2404  0017D8                     ___aodiv:
  2405                           	opt callstack 26
  2406  0017D8  0E00               	movlw	0
  2407  0017DA  6E12               	movwf	___aodiv@sign^0,c
  2408  0017DC  BE10               	btfsc	(___aodiv@divisor+7)^0,7,c
  2409  0017DE  EFF5  F00B         	goto	u1420
  2410  0017E2  EFF3  F00B         	goto	u1421
  2411  0017E6                     u1421:
  2412  0017E6  EF07  F00C         	goto	l1855
  2413  0017EA                     u1420:
  2414  0017EA  1E10               	comf	(___aodiv@divisor+7)^0,f,c
  2415  0017EC  1E0F               	comf	(___aodiv@divisor+6)^0,f,c
  2416  0017EE  1E0E               	comf	(___aodiv@divisor+5)^0,f,c
  2417  0017F0  1E0D               	comf	(___aodiv@divisor+4)^0,f,c
  2418  0017F2  1E0C               	comf	(___aodiv@divisor+3)^0,f,c
  2419  0017F4  1E0B               	comf	(___aodiv@divisor+2)^0,f,c
  2420  0017F6  1E0A               	comf	(___aodiv@divisor+1)^0,f,c
  2421  0017F8  6C09               	negf	___aodiv@divisor^0,c
  2422  0017FA  0E00               	movlw	0
  2423  0017FC  220A               	addwfc	(___aodiv@divisor+1)^0,f,c
  2424  0017FE  220B               	addwfc	(___aodiv@divisor+2)^0,f,c
  2425  001800  220C               	addwfc	(___aodiv@divisor+3)^0,f,c
  2426  001802  220D               	addwfc	(___aodiv@divisor+4)^0,f,c
  2427  001804  220E               	addwfc	(___aodiv@divisor+5)^0,f,c
  2428  001806  220F               	addwfc	(___aodiv@divisor+6)^0,f,c
  2429  001808  2210               	addwfc	(___aodiv@divisor+7)^0,f,c
  2430  00180A  0E01               	movlw	1
  2431  00180C  6E12               	movwf	___aodiv@sign^0,c
  2432  00180E                     l1855:
  2433  00180E  BE08               	btfsc	(___aodiv@dividend+7)^0,7,c
  2434  001810  EF0E  F00C         	goto	u1430
  2435  001814  EF0C  F00C         	goto	u1431
  2436  001818                     u1431:
  2437  001818  EF20  F00C         	goto	l1861
  2438  00181C                     u1430:
  2439  00181C  1E08               	comf	(___aodiv@dividend+7)^0,f,c
  2440  00181E  1E07               	comf	(___aodiv@dividend+6)^0,f,c
  2441  001820  1E06               	comf	(___aodiv@dividend+5)^0,f,c
  2442  001822  1E05               	comf	(___aodiv@dividend+4)^0,f,c
  2443  001824  1E04               	comf	(___aodiv@dividend+3)^0,f,c
  2444  001826  1E03               	comf	(___aodiv@dividend+2)^0,f,c
  2445  001828  1E02               	comf	(___aodiv@dividend+1)^0,f,c
  2446  00182A  6C01               	negf	___aodiv@dividend^0,c
  2447  00182C  0E00               	movlw	0
  2448  00182E  2202               	addwfc	(___aodiv@dividend+1)^0,f,c
  2449  001830  2203               	addwfc	(___aodiv@dividend+2)^0,f,c
  2450  001832  2204               	addwfc	(___aodiv@dividend+3)^0,f,c
  2451  001834  2205               	addwfc	(___aodiv@dividend+4)^0,f,c
  2452  001836  2206               	addwfc	(___aodiv@dividend+5)^0,f,c
  2453  001838  2207               	addwfc	(___aodiv@dividend+6)^0,f,c
  2454  00183A  2208               	addwfc	(___aodiv@dividend+7)^0,f,c
  2455  00183C  0E01               	movlw	1
  2456  00183E  1A12               	xorwf	___aodiv@sign^0,f,c
  2457  001840                     l1861:
  2458  001840  EE20  F013         	lfsr	2,___aodiv@quotient
  2459  001844  0E07               	movlw	7
  2460  001846                     u1441:
  2461  001846  6ADE               	clrf	postinc2,c
  2462  001848  06E8               	decf	wreg,f,c
  2463  00184A  E2FD               	bc	u1441
  2464  00184C  5009               	movf	___aodiv@divisor^0,w,c
  2465  00184E  100A               	iorwf	(___aodiv@divisor+1)^0,w,c
  2466  001850  100B               	iorwf	(___aodiv@divisor+2)^0,w,c
  2467  001852  100C               	iorwf	(___aodiv@divisor+3)^0,w,c
  2468  001854  100D               	iorwf	(___aodiv@divisor+4)^0,w,c
  2469  001856  100E               	iorwf	(___aodiv@divisor+5)^0,w,c
  2470  001858  100F               	iorwf	(___aodiv@divisor+6)^0,w,c
  2471  00185A  1010               	iorwf	(___aodiv@divisor+7)^0,w,c
  2472  00185C  B4D8               	btfsc	status,2,c
  2473  00185E  EF33  F00C         	goto	u1451
  2474  001862  EF35  F00C         	goto	u1450
  2475  001866                     u1451:
  2476  001866  EF87  F00C         	goto	l1883
  2477  00186A                     u1450:
  2478  00186A  0E01               	movlw	1
  2479  00186C  6E11               	movwf	___aodiv@counter^0,c
  2480  00186E  EF43  F00C         	goto	l1869
  2481  001872                     l1867:
  2482  001872  90D8               	bcf	status,0,c
  2483  001874  3609               	rlcf	___aodiv@divisor^0,f,c
  2484  001876  360A               	rlcf	(___aodiv@divisor+1)^0,f,c
  2485  001878  360B               	rlcf	(___aodiv@divisor+2)^0,f,c
  2486  00187A  360C               	rlcf	(___aodiv@divisor+3)^0,f,c
  2487  00187C  360D               	rlcf	(___aodiv@divisor+4)^0,f,c
  2488  00187E  360E               	rlcf	(___aodiv@divisor+5)^0,f,c
  2489  001880  360F               	rlcf	(___aodiv@divisor+6)^0,f,c
  2490  001882  3610               	rlcf	(___aodiv@divisor+7)^0,f,c
  2491  001884  2A11               	incf	___aodiv@counter^0,f,c
  2492  001886                     l1869:
  2493  001886  AE10               	btfss	(___aodiv@divisor+7)^0,7,c
  2494  001888  EF48  F00C         	goto	u1461
  2495  00188C  EF4A  F00C         	goto	u1460
  2496  001890                     u1461:
  2497  001890  EF39  F00C         	goto	l1867
  2498  001894                     u1460:
  2499  001894                     l1871:
  2500  001894  90D8               	bcf	status,0,c
  2501  001896  3613               	rlcf	___aodiv@quotient^0,f,c
  2502  001898  3614               	rlcf	(___aodiv@quotient+1)^0,f,c
  2503  00189A  3615               	rlcf	(___aodiv@quotient+2)^0,f,c
  2504  00189C  3616               	rlcf	(___aodiv@quotient+3)^0,f,c
  2505  00189E  3617               	rlcf	(___aodiv@quotient+4)^0,f,c
  2506  0018A0  3618               	rlcf	(___aodiv@quotient+5)^0,f,c
  2507  0018A2  3619               	rlcf	(___aodiv@quotient+6)^0,f,c
  2508  0018A4  361A               	rlcf	(___aodiv@quotient+7)^0,f,c
  2509  0018A6  5009               	movf	___aodiv@divisor^0,w,c
  2510  0018A8  5C01               	subwf	___aodiv@dividend^0,w,c
  2511  0018AA  500A               	movf	(___aodiv@divisor+1)^0,w,c
  2512  0018AC  5802               	subwfb	(___aodiv@dividend+1)^0,w,c
  2513  0018AE  500B               	movf	(___aodiv@divisor+2)^0,w,c
  2514  0018B0  5803               	subwfb	(___aodiv@dividend+2)^0,w,c
  2515  0018B2  500C               	movf	(___aodiv@divisor+3)^0,w,c
  2516  0018B4  5804               	subwfb	(___aodiv@dividend+3)^0,w,c
  2517  0018B6  500D               	movf	(___aodiv@divisor+4)^0,w,c
  2518  0018B8  5805               	subwfb	(___aodiv@dividend+4)^0,w,c
  2519  0018BA  500E               	movf	(___aodiv@divisor+5)^0,w,c
  2520  0018BC  5806               	subwfb	(___aodiv@dividend+5)^0,w,c
  2521  0018BE  500F               	movf	(___aodiv@divisor+6)^0,w,c
  2522  0018C0  5807               	subwfb	(___aodiv@dividend+6)^0,w,c
  2523  0018C2  5010               	movf	(___aodiv@divisor+7)^0,w,c
  2524  0018C4  5808               	subwfb	(___aodiv@dividend+7)^0,w,c
  2525  0018C6  A0D8               	btfss	status,0,c
  2526  0018C8  EF68  F00C         	goto	u1471
  2527  0018CC  EF6A  F00C         	goto	u1470
  2528  0018D0                     u1471:
  2529  0018D0  EF7B  F00C         	goto	l1879
  2530  0018D4                     u1470:
  2531  0018D4  5009               	movf	___aodiv@divisor^0,w,c
  2532  0018D6  5E01               	subwf	___aodiv@dividend^0,f,c
  2533  0018D8  500A               	movf	(___aodiv@divisor+1)^0,w,c
  2534  0018DA  5A02               	subwfb	(___aodiv@dividend+1)^0,f,c
  2535  0018DC  500B               	movf	(___aodiv@divisor+2)^0,w,c
  2536  0018DE  5A03               	subwfb	(___aodiv@dividend+2)^0,f,c
  2537  0018E0  500C               	movf	(___aodiv@divisor+3)^0,w,c
  2538  0018E2  5A04               	subwfb	(___aodiv@dividend+3)^0,f,c
  2539  0018E4  500D               	movf	(___aodiv@divisor+4)^0,w,c
  2540  0018E6  5A05               	subwfb	(___aodiv@dividend+4)^0,f,c
  2541  0018E8  500E               	movf	(___aodiv@divisor+5)^0,w,c
  2542  0018EA  5A06               	subwfb	(___aodiv@dividend+5)^0,f,c
  2543  0018EC  500F               	movf	(___aodiv@divisor+6)^0,w,c
  2544  0018EE  5A07               	subwfb	(___aodiv@dividend+6)^0,f,c
  2545  0018F0  5010               	movf	(___aodiv@divisor+7)^0,w,c
  2546  0018F2  5A08               	subwfb	(___aodiv@dividend+7)^0,f,c
  2547  0018F4  8013               	bsf	___aodiv@quotient^0,0,c
  2548  0018F6                     l1879:
  2549  0018F6  90D8               	bcf	status,0,c
  2550  0018F8  3210               	rrcf	(___aodiv@divisor+7)^0,f,c
  2551  0018FA  320F               	rrcf	(___aodiv@divisor+6)^0,f,c
  2552  0018FC  320E               	rrcf	(___aodiv@divisor+5)^0,f,c
  2553  0018FE  320D               	rrcf	(___aodiv@divisor+4)^0,f,c
  2554  001900  320C               	rrcf	(___aodiv@divisor+3)^0,f,c
  2555  001902  320B               	rrcf	(___aodiv@divisor+2)^0,f,c
  2556  001904  320A               	rrcf	(___aodiv@divisor+1)^0,f,c
  2557  001906  3209               	rrcf	___aodiv@divisor^0,f,c
  2558  001908  2E11               	decfsz	___aodiv@counter^0,f,c
  2559  00190A  EF4A  F00C         	goto	l1871
  2560  00190E                     l1883:
  2561  00190E  5012               	movf	___aodiv@sign^0,w,c
  2562  001910  B4D8               	btfsc	status,2,c
  2563  001912  EF8D  F00C         	goto	u1481
  2564  001916  EF8F  F00C         	goto	u1480
  2565  00191A                     u1481:
  2566  00191A  EF9F  F00C         	goto	l1887
  2567  00191E                     u1480:
  2568  00191E  1E1A               	comf	(___aodiv@quotient+7)^0,f,c
  2569  001920  1E19               	comf	(___aodiv@quotient+6)^0,f,c
  2570  001922  1E18               	comf	(___aodiv@quotient+5)^0,f,c
  2571  001924  1E17               	comf	(___aodiv@quotient+4)^0,f,c
  2572  001926  1E16               	comf	(___aodiv@quotient+3)^0,f,c
  2573  001928  1E15               	comf	(___aodiv@quotient+2)^0,f,c
  2574  00192A  1E14               	comf	(___aodiv@quotient+1)^0,f,c
  2575  00192C  6C13               	negf	___aodiv@quotient^0,c
  2576  00192E  0E00               	movlw	0
  2577  001930  2214               	addwfc	(___aodiv@quotient+1)^0,f,c
  2578  001932  2215               	addwfc	(___aodiv@quotient+2)^0,f,c
  2579  001934  2216               	addwfc	(___aodiv@quotient+3)^0,f,c
  2580  001936  2217               	addwfc	(___aodiv@quotient+4)^0,f,c
  2581  001938  2218               	addwfc	(___aodiv@quotient+5)^0,f,c
  2582  00193A  2219               	addwfc	(___aodiv@quotient+6)^0,f,c
  2583  00193C  221A               	addwfc	(___aodiv@quotient+7)^0,f,c
  2584  00193E                     l1887:
  2585  00193E  C013  F001         	movff	___aodiv@quotient,?___aodiv
  2586  001942  C014  F002         	movff	___aodiv@quotient+1,?___aodiv+1
  2587  001946  C015  F003         	movff	___aodiv@quotient+2,?___aodiv+2
  2588  00194A  C016  F004         	movff	___aodiv@quotient+3,?___aodiv+3
  2589  00194E  C017  F005         	movff	___aodiv@quotient+4,?___aodiv+4
  2590  001952  C018  F006         	movff	___aodiv@quotient+5,?___aodiv+5
  2591  001956  C019  F007         	movff	___aodiv@quotient+6,?___aodiv+6
  2592  00195A  C01A  F008         	movff	___aodiv@quotient+7,?___aodiv+7
  2593  00195E  0012               	return		;funcret
  2594  001960                     __end_of___aodiv:
  2595                           	opt callstack 0
  2596                           
  2597 ;; *************** function _pwmDuty *****************
  2598 ;; Defined at:
  2599 ;;		line 20 in file "./pwm.h"
  2600 ;; Parameters:    Size  Location     Type
  2601 ;;  cicloTrabajo    2   74[COMRAM] unsigned int 
  2602 ;;  channel         1   76[COMRAM] unsigned char 
  2603 ;; Auto vars:     Size  Location     Type
  2604 ;;  duty            4   82[COMRAM] long 
  2605 ;; Return value:  Size  Location     Type
  2606 ;;                  1    wreg      void 
  2607 ;; Registers used:
  2608 ;;		wreg, status,2, status,0, prodl, prodh, cstack
  2609 ;; Tracked objects:
  2610 ;;		On entry : 0/0
  2611 ;;		On exit  : 0/0
  2612 ;;		Unchanged: 0/0
  2613 ;; Data sizes:     COMRAM   BANK0   BANK1   BANK2   BANK3   BANK4   BANK5   BANK6   BANK7
  2614 ;;      Params:         3       0       0       0       0       0       0       0       0
  2615 ;;      Locals:         4       0       0       0       0       0       0       0       0
  2616 ;;      Temps:          5       0       0       0       0       0       0       0       0
  2617 ;;      Totals:        12       0       0       0       0       0       0       0       0
  2618 ;;Total ram usage:       12 bytes
  2619 ;; Hardware stack levels used:    1
  2620 ;; Hardware stack levels required when called:    2
  2621 ;; This function calls:
  2622 ;;		___fldiv
  2623 ;;		___flmul
  2624 ;;		___fltol
  2625 ;;		___xxtofl
  2626 ;;		_map
  2627 ;; This function is called by:
  2628 ;;		_main
  2629 ;; This function uses a non-reentrant model
  2630 ;;
  2631                           
  2632                           	psect	text13
  2633  001470                     __ptext13:
  2634                           	opt callstack 0
  2635  001470                     _pwmDuty:
  2636                           	opt callstack 28
  2637  001470                     
  2638                           ;./pwm.h: 22:     long duty = map(cicloTrabajo, 0, 100, 0, 1023);
  2639  001470  C04B  F01B         	movff	pwmDuty@cicloTrabajo,map@x
  2640  001474  C04C  F01C         	movff	pwmDuty@cicloTrabajo+1,map@x+1
  2641  001478  6A1D               	clrf	(map@x+2)^0,c
  2642  00147A  6A1E               	clrf	(map@x+3)^0,c
  2643  00147C  0E00               	movlw	0
  2644  00147E  6E1F               	movwf	map@in_min^0,c
  2645  001480  0E00               	movlw	0
  2646  001482  6E20               	movwf	(map@in_min+1)^0,c
  2647  001484  0E00               	movlw	0
  2648  001486  6E21               	movwf	(map@in_min+2)^0,c
  2649  001488  0E00               	movlw	0
  2650  00148A  6E22               	movwf	(map@in_min+3)^0,c
  2651  00148C  0E64               	movlw	100
  2652  00148E  6E23               	movwf	map@in_max^0,c
  2653  001490  0E00               	movlw	0
  2654  001492  6E24               	movwf	(map@in_max+1)^0,c
  2655  001494  0E00               	movlw	0
  2656  001496  6E25               	movwf	(map@in_max+2)^0,c
  2657  001498  0E00               	movlw	0
  2658  00149A  6E26               	movwf	(map@in_max+3)^0,c
  2659  00149C  0E00               	movlw	0
  2660  00149E  6E27               	movwf	map@out_min^0,c
  2661  0014A0  0E00               	movlw	0
  2662  0014A2  6E28               	movwf	(map@out_min+1)^0,c
  2663  0014A4  0E00               	movlw	0
  2664  0014A6  6E29               	movwf	(map@out_min+2)^0,c
  2665  0014A8  0E00               	movlw	0
  2666  0014AA  6E2A               	movwf	(map@out_min+3)^0,c
  2667  0014AC  0EFF               	movlw	255
  2668  0014AE  6E2B               	movwf	map@out_max^0,c
  2669  0014B0  0E03               	movlw	3
  2670  0014B2  6E2C               	movwf	(map@out_max+1)^0,c
  2671  0014B4  0E00               	movlw	0
  2672  0014B6  6E2D               	movwf	(map@out_max+2)^0,c
  2673  0014B8  0E00               	movlw	0
  2674  0014BA  6E2E               	movwf	(map@out_max+3)^0,c
  2675  0014BC  EC1C  F010         	call	_map	;wreg free
  2676  0014C0  C01B  F053         	movff	?_map,pwmDuty@duty
  2677  0014C4  C01C  F054         	movff	?_map+1,pwmDuty@duty+1
  2678  0014C8  C01D  F055         	movff	?_map+2,pwmDuty@duty+2
  2679  0014CC  C01E  F056         	movff	?_map+3,pwmDuty@duty+3
  2680  0014D0                     
  2681                           ;./pwm.h: 24:     if (duty < 1024) {
  2682  0014D0  BE56               	btfsc	(pwmDuty@duty+3)^0,7,c
  2683  0014D2  EF77  F00A         	goto	u2460
  2684  0014D6  5056               	movf	(pwmDuty@duty+3)^0,w,c
  2685  0014D8  1055               	iorwf	(pwmDuty@duty+2)^0,w,c
  2686  0014DA  E107               	bnz	u2461
  2687  0014DC  0E04               	movlw	4
  2688  0014DE  5C54               	subwf	(pwmDuty@duty+1)^0,w,c
  2689  0014E0  B0D8               	btfsc	status,0,c
  2690  0014E2  EF75  F00A         	goto	u2461
  2691  0014E6  EF77  F00A         	goto	u2460
  2692  0014EA                     u2461:
  2693  0014EA  EF11  F00B         	goto	l81
  2694  0014EE                     u2460:
  2695  0014EE                     
  2696                           ;./pwm.h: 26:         duty = ((float) duty / 1023)*(4000000 / (500 * 16));
  2697  0014EE  0E00               	movlw	0
  2698  0014F0  6E2C               	movwf	___flmul@a^0,c
  2699  0014F2  0E00               	movlw	0
  2700  0014F4  6E2D               	movwf	(___flmul@a+1)^0,c
  2701  0014F6  0EFA               	movlw	250
  2702  0014F8  6E2E               	movwf	(___flmul@a+2)^0,c
  2703  0014FA  0E43               	movlw	67
  2704  0014FC  6E2F               	movwf	(___flmul@a+3)^0,c
  2705  0014FE  0E00               	movlw	0
  2706  001500  6E13               	movwf	___fldiv@a^0,c
  2707  001502  0EC0               	movlw	192
  2708  001504  6E14               	movwf	(___fldiv@a+1)^0,c
  2709  001506  0E7F               	movlw	127
  2710  001508  6E15               	movwf	(___fldiv@a+2)^0,c
  2711  00150A  0E44               	movlw	68
  2712  00150C  6E16               	movwf	(___fldiv@a+3)^0,c
  2713  00150E  C053  F001         	movff	pwmDuty@duty,___xxtofl@val
  2714  001512  C054  F002         	movff	pwmDuty@duty+1,___xxtofl@val+1
  2715  001516  C055  F003         	movff	pwmDuty@duty+2,___xxtofl@val+2
  2716  00151A  C056  F004         	movff	pwmDuty@duty+3,___xxtofl@val+3
  2717  00151E  0E01               	movlw	1
  2718  001520  EC12  F00B         	call	___xxtofl
  2719  001524  C001  F00F         	movff	?___xxtofl,___fldiv@b
  2720  001528  C002  F010         	movff	?___xxtofl+1,___fldiv@b+1
  2721  00152C  C003  F011         	movff	?___xxtofl+2,___fldiv@b+2
  2722  001530  C004  F012         	movff	?___xxtofl+3,___fldiv@b+3
  2723  001534  EC20  F006         	call	___fldiv	;wreg free
  2724  001538  C00F  F028         	movff	?___fldiv,___flmul@b
  2725  00153C  C010  F029         	movff	?___fldiv+1,___flmul@b+1
  2726  001540  C011  F02A         	movff	?___fldiv+2,___flmul@b+2
  2727  001544  C012  F02B         	movff	?___fldiv+3,___flmul@b+3
  2728  001548  EC0B  F004         	call	___flmul	;wreg free
  2729  00154C  C028  F041         	movff	?___flmul,___fltol@f1
  2730  001550  C029  F042         	movff	?___flmul+1,___fltol@f1+1
  2731  001554  C02A  F043         	movff	?___flmul+2,___fltol@f1+2
  2732  001558  C02B  F044         	movff	?___flmul+3,___fltol@f1+3
  2733  00155C  EC84  F00E         	call	___fltol	;wreg free
  2734  001560  C041  F053         	movff	?___fltol,pwmDuty@duty
  2735  001564  C042  F054         	movff	?___fltol+1,pwmDuty@duty+1
  2736  001568  C043  F055         	movff	?___fltol+2,pwmDuty@duty+2
  2737  00156C  C044  F056         	movff	?___fltol+3,pwmDuty@duty+3
  2738                           
  2739                           ;./pwm.h: 28:         switch (channel) {
  2740  001570  EFFC  F00A         	goto	l2491
  2741  001574                     l2485:
  2742                           
  2743                           ;./pwm.h: 31:                 CCPR1L = duty >> 2;
  2744  001574  0E02               	movlw	2
  2745  001576  6E4E               	movwf	??_pwmDuty^0,c
  2746  001578  C053  F04F         	movff	pwmDuty@duty,??_pwmDuty+1
  2747  00157C  C054  F050         	movff	pwmDuty@duty+1,??_pwmDuty+2
  2748  001580  C055  F051         	movff	pwmDuty@duty+2,??_pwmDuty+3
  2749  001584  C056  F052         	movff	pwmDuty@duty+3,??_pwmDuty+4
  2750  001588                     u2475:
  2751  001588  664E               	tstfsz	??_pwmDuty^0,c
  2752  00158A  EFC9  F00A         	goto	u2476
  2753  00158E  EFD1  F00A         	goto	u2477
  2754  001592                     u2476:
  2755  001592  3452               	rlcf	(??_pwmDuty+4)^0,w,c
  2756  001594  3252               	rrcf	(??_pwmDuty+4)^0,f,c
  2757  001596  3251               	rrcf	(??_pwmDuty+3)^0,f,c
  2758  001598  3250               	rrcf	(??_pwmDuty+2)^0,f,c
  2759  00159A  324F               	rrcf	(??_pwmDuty+1)^0,f,c
  2760  00159C  2E4E               	decfsz	??_pwmDuty^0,f,c
  2761  00159E  EFC4  F00A         	goto	u2475
  2762  0015A2                     u2477:
  2763  0015A2  504F               	movf	(??_pwmDuty+1)^0,w,c
  2764  0015A4  6EBE               	movwf	190,c	;volatile
  2765                           
  2766                           ;./pwm.h: 32:                 CCP1CON &= 0xCF;
  2767  0015A6  0ECF               	movlw	207
  2768  0015A8  16BD               	andwf	189,f,c	;volatile
  2769                           
  2770                           ;./pwm.h: 33:                 CCP1CON |= ((duty << 4)&0x30);
  2771  0015AA  3853               	swapf	pwmDuty@duty^0,w,c	;volatile
  2772  0015AC  0BF0               	andlw	240
  2773  0015AE  0B30               	andlw	48
  2774  0015B0  12BD               	iorwf	189,f,c	;volatile
  2775                           
  2776                           ;./pwm.h: 34:                 break;
  2777  0015B2  EF11  F00B         	goto	l81
  2778  0015B6                     l2487:
  2779                           
  2780                           ;./pwm.h: 37:                 CCPR2L = duty >> 2;
  2781  0015B6  0E02               	movlw	2
  2782  0015B8  6E4E               	movwf	??_pwmDuty^0,c
  2783  0015BA  C053  F04F         	movff	pwmDuty@duty,??_pwmDuty+1
  2784  0015BE  C054  F050         	movff	pwmDuty@duty+1,??_pwmDuty+2
  2785  0015C2  C055  F051         	movff	pwmDuty@duty+2,??_pwmDuty+3
  2786  0015C6  C056  F052         	movff	pwmDuty@duty+3,??_pwmDuty+4
  2787  0015CA                     u2485:
  2788  0015CA  664E               	tstfsz	??_pwmDuty^0,c
  2789  0015CC  EFEA  F00A         	goto	u2486
  2790  0015D0  EFF2  F00A         	goto	u2487
  2791  0015D4                     u2486:
  2792  0015D4  3452               	rlcf	(??_pwmDuty+4)^0,w,c
  2793  0015D6  3252               	rrcf	(??_pwmDuty+4)^0,f,c
  2794  0015D8  3251               	rrcf	(??_pwmDuty+3)^0,f,c
  2795  0015DA  3250               	rrcf	(??_pwmDuty+2)^0,f,c
  2796  0015DC  324F               	rrcf	(??_pwmDuty+1)^0,f,c
  2797  0015DE  2E4E               	decfsz	??_pwmDuty^0,f,c
  2798  0015E0  EFE5  F00A         	goto	u2485
  2799  0015E4                     u2487:
  2800  0015E4  504F               	movf	(??_pwmDuty+1)^0,w,c
  2801  0015E6  6EBB               	movwf	187,c	;volatile
  2802                           
  2803                           ;./pwm.h: 38:                 CCP2CON &= 0xCF;
  2804  0015E8  0ECF               	movlw	207
  2805  0015EA  16BA               	andwf	186,f,c	;volatile
  2806                           
  2807                           ;./pwm.h: 39:                 CCP2CON |= ((duty << 4)&0x30);
  2808  0015EC  3853               	swapf	pwmDuty@duty^0,w,c	;volatile
  2809  0015EE  0BF0               	andlw	240
  2810  0015F0  0B30               	andlw	48
  2811  0015F2  12BA               	iorwf	186,f,c	;volatile
  2812                           
  2813                           ;./pwm.h: 40:                 break;
  2814  0015F4  EF11  F00B         	goto	l81
  2815  0015F8                     l2491:
  2816  0015F8  504D               	movf	pwmDuty@channel^0,w,c
  2817  0015FA  6E4E               	movwf	??_pwmDuty^0,c
  2818  0015FC  6A4F               	clrf	(??_pwmDuty+1)^0,c
  2819                           
  2820                           ; Switch on 2 bytes has been partitioned into a top level switch of size 1, and 1 sub-sw
      +                          itches
  2821                           ; Switch size 1, requested type "simple"
  2822                           ; Number of cases is 1, Range of values is 0 to 0
  2823                           ; switch strategies available:
  2824                           ; Name         Instructions Cycles
  2825                           ; simple_byte            4     3 (average)
  2826                           ;	Chosen strategy is simple_byte
  2827  0015FE  504F               	movf	(??_pwmDuty+1)^0,w,c
  2828  001600  0A00               	xorlw	0	; case 0
  2829  001602  B4D8               	btfsc	status,2,c
  2830  001604  EF06  F00B         	goto	l2671
  2831  001608  EF11  F00B         	goto	l81
  2832  00160C                     l2671:
  2833                           
  2834                           ; Switch size 1, requested type "simple"
  2835                           ; Number of cases is 2, Range of values is 1 to 2
  2836                           ; switch strategies available:
  2837                           ; Name         Instructions Cycles
  2838                           ; simple_byte            7     4 (average)
  2839                           ;	Chosen strategy is simple_byte
  2840  00160C  504E               	movf	??_pwmDuty^0,w,c
  2841  00160E  0A01               	xorlw	1	; case 1
  2842  001610  B4D8               	btfsc	status,2,c
  2843  001612  EFBA  F00A         	goto	l2485
  2844  001616  0A03               	xorlw	3	; case 2
  2845  001618  B4D8               	btfsc	status,2,c
  2846  00161A  EFDB  F00A         	goto	l2487
  2847  00161E  EF11  F00B         	goto	l81
  2848  001622                     l81:
  2849  001622  0012               	return		;funcret
  2850  001624                     __end_of_pwmDuty:
  2851                           	opt callstack 0
  2852                           
  2853 ;; *************** function _map *****************
  2854 ;; Defined at:
  2855 ;;		line 16 in file "./pwm.h"
  2856 ;; Parameters:    Size  Location     Type
  2857 ;;  x               4   26[COMRAM] long 
  2858 ;;  in_min          4   30[COMRAM] long 
  2859 ;;  in_max          4   34[COMRAM] long 
  2860 ;;  out_min         4   38[COMRAM] long 
  2861 ;;  out_max         4   42[COMRAM] long 
  2862 ;; Auto vars:     Size  Location     Type
  2863 ;;		None
  2864 ;; Return value:  Size  Location     Type
  2865 ;;                  4   26[COMRAM] long 
  2866 ;; Registers used:
  2867 ;;		wreg, status,2, status,0, cstack
  2868 ;; Tracked objects:
  2869 ;;		On entry : 0/0
  2870 ;;		On exit  : 0/0
  2871 ;;		Unchanged: 0/0
  2872 ;; Data sizes:     COMRAM   BANK0   BANK1   BANK2   BANK3   BANK4   BANK5   BANK6   BANK7
  2873 ;;      Params:        20       0       0       0       0       0       0       0       0
  2874 ;;      Locals:         0       0       0       0       0       0       0       0       0
  2875 ;;      Temps:          0       0       0       0       0       0       0       0       0
  2876 ;;      Totals:        20       0       0       0       0       0       0       0       0
  2877 ;;Total ram usage:       20 bytes
  2878 ;; Hardware stack levels used:    1
  2879 ;; Hardware stack levels required when called:    1
  2880 ;; This function calls:
  2881 ;;		___aldiv
  2882 ;;		___lmul
  2883 ;; This function is called by:
  2884 ;;		_pwmDuty
  2885 ;; This function uses a non-reentrant model
  2886 ;;
  2887                           
  2888                           	psect	text14
  2889  002038                     __ptext14:
  2890                           	opt callstack 0
  2891  002038                     _map:
  2892                           	opt callstack 28
  2893  002038                     
  2894                           ;./pwm.h: 17:     return (x - in_min) * (out_max - out_min) / (in_max - in_min) + out_mi
      +                          n;
  2895  002038  501F               	movf	map@in_min^0,w,c
  2896  00203A  5C1B               	subwf	map@x^0,w,c
  2897  00203C  6E01               	movwf	___lmul@multiplier^0,c
  2898  00203E  5020               	movf	(map@in_min+1)^0,w,c
  2899  002040  581C               	subwfb	(map@x+1)^0,w,c
  2900  002042  6E02               	movwf	(___lmul@multiplier+1)^0,c
  2901  002044  5021               	movf	(map@in_min+2)^0,w,c
  2902  002046  581D               	subwfb	(map@x+2)^0,w,c
  2903  002048  6E03               	movwf	(___lmul@multiplier+2)^0,c
  2904  00204A  5022               	movf	(map@in_min+3)^0,w,c
  2905  00204C  581E               	subwfb	(map@x+3)^0,w,c
  2906  00204E  6E04               	movwf	(___lmul@multiplier+3)^0,c
  2907  002050  5027               	movf	map@out_min^0,w,c
  2908  002052  5C2B               	subwf	map@out_max^0,w,c
  2909  002054  6E05               	movwf	___lmul@multiplicand^0,c
  2910  002056  5028               	movf	(map@out_min+1)^0,w,c
  2911  002058  582C               	subwfb	(map@out_max+1)^0,w,c
  2912  00205A  6E06               	movwf	(___lmul@multiplicand+1)^0,c
  2913  00205C  5029               	movf	(map@out_min+2)^0,w,c
  2914  00205E  582D               	subwfb	(map@out_max+2)^0,w,c
  2915  002060  6E07               	movwf	(___lmul@multiplicand+2)^0,c
  2916  002062  502A               	movf	(map@out_min+3)^0,w,c
  2917  002064  582E               	subwfb	(map@out_max+3)^0,w,c
  2918  002066  6E08               	movwf	(___lmul@multiplicand+3)^0,c
  2919  002068  ECCB  F010         	call	___lmul	;wreg free
  2920  00206C  C001  F00D         	movff	?___lmul,___aldiv@dividend
  2921  002070  C002  F00E         	movff	?___lmul+1,___aldiv@dividend+1
  2922  002074  C003  F00F         	movff	?___lmul+2,___aldiv@dividend+2
  2923  002078  C004  F010         	movff	?___lmul+3,___aldiv@dividend+3
  2924  00207C  501F               	movf	map@in_min^0,w,c
  2925  00207E  5C23               	subwf	map@in_max^0,w,c
  2926  002080  6E11               	movwf	___aldiv@divisor^0,c
  2927  002082  5020               	movf	(map@in_min+1)^0,w,c
  2928  002084  5824               	subwfb	(map@in_max+1)^0,w,c
  2929  002086  6E12               	movwf	(___aldiv@divisor+1)^0,c
  2930  002088  5021               	movf	(map@in_min+2)^0,w,c
  2931  00208A  5825               	subwfb	(map@in_max+2)^0,w,c
  2932  00208C  6E13               	movwf	(___aldiv@divisor+2)^0,c
  2933  00208E  5022               	movf	(map@in_min+3)^0,w,c
  2934  002090  5826               	subwfb	(map@in_max+3)^0,w,c
  2935  002092  6E14               	movwf	(___aldiv@divisor+3)^0,c
  2936  002094  ECFE  F00D         	call	___aldiv	;wreg free
  2937  002098  5027               	movf	map@out_min^0,w,c
  2938  00209A  240D               	addwf	?___aldiv^0,w,c
  2939  00209C  6E1B               	movwf	?_map^0,c
  2940  00209E  5028               	movf	(map@out_min+1)^0,w,c
  2941  0020A0  200E               	addwfc	(?___aldiv+1)^0,w,c
  2942  0020A2  6E1C               	movwf	(?_map+1)^0,c
  2943  0020A4  5029               	movf	(map@out_min+2)^0,w,c
  2944  0020A6  200F               	addwfc	(?___aldiv+2)^0,w,c
  2945  0020A8  6E1D               	movwf	(?_map+2)^0,c
  2946  0020AA  502A               	movf	(map@out_min+3)^0,w,c
  2947  0020AC  2010               	addwfc	(?___aldiv+3)^0,w,c
  2948  0020AE  6E1E               	movwf	(?_map+3)^0,c
  2949  0020B0  0012               	return		;funcret
  2950  0020B2                     __end_of_map:
  2951                           	opt callstack 0
  2952                           
  2953 ;; *************** function ___lmul *****************
  2954 ;; Defined at:
  2955 ;;		line 15 in file "C:\Program Files (x86)\Microchip\xc8\v2.10\pic\sources\c99\common\Umul32.c"
  2956 ;; Parameters:    Size  Location     Type
  2957 ;;  multiplier      4    0[COMRAM] unsigned long 
  2958 ;;  multiplicand    4    4[COMRAM] unsigned long 
  2959 ;; Auto vars:     Size  Location     Type
  2960 ;;  product         4    8[COMRAM] unsigned long 
  2961 ;; Return value:  Size  Location     Type
  2962 ;;                  4    0[COMRAM] unsigned long 
  2963 ;; Registers used:
  2964 ;;		wreg, status,2, status,0
  2965 ;; Tracked objects:
  2966 ;;		On entry : 0/0
  2967 ;;		On exit  : 0/0
  2968 ;;		Unchanged: 0/0
  2969 ;; Data sizes:     COMRAM   BANK0   BANK1   BANK2   BANK3   BANK4   BANK5   BANK6   BANK7
  2970 ;;      Params:         8       0       0       0       0       0       0       0       0
  2971 ;;      Locals:         4       0       0       0       0       0       0       0       0
  2972 ;;      Temps:          0       0       0       0       0       0       0       0       0
  2973 ;;      Totals:        12       0       0       0       0       0       0       0       0
  2974 ;;Total ram usage:       12 bytes
  2975 ;; Hardware stack levels used:    1
  2976 ;; This function calls:
  2977 ;;		Nothing
  2978 ;; This function is called by:
  2979 ;;		_map
  2980 ;; This function uses a non-reentrant model
  2981 ;;
  2982                           
  2983                           	psect	text15
  2984  002196                     __ptext15:
  2985                           	opt callstack 0
  2986  002196                     ___lmul:
  2987                           	opt callstack 28
  2988  002196  0E00               	movlw	0
  2989  002198  6E09               	movwf	___lmul@product^0,c
  2990  00219A  0E00               	movlw	0
  2991  00219C  6E0A               	movwf	(___lmul@product+1)^0,c
  2992  00219E  0E00               	movlw	0
  2993  0021A0  6E0B               	movwf	(___lmul@product+2)^0,c
  2994  0021A2  0E00               	movlw	0
  2995  0021A4  6E0C               	movwf	(___lmul@product+3)^0,c
  2996  0021A6                     l2033:
  2997  0021A6  A001               	btfss	___lmul@multiplier^0,0,c
  2998  0021A8  EFD8  F010         	goto	u1741
  2999  0021AC  EFDA  F010         	goto	u1740
  3000  0021B0                     u1741:
  3001  0021B0  EFE2  F010         	goto	l2037
  3002  0021B4                     u1740:
  3003  0021B4  5005               	movf	___lmul@multiplicand^0,w,c
  3004  0021B6  2609               	addwf	___lmul@product^0,f,c
  3005  0021B8  5006               	movf	(___lmul@multiplicand+1)^0,w,c
  3006  0021BA  220A               	addwfc	(___lmul@product+1)^0,f,c
  3007  0021BC  5007               	movf	(___lmul@multiplicand+2)^0,w,c
  3008  0021BE  220B               	addwfc	(___lmul@product+2)^0,f,c
  3009  0021C0  5008               	movf	(___lmul@multiplicand+3)^0,w,c
  3010  0021C2  220C               	addwfc	(___lmul@product+3)^0,f,c
  3011  0021C4                     l2037:
  3012  0021C4  90D8               	bcf	status,0,c
  3013  0021C6  3605               	rlcf	___lmul@multiplicand^0,f,c
  3014  0021C8  3606               	rlcf	(___lmul@multiplicand+1)^0,f,c
  3015  0021CA  3607               	rlcf	(___lmul@multiplicand+2)^0,f,c
  3016  0021CC  3608               	rlcf	(___lmul@multiplicand+3)^0,f,c
  3017  0021CE  90D8               	bcf	status,0,c
  3018  0021D0  3204               	rrcf	(___lmul@multiplier+3)^0,f,c
  3019  0021D2  3203               	rrcf	(___lmul@multiplier+2)^0,f,c
  3020  0021D4  3202               	rrcf	(___lmul@multiplier+1)^0,f,c
  3021  0021D6  3201               	rrcf	___lmul@multiplier^0,f,c
  3022  0021D8  5001               	movf	___lmul@multiplier^0,w,c
  3023  0021DA  1002               	iorwf	(___lmul@multiplier+1)^0,w,c
  3024  0021DC  1003               	iorwf	(___lmul@multiplier+2)^0,w,c
  3025  0021DE  1004               	iorwf	(___lmul@multiplier+3)^0,w,c
  3026  0021E0  A4D8               	btfss	status,2,c
  3027  0021E2  EFF5  F010         	goto	u1751
  3028  0021E6  EFF7  F010         	goto	u1750
  3029  0021EA                     u1751:
  3030  0021EA  EFD3  F010         	goto	l2033
  3031  0021EE                     u1750:
  3032  0021EE  C009  F001         	movff	___lmul@product,?___lmul
  3033  0021F2  C00A  F002         	movff	___lmul@product+1,?___lmul+1
  3034  0021F6  C00B  F003         	movff	___lmul@product+2,?___lmul+2
  3035  0021FA  C00C  F004         	movff	___lmul@product+3,?___lmul+3
  3036  0021FE  0012               	return		;funcret
  3037  002200                     __end_of___lmul:
  3038                           	opt callstack 0
  3039                           
  3040 ;; *************** function ___xxtofl *****************
  3041 ;; Defined at:
  3042 ;;		line 10 in file "C:\Program Files (x86)\Microchip\xc8\v2.10\pic\sources\c99\common\xxtofl.c"
  3043 ;; Parameters:    Size  Location     Type
  3044 ;;  sign            1    wreg     unsigned char 
  3045 ;;  val             4    0[COMRAM] long 
  3046 ;; Auto vars:     Size  Location     Type
  3047 ;;  sign            1    8[COMRAM] unsigned char 
  3048 ;;  arg             4   10[COMRAM] unsigned long 
  3049 ;;  exp             1    9[COMRAM] unsigned char 
  3050 ;; Return value:  Size  Location     Type
  3051 ;;                  4    0[COMRAM] unsigned char 
  3052 ;; Registers used:
  3053 ;;		wreg, status,2, status,0
  3054 ;; Tracked objects:
  3055 ;;		On entry : 0/0
  3056 ;;		On exit  : 0/0
  3057 ;;		Unchanged: 0/0
  3058 ;; Data sizes:     COMRAM   BANK0   BANK1   BANK2   BANK3   BANK4   BANK5   BANK6   BANK7
  3059 ;;      Params:         4       0       0       0       0       0       0       0       0
  3060 ;;      Locals:         6       0       0       0       0       0       0       0       0
  3061 ;;      Temps:          4       0       0       0       0       0       0       0       0
  3062 ;;      Totals:        14       0       0       0       0       0       0       0       0
  3063 ;;Total ram usage:       14 bytes
  3064 ;; Hardware stack levels used:    1
  3065 ;; This function calls:
  3066 ;;		Nothing
  3067 ;; This function is called by:
  3068 ;;		_pwmDuty
  3069 ;; This function uses a non-reentrant model
  3070 ;;
  3071                           
  3072                           	psect	text16
  3073  001624                     __ptext16:
  3074                           	opt callstack 0
  3075  001624                     ___xxtofl:
  3076                           	opt callstack 29
  3077                           
  3078                           ;incstack = 0
  3079                           ;___xxtofl@sign stored from wreg
  3080  001624  6E09               	movwf	___xxtofl@sign^0,c
  3081  001626  5009               	movf	___xxtofl@sign^0,w,c
  3082  001628  B4D8               	btfsc	status,2,c
  3083  00162A  EF19  F00B         	goto	u2361
  3084  00162E  EF1B  F00B         	goto	u2360
  3085  001632                     u2361:
  3086  001632  EF3D  F00B         	goto	l888
  3087  001636                     u2360:
  3088  001636  BE04               	btfsc	(___xxtofl@val+3)^0,7,c
  3089  001638  EF22  F00B         	goto	u2370
  3090  00163C  EF20  F00B         	goto	u2371
  3091  001640                     u2371:
  3092  001640  EF3D  F00B         	goto	l888
  3093  001644                     u2370:
  3094  001644  C001  F005         	movff	___xxtofl@val,??___xxtofl
  3095  001648  C002  F006         	movff	___xxtofl@val+1,??___xxtofl+1
  3096  00164C  C003  F007         	movff	___xxtofl@val+2,??___xxtofl+2
  3097  001650  C004  F008         	movff	___xxtofl@val+3,??___xxtofl+3
  3098  001654  1E05               	comf	??___xxtofl^0,f,c
  3099  001656  1E06               	comf	(??___xxtofl+1)^0,f,c
  3100  001658  1E07               	comf	(??___xxtofl+2)^0,f,c
  3101  00165A  1E08               	comf	(??___xxtofl+3)^0,f,c
  3102  00165C  2A05               	incf	??___xxtofl^0,f,c
  3103  00165E  0E00               	movlw	0
  3104  001660  2206               	addwfc	(??___xxtofl+1)^0,f,c
  3105  001662  2207               	addwfc	(??___xxtofl+2)^0,f,c
  3106  001664  2208               	addwfc	(??___xxtofl+3)^0,f,c
  3107  001666  C005  F00B         	movff	??___xxtofl,___xxtofl@arg
  3108  00166A  C006  F00C         	movff	??___xxtofl+1,___xxtofl@arg+1
  3109  00166E  C007  F00D         	movff	??___xxtofl+2,___xxtofl@arg+2
  3110  001672  C008  F00E         	movff	??___xxtofl+3,___xxtofl@arg+3
  3111  001676  EF45  F00B         	goto	l2439
  3112  00167A                     l888:
  3113  00167A  C001  F00B         	movff	___xxtofl@val,___xxtofl@arg
  3114  00167E  C002  F00C         	movff	___xxtofl@val+1,___xxtofl@arg+1
  3115  001682  C003  F00D         	movff	___xxtofl@val+2,___xxtofl@arg+2
  3116  001686  C004  F00E         	movff	___xxtofl@val+3,___xxtofl@arg+3
  3117  00168A                     l2439:
  3118  00168A  5001               	movf	___xxtofl@val^0,w,c
  3119  00168C  1002               	iorwf	(___xxtofl@val+1)^0,w,c
  3120  00168E  1003               	iorwf	(___xxtofl@val+2)^0,w,c
  3121  001690  1004               	iorwf	(___xxtofl@val+3)^0,w,c
  3122  001692  A4D8               	btfss	status,2,c
  3123  001694  EF4E  F00B         	goto	u2381
  3124  001698  EF50  F00B         	goto	u2380
  3125  00169C                     u2381:
  3126  00169C  EF5A  F00B         	goto	l2445
  3127  0016A0                     u2380:
  3128  0016A0  0E00               	movlw	0
  3129  0016A2  6E01               	movwf	?___xxtofl^0,c
  3130  0016A4  0E00               	movlw	0
  3131  0016A6  6E02               	movwf	(?___xxtofl+1)^0,c
  3132  0016A8  0E00               	movlw	0
  3133  0016AA  6E03               	movwf	(?___xxtofl+2)^0,c
  3134  0016AC  0E00               	movlw	0
  3135  0016AE  6E04               	movwf	(?___xxtofl+3)^0,c
  3136  0016B0  EFEB  F00B         	goto	l891
  3137  0016B4                     l2445:
  3138  0016B4  0E96               	movlw	150
  3139  0016B6  6E0A               	movwf	___xxtofl@exp^0,c
  3140  0016B8  EF64  F00B         	goto	l2449
  3141  0016BC                     l2447:
  3142  0016BC  2A0A               	incf	___xxtofl@exp^0,f,c
  3143  0016BE  90D8               	bcf	status,0,c
  3144  0016C0  320E               	rrcf	(___xxtofl@arg+3)^0,f,c
  3145  0016C2  320D               	rrcf	(___xxtofl@arg+2)^0,f,c
  3146  0016C4  320C               	rrcf	(___xxtofl@arg+1)^0,f,c
  3147  0016C6  320B               	rrcf	___xxtofl@arg^0,f,c
  3148  0016C8                     l2449:
  3149  0016C8  0E00               	movlw	0
  3150  0016CA  140B               	andwf	___xxtofl@arg^0,w,c
  3151  0016CC  6E05               	movwf	??___xxtofl^0,c
  3152  0016CE  0E00               	movlw	0
  3153  0016D0  140C               	andwf	(___xxtofl@arg+1)^0,w,c
  3154  0016D2  6E06               	movwf	(??___xxtofl+1)^0,c
  3155  0016D4  0E00               	movlw	0
  3156  0016D6  140D               	andwf	(___xxtofl@arg+2)^0,w,c
  3157  0016D8  6E07               	movwf	(??___xxtofl+2)^0,c
  3158  0016DA  0EFE               	movlw	254
  3159  0016DC  140E               	andwf	(___xxtofl@arg+3)^0,w,c
  3160  0016DE  6E08               	movwf	(??___xxtofl+3)^0,c
  3161  0016E0  5005               	movf	??___xxtofl^0,w,c
  3162  0016E2  1006               	iorwf	(??___xxtofl+1)^0,w,c
  3163  0016E4  1007               	iorwf	(??___xxtofl+2)^0,w,c
  3164  0016E6  1008               	iorwf	(??___xxtofl+3)^0,w,c
  3165  0016E8  A4D8               	btfss	status,2,c
  3166  0016EA  EF79  F00B         	goto	u2391
  3167  0016EE  EF7B  F00B         	goto	u2390
  3168  0016F2                     u2391:
  3169  0016F2  EF5E  F00B         	goto	l2447
  3170  0016F6                     u2390:
  3171  0016F6  EF89  F00B         	goto	l895
  3172  0016FA                     l2451:
  3173  0016FA  2A0A               	incf	___xxtofl@exp^0,f,c
  3174  0016FC  0E01               	movlw	1
  3175  0016FE  260B               	addwf	___xxtofl@arg^0,f,c
  3176  001700  0E00               	movlw	0
  3177  001702  220C               	addwfc	(___xxtofl@arg+1)^0,f,c
  3178  001704  220D               	addwfc	(___xxtofl@arg+2)^0,f,c
  3179  001706  220E               	addwfc	(___xxtofl@arg+3)^0,f,c
  3180  001708  90D8               	bcf	status,0,c
  3181  00170A  320E               	rrcf	(___xxtofl@arg+3)^0,f,c
  3182  00170C  320D               	rrcf	(___xxtofl@arg+2)^0,f,c
  3183  00170E  320C               	rrcf	(___xxtofl@arg+1)^0,f,c
  3184  001710  320B               	rrcf	___xxtofl@arg^0,f,c
  3185  001712                     l895:
  3186  001712  0E00               	movlw	0
  3187  001714  140B               	andwf	___xxtofl@arg^0,w,c
  3188  001716  6E05               	movwf	??___xxtofl^0,c
  3189  001718  0E00               	movlw	0
  3190  00171A  140C               	andwf	(___xxtofl@arg+1)^0,w,c
  3191  00171C  6E06               	movwf	(??___xxtofl+1)^0,c
  3192  00171E  0E00               	movlw	0
  3193  001720  140D               	andwf	(___xxtofl@arg+2)^0,w,c
  3194  001722  6E07               	movwf	(??___xxtofl+2)^0,c
  3195  001724  0EFF               	movlw	255
  3196  001726  140E               	andwf	(___xxtofl@arg+3)^0,w,c
  3197  001728  6E08               	movwf	(??___xxtofl+3)^0,c
  3198  00172A  5005               	movf	??___xxtofl^0,w,c
  3199  00172C  1006               	iorwf	(??___xxtofl+1)^0,w,c
  3200  00172E  1007               	iorwf	(??___xxtofl+2)^0,w,c
  3201  001730  1008               	iorwf	(??___xxtofl+3)^0,w,c
  3202  001732  A4D8               	btfss	status,2,c
  3203  001734  EF9E  F00B         	goto	u2401
  3204  001738  EFA0  F00B         	goto	u2400
  3205  00173C                     u2401:
  3206  00173C  EF7D  F00B         	goto	l2451
  3207  001740                     u2400:
  3208  001740  EFA8  F00B         	goto	l2459
  3209  001744                     l2457:
  3210  001744  060A               	decf	___xxtofl@exp^0,f,c
  3211  001746  90D8               	bcf	status,0,c
  3212  001748  360B               	rlcf	___xxtofl@arg^0,f,c
  3213  00174A  360C               	rlcf	(___xxtofl@arg+1)^0,f,c
  3214  00174C  360D               	rlcf	(___xxtofl@arg+2)^0,f,c
  3215  00174E  360E               	rlcf	(___xxtofl@arg+3)^0,f,c
  3216  001750                     l2459:
  3217  001750  BE0D               	btfsc	(___xxtofl@arg+2)^0,7,c
  3218  001752  EFAD  F00B         	goto	u2411
  3219  001756  EFAF  F00B         	goto	u2410
  3220  00175A                     u2411:
  3221  00175A  EFB7  F00B         	goto	l902
  3222  00175E                     u2410:
  3223  00175E  0E02               	movlw	2
  3224  001760  600A               	cpfslt	___xxtofl@exp^0,c
  3225  001762  EFB5  F00B         	goto	u2421
  3226  001766  EFB7  F00B         	goto	u2420
  3227  00176A                     u2421:
  3228  00176A  EFA2  F00B         	goto	l2457
  3229  00176E                     u2420:
  3230  00176E                     l902:
  3231  00176E  B00A               	btfsc	___xxtofl@exp^0,0,c
  3232  001770  EFBC  F00B         	goto	u2431
  3233  001774  EFBE  F00B         	goto	u2430
  3234  001778                     u2431:
  3235  001778  EFBF  F00B         	goto	l2465
  3236  00177C                     u2430:
  3237  00177C  9E0D               	bcf	(___xxtofl@arg+2)^0,7,c
  3238  00177E                     l2465:
  3239  00177E  90D8               	bcf	status,0,c
  3240  001780  320A               	rrcf	___xxtofl@exp^0,f,c
  3241  001782  C00A  F005         	movff	___xxtofl@exp,??___xxtofl
  3242  001786  6A06               	clrf	(??___xxtofl+1)^0,c
  3243  001788  6A07               	clrf	(??___xxtofl+2)^0,c
  3244  00178A  6A08               	clrf	(??___xxtofl+3)^0,c
  3245  00178C  C005  F008         	movff	??___xxtofl,??___xxtofl+3
  3246  001790  6A07               	clrf	(??___xxtofl+2)^0,c
  3247  001792  6A06               	clrf	(??___xxtofl+1)^0,c
  3248  001794  6A05               	clrf	??___xxtofl^0,c
  3249  001796  5005               	movf	??___xxtofl^0,w,c
  3250  001798  120B               	iorwf	___xxtofl@arg^0,f,c
  3251  00179A  5006               	movf	(??___xxtofl+1)^0,w,c
  3252  00179C  120C               	iorwf	(___xxtofl@arg+1)^0,f,c
  3253  00179E  5007               	movf	(??___xxtofl+2)^0,w,c
  3254  0017A0  120D               	iorwf	(___xxtofl@arg+2)^0,f,c
  3255  0017A2  5008               	movf	(??___xxtofl+3)^0,w,c
  3256  0017A4  120E               	iorwf	(___xxtofl@arg+3)^0,f,c
  3257  0017A6  5009               	movf	___xxtofl@sign^0,w,c
  3258  0017A8  B4D8               	btfsc	status,2,c
  3259  0017AA  EFD9  F00B         	goto	u2441
  3260  0017AE  EFDB  F00B         	goto	u2440
  3261  0017B2                     u2441:
  3262  0017B2  EFE3  F00B         	goto	l2475
  3263  0017B6                     u2440:
  3264  0017B6  BE04               	btfsc	(___xxtofl@val+3)^0,7,c
  3265  0017B8  EFE2  F00B         	goto	u2450
  3266  0017BC  EFE0  F00B         	goto	u2451
  3267  0017C0                     u2451:
  3268  0017C0  EFE3  F00B         	goto	l2475
  3269  0017C4                     u2450:
  3270  0017C4  8E0E               	bsf	(___xxtofl@arg+3)^0,7,c
  3271  0017C6                     l2475:
  3272  0017C6  C00B  F001         	movff	___xxtofl@arg,?___xxtofl
  3273  0017CA  C00C  F002         	movff	___xxtofl@arg+1,?___xxtofl+1
  3274  0017CE  C00D  F003         	movff	___xxtofl@arg+2,?___xxtofl+2
  3275  0017D2  C00E  F004         	movff	___xxtofl@arg+3,?___xxtofl+3
  3276  0017D6                     l891:
  3277  0017D6  0012               	return		;funcret
  3278  0017D8                     __end_of___xxtofl:
  3279                           	opt callstack 0
  3280                           
  3281 ;; *************** function ___fltol *****************
  3282 ;; Defined at:
  3283 ;;		line 43 in file "C:\Program Files (x86)\Microchip\xc8\v2.10\pic\sources\c99\common\fltol.c"
  3284 ;; Parameters:    Size  Location     Type
  3285 ;;  f1              4   64[COMRAM] unsigned char 
  3286 ;; Auto vars:     Size  Location     Type
  3287 ;;  exp1            1   73[COMRAM] unsigned char 
  3288 ;;  sign1           1   72[COMRAM] unsigned char 
  3289 ;; Return value:  Size  Location     Type
  3290 ;;                  4   64[COMRAM] long 
  3291 ;; Registers used:
  3292 ;;		wreg, status,2, status,0
  3293 ;; Tracked objects:
  3294 ;;		On entry : 0/0
  3295 ;;		On exit  : 0/0
  3296 ;;		Unchanged: 0/0
  3297 ;; Data sizes:     COMRAM   BANK0   BANK1   BANK2   BANK3   BANK4   BANK5   BANK6   BANK7
  3298 ;;      Params:         4       0       0       0       0       0       0       0       0
  3299 ;;      Locals:         2       0       0       0       0       0       0       0       0
  3300 ;;      Temps:          4       0       0       0       0       0       0       0       0
  3301 ;;      Totals:        10       0       0       0       0       0       0       0       0
  3302 ;;Total ram usage:       10 bytes
  3303 ;; Hardware stack levels used:    1
  3304 ;; This function calls:
  3305 ;;		Nothing
  3306 ;; This function is called by:
  3307 ;;		_pwmDuty
  3308 ;; This function uses a non-reentrant model
  3309 ;;
  3310                           
  3311                           	psect	text17
  3312  001D08                     __ptext17:
  3313                           	opt callstack 0
  3314  001D08                     ___fltol:
  3315                           	opt callstack 29
  3316  001D08  3443               	rlcf	(___fltol@f1+2)^0,w,c
  3317  001D0A  3444               	rlcf	(___fltol@f1+3)^0,w,c
  3318  001D0C  6E4A               	movwf	___fltol@exp1^0,c
  3319  001D0E  504A               	movf	___fltol@exp1^0,w,c
  3320  001D10  A4D8               	btfss	status,2,c
  3321  001D12  EF8D  F00E         	goto	u2261
  3322  001D16  EF8F  F00E         	goto	u2260
  3323  001D1A                     u2261:
  3324  001D1A  EF99  F00E         	goto	l2373
  3325  001D1E                     u2260:
  3326  001D1E                     l2369:
  3327  001D1E  0E00               	movlw	0
  3328  001D20  6E41               	movwf	?___fltol^0,c
  3329  001D22  0E00               	movlw	0
  3330  001D24  6E42               	movwf	(?___fltol+1)^0,c
  3331  001D26  0E00               	movlw	0
  3332  001D28  6E43               	movwf	(?___fltol+2)^0,c
  3333  001D2A  0E00               	movlw	0
  3334  001D2C  6E44               	movwf	(?___fltol+3)^0,c
  3335  001D2E  EF06  F00F         	goto	l530
  3336  001D32                     l2373:
  3337  001D32  C041  F045         	movff	___fltol@f1,??___fltol
  3338  001D36  C042  F046         	movff	___fltol@f1+1,??___fltol+1
  3339  001D3A  C043  F047         	movff	___fltol@f1+2,??___fltol+2
  3340  001D3E  C044  F048         	movff	___fltol@f1+3,??___fltol+3
  3341  001D42  0E20               	movlw	32
  3342  001D44  EFA9  F00E         	goto	u2270
  3343  001D48                     u2275:
  3344  001D48  90D8               	bcf	status,0,c
  3345  001D4A  3248               	rrcf	(??___fltol+3)^0,f,c
  3346  001D4C  3247               	rrcf	(??___fltol+2)^0,f,c
  3347  001D4E  3246               	rrcf	(??___fltol+1)^0,f,c
  3348  001D50  3245               	rrcf	??___fltol^0,f,c
  3349  001D52                     u2270:
  3350  001D52  2EE8               	decfsz	wreg,f,c
  3351  001D54  EFA4  F00E         	goto	u2275
  3352  001D58  5045               	movf	??___fltol^0,w,c
  3353  001D5A  6E49               	movwf	___fltol@sign1^0,c
  3354  001D5C  8E43               	bsf	(___fltol@f1+2)^0,7,c
  3355  001D5E  0EFF               	movlw	255
  3356  001D60  1641               	andwf	___fltol@f1^0,f,c
  3357  001D62  0EFF               	movlw	255
  3358  001D64  1642               	andwf	(___fltol@f1+1)^0,f,c
  3359  001D66  0EFF               	movlw	255
  3360  001D68  1643               	andwf	(___fltol@f1+2)^0,f,c
  3361  001D6A  0E00               	movlw	0
  3362  001D6C  1644               	andwf	(___fltol@f1+3)^0,f,c
  3363  001D6E  0E96               	movlw	150
  3364  001D70  5E4A               	subwf	___fltol@exp1^0,f,c
  3365  001D72  BE4A               	btfsc	___fltol@exp1^0,7,c
  3366  001D74  EFC0  F00E         	goto	u2280
  3367  001D78  EFBE  F00E         	goto	u2281
  3368  001D7C                     u2281:
  3369  001D7C  EFD6  F00E         	goto	l2393
  3370  001D80                     u2280:
  3371  001D80  504A               	movf	___fltol@exp1^0,w,c
  3372  001D82  0A80               	xorlw	128
  3373  001D84  0F97               	addlw	151
  3374  001D86  B0D8               	btfsc	status,0,c
  3375  001D88  EFC8  F00E         	goto	u2291
  3376  001D8C  EFCA  F00E         	goto	u2290
  3377  001D90                     u2291:
  3378  001D90  EFCC  F00E         	goto	l2389
  3379  001D94                     u2290:
  3380  001D94  EF8F  F00E         	goto	l2369
  3381  001D98                     l2389:
  3382  001D98  90D8               	bcf	status,0,c
  3383  001D9A  3244               	rrcf	(___fltol@f1+3)^0,f,c
  3384  001D9C  3243               	rrcf	(___fltol@f1+2)^0,f,c
  3385  001D9E  3242               	rrcf	(___fltol@f1+1)^0,f,c
  3386  001DA0  3241               	rrcf	___fltol@f1^0,f,c
  3387  001DA2  3E4A               	incfsz	___fltol@exp1^0,f,c
  3388  001DA4  EFCC  F00E         	goto	l2389
  3389  001DA8  EFEE  F00E         	goto	l2403
  3390  001DAC                     l2393:
  3391  001DAC  0E1F               	movlw	31
  3392  001DAE  644A               	cpfsgt	___fltol@exp1^0,c
  3393  001DB0  EFDC  F00E         	goto	u2301
  3394  001DB4  EFDE  F00E         	goto	u2300
  3395  001DB8                     u2301:
  3396  001DB8  EFE6  F00E         	goto	l2401
  3397  001DBC                     u2300:
  3398  001DBC  EF8F  F00E         	goto	l2369
  3399  001DC0                     l2399:
  3400  001DC0  90D8               	bcf	status,0,c
  3401  001DC2  3641               	rlcf	___fltol@f1^0,f,c
  3402  001DC4  3642               	rlcf	(___fltol@f1+1)^0,f,c
  3403  001DC6  3643               	rlcf	(___fltol@f1+2)^0,f,c
  3404  001DC8  3644               	rlcf	(___fltol@f1+3)^0,f,c
  3405  001DCA  064A               	decf	___fltol@exp1^0,f,c
  3406  001DCC                     l2401:
  3407  001DCC  504A               	movf	___fltol@exp1^0,w,c
  3408  001DCE  A4D8               	btfss	status,2,c
  3409  001DD0  EFEC  F00E         	goto	u2311
  3410  001DD4  EFEE  F00E         	goto	u2310
  3411  001DD8                     u2311:
  3412  001DD8  EFE0  F00E         	goto	l2399
  3413  001DDC                     u2310:
  3414  001DDC                     l2403:
  3415  001DDC  5049               	movf	___fltol@sign1^0,w,c
  3416  001DDE  B4D8               	btfsc	status,2,c
  3417  001DE0  EFF4  F00E         	goto	u2321
  3418  001DE4  EFF6  F00E         	goto	u2320
  3419  001DE8                     u2321:
  3420  001DE8  EFFE  F00E         	goto	l2407
  3421  001DEC                     u2320:
  3422  001DEC  1E44               	comf	(___fltol@f1+3)^0,f,c
  3423  001DEE  1E43               	comf	(___fltol@f1+2)^0,f,c
  3424  001DF0  1E42               	comf	(___fltol@f1+1)^0,f,c
  3425  001DF2  6C41               	negf	___fltol@f1^0,c
  3426  001DF4  0E00               	movlw	0
  3427  001DF6  2242               	addwfc	(___fltol@f1+1)^0,f,c
  3428  001DF8  2243               	addwfc	(___fltol@f1+2)^0,f,c
  3429  001DFA  2244               	addwfc	(___fltol@f1+3)^0,f,c
  3430  001DFC                     l2407:
  3431  001DFC  C041  F041         	movff	___fltol@f1,?___fltol
  3432  001E00  C042  F042         	movff	___fltol@f1+1,?___fltol+1
  3433  001E04  C043  F043         	movff	___fltol@f1+2,?___fltol+2
  3434  001E08  C044  F044         	movff	___fltol@f1+3,?___fltol+3
  3435  001E0C                     l530:
  3436  001E0C  0012               	return		;funcret
  3437  001E0E                     __end_of___fltol:
  3438                           	opt callstack 0
  3439                           
  3440 ;; *************** function ___flmul *****************
  3441 ;; Defined at:
  3442 ;;		line 8 in file "C:\Program Files (x86)\Microchip\xc8\v2.10\pic\sources\c99\common\sprcmul.c"
  3443 ;; Parameters:    Size  Location     Type
  3444 ;;  b               4   39[COMRAM] long 
  3445 ;;  a               4   43[COMRAM] long 
  3446 ;; Auto vars:     Size  Location     Type
  3447 ;;  prod            4   58[COMRAM] struct .
  3448 ;;  grs             4   52[COMRAM] unsigned long 
  3449 ;;  temp            2   62[COMRAM] struct .
  3450 ;;  bexp            1   57[COMRAM] unsigned char 
  3451 ;;  aexp            1   56[COMRAM] unsigned char 
  3452 ;;  sign            1   51[COMRAM] unsigned char 
  3453 ;; Return value:  Size  Location     Type
  3454 ;;                  4   39[COMRAM] unsigned char 
  3455 ;; Registers used:
  3456 ;;		wreg, status,2, status,0, prodl, prodh
  3457 ;; Tracked objects:
  3458 ;;		On entry : 0/0
  3459 ;;		On exit  : 0/0
  3460 ;;		Unchanged: 0/0
  3461 ;; Data sizes:     COMRAM   BANK0   BANK1   BANK2   BANK3   BANK4   BANK5   BANK6   BANK7
  3462 ;;      Params:         8       0       0       0       0       0       0       0       0
  3463 ;;      Locals:        13       0       0       0       0       0       0       0       0
  3464 ;;      Temps:          4       0       0       0       0       0       0       0       0
  3465 ;;      Totals:        25       0       0       0       0       0       0       0       0
  3466 ;;Total ram usage:       25 bytes
  3467 ;; Hardware stack levels used:    1
  3468 ;; This function calls:
  3469 ;;		Nothing
  3470 ;; This function is called by:
  3471 ;;		_pwmDuty
  3472 ;; This function uses a non-reentrant model
  3473 ;;
  3474                           
  3475                           	psect	text18
  3476  000816                     __ptext18:
  3477                           	opt callstack 0
  3478  000816                     ___flmul:
  3479                           	opt callstack 29
  3480  000816  502B               	movf	(___flmul@b+3)^0,w,c
  3481  000818  0B80               	andlw	128
  3482  00081A  6E34               	movwf	___flmul@sign^0,c
  3483  00081C  502B               	movf	(___flmul@b+3)^0,w,c
  3484  00081E  242B               	addwf	(___flmul@b+3)^0,w,c
  3485  000820  6E3A               	movwf	___flmul@bexp^0,c
  3486  000822  AE2A               	btfss	(___flmul@b+2)^0,7,c
  3487  000824  EF16  F004         	goto	u2071
  3488  000828  EF18  F004         	goto	u2070
  3489  00082C                     u2071:
  3490  00082C  EF19  F004         	goto	l2243
  3491  000830                     u2070:
  3492  000830  803A               	bsf	___flmul@bexp^0,0,c
  3493  000832                     l2243:
  3494  000832  503A               	movf	___flmul@bexp^0,w,c
  3495  000834  B4D8               	btfsc	status,2,c
  3496  000836  EF1F  F004         	goto	u2081
  3497  00083A  EF21  F004         	goto	u2080
  3498  00083E                     u2081:
  3499  00083E  EF34  F004         	goto	l2251
  3500  000842                     u2080:
  3501  000842  283A               	incf	___flmul@bexp^0,w,c
  3502  000844  A4D8               	btfss	status,2,c
  3503  000846  EF27  F004         	goto	u2091
  3504  00084A  EF29  F004         	goto	u2090
  3505  00084E                     u2091:
  3506  00084E  EF31  F004         	goto	l2249
  3507  000852                     u2090:
  3508  000852  0E00               	movlw	0
  3509  000854  6E28               	movwf	___flmul@b^0,c
  3510  000856  0E00               	movlw	0
  3511  000858  6E29               	movwf	(___flmul@b+1)^0,c
  3512  00085A  0E00               	movlw	0
  3513  00085C  6E2A               	movwf	(___flmul@b+2)^0,c
  3514  00085E  0E00               	movlw	0
  3515  000860  6E2B               	movwf	(___flmul@b+3)^0,c
  3516  000862                     l2249:
  3517  000862  8E2A               	bsf	(___flmul@b+2)^0,7,c
  3518  000864  EF3C  F004         	goto	l2253
  3519  000868                     l2251:
  3520  000868  0E00               	movlw	0
  3521  00086A  6E28               	movwf	___flmul@b^0,c
  3522  00086C  0E00               	movlw	0
  3523  00086E  6E29               	movwf	(___flmul@b+1)^0,c
  3524  000870  0E00               	movlw	0
  3525  000872  6E2A               	movwf	(___flmul@b+2)^0,c
  3526  000874  0E00               	movlw	0
  3527  000876  6E2B               	movwf	(___flmul@b+3)^0,c
  3528  000878                     l2253:
  3529  000878  502F               	movf	(___flmul@a+3)^0,w,c
  3530  00087A  0B80               	andlw	128
  3531  00087C  1A34               	xorwf	___flmul@sign^0,f,c
  3532  00087E  502F               	movf	(___flmul@a+3)^0,w,c
  3533  000880  242F               	addwf	(___flmul@a+3)^0,w,c
  3534  000882  6E39               	movwf	___flmul@aexp^0,c
  3535  000884  AE2E               	btfss	(___flmul@a+2)^0,7,c
  3536  000886  EF47  F004         	goto	u2101
  3537  00088A  EF49  F004         	goto	u2100
  3538  00088E                     u2101:
  3539  00088E  EF4A  F004         	goto	l2261
  3540  000892                     u2100:
  3541  000892  8039               	bsf	___flmul@aexp^0,0,c
  3542  000894                     l2261:
  3543  000894  5039               	movf	___flmul@aexp^0,w,c
  3544  000896  B4D8               	btfsc	status,2,c
  3545  000898  EF50  F004         	goto	u2111
  3546  00089C  EF52  F004         	goto	u2110
  3547  0008A0                     u2111:
  3548  0008A0  EF65  F004         	goto	l2269
  3549  0008A4                     u2110:
  3550  0008A4  2839               	incf	___flmul@aexp^0,w,c
  3551  0008A6  A4D8               	btfss	status,2,c
  3552  0008A8  EF58  F004         	goto	u2121
  3553  0008AC  EF5A  F004         	goto	u2120
  3554  0008B0                     u2121:
  3555  0008B0  EF62  F004         	goto	l2267
  3556  0008B4                     u2120:
  3557  0008B4  0E00               	movlw	0
  3558  0008B6  6E2C               	movwf	___flmul@a^0,c
  3559  0008B8  0E00               	movlw	0
  3560  0008BA  6E2D               	movwf	(___flmul@a+1)^0,c
  3561  0008BC  0E00               	movlw	0
  3562  0008BE  6E2E               	movwf	(___flmul@a+2)^0,c
  3563  0008C0  0E00               	movlw	0
  3564  0008C2  6E2F               	movwf	(___flmul@a+3)^0,c
  3565  0008C4                     l2267:
  3566  0008C4  8E2E               	bsf	(___flmul@a+2)^0,7,c
  3567  0008C6  EF6D  F004         	goto	l847
  3568  0008CA                     l2269:
  3569  0008CA  0E00               	movlw	0
  3570  0008CC  6E2C               	movwf	___flmul@a^0,c
  3571  0008CE  0E00               	movlw	0
  3572  0008D0  6E2D               	movwf	(___flmul@a+1)^0,c
  3573  0008D2  0E00               	movlw	0
  3574  0008D4  6E2E               	movwf	(___flmul@a+2)^0,c
  3575  0008D6  0E00               	movlw	0
  3576  0008D8  6E2F               	movwf	(___flmul@a+3)^0,c
  3577  0008DA                     l847:
  3578  0008DA  5039               	movf	___flmul@aexp^0,w,c
  3579  0008DC  B4D8               	btfsc	status,2,c
  3580  0008DE  EF73  F004         	goto	u2131
  3581  0008E2  EF75  F004         	goto	u2130
  3582  0008E6                     u2131:
  3583  0008E6  EF7D  F004         	goto	l2273
  3584  0008EA                     u2130:
  3585  0008EA  503A               	movf	___flmul@bexp^0,w,c
  3586  0008EC  A4D8               	btfss	status,2,c
  3587  0008EE  EF7B  F004         	goto	u2141
  3588  0008F2  EF7D  F004         	goto	u2140
  3589  0008F6                     u2141:
  3590  0008F6  EF87  F004         	goto	l2277
  3591  0008FA                     u2140:
  3592  0008FA                     l2273:
  3593  0008FA  0E00               	movlw	0
  3594  0008FC  6E28               	movwf	?___flmul^0,c
  3595  0008FE  0E00               	movlw	0
  3596  000900  6E29               	movwf	(?___flmul+1)^0,c
  3597  000902  0E00               	movlw	0
  3598  000904  6E2A               	movwf	(?___flmul+2)^0,c
  3599  000906  0E00               	movlw	0
  3600  000908  6E2B               	movwf	(?___flmul+3)^0,c
  3601  00090A  EF1F  F006         	goto	l851
  3602  00090E                     l2277:
  3603  00090E  502E               	movf	(___flmul@a+2)^0,w,c
  3604  000910  0228               	mulwf	___flmul@b^0,c
  3605  000912  CFF3 F03F          	movff	prodl,___flmul@temp
  3606  000916  CFF4 F040          	movff	prodh,___flmul@temp+1
  3607  00091A  503F               	movf	___flmul@temp^0,w,c
  3608  00091C  6E35               	movwf	___flmul@grs^0,c
  3609  00091E  6A36               	clrf	(___flmul@grs+1)^0,c
  3610  000920  6A37               	clrf	(___flmul@grs+2)^0,c
  3611  000922  6A38               	clrf	(___flmul@grs+3)^0,c
  3612  000924  5040               	movf	(___flmul@temp+1)^0,w,c
  3613  000926  6E3B               	movwf	___flmul@prod^0,c
  3614  000928  6A3C               	clrf	(___flmul@prod+1)^0,c
  3615  00092A  6A3D               	clrf	(___flmul@prod+2)^0,c
  3616  00092C  6A3E               	clrf	(___flmul@prod+3)^0,c
  3617  00092E  502D               	movf	(___flmul@a+1)^0,w,c
  3618  000930  0229               	mulwf	(___flmul@b+1)^0,c
  3619  000932  CFF3 F03F          	movff	prodl,___flmul@temp
  3620  000936  CFF4 F040          	movff	prodh,___flmul@temp+1
  3621  00093A  503F               	movf	___flmul@temp^0,w,c
  3622  00093C  2635               	addwf	___flmul@grs^0,f,c
  3623  00093E  0E00               	movlw	0
  3624  000940  2236               	addwfc	(___flmul@grs+1)^0,f,c
  3625  000942  2237               	addwfc	(___flmul@grs+2)^0,f,c
  3626  000944  2238               	addwfc	(___flmul@grs+3)^0,f,c
  3627  000946  5040               	movf	(___flmul@temp+1)^0,w,c
  3628  000948  263B               	addwf	___flmul@prod^0,f,c
  3629  00094A  0E00               	movlw	0
  3630  00094C  223C               	addwfc	(___flmul@prod+1)^0,f,c
  3631  00094E  223D               	addwfc	(___flmul@prod+2)^0,f,c
  3632  000950  223E               	addwfc	(___flmul@prod+3)^0,f,c
  3633  000952  502C               	movf	___flmul@a^0,w,c
  3634  000954  022A               	mulwf	(___flmul@b+2)^0,c
  3635  000956  CFF3 F03F          	movff	prodl,___flmul@temp
  3636  00095A  CFF4 F040          	movff	prodh,___flmul@temp+1
  3637  00095E  503F               	movf	___flmul@temp^0,w,c
  3638  000960  2635               	addwf	___flmul@grs^0,f,c
  3639  000962  0E00               	movlw	0
  3640  000964  2236               	addwfc	(___flmul@grs+1)^0,f,c
  3641  000966  2237               	addwfc	(___flmul@grs+2)^0,f,c
  3642  000968  2238               	addwfc	(___flmul@grs+3)^0,f,c
  3643  00096A  5040               	movf	(___flmul@temp+1)^0,w,c
  3644  00096C  263B               	addwf	___flmul@prod^0,f,c
  3645  00096E  0E00               	movlw	0
  3646  000970  223C               	addwfc	(___flmul@prod+1)^0,f,c
  3647  000972  223D               	addwfc	(___flmul@prod+2)^0,f,c
  3648  000974  223E               	addwfc	(___flmul@prod+3)^0,f,c
  3649  000976  C037  F038         	movff	___flmul@grs+2,___flmul@grs+3
  3650  00097A  C036  F037         	movff	___flmul@grs+1,___flmul@grs+2
  3651  00097E  C035  F036         	movff	___flmul@grs,___flmul@grs+1
  3652  000982  6A35               	clrf	___flmul@grs^0,c
  3653  000984  502C               	movf	___flmul@a^0,w,c
  3654  000986  0229               	mulwf	(___flmul@b+1)^0,c
  3655  000988  CFF3 F03F          	movff	prodl,___flmul@temp
  3656  00098C  CFF4 F040          	movff	prodh,___flmul@temp+1
  3657  000990  503F               	movf	___flmul@temp^0,w,c
  3658  000992  2635               	addwf	___flmul@grs^0,f,c
  3659  000994  5040               	movf	(___flmul@temp+1)^0,w,c
  3660  000996  2236               	addwfc	(___flmul@grs+1)^0,f,c
  3661  000998  0E00               	movlw	0
  3662  00099A  2237               	addwfc	(___flmul@grs+2)^0,f,c
  3663  00099C  0E00               	movlw	0
  3664  00099E  2238               	addwfc	(___flmul@grs+3)^0,f,c
  3665  0009A0  502D               	movf	(___flmul@a+1)^0,w,c
  3666  0009A2  0228               	mulwf	___flmul@b^0,c
  3667  0009A4  CFF3 F03F          	movff	prodl,___flmul@temp
  3668  0009A8  CFF4 F040          	movff	prodh,___flmul@temp+1
  3669  0009AC  503F               	movf	___flmul@temp^0,w,c
  3670  0009AE  2635               	addwf	___flmul@grs^0,f,c
  3671  0009B0  5040               	movf	(___flmul@temp+1)^0,w,c
  3672  0009B2  2236               	addwfc	(___flmul@grs+1)^0,f,c
  3673  0009B4  0E00               	movlw	0
  3674  0009B6  2237               	addwfc	(___flmul@grs+2)^0,f,c
  3675  0009B8  0E00               	movlw	0
  3676  0009BA  2238               	addwfc	(___flmul@grs+3)^0,f,c
  3677  0009BC  C037  F038         	movff	___flmul@grs+2,___flmul@grs+3
  3678  0009C0  C036  F037         	movff	___flmul@grs+1,___flmul@grs+2
  3679  0009C4  C035  F036         	movff	___flmul@grs,___flmul@grs+1
  3680  0009C8  6A35               	clrf	___flmul@grs^0,c
  3681  0009CA  502C               	movf	___flmul@a^0,w,c
  3682  0009CC  0228               	mulwf	___flmul@b^0,c
  3683  0009CE  CFF3 F03F          	movff	prodl,___flmul@temp
  3684  0009D2  CFF4 F040          	movff	prodh,___flmul@temp+1
  3685  0009D6  503F               	movf	___flmul@temp^0,w,c
  3686  0009D8  2635               	addwf	___flmul@grs^0,f,c
  3687  0009DA  5040               	movf	(___flmul@temp+1)^0,w,c
  3688  0009DC  2236               	addwfc	(___flmul@grs+1)^0,f,c
  3689  0009DE  0E00               	movlw	0
  3690  0009E0  2237               	addwfc	(___flmul@grs+2)^0,f,c
  3691  0009E2  0E00               	movlw	0
  3692  0009E4  2238               	addwfc	(___flmul@grs+3)^0,f,c
  3693  0009E6  502E               	movf	(___flmul@a+2)^0,w,c
  3694  0009E8  0229               	mulwf	(___flmul@b+1)^0,c
  3695  0009EA  CFF3 F03F          	movff	prodl,___flmul@temp
  3696  0009EE  CFF4 F040          	movff	prodh,___flmul@temp+1
  3697  0009F2  503F               	movf	___flmul@temp^0,w,c
  3698  0009F4  263B               	addwf	___flmul@prod^0,f,c
  3699  0009F6  5040               	movf	(___flmul@temp+1)^0,w,c
  3700  0009F8  223C               	addwfc	(___flmul@prod+1)^0,f,c
  3701  0009FA  0E00               	movlw	0
  3702  0009FC  223D               	addwfc	(___flmul@prod+2)^0,f,c
  3703  0009FE  0E00               	movlw	0
  3704  000A00  223E               	addwfc	(___flmul@prod+3)^0,f,c
  3705  000A02  502D               	movf	(___flmul@a+1)^0,w,c
  3706  000A04  022A               	mulwf	(___flmul@b+2)^0,c
  3707  000A06  CFF3 F03F          	movff	prodl,___flmul@temp
  3708  000A0A  CFF4 F040          	movff	prodh,___flmul@temp+1
  3709  000A0E  503F               	movf	___flmul@temp^0,w,c
  3710  000A10  263B               	addwf	___flmul@prod^0,f,c
  3711  000A12  5040               	movf	(___flmul@temp+1)^0,w,c
  3712  000A14  223C               	addwfc	(___flmul@prod+1)^0,f,c
  3713  000A16  0E00               	movlw	0
  3714  000A18  223D               	addwfc	(___flmul@prod+2)^0,f,c
  3715  000A1A  0E00               	movlw	0
  3716  000A1C  223E               	addwfc	(___flmul@prod+3)^0,f,c
  3717  000A1E  502E               	movf	(___flmul@a+2)^0,w,c
  3718  000A20  022A               	mulwf	(___flmul@b+2)^0,c
  3719  000A22  CFF3 F03F          	movff	prodl,___flmul@temp
  3720  000A26  CFF4 F040          	movff	prodh,___flmul@temp+1
  3721  000A2A  503F               	movf	___flmul@temp^0,w,c
  3722  000A2C  6E30               	movwf	??___flmul^0,c
  3723  000A2E  5040               	movf	(___flmul@temp+1)^0,w,c
  3724  000A30  6E31               	movwf	(??___flmul+1)^0,c
  3725  000A32  6A32               	clrf	(??___flmul+2)^0,c
  3726  000A34  6A33               	clrf	(??___flmul+3)^0,c
  3727  000A36  C032  F033         	movff	??___flmul+2,??___flmul+3
  3728  000A3A  C031  F032         	movff	??___flmul+1,??___flmul+2
  3729  000A3E  C030  F031         	movff	??___flmul,??___flmul+1
  3730  000A42  6A30               	clrf	??___flmul^0,c
  3731  000A44  5030               	movf	??___flmul^0,w,c
  3732  000A46  263B               	addwf	___flmul@prod^0,f,c
  3733  000A48  5031               	movf	(??___flmul+1)^0,w,c
  3734  000A4A  223C               	addwfc	(___flmul@prod+1)^0,f,c
  3735  000A4C  5032               	movf	(??___flmul+2)^0,w,c
  3736  000A4E  223D               	addwfc	(___flmul@prod+2)^0,f,c
  3737  000A50  5033               	movf	(??___flmul+3)^0,w,c
  3738  000A52  223E               	addwfc	(___flmul@prod+3)^0,f,c
  3739  000A54  C035  F030         	movff	___flmul@grs,??___flmul
  3740  000A58  C036  F031         	movff	___flmul@grs+1,??___flmul+1
  3741  000A5C  C037  F032         	movff	___flmul@grs+2,??___flmul+2
  3742  000A60  C038  F033         	movff	___flmul@grs+3,??___flmul+3
  3743  000A64  0E19               	movlw	25
  3744  000A66  EF3A  F005         	goto	u2150
  3745  000A6A                     u2155:
  3746  000A6A  90D8               	bcf	status,0,c
  3747  000A6C  3233               	rrcf	(??___flmul+3)^0,f,c
  3748  000A6E  3232               	rrcf	(??___flmul+2)^0,f,c
  3749  000A70  3231               	rrcf	(??___flmul+1)^0,f,c
  3750  000A72  3230               	rrcf	??___flmul^0,f,c
  3751  000A74                     u2150:
  3752  000A74  2EE8               	decfsz	wreg,f,c
  3753  000A76  EF35  F005         	goto	u2155
  3754  000A7A  5030               	movf	??___flmul^0,w,c
  3755  000A7C  263B               	addwf	___flmul@prod^0,f,c
  3756  000A7E  5031               	movf	(??___flmul+1)^0,w,c
  3757  000A80  223C               	addwfc	(___flmul@prod+1)^0,f,c
  3758  000A82  5032               	movf	(??___flmul+2)^0,w,c
  3759  000A84  223D               	addwfc	(___flmul@prod+2)^0,f,c
  3760  000A86  5033               	movf	(??___flmul+3)^0,w,c
  3761  000A88  223E               	addwfc	(___flmul@prod+3)^0,f,c
  3762  000A8A  C037  F038         	movff	___flmul@grs+2,___flmul@grs+3
  3763  000A8E  C036  F037         	movff	___flmul@grs+1,___flmul@grs+2
  3764  000A92  C035  F036         	movff	___flmul@grs,___flmul@grs+1
  3765  000A96  6A35               	clrf	___flmul@grs^0,c
  3766  000A98  5039               	movf	___flmul@aexp^0,w,c
  3767  000A9A  C03A  F030         	movff	___flmul@bexp,??___flmul
  3768  000A9E  6A31               	clrf	(??___flmul+1)^0,c
  3769  000AA0  2630               	addwf	??___flmul^0,f,c
  3770  000AA2  0E00               	movlw	0
  3771  000AA4  2231               	addwfc	(??___flmul+1)^0,f,c
  3772  000AA6  0E82               	movlw	130
  3773  000AA8  2430               	addwf	??___flmul^0,w,c
  3774  000AAA  6E3F               	movwf	___flmul@temp^0,c
  3775  000AAC  0EFF               	movlw	255
  3776  000AAE  2031               	addwfc	(??___flmul+1)^0,w,c
  3777  000AB0  6E40               	movwf	(___flmul@temp+1)^0,c
  3778  000AB2  EF70  F005         	goto	l2325
  3779  000AB6                     l2319:
  3780  000AB6  90D8               	bcf	status,0,c
  3781  000AB8  363B               	rlcf	___flmul@prod^0,f,c
  3782  000ABA  363C               	rlcf	(___flmul@prod+1)^0,f,c
  3783  000ABC  363D               	rlcf	(___flmul@prod+2)^0,f,c
  3784  000ABE  363E               	rlcf	(___flmul@prod+3)^0,f,c
  3785  000AC0  AE38               	btfss	(___flmul@grs+3)^0,7,c
  3786  000AC2  EF65  F005         	goto	u2161
  3787  000AC6  EF67  F005         	goto	u2160
  3788  000ACA                     u2161:
  3789  000ACA  EF68  F005         	goto	l854
  3790  000ACE                     u2160:
  3791  000ACE  803B               	bsf	___flmul@prod^0,0,c
  3792  000AD0                     l854:
  3793  000AD0  90D8               	bcf	status,0,c
  3794  000AD2  3635               	rlcf	___flmul@grs^0,f,c
  3795  000AD4  3636               	rlcf	(___flmul@grs+1)^0,f,c
  3796  000AD6  3637               	rlcf	(___flmul@grs+2)^0,f,c
  3797  000AD8  3638               	rlcf	(___flmul@grs+3)^0,f,c
  3798  000ADA  063F               	decf	___flmul@temp^0,f,c
  3799  000ADC  A0D8               	btfss	status,0,c
  3800  000ADE  0640               	decf	(___flmul@temp+1)^0,f,c
  3801  000AE0                     l2325:
  3802  000AE0  AE3D               	btfss	(___flmul@prod+2)^0,7,c
  3803  000AE2  EF75  F005         	goto	u2171
  3804  000AE6  EF77  F005         	goto	u2170
  3805  000AEA                     u2171:
  3806  000AEA  EF5B  F005         	goto	l2319
  3807  000AEE                     u2170:
  3808  000AEE  0E00               	movlw	0
  3809  000AF0  6E39               	movwf	___flmul@aexp^0,c
  3810  000AF2  AE38               	btfss	(___flmul@grs+3)^0,7,c
  3811  000AF4  EF7E  F005         	goto	u2181
  3812  000AF8  EF80  F005         	goto	u2180
  3813  000AFC                     u2181:
  3814  000AFC  EFA4  F005         	goto	l856
  3815  000B00                     u2180:
  3816  000B00  0EFF               	movlw	255
  3817  000B02  1435               	andwf	___flmul@grs^0,w,c
  3818  000B04  6E30               	movwf	??___flmul^0,c
  3819  000B06  0EFF               	movlw	255
  3820  000B08  1436               	andwf	(___flmul@grs+1)^0,w,c
  3821  000B0A  6E31               	movwf	(??___flmul+1)^0,c
  3822  000B0C  0EFF               	movlw	255
  3823  000B0E  1437               	andwf	(___flmul@grs+2)^0,w,c
  3824  000B10  6E32               	movwf	(??___flmul+2)^0,c
  3825  000B12  0E7F               	movlw	127
  3826  000B14  1438               	andwf	(___flmul@grs+3)^0,w,c
  3827  000B16  6E33               	movwf	(??___flmul+3)^0,c
  3828  000B18  5030               	movf	??___flmul^0,w,c
  3829  000B1A  1031               	iorwf	(??___flmul+1)^0,w,c
  3830  000B1C  1032               	iorwf	(??___flmul+2)^0,w,c
  3831  000B1E  1033               	iorwf	(??___flmul+3)^0,w,c
  3832  000B20  B4D8               	btfsc	status,2,c
  3833  000B22  EF95  F005         	goto	u2191
  3834  000B26  EF97  F005         	goto	u2190
  3835  000B2A                     u2191:
  3836  000B2A  EF9B  F005         	goto	l857
  3837  000B2E                     u2190:
  3838  000B2E                     l2333:
  3839  000B2E  0E01               	movlw	1
  3840  000B30  6E39               	movwf	___flmul@aexp^0,c
  3841  000B32  EFA4  F005         	goto	l856
  3842  000B36                     l857:
  3843  000B36  A03B               	btfss	___flmul@prod^0,0,c
  3844  000B38  EFA0  F005         	goto	u2201
  3845  000B3C  EFA2  F005         	goto	u2200
  3846  000B40                     u2201:
  3847  000B40  EFA4  F005         	goto	l856
  3848  000B44                     u2200:
  3849  000B44  EF97  F005         	goto	l2333
  3850  000B48                     l856:
  3851  000B48  5039               	movf	___flmul@aexp^0,w,c
  3852  000B4A  B4D8               	btfsc	status,2,c
  3853  000B4C  EFAA  F005         	goto	u2211
  3854  000B50  EFAC  F005         	goto	u2210
  3855  000B54                     u2211:
  3856  000B54  EFD0  F005         	goto	l2345
  3857  000B58                     u2210:
  3858  000B58  0E01               	movlw	1
  3859  000B5A  263B               	addwf	___flmul@prod^0,f,c
  3860  000B5C  0E00               	movlw	0
  3861  000B5E  223C               	addwfc	(___flmul@prod+1)^0,f,c
  3862  000B60  223D               	addwfc	(___flmul@prod+2)^0,f,c
  3863  000B62  223E               	addwfc	(___flmul@prod+3)^0,f,c
  3864  000B64  A03E               	btfss	(___flmul@prod+3)^0,0,c
  3865  000B66  EFB7  F005         	goto	u2221
  3866  000B6A  EFB9  F005         	goto	u2220
  3867  000B6E                     u2221:
  3868  000B6E  EFD0  F005         	goto	l2345
  3869  000B72                     u2220:
  3870  000B72  C03B  F030         	movff	___flmul@prod,??___flmul
  3871  000B76  C03C  F031         	movff	___flmul@prod+1,??___flmul+1
  3872  000B7A  C03D  F032         	movff	___flmul@prod+2,??___flmul+2
  3873  000B7E  C03E  F033         	movff	___flmul@prod+3,??___flmul+3
  3874  000B82  3433               	rlcf	(??___flmul+3)^0,w,c
  3875  000B84  3233               	rrcf	(??___flmul+3)^0,f,c
  3876  000B86  3232               	rrcf	(??___flmul+2)^0,f,c
  3877  000B88  3231               	rrcf	(??___flmul+1)^0,f,c
  3878  000B8A  3230               	rrcf	??___flmul^0,f,c
  3879  000B8C  C030  F03B         	movff	??___flmul,___flmul@prod
  3880  000B90  C031  F03C         	movff	??___flmul+1,___flmul@prod+1
  3881  000B94  C032  F03D         	movff	??___flmul+2,___flmul@prod+2
  3882  000B98  C033  F03E         	movff	??___flmul+3,___flmul@prod+3
  3883  000B9C  4A3F               	infsnz	___flmul@temp^0,f,c
  3884  000B9E  2A40               	incf	(___flmul@temp+1)^0,f,c
  3885  000BA0                     l2345:
  3886  000BA0  BE40               	btfsc	(___flmul@temp+1)^0,7,c
  3887  000BA2  EFDB  F005         	goto	u2231
  3888  000BA6  5040               	movf	(___flmul@temp+1)^0,w,c
  3889  000BA8  E108               	bnz	u2230
  3890  000BAA  283F               	incf	___flmul@temp^0,w,c
  3891  000BAC  A0D8               	btfss	status,0,c
  3892  000BAE  EFDB  F005         	goto	u2231
  3893  000BB2  EFDD  F005         	goto	u2230
  3894  000BB6                     u2231:
  3895  000BB6  EFE7  F005         	goto	l2349
  3896  000BBA                     u2230:
  3897  000BBA  0E00               	movlw	0
  3898  000BBC  6E3B               	movwf	___flmul@prod^0,c
  3899  000BBE  0E00               	movlw	0
  3900  000BC0  6E3C               	movwf	(___flmul@prod+1)^0,c
  3901  000BC2  0E80               	movlw	128
  3902  000BC4  6E3D               	movwf	(___flmul@prod+2)^0,c
  3903  000BC6  0E7F               	movlw	127
  3904  000BC8  6E3E               	movwf	(___flmul@prod+3)^0,c
  3905  000BCA  EF15  F006         	goto	l2361
  3906  000BCE                     l2349:
  3907  000BCE  BE40               	btfsc	(___flmul@temp+1)^0,7,c
  3908  000BD0  EFF4  F005         	goto	u2240
  3909  000BD4  5040               	movf	(___flmul@temp+1)^0,w,c
  3910  000BD6  E106               	bnz	u2241
  3911  000BD8  043F               	decf	___flmul@temp^0,w,c
  3912  000BDA  B0D8               	btfsc	status,0,c
  3913  000BDC  EFF2  F005         	goto	u2241
  3914  000BE0  EFF4  F005         	goto	u2240
  3915  000BE4                     u2241:
  3916  000BE4  EF00  F006         	goto	l864
  3917  000BE8                     u2240:
  3918  000BE8  0E00               	movlw	0
  3919  000BEA  6E3B               	movwf	___flmul@prod^0,c
  3920  000BEC  0E00               	movlw	0
  3921  000BEE  6E3C               	movwf	(___flmul@prod+1)^0,c
  3922  000BF0  0E00               	movlw	0
  3923  000BF2  6E3D               	movwf	(___flmul@prod+2)^0,c
  3924  000BF4  0E00               	movlw	0
  3925  000BF6  6E3E               	movwf	(___flmul@prod+3)^0,c
  3926  000BF8  0E00               	movlw	0
  3927  000BFA  6E34               	movwf	___flmul@sign^0,c
  3928  000BFC  EF15  F006         	goto	l2361
  3929  000C00                     l864:
  3930  000C00  C03F  F03A         	movff	___flmul@temp,___flmul@bexp
  3931  000C04  0EFF               	movlw	255
  3932  000C06  163B               	andwf	___flmul@prod^0,f,c
  3933  000C08  0EFF               	movlw	255
  3934  000C0A  163C               	andwf	(___flmul@prod+1)^0,f,c
  3935  000C0C  0E7F               	movlw	127
  3936  000C0E  163D               	andwf	(___flmul@prod+2)^0,f,c
  3937  000C10  0E00               	movlw	0
  3938  000C12  163E               	andwf	(___flmul@prod+3)^0,f,c
  3939  000C14  A03A               	btfss	___flmul@bexp^0,0,c
  3940  000C16  EF0F  F006         	goto	u2251
  3941  000C1A  EF11  F006         	goto	u2250
  3942  000C1E                     u2251:
  3943  000C1E  EF12  F006         	goto	l2359
  3944  000C22                     u2250:
  3945  000C22  8E3D               	bsf	(___flmul@prod+2)^0,7,c
  3946  000C24                     l2359:
  3947  000C24  90D8               	bcf	status,0,c
  3948  000C26  303A               	rrcf	___flmul@bexp^0,w,c
  3949  000C28  6E3E               	movwf	(___flmul@prod+3)^0,c
  3950  000C2A                     l2361:
  3951  000C2A  5034               	movf	___flmul@sign^0,w,c
  3952  000C2C  123E               	iorwf	(___flmul@prod+3)^0,f,c
  3953  000C2E  C03B  F028         	movff	___flmul@prod,?___flmul
  3954  000C32  C03C  F029         	movff	___flmul@prod+1,?___flmul+1
  3955  000C36  C03D  F02A         	movff	___flmul@prod+2,?___flmul+2
  3956  000C3A  C03E  F02B         	movff	___flmul@prod+3,?___flmul+3
  3957  000C3E                     l851:
  3958  000C3E  0012               	return		;funcret
  3959  000C40                     __end_of___flmul:
  3960                           	opt callstack 0
  3961                           
  3962 ;; *************** function ___fldiv *****************
  3963 ;; Defined at:
  3964 ;;		line 11 in file "C:\Program Files (x86)\Microchip\xc8\v2.10\pic\sources\c99\common\sprcdiv.c"
  3965 ;; Parameters:    Size  Location     Type
  3966 ;;  b               4   14[COMRAM] unsigned char 
  3967 ;;  a               4   18[COMRAM] unsigned char 
  3968 ;; Auto vars:     Size  Location     Type
  3969 ;;  grs             4   33[COMRAM] unsigned long 
  3970 ;;  rem             4   26[COMRAM] unsigned long 
  3971 ;;  new_exp         2   31[COMRAM] short 
  3972 ;;  aexp            1   38[COMRAM] unsigned char 
  3973 ;;  bexp            1   37[COMRAM] unsigned char 
  3974 ;;  sign            1   30[COMRAM] unsigned char 
  3975 ;; Return value:  Size  Location     Type
  3976 ;;                  4   14[COMRAM] unsigned char 
  3977 ;; Registers used:
  3978 ;;		wreg, status,2, status,0
  3979 ;; Tracked objects:
  3980 ;;		On entry : 0/0
  3981 ;;		On exit  : 0/0
  3982 ;;		Unchanged: 0/0
  3983 ;; Data sizes:     COMRAM   BANK0   BANK1   BANK2   BANK3   BANK4   BANK5   BANK6   BANK7
  3984 ;;      Params:         8       0       0       0       0       0       0       0       0
  3985 ;;      Locals:        13       0       0       0       0       0       0       0       0
  3986 ;;      Temps:          4       0       0       0       0       0       0       0       0
  3987 ;;      Totals:        25       0       0       0       0       0       0       0       0
  3988 ;;Total ram usage:       25 bytes
  3989 ;; Hardware stack levels used:    1
  3990 ;; This function calls:
  3991 ;;		Nothing
  3992 ;; This function is called by:
  3993 ;;		_pwmDuty
  3994 ;; This function uses a non-reentrant model
  3995 ;;
  3996                           
  3997                           	psect	text19
  3998  000C40                     __ptext19:
  3999                           	opt callstack 0
  4000  000C40                     ___fldiv:
  4001                           	opt callstack 29
  4002  000C40  5012               	movf	(___fldiv@b+3)^0,w,c
  4003  000C42  0B80               	andlw	128
  4004  000C44  6E1F               	movwf	___fldiv@sign^0,c
  4005  000C46  5012               	movf	(___fldiv@b+3)^0,w,c
  4006  000C48  2412               	addwf	(___fldiv@b+3)^0,w,c
  4007  000C4A  6E26               	movwf	___fldiv@bexp^0,c
  4008  000C4C  AE11               	btfss	(___fldiv@b+2)^0,7,c
  4009  000C4E  EF2B  F006         	goto	u1841
  4010  000C52  EF2D  F006         	goto	u1840
  4011  000C56                     u1841:
  4012  000C56  EF2E  F006         	goto	l2105
  4013  000C5A                     u1840:
  4014  000C5A  8026               	bsf	___fldiv@bexp^0,0,c
  4015  000C5C                     l2105:
  4016  000C5C  5026               	movf	___fldiv@bexp^0,w,c
  4017  000C5E  B4D8               	btfsc	status,2,c
  4018  000C60  EF34  F006         	goto	u1851
  4019  000C64  EF36  F006         	goto	u1850
  4020  000C68                     u1851:
  4021  000C68  EF4B  F006         	goto	l2115
  4022  000C6C                     u1850:
  4023  000C6C  2826               	incf	___fldiv@bexp^0,w,c
  4024  000C6E  A4D8               	btfss	status,2,c
  4025  000C70  EF3C  F006         	goto	u1861
  4026  000C74  EF3E  F006         	goto	u1860
  4027  000C78                     u1861:
  4028  000C78  EF46  F006         	goto	l2111
  4029  000C7C                     u1860:
  4030  000C7C  0E00               	movlw	0
  4031  000C7E  6E0F               	movwf	___fldiv@b^0,c
  4032  000C80  0E00               	movlw	0
  4033  000C82  6E10               	movwf	(___fldiv@b+1)^0,c
  4034  000C84  0E00               	movlw	0
  4035  000C86  6E11               	movwf	(___fldiv@b+2)^0,c
  4036  000C88  0E00               	movlw	0
  4037  000C8A  6E12               	movwf	(___fldiv@b+3)^0,c
  4038  000C8C                     l2111:
  4039  000C8C  8E11               	bsf	(___fldiv@b+2)^0,7,c
  4040  000C8E  0E00               	movlw	0
  4041  000C90  6E12               	movwf	(___fldiv@b+3)^0,c
  4042  000C92  EF53  F006         	goto	l2117
  4043  000C96                     l2115:
  4044  000C96  0E00               	movlw	0
  4045  000C98  6E0F               	movwf	___fldiv@b^0,c
  4046  000C9A  0E00               	movlw	0
  4047  000C9C  6E10               	movwf	(___fldiv@b+1)^0,c
  4048  000C9E  0E00               	movlw	0
  4049  000CA0  6E11               	movwf	(___fldiv@b+2)^0,c
  4050  000CA2  0E00               	movlw	0
  4051  000CA4  6E12               	movwf	(___fldiv@b+3)^0,c
  4052  000CA6                     l2117:
  4053  000CA6  5016               	movf	(___fldiv@a+3)^0,w,c
  4054  000CA8  0B80               	andlw	128
  4055  000CAA  1A1F               	xorwf	___fldiv@sign^0,f,c
  4056  000CAC  5016               	movf	(___fldiv@a+3)^0,w,c
  4057  000CAE  2416               	addwf	(___fldiv@a+3)^0,w,c
  4058  000CB0  6E27               	movwf	___fldiv@aexp^0,c
  4059  000CB2  AE15               	btfss	(___fldiv@a+2)^0,7,c
  4060  000CB4  EF5E  F006         	goto	u1871
  4061  000CB8  EF60  F006         	goto	u1870
  4062  000CBC                     u1871:
  4063  000CBC  EF61  F006         	goto	l2125
  4064  000CC0                     u1870:
  4065  000CC0  8027               	bsf	___fldiv@aexp^0,0,c
  4066  000CC2                     l2125:
  4067  000CC2  5027               	movf	___fldiv@aexp^0,w,c
  4068  000CC4  B4D8               	btfsc	status,2,c
  4069  000CC6  EF67  F006         	goto	u1881
  4070  000CCA  EF69  F006         	goto	u1880
  4071  000CCE                     u1881:
  4072  000CCE  EF7E  F006         	goto	l2135
  4073  000CD2                     u1880:
  4074  000CD2  2827               	incf	___fldiv@aexp^0,w,c
  4075  000CD4  A4D8               	btfss	status,2,c
  4076  000CD6  EF6F  F006         	goto	u1891
  4077  000CDA  EF71  F006         	goto	u1890
  4078  000CDE                     u1891:
  4079  000CDE  EF79  F006         	goto	l2131
  4080  000CE2                     u1890:
  4081  000CE2  0E00               	movlw	0
  4082  000CE4  6E13               	movwf	___fldiv@a^0,c
  4083  000CE6  0E00               	movlw	0
  4084  000CE8  6E14               	movwf	(___fldiv@a+1)^0,c
  4085  000CEA  0E00               	movlw	0
  4086  000CEC  6E15               	movwf	(___fldiv@a+2)^0,c
  4087  000CEE  0E00               	movlw	0
  4088  000CF0  6E16               	movwf	(___fldiv@a+3)^0,c
  4089  000CF2                     l2131:
  4090  000CF2  8E15               	bsf	(___fldiv@a+2)^0,7,c
  4091  000CF4  0E00               	movlw	0
  4092  000CF6  6E16               	movwf	(___fldiv@a+3)^0,c
  4093  000CF8  EF86  F006         	goto	l2137
  4094  000CFC                     l2135:
  4095  000CFC  0E00               	movlw	0
  4096  000CFE  6E13               	movwf	___fldiv@a^0,c
  4097  000D00  0E00               	movlw	0
  4098  000D02  6E14               	movwf	(___fldiv@a+1)^0,c
  4099  000D04  0E00               	movlw	0
  4100  000D06  6E15               	movwf	(___fldiv@a+2)^0,c
  4101  000D08  0E00               	movlw	0
  4102  000D0A  6E16               	movwf	(___fldiv@a+3)^0,c
  4103  000D0C                     l2137:
  4104  000D0C  5013               	movf	___fldiv@a^0,w,c
  4105  000D0E  1014               	iorwf	(___fldiv@a+1)^0,w,c
  4106  000D10  1015               	iorwf	(___fldiv@a+2)^0,w,c
  4107  000D12  1016               	iorwf	(___fldiv@a+3)^0,w,c
  4108  000D14  A4D8               	btfss	status,2,c
  4109  000D16  EF8F  F006         	goto	u1901
  4110  000D1A  EF91  F006         	goto	u1900
  4111  000D1E                     u1901:
  4112  000D1E  EFA9  F006         	goto	l2149
  4113  000D22                     u1900:
  4114  000D22  0E00               	movlw	0
  4115  000D24  6E0F               	movwf	___fldiv@b^0,c
  4116  000D26  0E00               	movlw	0
  4117  000D28  6E10               	movwf	(___fldiv@b+1)^0,c
  4118  000D2A  0E00               	movlw	0
  4119  000D2C  6E11               	movwf	(___fldiv@b+2)^0,c
  4120  000D2E  0E00               	movlw	0
  4121  000D30  6E12               	movwf	(___fldiv@b+3)^0,c
  4122  000D32  0E80               	movlw	128
  4123  000D34  1211               	iorwf	(___fldiv@b+2)^0,f,c
  4124  000D36  0E7F               	movlw	127
  4125  000D38  1212               	iorwf	(___fldiv@b+3)^0,f,c
  4126  000D3A                     l2143:
  4127  000D3A  501F               	movf	___fldiv@sign^0,w,c
  4128  000D3C  1212               	iorwf	(___fldiv@b+3)^0,f,c
  4129  000D3E  C00F  F00F         	movff	___fldiv@b,?___fldiv
  4130  000D42  C010  F010         	movff	___fldiv@b+1,?___fldiv+1
  4131  000D46  C011  F011         	movff	___fldiv@b+2,?___fldiv+2
  4132  000D4A  C012  F012         	movff	___fldiv@b+3,?___fldiv+3
  4133  000D4E  EFEC  F007         	goto	l815
  4134  000D52                     l2149:
  4135  000D52  5026               	movf	___fldiv@bexp^0,w,c
  4136  000D54  A4D8               	btfss	status,2,c
  4137  000D56  EFAF  F006         	goto	u1911
  4138  000D5A  EFB1  F006         	goto	u1910
  4139  000D5E                     u1911:
  4140  000D5E  EFBB  F006         	goto	l2157
  4141  000D62                     u1910:
  4142  000D62  0E00               	movlw	0
  4143  000D64  6E0F               	movwf	?___fldiv^0,c
  4144  000D66  0E00               	movlw	0
  4145  000D68  6E10               	movwf	(?___fldiv+1)^0,c
  4146  000D6A  0E00               	movlw	0
  4147  000D6C  6E11               	movwf	(?___fldiv+2)^0,c
  4148  000D6E  0E00               	movlw	0
  4149  000D70  6E12               	movwf	(?___fldiv+3)^0,c
  4150  000D72  EFEC  F007         	goto	l815
  4151  000D76                     l2157:
  4152  000D76  5027               	movf	___fldiv@aexp^0,w,c
  4153  000D78  C026  F017         	movff	___fldiv@bexp,??___fldiv
  4154  000D7C  6A18               	clrf	(??___fldiv+1)^0,c
  4155  000D7E  5E17               	subwf	??___fldiv^0,f,c
  4156  000D80  0E00               	movlw	0
  4157  000D82  5A18               	subwfb	(??___fldiv+1)^0,f,c
  4158  000D84  0E7F               	movlw	127
  4159  000D86  2417               	addwf	??___fldiv^0,w,c
  4160  000D88  6E20               	movwf	___fldiv@new_exp^0,c
  4161  000D8A  0E00               	movlw	0
  4162  000D8C  2018               	addwfc	(??___fldiv+1)^0,w,c
  4163  000D8E  6E21               	movwf	(___fldiv@new_exp+1)^0,c
  4164  000D90  C00F  F01B         	movff	___fldiv@b,___fldiv@rem
  4165  000D94  C010  F01C         	movff	___fldiv@b+1,___fldiv@rem+1
  4166  000D98  C011  F01D         	movff	___fldiv@b+2,___fldiv@rem+2
  4167  000D9C  C012  F01E         	movff	___fldiv@b+3,___fldiv@rem+3
  4168  000DA0  0E00               	movlw	0
  4169  000DA2  6E0F               	movwf	___fldiv@b^0,c
  4170  000DA4  0E00               	movlw	0
  4171  000DA6  6E10               	movwf	(___fldiv@b+1)^0,c
  4172  000DA8  0E00               	movlw	0
  4173  000DAA  6E11               	movwf	(___fldiv@b+2)^0,c
  4174  000DAC  0E00               	movlw	0
  4175  000DAE  6E12               	movwf	(___fldiv@b+3)^0,c
  4176  000DB0  0E00               	movlw	0
  4177  000DB2  6E22               	movwf	___fldiv@grs^0,c
  4178  000DB4  0E00               	movlw	0
  4179  000DB6  6E23               	movwf	(___fldiv@grs+1)^0,c
  4180  000DB8  0E00               	movlw	0
  4181  000DBA  6E24               	movwf	(___fldiv@grs+2)^0,c
  4182  000DBC  0E00               	movlw	0
  4183  000DBE  6E25               	movwf	(___fldiv@grs+3)^0,c
  4184  000DC0  0E00               	movlw	0
  4185  000DC2  6E27               	movwf	___fldiv@aexp^0,c
  4186  000DC4  EF1C  F007         	goto	l817
  4187  000DC8                     l2167:
  4188  000DC8  5027               	movf	___fldiv@aexp^0,w,c
  4189  000DCA  B4D8               	btfsc	status,2,c
  4190  000DCC  EFEA  F006         	goto	u1921
  4191  000DD0  EFEC  F006         	goto	u1920
  4192  000DD4                     u1921:
  4193  000DD4  EF03  F007         	goto	l2175
  4194  000DD8                     u1920:
  4195  000DD8  90D8               	bcf	status,0,c
  4196  000DDA  361B               	rlcf	___fldiv@rem^0,f,c
  4197  000DDC  361C               	rlcf	(___fldiv@rem+1)^0,f,c
  4198  000DDE  361D               	rlcf	(___fldiv@rem+2)^0,f,c
  4199  000DE0  361E               	rlcf	(___fldiv@rem+3)^0,f,c
  4200  000DE2  90D8               	bcf	status,0,c
  4201  000DE4  360F               	rlcf	___fldiv@b^0,f,c
  4202  000DE6  3610               	rlcf	(___fldiv@b+1)^0,f,c
  4203  000DE8  3611               	rlcf	(___fldiv@b+2)^0,f,c
  4204  000DEA  3612               	rlcf	(___fldiv@b+3)^0,f,c
  4205  000DEC  AE25               	btfss	(___fldiv@grs+3)^0,7,c
  4206  000DEE  EFFB  F006         	goto	u1931
  4207  000DF2  EFFD  F006         	goto	u1930
  4208  000DF6                     u1931:
  4209  000DF6  EFFE  F006         	goto	l820
  4210  000DFA                     u1930:
  4211  000DFA  800F               	bsf	___fldiv@b^0,0,c
  4212  000DFC                     l820:
  4213  000DFC  90D8               	bcf	status,0,c
  4214  000DFE  3622               	rlcf	___fldiv@grs^0,f,c
  4215  000E00  3623               	rlcf	(___fldiv@grs+1)^0,f,c
  4216  000E02  3624               	rlcf	(___fldiv@grs+2)^0,f,c
  4217  000E04  3625               	rlcf	(___fldiv@grs+3)^0,f,c
  4218  000E06                     l2175:
  4219  000E06  5013               	movf	___fldiv@a^0,w,c
  4220  000E08  5C1B               	subwf	___fldiv@rem^0,w,c
  4221  000E0A  5014               	movf	(___fldiv@a+1)^0,w,c
  4222  000E0C  581C               	subwfb	(___fldiv@rem+1)^0,w,c
  4223  000E0E  5015               	movf	(___fldiv@a+2)^0,w,c
  4224  000E10  581D               	subwfb	(___fldiv@rem+2)^0,w,c
  4225  000E12  5016               	movf	(___fldiv@a+3)^0,w,c
  4226  000E14  581E               	subwfb	(___fldiv@rem+3)^0,w,c
  4227  000E16  A0D8               	btfss	status,0,c
  4228  000E18  EF10  F007         	goto	u1941
  4229  000E1C  EF12  F007         	goto	u1940
  4230  000E20                     u1941:
  4231  000E20  EF1B  F007         	goto	l2181
  4232  000E24                     u1940:
  4233  000E24  8C25               	bsf	(___fldiv@grs+3)^0,6,c
  4234  000E26  5013               	movf	___fldiv@a^0,w,c
  4235  000E28  5E1B               	subwf	___fldiv@rem^0,f,c
  4236  000E2A  5014               	movf	(___fldiv@a+1)^0,w,c
  4237  000E2C  5A1C               	subwfb	(___fldiv@rem+1)^0,f,c
  4238  000E2E  5015               	movf	(___fldiv@a+2)^0,w,c
  4239  000E30  5A1D               	subwfb	(___fldiv@rem+2)^0,f,c
  4240  000E32  5016               	movf	(___fldiv@a+3)^0,w,c
  4241  000E34  5A1E               	subwfb	(___fldiv@rem+3)^0,f,c
  4242  000E36                     l2181:
  4243  000E36  2A27               	incf	___fldiv@aexp^0,f,c
  4244  000E38                     l817:
  4245  000E38  0E19               	movlw	25
  4246  000E3A  6427               	cpfsgt	___fldiv@aexp^0,c
  4247  000E3C  EF22  F007         	goto	u1951
  4248  000E40  EF24  F007         	goto	u1950
  4249  000E44                     u1951:
  4250  000E44  EFE4  F006         	goto	l2167
  4251  000E48                     u1950:
  4252  000E48  501B               	movf	___fldiv@rem^0,w,c
  4253  000E4A  101C               	iorwf	(___fldiv@rem+1)^0,w,c
  4254  000E4C  101D               	iorwf	(___fldiv@rem+2)^0,w,c
  4255  000E4E  101E               	iorwf	(___fldiv@rem+3)^0,w,c
  4256  000E50  B4D8               	btfsc	status,2,c
  4257  000E52  EF2D  F007         	goto	u1961
  4258  000E56  EF2F  F007         	goto	u1960
  4259  000E5A                     u1961:
  4260  000E5A  EF47  F007         	goto	l2193
  4261  000E5E                     u1960:
  4262  000E5E  8022               	bsf	___fldiv@grs^0,0,c
  4263  000E60  EF47  F007         	goto	l2193
  4264  000E64                     l2187:
  4265  000E64  90D8               	bcf	status,0,c
  4266  000E66  360F               	rlcf	___fldiv@b^0,f,c
  4267  000E68  3610               	rlcf	(___fldiv@b+1)^0,f,c
  4268  000E6A  3611               	rlcf	(___fldiv@b+2)^0,f,c
  4269  000E6C  3612               	rlcf	(___fldiv@b+3)^0,f,c
  4270  000E6E  AE25               	btfss	(___fldiv@grs+3)^0,7,c
  4271  000E70  EF3C  F007         	goto	u1971
  4272  000E74  EF3E  F007         	goto	u1970
  4273  000E78                     u1971:
  4274  000E78  EF3F  F007         	goto	l826
  4275  000E7C                     u1970:
  4276  000E7C  800F               	bsf	___fldiv@b^0,0,c
  4277  000E7E                     l826:
  4278  000E7E  90D8               	bcf	status,0,c
  4279  000E80  3622               	rlcf	___fldiv@grs^0,f,c
  4280  000E82  3623               	rlcf	(___fldiv@grs+1)^0,f,c
  4281  000E84  3624               	rlcf	(___fldiv@grs+2)^0,f,c
  4282  000E86  3625               	rlcf	(___fldiv@grs+3)^0,f,c
  4283  000E88  0620               	decf	___fldiv@new_exp^0,f,c
  4284  000E8A  A0D8               	btfss	status,0,c
  4285  000E8C  0621               	decf	(___fldiv@new_exp+1)^0,f,c
  4286  000E8E                     l2193:
  4287  000E8E  AE11               	btfss	(___fldiv@b+2)^0,7,c
  4288  000E90  EF4C  F007         	goto	u1981
  4289  000E94  EF4E  F007         	goto	u1980
  4290  000E98                     u1981:
  4291  000E98  EF32  F007         	goto	l2187
  4292  000E9C                     u1980:
  4293  000E9C  0E00               	movlw	0
  4294  000E9E  6E27               	movwf	___fldiv@aexp^0,c
  4295  000EA0  AE25               	btfss	(___fldiv@grs+3)^0,7,c
  4296  000EA2  EF55  F007         	goto	u1991
  4297  000EA6  EF57  F007         	goto	u1990
  4298  000EAA                     u1991:
  4299  000EAA  EF7B  F007         	goto	l828
  4300  000EAE                     u1990:
  4301  000EAE  0EFF               	movlw	255
  4302  000EB0  1422               	andwf	___fldiv@grs^0,w,c
  4303  000EB2  6E17               	movwf	??___fldiv^0,c
  4304  000EB4  0EFF               	movlw	255
  4305  000EB6  1423               	andwf	(___fldiv@grs+1)^0,w,c
  4306  000EB8  6E18               	movwf	(??___fldiv+1)^0,c
  4307  000EBA  0EFF               	movlw	255
  4308  000EBC  1424               	andwf	(___fldiv@grs+2)^0,w,c
  4309  000EBE  6E19               	movwf	(??___fldiv+2)^0,c
  4310  000EC0  0E7F               	movlw	127
  4311  000EC2  1425               	andwf	(___fldiv@grs+3)^0,w,c
  4312  000EC4  6E1A               	movwf	(??___fldiv+3)^0,c
  4313  000EC6  5017               	movf	??___fldiv^0,w,c
  4314  000EC8  1018               	iorwf	(??___fldiv+1)^0,w,c
  4315  000ECA  1019               	iorwf	(??___fldiv+2)^0,w,c
  4316  000ECC  101A               	iorwf	(??___fldiv+3)^0,w,c
  4317  000ECE  B4D8               	btfsc	status,2,c
  4318  000ED0  EF6C  F007         	goto	u2001
  4319  000ED4  EF6E  F007         	goto	u2000
  4320  000ED8                     u2001:
  4321  000ED8  EF72  F007         	goto	l829
  4322  000EDC                     u2000:
  4323  000EDC                     l2201:
  4324  000EDC  0E01               	movlw	1
  4325  000EDE  6E27               	movwf	___fldiv@aexp^0,c
  4326  000EE0  EF7B  F007         	goto	l828
  4327  000EE4                     l829:
  4328  000EE4  A00F               	btfss	___fldiv@b^0,0,c
  4329  000EE6  EF77  F007         	goto	u2011
  4330  000EEA  EF79  F007         	goto	u2010
  4331  000EEE                     u2011:
  4332  000EEE  EF7B  F007         	goto	l828
  4333  000EF2                     u2010:
  4334  000EF2  EF6E  F007         	goto	l2201
  4335  000EF6                     l828:
  4336  000EF6  5027               	movf	___fldiv@aexp^0,w,c
  4337  000EF8  B4D8               	btfsc	status,2,c
  4338  000EFA  EF81  F007         	goto	u2021
  4339  000EFE  EF83  F007         	goto	u2020
  4340  000F02                     u2021:
  4341  000F02  EFA7  F007         	goto	l2213
  4342  000F06                     u2020:
  4343  000F06  0E01               	movlw	1
  4344  000F08  260F               	addwf	___fldiv@b^0,f,c
  4345  000F0A  0E00               	movlw	0
  4346  000F0C  2210               	addwfc	(___fldiv@b+1)^0,f,c
  4347  000F0E  2211               	addwfc	(___fldiv@b+2)^0,f,c
  4348  000F10  2212               	addwfc	(___fldiv@b+3)^0,f,c
  4349  000F12  A012               	btfss	(___fldiv@b+3)^0,0,c
  4350  000F14  EF8E  F007         	goto	u2031
  4351  000F18  EF90  F007         	goto	u2030
  4352  000F1C                     u2031:
  4353  000F1C  EFA7  F007         	goto	l2213
  4354  000F20                     u2030:
  4355  000F20  C00F  F017         	movff	___fldiv@b,??___fldiv
  4356  000F24  C010  F018         	movff	___fldiv@b+1,??___fldiv+1
  4357  000F28  C011  F019         	movff	___fldiv@b+2,??___fldiv+2
  4358  000F2C  C012  F01A         	movff	___fldiv@b+3,??___fldiv+3
  4359  000F30  341A               	rlcf	(??___fldiv+3)^0,w,c
  4360  000F32  321A               	rrcf	(??___fldiv+3)^0,f,c
  4361  000F34  3219               	rrcf	(??___fldiv+2)^0,f,c
  4362  000F36  3218               	rrcf	(??___fldiv+1)^0,f,c
  4363  000F38  3217               	rrcf	??___fldiv^0,f,c
  4364  000F3A  C017  F00F         	movff	??___fldiv,___fldiv@b
  4365  000F3E  C018  F010         	movff	??___fldiv+1,___fldiv@b+1
  4366  000F42  C019  F011         	movff	??___fldiv+2,___fldiv@b+2
  4367  000F46  C01A  F012         	movff	??___fldiv+3,___fldiv@b+3
  4368  000F4A  4A20               	infsnz	___fldiv@new_exp^0,f,c
  4369  000F4C  2A21               	incf	(___fldiv@new_exp+1)^0,f,c
  4370  000F4E                     l2213:
  4371  000F4E  BE21               	btfsc	(___fldiv@new_exp+1)^0,7,c
  4372  000F50  EFB2  F007         	goto	u2041
  4373  000F54  5021               	movf	(___fldiv@new_exp+1)^0,w,c
  4374  000F56  E108               	bnz	u2040
  4375  000F58  2820               	incf	___fldiv@new_exp^0,w,c
  4376  000F5A  A0D8               	btfss	status,0,c
  4377  000F5C  EFB2  F007         	goto	u2041
  4378  000F60  EFB4  F007         	goto	u2040
  4379  000F64                     u2041:
  4380  000F64  EFBF  F007         	goto	l2217
  4381  000F68                     u2040:
  4382  000F68  0E00               	movlw	0
  4383  000F6A  6E21               	movwf	(___fldiv@new_exp+1)^0,c
  4384  000F6C  6820               	setf	___fldiv@new_exp^0,c
  4385  000F6E  0E00               	movlw	0
  4386  000F70  6E0F               	movwf	___fldiv@b^0,c
  4387  000F72  0E00               	movlw	0
  4388  000F74  6E10               	movwf	(___fldiv@b+1)^0,c
  4389  000F76  0E00               	movlw	0
  4390  000F78  6E11               	movwf	(___fldiv@b+2)^0,c
  4391  000F7A  0E00               	movlw	0
  4392  000F7C  6E12               	movwf	(___fldiv@b+3)^0,c
  4393  000F7E                     l2217:
  4394  000F7E  BE21               	btfsc	(___fldiv@new_exp+1)^0,7,c
  4395  000F80  EFCC  F007         	goto	u2050
  4396  000F84  5021               	movf	(___fldiv@new_exp+1)^0,w,c
  4397  000F86  E106               	bnz	u2051
  4398  000F88  0420               	decf	___fldiv@new_exp^0,w,c
  4399  000F8A  B0D8               	btfsc	status,0,c
  4400  000F8C  EFCA  F007         	goto	u2051
  4401  000F90  EFCC  F007         	goto	u2050
  4402  000F94                     u2051:
  4403  000F94  EFDA  F007         	goto	l2221
  4404  000F98                     u2050:
  4405  000F98  0E00               	movlw	0
  4406  000F9A  6E21               	movwf	(___fldiv@new_exp+1)^0,c
  4407  000F9C  0E00               	movlw	0
  4408  000F9E  6E20               	movwf	___fldiv@new_exp^0,c
  4409  000FA0  0E00               	movlw	0
  4410  000FA2  6E0F               	movwf	___fldiv@b^0,c
  4411  000FA4  0E00               	movlw	0
  4412  000FA6  6E10               	movwf	(___fldiv@b+1)^0,c
  4413  000FA8  0E00               	movlw	0
  4414  000FAA  6E11               	movwf	(___fldiv@b+2)^0,c
  4415  000FAC  0E00               	movlw	0
  4416  000FAE  6E12               	movwf	(___fldiv@b+3)^0,c
  4417  000FB0  0E00               	movlw	0
  4418  000FB2  6E1F               	movwf	___fldiv@sign^0,c
  4419  000FB4                     l2221:
  4420  000FB4  C020  F026         	movff	___fldiv@new_exp,___fldiv@bexp
  4421  000FB8  A026               	btfss	___fldiv@bexp^0,0,c
  4422  000FBA  EFE1  F007         	goto	u2061
  4423  000FBE  EFE3  F007         	goto	u2060
  4424  000FC2                     u2061:
  4425  000FC2  EFE6  F007         	goto	l2227
  4426  000FC6                     u2060:
  4427  000FC6  8E11               	bsf	(___fldiv@b+2)^0,7,c
  4428  000FC8  EFE7  F007         	goto	l2229
  4429  000FCC                     l2227:
  4430  000FCC  9E11               	bcf	(___fldiv@b+2)^0,7,c
  4431  000FCE                     l2229:
  4432  000FCE  90D8               	bcf	status,0,c
  4433  000FD0  3026               	rrcf	___fldiv@bexp^0,w,c
  4434  000FD2  6E12               	movwf	(___fldiv@b+3)^0,c
  4435  000FD4  EF9D  F006         	goto	l2143
  4436  000FD8                     l815:
  4437  000FD8  0012               	return		;funcret
  4438  000FDA                     __end_of___fldiv:
  4439                           	opt callstack 0
  4440                           
  4441 ;; *************** function _dameDistancia *****************
  4442 ;; Defined at:
  4443 ;;		line 16 in file "./ultrasonico.h"
  4444 ;; Parameters:    Size  Location     Type
  4445 ;;  numeroSensor    1    wreg     unsigned char 
  4446 ;; Auto vars:     Size  Location     Type
  4447 ;;  numeroSensor    1   11[COMRAM] unsigned char 
  4448 ;;  conteo          2   14[COMRAM] unsigned int 
  4449 ;;  distancia       2   12[COMRAM] unsigned short 
  4450 ;; Return value:  Size  Location     Type
  4451 ;;                  2    7[COMRAM] unsigned short 
  4452 ;; Registers used:
  4453 ;;		wreg, status,2, status,0, cstack
  4454 ;; Tracked objects:
  4455 ;;		On entry : 0/0
  4456 ;;		On exit  : 0/0
  4457 ;;		Unchanged: 0/0
  4458 ;; Data sizes:     COMRAM   BANK0   BANK1   BANK2   BANK3   BANK4   BANK5   BANK6   BANK7
  4459 ;;      Params:         2       0       0       0       0       0       0       0       0
  4460 ;;      Locals:         5       0       0       0       0       0       0       0       0
  4461 ;;      Temps:          2       0       0       0       0       0       0       0       0
  4462 ;;      Totals:         9       0       0       0       0       0       0       0       0
  4463 ;;Total ram usage:        9 bytes
  4464 ;; Hardware stack levels used:    1
  4465 ;; Hardware stack levels required when called:    1
  4466 ;; This function calls:
  4467 ;;		___lwdiv
  4468 ;; This function is called by:
  4469 ;;		_main
  4470 ;; This function uses a non-reentrant model
  4471 ;;
  4472                           
  4473                           	psect	text20
  4474  001AC4                     __ptext20:
  4475                           	opt callstack 0
  4476  001AC4                     _dameDistancia:
  4477                           	opt callstack 29
  4478                           
  4479                           ;incstack = 0
  4480                           ;dameDistancia@numeroSensor stored from wreg
  4481  001AC4  6E0C               	movwf	dameDistancia@numeroSensor^0,c
  4482  001AC6                     
  4483                           ;./ultrasonico.h: 18:     unsigned int conteo;;./ultrasonico.h: 19:     unsigned short d
      +                          istancia;;./ultrasonico.h: 21:     TMR1H = 0x00;
  4484  001AC6  0E00               	movlw	0
  4485  001AC8  6ECF               	movwf	207,c	;volatile
  4486                           
  4487                           ;./ultrasonico.h: 22:     TMR1L = 0x00;
  4488  001ACA  0E00               	movlw	0
  4489  001ACC  6ECE               	movwf	206,c	;volatile
  4490                           
  4491                           ;./ultrasonico.h: 23:     conteo = 0;
  4492  001ACE  0E00               	movlw	0
  4493  001AD0  6E10               	movwf	(dameDistancia@conteo+1)^0,c
  4494  001AD2  0E00               	movlw	0
  4495  001AD4  6E0F               	movwf	dameDistancia@conteo^0,c
  4496  001AD6                     
  4497                           ;./ultrasonico.h: 24:     LATB0 = 1;
  4498  001AD6  808A               	bsf	3978,0,c	;volatile
  4499  001AD8                     
  4500                           ;./ultrasonico.h: 25:     _delay((unsigned long)((12)*(4000000/4000000.0)));
  4501  001AD8  0E04               	movlw	4
  4502  001ADA                     u2617:
  4503  001ADA  2EE8               	decfsz	wreg,f,c
  4504  001ADC  D7FE               	bra	u2617
  4505  001ADE                     
  4506                           ;./ultrasonico.h: 26:     LATB0 = 0;
  4507  001ADE  908A               	bcf	3978,0,c	;volatile
  4508                           
  4509                           ;./ultrasonico.h: 28:     switch (numeroSensor) {
  4510  001AE0  EFBA  F00D         	goto	l2529
  4511  001AE4                     l98:
  4512  001AE4  A281               	btfss	129,1,c	;volatile
  4513  001AE6  EF77  F00D         	goto	u2491
  4514  001AEA  EF79  F00D         	goto	u2490
  4515  001AEE                     u2491:
  4516  001AEE  EF72  F00D         	goto	l98
  4517  001AF2                     u2490:
  4518  001AF2                     
  4519                           ;./ultrasonico.h: 33:             TMR1ON = 1;
  4520  001AF2  80CD               	bsf	4045,0,c	;volatile
  4521  001AF4                     l101:
  4522  001AF4  A281               	btfss	129,1,c	;volatile
  4523  001AF6  EF7F  F00D         	goto	u2501
  4524  001AFA  EF81  F00D         	goto	u2500
  4525  001AFE                     u2501:
  4526  001AFE  EFD3  F00D         	goto	l106
  4527  001B02                     u2500:
  4528  001B02  A09E               	btfss	3998,0,c	;volatile
  4529  001B04  EF86  F00D         	goto	u2511
  4530  001B08  EF88  F00D         	goto	u2510
  4531  001B0C                     u2511:
  4532  001B0C  EF7A  F00D         	goto	l101
  4533  001B10                     u2510:
  4534  001B10  EFD3  F00D         	goto	l106
  4535  001B14                     l108:
  4536  001B14  A481               	btfss	129,2,c	;volatile
  4537  001B16  EF8F  F00D         	goto	u2521
  4538  001B1A  EF91  F00D         	goto	u2520
  4539  001B1E                     u2521:
  4540  001B1E  EF8A  F00D         	goto	l108
  4541  001B22                     u2520:
  4542  001B22                     
  4543                           ;./ultrasonico.h: 41:             TMR1ON = 1;
  4544  001B22  80CD               	bsf	4045,0,c	;volatile
  4545  001B24                     l111:
  4546  001B24  A481               	btfss	129,2,c	;volatile
  4547  001B26  EF97  F00D         	goto	u2531
  4548  001B2A  EF99  F00D         	goto	u2530
  4549  001B2E                     u2531:
  4550  001B2E  EFD3  F00D         	goto	l106
  4551  001B32                     u2530:
  4552  001B32  A09E               	btfss	3998,0,c	;volatile
  4553  001B34  EF9E  F00D         	goto	u2541
  4554  001B38  EFA0  F00D         	goto	u2540
  4555  001B3C                     u2541:
  4556  001B3C  EF92  F00D         	goto	l111
  4557  001B40                     u2540:
  4558  001B40  EFD3  F00D         	goto	l106
  4559  001B44                     l117:
  4560  001B44  A681               	btfss	129,3,c	;volatile
  4561  001B46  EFA7  F00D         	goto	u2551
  4562  001B4A  EFA9  F00D         	goto	u2550
  4563  001B4E                     u2551:
  4564  001B4E  EFA2  F00D         	goto	l117
  4565  001B52                     u2550:
  4566  001B52                     
  4567                           ;./ultrasonico.h: 49:             TMR1ON = 1;
  4568  001B52  80CD               	bsf	4045,0,c	;volatile
  4569  001B54                     l120:
  4570  001B54  A681               	btfss	129,3,c	;volatile
  4571  001B56  EFAF  F00D         	goto	u2561
  4572  001B5A  EFB1  F00D         	goto	u2560
  4573  001B5E                     u2561:
  4574  001B5E  EFD3  F00D         	goto	l106
  4575  001B62                     u2560:
  4576  001B62  A09E               	btfss	3998,0,c	;volatile
  4577  001B64  EFB6  F00D         	goto	u2571
  4578  001B68  EFB8  F00D         	goto	u2570
  4579  001B6C                     u2571:
  4580  001B6C  EFAA  F00D         	goto	l120
  4581  001B70                     u2570:
  4582  001B70  EFD3  F00D         	goto	l106
  4583  001B74                     l2529:
  4584  001B74  500C               	movf	dameDistancia@numeroSensor^0,w,c
  4585  001B76  6E0A               	movwf	??_dameDistancia^0,c
  4586  001B78  6A0B               	clrf	(??_dameDistancia+1)^0,c
  4587                           
  4588                           ; Switch on 2 bytes has been partitioned into a top level switch of size 1, and 1 sub-sw
      +                          itches
  4589                           ; Switch size 1, requested type "simple"
  4590                           ; Number of cases is 1, Range of values is 0 to 0
  4591                           ; switch strategies available:
  4592                           ; Name         Instructions Cycles
  4593                           ; simple_byte            4     3 (average)
  4594                           ;	Chosen strategy is simple_byte
  4595  001B7A  500B               	movf	(??_dameDistancia+1)^0,w,c
  4596  001B7C  0A00               	xorlw	0	; case 0
  4597  001B7E  B4D8               	btfsc	status,2,c
  4598  001B80  EFC4  F00D         	goto	l2673
  4599  001B84  EFD3  F00D         	goto	l106
  4600  001B88                     l2673:
  4601                           
  4602                           ; Switch size 1, requested type "simple"
  4603                           ; Number of cases is 3, Range of values is 1 to 3
  4604                           ; switch strategies available:
  4605                           ; Name         Instructions Cycles
  4606                           ; simple_byte           10     6 (average)
  4607                           ;	Chosen strategy is simple_byte
  4608  001B88  500A               	movf	??_dameDistancia^0,w,c
  4609  001B8A  0A01               	xorlw	1	; case 1
  4610  001B8C  B4D8               	btfsc	status,2,c
  4611  001B8E  EF72  F00D         	goto	l98
  4612  001B92  0A03               	xorlw	3	; case 2
  4613  001B94  B4D8               	btfsc	status,2,c
  4614  001B96  EF8A  F00D         	goto	l108
  4615  001B9A  0A01               	xorlw	1	; case 3
  4616  001B9C  B4D8               	btfsc	status,2,c
  4617  001B9E  EFA2  F00D         	goto	l117
  4618  001BA2  EFD3  F00D         	goto	l106
  4619  001BA6                     l106:
  4620                           
  4621                           ;./ultrasonico.h: 56:     TMR1ON = 0;
  4622  001BA6  90CD               	bcf	4045,0,c	;volatile
  4623                           
  4624                           ;./ultrasonico.h: 58:     if (!TMR1IF) {
  4625  001BA8  B09E               	btfsc	3998,0,c	;volatile
  4626  001BAA  EFD9  F00D         	goto	u2581
  4627  001BAE  EFDB  F00D         	goto	u2580
  4628  001BB2                     u2581:
  4629  001BB2  EFF4  F00D         	goto	l2535
  4630  001BB6                     u2580:
  4631  001BB6                     
  4632                           ;./ultrasonico.h: 59:         conteo |= TMR1H << 8;
  4633  001BB6  50CF               	movf	207,w,c	;volatile
  4634  001BB8  6E0B               	movwf	(??_dameDistancia+1)^0,c
  4635  001BBA  6A0A               	clrf	??_dameDistancia^0,c
  4636  001BBC  500A               	movf	??_dameDistancia^0,w,c
  4637  001BBE  120F               	iorwf	dameDistancia@conteo^0,f,c
  4638  001BC0  500B               	movf	(??_dameDistancia+1)^0,w,c
  4639  001BC2  1210               	iorwf	(dameDistancia@conteo+1)^0,f,c
  4640                           
  4641                           ;./ultrasonico.h: 60:         conteo |= TMR1L;
  4642  001BC4  50CE               	movf	206,w,c	;volatile
  4643  001BC6  120F               	iorwf	dameDistancia@conteo^0,f,c
  4644  001BC8                     
  4645                           ;./ultrasonico.h: 62:         distancia = conteo / 58;
  4646  001BC8  C00F  F001         	movff	dameDistancia@conteo,___lwdiv@dividend
  4647  001BCC  C010  F002         	movff	dameDistancia@conteo+1,___lwdiv@dividend+1
  4648  001BD0  0E00               	movlw	0
  4649  001BD2  6E04               	movwf	(___lwdiv@divisor+1)^0,c
  4650  001BD4  0E3A               	movlw	58
  4651  001BD6  6E03               	movwf	___lwdiv@divisor^0,c
  4652  001BD8  EC59  F010         	call	___lwdiv	;wreg free
  4653  001BDC  C001  F00D         	movff	?___lwdiv,dameDistancia@distancia
  4654  001BE0  C002  F00E         	movff	?___lwdiv+1,dameDistancia@distancia+1
  4655                           
  4656                           ;./ultrasonico.h: 63:     } else {
  4657  001BE4  EFF9  F00D         	goto	l2539
  4658  001BE8                     l2535:
  4659  001BE8                     
  4660                           ;./ultrasonico.h: 65:         TMR1IF = 0;
  4661  001BE8  909E               	bcf	3998,0,c	;volatile
  4662                           
  4663                           ;./ultrasonico.h: 66:         distancia = 0;
  4664  001BEA  0E00               	movlw	0
  4665  001BEC  6E0E               	movwf	(dameDistancia@distancia+1)^0,c
  4666  001BEE  0E00               	movlw	0
  4667  001BF0  6E0D               	movwf	dameDistancia@distancia^0,c
  4668  001BF2                     l2539:
  4669                           
  4670                           ;./ultrasonico.h: 70:     return distancia;
  4671  001BF2  C00D  F008         	movff	dameDistancia@distancia,?_dameDistancia
  4672  001BF6  C00E  F009         	movff	dameDistancia@distancia+1,?_dameDistancia+1
  4673  001BFA  0012               	return		;funcret
  4674  001BFC                     __end_of_dameDistancia:
  4675                           	opt callstack 0
  4676                           
  4677 ;; *************** function ___lwdiv *****************
  4678 ;; Defined at:
  4679 ;;		line 7 in file "C:\Program Files (x86)\Microchip\xc8\v2.10\pic\sources\c99\common\lwdiv.c"
  4680 ;; Parameters:    Size  Location     Type
  4681 ;;  dividend        2    0[COMRAM] unsigned int 
  4682 ;;  divisor         2    2[COMRAM] unsigned int 
  4683 ;; Auto vars:     Size  Location     Type
  4684 ;;  quotient        2    4[COMRAM] unsigned int 
  4685 ;;  counter         1    6[COMRAM] unsigned char 
  4686 ;; Return value:  Size  Location     Type
  4687 ;;                  2    0[COMRAM] unsigned int 
  4688 ;; Registers used:
  4689 ;;		wreg, status,2, status,0
  4690 ;; Tracked objects:
  4691 ;;		On entry : 0/0
  4692 ;;		On exit  : 0/0
  4693 ;;		Unchanged: 0/0
  4694 ;; Data sizes:     COMRAM   BANK0   BANK1   BANK2   BANK3   BANK4   BANK5   BANK6   BANK7
  4695 ;;      Params:         4       0       0       0       0       0       0       0       0
  4696 ;;      Locals:         3       0       0       0       0       0       0       0       0
  4697 ;;      Temps:          0       0       0       0       0       0       0       0       0
  4698 ;;      Totals:         7       0       0       0       0       0       0       0       0
  4699 ;;Total ram usage:        7 bytes
  4700 ;; Hardware stack levels used:    1
  4701 ;; This function calls:
  4702 ;;		Nothing
  4703 ;; This function is called by:
  4704 ;;		_dameDistancia
  4705 ;; This function uses a non-reentrant model
  4706 ;;
  4707                           
  4708                           	psect	text21
  4709  0020B2                     __ptext21:
  4710                           	opt callstack 0
  4711  0020B2                     ___lwdiv:
  4712                           	opt callstack 29
  4713  0020B2  0E00               	movlw	0
  4714  0020B4  6E06               	movwf	(___lwdiv@quotient+1)^0,c
  4715  0020B6  0E00               	movlw	0
  4716  0020B8  6E05               	movwf	___lwdiv@quotient^0,c
  4717  0020BA  5003               	movf	___lwdiv@divisor^0,w,c
  4718  0020BC  1004               	iorwf	(___lwdiv@divisor+1)^0,w,c
  4719  0020BE  B4D8               	btfsc	status,2,c
  4720  0020C0  EF64  F010         	goto	u2331
  4721  0020C4  EF66  F010         	goto	u2330
  4722  0020C8                     u2331:
  4723  0020C8  EF8E  F010         	goto	l724
  4724  0020CC                     u2330:
  4725  0020CC  0E01               	movlw	1
  4726  0020CE  6E07               	movwf	___lwdiv@counter^0,c
  4727  0020D0  EF6E  F010         	goto	l2419
  4728  0020D4                     l2417:
  4729  0020D4  90D8               	bcf	status,0,c
  4730  0020D6  3603               	rlcf	___lwdiv@divisor^0,f,c
  4731  0020D8  3604               	rlcf	(___lwdiv@divisor+1)^0,f,c
  4732  0020DA  2A07               	incf	___lwdiv@counter^0,f,c
  4733  0020DC                     l2419:
  4734  0020DC  AE04               	btfss	(___lwdiv@divisor+1)^0,7,c
  4735  0020DE  EF73  F010         	goto	u2341
  4736  0020E2  EF75  F010         	goto	u2340
  4737  0020E6                     u2341:
  4738  0020E6  EF6A  F010         	goto	l2417
  4739  0020EA                     u2340:
  4740  0020EA                     l2421:
  4741  0020EA  90D8               	bcf	status,0,c
  4742  0020EC  3605               	rlcf	___lwdiv@quotient^0,f,c
  4743  0020EE  3606               	rlcf	(___lwdiv@quotient+1)^0,f,c
  4744  0020F0  5003               	movf	___lwdiv@divisor^0,w,c
  4745  0020F2  5C01               	subwf	___lwdiv@dividend^0,w,c
  4746  0020F4  5004               	movf	(___lwdiv@divisor+1)^0,w,c
  4747  0020F6  5802               	subwfb	(___lwdiv@dividend+1)^0,w,c
  4748  0020F8  A0D8               	btfss	status,0,c
  4749  0020FA  EF81  F010         	goto	u2351
  4750  0020FE  EF83  F010         	goto	u2350
  4751  002102                     u2351:
  4752  002102  EF88  F010         	goto	l2429
  4753  002106                     u2350:
  4754  002106  5003               	movf	___lwdiv@divisor^0,w,c
  4755  002108  5E01               	subwf	___lwdiv@dividend^0,f,c
  4756  00210A  5004               	movf	(___lwdiv@divisor+1)^0,w,c
  4757  00210C  5A02               	subwfb	(___lwdiv@dividend+1)^0,f,c
  4758  00210E  8005               	bsf	___lwdiv@quotient^0,0,c
  4759  002110                     l2429:
  4760  002110  90D8               	bcf	status,0,c
  4761  002112  3204               	rrcf	(___lwdiv@divisor+1)^0,f,c
  4762  002114  3203               	rrcf	___lwdiv@divisor^0,f,c
  4763  002116  2E07               	decfsz	___lwdiv@counter^0,f,c
  4764  002118  EF75  F010         	goto	l2421
  4765  00211C                     l724:
  4766  00211C  C005  F001         	movff	___lwdiv@quotient,?___lwdiv
  4767  002120  C006  F002         	movff	___lwdiv@quotient+1,?___lwdiv+1
  4768  002124  0012               	return		;funcret
  4769  002126                     __end_of___lwdiv:
  4770                           	opt callstack 0
  4771                           
  4772 ;; *************** function _configPwm *****************
  4773 ;; Defined at:
  4774 ;;		line 47 in file "./pwm.h"
  4775 ;; Parameters:    Size  Location     Type
  4776 ;;  channel         1    wreg     unsigned char 
  4777 ;; Auto vars:     Size  Location     Type
  4778 ;;  channel         1    2[COMRAM] unsigned char 
  4779 ;; Return value:  Size  Location     Type
  4780 ;;                  1    wreg      void 
  4781 ;; Registers used:
  4782 ;;		wreg, status,2, status,0
  4783 ;; Tracked objects:
  4784 ;;		On entry : 0/0
  4785 ;;		On exit  : 0/0
  4786 ;;		Unchanged: 0/0
  4787 ;; Data sizes:     COMRAM   BANK0   BANK1   BANK2   BANK3   BANK4   BANK5   BANK6   BANK7
  4788 ;;      Params:         0       0       0       0       0       0       0       0       0
  4789 ;;      Locals:         1       0       0       0       0       0       0       0       0
  4790 ;;      Temps:          2       0       0       0       0       0       0       0       0
  4791 ;;      Totals:         3       0       0       0       0       0       0       0       0
  4792 ;;Total ram usage:        3 bytes
  4793 ;; Hardware stack levels used:    1
  4794 ;; This function calls:
  4795 ;;		Nothing
  4796 ;; This function is called by:
  4797 ;;		_main
  4798 ;; This function uses a non-reentrant model
  4799 ;;
  4800                           
  4801                           	psect	text22
  4802  0022B4                     __ptext22:
  4803                           	opt callstack 0
  4804  0022B4                     _configPwm:
  4805                           	opt callstack 30
  4806                           
  4807                           ;incstack = 0
  4808                           ;configPwm@channel stored from wreg
  4809  0022B4  6E03               	movwf	configPwm@channel^0,c
  4810  0022B6                     
  4811                           ;./pwm.h: 56:         T2CKPS0 = 1;
  4812  0022B6  80CA               	bsf	4042,0,c	;volatile
  4813                           
  4814                           ;./pwm.h: 57:         T2CKPS1 = 1;
  4815  0022B8  82CA               	bsf	4042,1,c	;volatile
  4816  0022BA                     
  4817                           ;./pwm.h: 61:     PR2 = (4000000 / (500 * 4 * 16)) - 1;
  4818  0022BA  0E7C               	movlw	124
  4819  0022BC  6ECB               	movwf	203,c	;volatile
  4820                           
  4821                           ;./pwm.h: 63:     switch (channel) {
  4822  0022BE  EF6B  F011         	goto	l2507
  4823  0022C2                     l90:
  4824                           
  4825                           ;./pwm.h: 66:             TRISC2 = 0;
  4826  0022C2  9494               	bcf	3988,2,c	;volatile
  4827                           
  4828                           ;./pwm.h: 67:             CCP1M3 = 1;
  4829  0022C4  86BD               	bsf	4029,3,c	;volatile
  4830                           
  4831                           ;./pwm.h: 68:             CCP1M2 = 1;
  4832  0022C6  84BD               	bsf	4029,2,c	;volatile
  4833                           
  4834                           ;./pwm.h: 71:             break;
  4835  0022C8  EF80  F011         	goto	l91
  4836  0022CC                     l92:
  4837                           
  4838                           ;./pwm.h: 74:             TRISC1 = 0;
  4839  0022CC  9294               	bcf	3988,1,c	;volatile
  4840                           
  4841                           ;./pwm.h: 75:             CCP2M3 = 1;
  4842  0022CE  86BA               	bsf	4026,3,c	;volatile
  4843                           
  4844                           ;./pwm.h: 76:             CCP2M2 = 1;
  4845  0022D0  84BA               	bsf	4026,2,c	;volatile
  4846                           
  4847                           ;./pwm.h: 77:             break;
  4848  0022D2  EF80  F011         	goto	l91
  4849  0022D6                     l2507:
  4850  0022D6  5003               	movf	configPwm@channel^0,w,c
  4851  0022D8  6E01               	movwf	??_configPwm^0,c
  4852  0022DA  6A02               	clrf	(??_configPwm+1)^0,c
  4853                           
  4854                           ; Switch on 2 bytes has been partitioned into a top level switch of size 1, and 1 sub-sw
      +                          itches
  4855                           ; Switch size 1, requested type "simple"
  4856                           ; Number of cases is 1, Range of values is 0 to 0
  4857                           ; switch strategies available:
  4858                           ; Name         Instructions Cycles
  4859                           ; simple_byte            4     3 (average)
  4860                           ;	Chosen strategy is simple_byte
  4861  0022DC  5002               	movf	(??_configPwm+1)^0,w,c
  4862  0022DE  0A00               	xorlw	0	; case 0
  4863  0022E0  B4D8               	btfsc	status,2,c
  4864  0022E2  EF75  F011         	goto	l2675
  4865  0022E6  EF80  F011         	goto	l91
  4866  0022EA                     l2675:
  4867                           
  4868                           ; Switch size 1, requested type "simple"
  4869                           ; Number of cases is 2, Range of values is 1 to 2
  4870                           ; switch strategies available:
  4871                           ; Name         Instructions Cycles
  4872                           ; simple_byte            7     4 (average)
  4873                           ;	Chosen strategy is simple_byte
  4874  0022EA  5001               	movf	??_configPwm^0,w,c
  4875  0022EC  0A01               	xorlw	1	; case 1
  4876  0022EE  B4D8               	btfsc	status,2,c
  4877  0022F0  EF61  F011         	goto	l90
  4878  0022F4  0A03               	xorlw	3	; case 2
  4879  0022F6  B4D8               	btfsc	status,2,c
  4880  0022F8  EF66  F011         	goto	l92
  4881  0022FC  EF80  F011         	goto	l91
  4882  002300                     l91:
  4883                           
  4884                           ;./pwm.h: 81:     TMR2ON = 1;
  4885  002300  84CA               	bsf	4042,2,c	;volatile
  4886  002302  0012               	return		;funcret
  4887  002304                     __end_of_configPwm:
  4888                           	opt callstack 0
  4889                           
  4890 ;; *************** function _UART_printf *****************
  4891 ;; Defined at:
  4892 ;;		line 47 in file "./UART.h"
  4893 ;; Parameters:    Size  Location     Type
  4894 ;;  cadena          2    1[COMRAM] PTR unsigned char 
  4895 ;;		 -> buffer(50), 
  4896 ;; Auto vars:     Size  Location     Type
  4897 ;;		None
  4898 ;; Return value:  Size  Location     Type
  4899 ;;                  1    wreg      void 
  4900 ;; Registers used:
  4901 ;;		wreg, fsr2l, fsr2h, status,2, status,0, cstack
  4902 ;; Tracked objects:
  4903 ;;		On entry : 0/0
  4904 ;;		On exit  : 0/0
  4905 ;;		Unchanged: 0/0
  4906 ;; Data sizes:     COMRAM   BANK0   BANK1   BANK2   BANK3   BANK4   BANK5   BANK6   BANK7
  4907 ;;      Params:         2       0       0       0       0       0       0       0       0
  4908 ;;      Locals:         0       0       0       0       0       0       0       0       0
  4909 ;;      Temps:          0       0       0       0       0       0       0       0       0
  4910 ;;      Totals:         2       0       0       0       0       0       0       0       0
  4911 ;;Total ram usage:        2 bytes
  4912 ;; Hardware stack levels used:    1
  4913 ;; Hardware stack levels required when called:    1
  4914 ;; This function calls:
  4915 ;;		_UART_write
  4916 ;; This function is called by:
  4917 ;;		_main
  4918 ;; This function uses a non-reentrant model
  4919 ;;
  4920                           
  4921                           	psect	text23
  4922  0023BE                     __ptext23:
  4923                           	opt callstack 0
  4924  0023BE                     _UART_printf:
  4925                           	opt callstack 29
  4926  0023BE                     
  4927                           ;./UART.h: 48:     while (*cadena) {
  4928  0023BE  EFEA  F011         	goto	l2577
  4929  0023C2                     l2573:
  4930                           
  4931                           ;./UART.h: 49:         UART_write(*cadena++);
  4932  0023C2  C002  FFD9         	movff	UART_printf@cadena,fsr2l
  4933  0023C6  C003  FFDA         	movff	UART_printf@cadena+1,fsr2h
  4934  0023CA  50DF               	movf	indf2,w,c
  4935  0023CC  EC02  F012         	call	_UART_write
  4936  0023D0  4A02               	infsnz	UART_printf@cadena^0,f,c
  4937  0023D2  2A03               	incf	(UART_printf@cadena+1)^0,f,c
  4938  0023D4                     l2577:
  4939                           
  4940                           ;./UART.h: 48:     while (*cadena) {
  4941  0023D4  C002  FFD9         	movff	UART_printf@cadena,fsr2l
  4942  0023D8  C003  FFDA         	movff	UART_printf@cadena+1,fsr2h
  4943  0023DC  50DF               	movf	indf2,w,c
  4944  0023DE  A4D8               	btfss	status,2,c
  4945  0023E0  EFF4  F011         	goto	u2591
  4946  0023E4  EFF6  F011         	goto	u2590
  4947  0023E8                     u2591:
  4948  0023E8  EFE1  F011         	goto	l2573
  4949  0023EC                     u2590:
  4950  0023EC  0012               	return		;funcret
  4951  0023EE                     __end_of_UART_printf:
  4952                           	opt callstack 0
  4953                           
  4954 ;; *************** function _UART_write *****************
  4955 ;; Defined at:
  4956 ;;		line 42 in file "./UART.h"
  4957 ;; Parameters:    Size  Location     Type
  4958 ;;  dato            1    wreg     unsigned char 
  4959 ;; Auto vars:     Size  Location     Type
  4960 ;;  dato            1    0[COMRAM] unsigned char 
  4961 ;; Return value:  Size  Location     Type
  4962 ;;                  1    wreg      void 
  4963 ;; Registers used:
  4964 ;;		wreg
  4965 ;; Tracked objects:
  4966 ;;		On entry : 0/0
  4967 ;;		On exit  : 0/0
  4968 ;;		Unchanged: 0/0
  4969 ;; Data sizes:     COMRAM   BANK0   BANK1   BANK2   BANK3   BANK4   BANK5   BANK6   BANK7
  4970 ;;      Params:         0       0       0       0       0       0       0       0       0
  4971 ;;      Locals:         1       0       0       0       0       0       0       0       0
  4972 ;;      Temps:          0       0       0       0       0       0       0       0       0
  4973 ;;      Totals:         1       0       0       0       0       0       0       0       0
  4974 ;;Total ram usage:        1 bytes
  4975 ;; Hardware stack levels used:    1
  4976 ;; This function calls:
  4977 ;;		Nothing
  4978 ;; This function is called by:
  4979 ;;		_UART_printf
  4980 ;; This function uses a non-reentrant model
  4981 ;;
  4982                           
  4983                           	psect	text24
  4984  002404                     __ptext24:
  4985                           	opt callstack 0
  4986  002404                     _UART_write:
  4987                           	opt callstack 29
  4988                           
  4989                           ;incstack = 0
  4990                           ;UART_write@dato stored from wreg
  4991  002404  6E01               	movwf	UART_write@dato^0,c
  4992  002406                     
  4993                           ;./UART.h: 43:     TXREG = dato;
  4994  002406  C001  FFAD         	movff	UART_write@dato,4013	;volatile
  4995  00240A                     l139:
  4996  00240A  A2AC               	btfss	172,1,c	;volatile
  4997  00240C  EF0A  F012         	goto	u1821
  4998  002410  EF0C  F012         	goto	u1820
  4999  002414                     u1821:
  5000  002414  EF05  F012         	goto	l139
  5001  002418                     u1820:
  5002  002418  0012               	return		;funcret
  5003  00241A                     __end_of_UART_write:
  5004                           	opt callstack 0
  5005                           
  5006 ;; *************** function _UART_init *****************
  5007 ;; Defined at:
  5008 ;;		line 13 in file "./UART.h"
  5009 ;; Parameters:    Size  Location     Type
  5010 ;;  BAUD            4   26[COMRAM] long 
  5011 ;; Auto vars:     Size  Location     Type
  5012 ;;  frecuenciaCr    4    0        long 
  5013 ;; Return value:  Size  Location     Type
  5014 ;;                  1    wreg      void 
  5015 ;; Registers used:
  5016 ;;		wreg, status,2, status,0, cstack
  5017 ;; Tracked objects:
  5018 ;;		On entry : 0/0
  5019 ;;		On exit  : 0/0
  5020 ;;		Unchanged: 0/0
  5021 ;; Data sizes:     COMRAM   BANK0   BANK1   BANK2   BANK3   BANK4   BANK5   BANK6   BANK7
  5022 ;;      Params:         4       0       0       0       0       0       0       0       0
  5023 ;;      Locals:         8       0       0       0       0       0       0       0       0
  5024 ;;      Temps:          0       0       0       0       0       0       0       0       0
  5025 ;;      Totals:        12       0       0       0       0       0       0       0       0
  5026 ;;Total ram usage:       12 bytes
  5027 ;; Hardware stack levels used:    1
  5028 ;; Hardware stack levels required when called:    1
  5029 ;; This function calls:
  5030 ;;		___aldiv
  5031 ;; This function is called by:
  5032 ;;		_main
  5033 ;; This function uses a non-reentrant model
  5034 ;;
  5035                           
  5036                           	psect	text25
  5037  002126                     __ptext25:
  5038                           	opt callstack 0
  5039  002126                     _UART_init:
  5040                           	opt callstack 29
  5041  002126                     
  5042                           ;./UART.h: 16:     TRISC6 = 0;
  5043  002126  9C94               	bcf	3988,6,c	;volatile
  5044  002128                     
  5045                           ;./UART.h: 17:     TRISC7 = 1;
  5046  002128  8E94               	bsf	3988,7,c	;volatile
  5047  00212A                     
  5048                           ;./UART.h: 20:     SPBRG = (frecuenciaCristal / 16 / BAUD) - 1;
  5049  00212A  0E10               	movlw	16
  5050  00212C  6E11               	movwf	___aldiv@divisor^0,c
  5051  00212E  0E00               	movlw	0
  5052  002130  6E12               	movwf	(___aldiv@divisor+1)^0,c
  5053  002132  0E00               	movlw	0
  5054  002134  6E13               	movwf	(___aldiv@divisor+2)^0,c
  5055  002136  0E00               	movlw	0
  5056  002138  6E14               	movwf	(___aldiv@divisor+3)^0,c
  5057  00213A  0E00               	movlw	0
  5058  00213C  6E0D               	movwf	___aldiv@dividend^0,c
  5059  00213E  0E09               	movlw	9
  5060  002140  6E0E               	movwf	(___aldiv@dividend+1)^0,c
  5061  002142  0E3D               	movlw	61
  5062  002144  6E0F               	movwf	(___aldiv@dividend+2)^0,c
  5063  002146  0E00               	movlw	0
  5064  002148  6E10               	movwf	(___aldiv@dividend+3)^0,c
  5065  00214A  ECFE  F00D         	call	___aldiv	;wreg free
  5066  00214E  C00D  F023         	movff	?___aldiv,_UART_init$1035
  5067  002152  C00E  F024         	movff	?___aldiv+1,_UART_init$1035+1
  5068  002156  C00F  F025         	movff	?___aldiv+2,_UART_init$1035+2
  5069  00215A  C010  F026         	movff	?___aldiv+3,_UART_init$1035+3
  5070  00215E                     
  5071                           ;./UART.h: 20:     SPBRG = (frecuenciaCristal / 16 / BAUD) - 1;
  5072  00215E  C023  F00D         	movff	_UART_init$1035,___aldiv@dividend
  5073  002162  C024  F00E         	movff	_UART_init$1035+1,___aldiv@dividend+1
  5074  002166  C025  F00F         	movff	_UART_init$1035+2,___aldiv@dividend+2
  5075  00216A  C026  F010         	movff	_UART_init$1035+3,___aldiv@dividend+3
  5076  00216E  C01B  F011         	movff	UART_init@BAUD,___aldiv@divisor
  5077  002172  C01C  F012         	movff	UART_init@BAUD+1,___aldiv@divisor+1
  5078  002176  C01D  F013         	movff	UART_init@BAUD+2,___aldiv@divisor+2
  5079  00217A  C01E  F014         	movff	UART_init@BAUD+3,___aldiv@divisor+3
  5080  00217E  ECFE  F00D         	call	___aldiv	;wreg free
  5081  002182  040D               	decf	?___aldiv^0,w,c
  5082  002184  6EAF               	movwf	175,c	;volatile
  5083  002186                     
  5084                           ;./UART.h: 23:     TXSTAbits.BRGH = 1;
  5085  002186  84AC               	bsf	172,2,c	;volatile
  5086  002188                     
  5087                           ;./UART.h: 24:     TXSTAbits.SYNC = 0;
  5088  002188  98AC               	bcf	172,4,c	;volatile
  5089  00218A                     
  5090                           ;./UART.h: 25:     RCSTAbits.SPEN = 1;
  5091  00218A  8EAB               	bsf	171,7,c	;volatile
  5092  00218C                     
  5093                           ;./UART.h: 28:     TXSTAbits.TX9 = 0;
  5094  00218C  9CAC               	bcf	172,6,c	;volatile
  5095  00218E                     
  5096                           ;./UART.h: 29:     TXSTAbits.TXEN = 1;
  5097  00218E  8AAC               	bsf	172,5,c	;volatile
  5098  002190                     
  5099                           ;./UART.h: 32:     RCSTAbits.RC9 = 0;
  5100  002190  9CAB               	bcf	171,6,c	;volatile
  5101  002192                     
  5102                           ;./UART.h: 33:     RCSTAbits.CREN = 1;
  5103  002192  88AB               	bsf	171,4,c	;volatile
  5104  002194  0012               	return		;funcret
  5105  002196                     __end_of_UART_init:
  5106                           	opt callstack 0
  5107                           
  5108 ;; *************** function ___aldiv *****************
  5109 ;; Defined at:
  5110 ;;		line 7 in file "C:\Program Files (x86)\Microchip\xc8\v2.10\pic\sources\c99\common\aldiv.c"
  5111 ;; Parameters:    Size  Location     Type
  5112 ;;  dividend        4   12[COMRAM] long 
  5113 ;;  divisor         4   16[COMRAM] long 
  5114 ;; Auto vars:     Size  Location     Type
  5115 ;;  quotient        4   22[COMRAM] long 
  5116 ;;  sign            1   21[COMRAM] unsigned char 
  5117 ;;  counter         1   20[COMRAM] unsigned char 
  5118 ;; Return value:  Size  Location     Type
  5119 ;;                  4   12[COMRAM] long 
  5120 ;; Registers used:
  5121 ;;		wreg, status,2, status,0
  5122 ;; Tracked objects:
  5123 ;;		On entry : 0/0
  5124 ;;		On exit  : 0/0
  5125 ;;		Unchanged: 0/0
  5126 ;; Data sizes:     COMRAM   BANK0   BANK1   BANK2   BANK3   BANK4   BANK5   BANK6   BANK7
  5127 ;;      Params:         8       0       0       0       0       0       0       0       0
  5128 ;;      Locals:         6       0       0       0       0       0       0       0       0
  5129 ;;      Temps:          0       0       0       0       0       0       0       0       0
  5130 ;;      Totals:        14       0       0       0       0       0       0       0       0
  5131 ;;Total ram usage:       14 bytes
  5132 ;; Hardware stack levels used:    1
  5133 ;; This function calls:
  5134 ;;		Nothing
  5135 ;; This function is called by:
  5136 ;;		_map
  5137 ;;		_UART_init
  5138 ;; This function uses a non-reentrant model
  5139 ;;
  5140                           
  5141                           	psect	text26
  5142  001BFC                     __ptext26:
  5143                           	opt callstack 0
  5144  001BFC                     ___aldiv:
  5145                           	opt callstack 28
  5146  001BFC  0E00               	movlw	0
  5147  001BFE  6E16               	movwf	___aldiv@sign^0,c
  5148  001C00  BE14               	btfsc	(___aldiv@divisor+3)^0,7,c
  5149  001C02  EF07  F00E         	goto	u1760
  5150  001C06  EF05  F00E         	goto	u1761
  5151  001C0A                     u1761:
  5152  001C0A  EF11  F00E         	goto	l2049
  5153  001C0E                     u1760:
  5154  001C0E  1E14               	comf	(___aldiv@divisor+3)^0,f,c
  5155  001C10  1E13               	comf	(___aldiv@divisor+2)^0,f,c
  5156  001C12  1E12               	comf	(___aldiv@divisor+1)^0,f,c
  5157  001C14  6C11               	negf	___aldiv@divisor^0,c
  5158  001C16  0E00               	movlw	0
  5159  001C18  2212               	addwfc	(___aldiv@divisor+1)^0,f,c
  5160  001C1A  2213               	addwfc	(___aldiv@divisor+2)^0,f,c
  5161  001C1C  2214               	addwfc	(___aldiv@divisor+3)^0,f,c
  5162  001C1E  0E01               	movlw	1
  5163  001C20  6E16               	movwf	___aldiv@sign^0,c
  5164  001C22                     l2049:
  5165  001C22  BE10               	btfsc	(___aldiv@dividend+3)^0,7,c
  5166  001C24  EF18  F00E         	goto	u1770
  5167  001C28  EF16  F00E         	goto	u1771
  5168  001C2C                     u1771:
  5169  001C2C  EF22  F00E         	goto	l2055
  5170  001C30                     u1770:
  5171  001C30  1E10               	comf	(___aldiv@dividend+3)^0,f,c
  5172  001C32  1E0F               	comf	(___aldiv@dividend+2)^0,f,c
  5173  001C34  1E0E               	comf	(___aldiv@dividend+1)^0,f,c
  5174  001C36  6C0D               	negf	___aldiv@dividend^0,c
  5175  001C38  0E00               	movlw	0
  5176  001C3A  220E               	addwfc	(___aldiv@dividend+1)^0,f,c
  5177  001C3C  220F               	addwfc	(___aldiv@dividend+2)^0,f,c
  5178  001C3E  2210               	addwfc	(___aldiv@dividend+3)^0,f,c
  5179  001C40  0E01               	movlw	1
  5180  001C42  1A16               	xorwf	___aldiv@sign^0,f,c
  5181  001C44                     l2055:
  5182  001C44  0E00               	movlw	0
  5183  001C46  6E17               	movwf	___aldiv@quotient^0,c
  5184  001C48  0E00               	movlw	0
  5185  001C4A  6E18               	movwf	(___aldiv@quotient+1)^0,c
  5186  001C4C  0E00               	movlw	0
  5187  001C4E  6E19               	movwf	(___aldiv@quotient+2)^0,c
  5188  001C50  0E00               	movlw	0
  5189  001C52  6E1A               	movwf	(___aldiv@quotient+3)^0,c
  5190  001C54  5011               	movf	___aldiv@divisor^0,w,c
  5191  001C56  1012               	iorwf	(___aldiv@divisor+1)^0,w,c
  5192  001C58  1013               	iorwf	(___aldiv@divisor+2)^0,w,c
  5193  001C5A  1014               	iorwf	(___aldiv@divisor+3)^0,w,c
  5194  001C5C  B4D8               	btfsc	status,2,c
  5195  001C5E  EF33  F00E         	goto	u1781
  5196  001C62  EF35  F00E         	goto	u1780
  5197  001C66                     u1781:
  5198  001C66  EF6B  F00E         	goto	l2077
  5199  001C6A                     u1780:
  5200  001C6A  0E01               	movlw	1
  5201  001C6C  6E15               	movwf	___aldiv@counter^0,c
  5202  001C6E  EF3F  F00E         	goto	l2063
  5203  001C72                     l2061:
  5204  001C72  90D8               	bcf	status,0,c
  5205  001C74  3611               	rlcf	___aldiv@divisor^0,f,c
  5206  001C76  3612               	rlcf	(___aldiv@divisor+1)^0,f,c
  5207  001C78  3613               	rlcf	(___aldiv@divisor+2)^0,f,c
  5208  001C7A  3614               	rlcf	(___aldiv@divisor+3)^0,f,c
  5209  001C7C  2A15               	incf	___aldiv@counter^0,f,c
  5210  001C7E                     l2063:
  5211  001C7E  AE14               	btfss	(___aldiv@divisor+3)^0,7,c
  5212  001C80  EF44  F00E         	goto	u1791
  5213  001C84  EF46  F00E         	goto	u1790
  5214  001C88                     u1791:
  5215  001C88  EF39  F00E         	goto	l2061
  5216  001C8C                     u1790:
  5217  001C8C                     l2065:
  5218  001C8C  90D8               	bcf	status,0,c
  5219  001C8E  3617               	rlcf	___aldiv@quotient^0,f,c
  5220  001C90  3618               	rlcf	(___aldiv@quotient+1)^0,f,c
  5221  001C92  3619               	rlcf	(___aldiv@quotient+2)^0,f,c
  5222  001C94  361A               	rlcf	(___aldiv@quotient+3)^0,f,c
  5223  001C96  5011               	movf	___aldiv@divisor^0,w,c
  5224  001C98  5C0D               	subwf	___aldiv@dividend^0,w,c
  5225  001C9A  5012               	movf	(___aldiv@divisor+1)^0,w,c
  5226  001C9C  580E               	subwfb	(___aldiv@dividend+1)^0,w,c
  5227  001C9E  5013               	movf	(___aldiv@divisor+2)^0,w,c
  5228  001CA0  580F               	subwfb	(___aldiv@dividend+2)^0,w,c
  5229  001CA2  5014               	movf	(___aldiv@divisor+3)^0,w,c
  5230  001CA4  5810               	subwfb	(___aldiv@dividend+3)^0,w,c
  5231  001CA6  A0D8               	btfss	status,0,c
  5232  001CA8  EF58  F00E         	goto	u1801
  5233  001CAC  EF5A  F00E         	goto	u1800
  5234  001CB0                     u1801:
  5235  001CB0  EF63  F00E         	goto	l2073
  5236  001CB4                     u1800:
  5237  001CB4  5011               	movf	___aldiv@divisor^0,w,c
  5238  001CB6  5E0D               	subwf	___aldiv@dividend^0,f,c
  5239  001CB8  5012               	movf	(___aldiv@divisor+1)^0,w,c
  5240  001CBA  5A0E               	subwfb	(___aldiv@dividend+1)^0,f,c
  5241  001CBC  5013               	movf	(___aldiv@divisor+2)^0,w,c
  5242  001CBE  5A0F               	subwfb	(___aldiv@dividend+2)^0,f,c
  5243  001CC0  5014               	movf	(___aldiv@divisor+3)^0,w,c
  5244  001CC2  5A10               	subwfb	(___aldiv@dividend+3)^0,f,c
  5245  001CC4  8017               	bsf	___aldiv@quotient^0,0,c
  5246  001CC6                     l2073:
  5247  001CC6  90D8               	bcf	status,0,c
  5248  001CC8  3214               	rrcf	(___aldiv@divisor+3)^0,f,c
  5249  001CCA  3213               	rrcf	(___aldiv@divisor+2)^0,f,c
  5250  001CCC  3212               	rrcf	(___aldiv@divisor+1)^0,f,c
  5251  001CCE  3211               	rrcf	___aldiv@divisor^0,f,c
  5252  001CD0  2E15               	decfsz	___aldiv@counter^0,f,c
  5253  001CD2  EF46  F00E         	goto	l2065
  5254  001CD6                     l2077:
  5255  001CD6  5016               	movf	___aldiv@sign^0,w,c
  5256  001CD8  B4D8               	btfsc	status,2,c
  5257  001CDA  EF71  F00E         	goto	u1811
  5258  001CDE  EF73  F00E         	goto	u1810
  5259  001CE2                     u1811:
  5260  001CE2  EF7B  F00E         	goto	l2081
  5261  001CE6                     u1810:
  5262  001CE6  1E1A               	comf	(___aldiv@quotient+3)^0,f,c
  5263  001CE8  1E19               	comf	(___aldiv@quotient+2)^0,f,c
  5264  001CEA  1E18               	comf	(___aldiv@quotient+1)^0,f,c
  5265  001CEC  6C17               	negf	___aldiv@quotient^0,c
  5266  001CEE  0E00               	movlw	0
  5267  001CF0  2218               	addwfc	(___aldiv@quotient+1)^0,f,c
  5268  001CF2  2219               	addwfc	(___aldiv@quotient+2)^0,f,c
  5269  001CF4  221A               	addwfc	(___aldiv@quotient+3)^0,f,c
  5270  001CF6                     l2081:
  5271  001CF6  C017  F00D         	movff	___aldiv@quotient,?___aldiv
  5272  001CFA  C018  F00E         	movff	___aldiv@quotient+1,?___aldiv+1
  5273  001CFE  C019  F00F         	movff	___aldiv@quotient+2,?___aldiv+2
  5274  001D02  C01A  F010         	movff	___aldiv@quotient+3,?___aldiv+3
  5275  001D06  0012               	return		;funcret
  5276  001D08                     __end_of___aldiv:
  5277                           	opt callstack 0
  5278                           
  5279                           	psect	rparam
  5280  0000                     tosu	equ	0xFFF
  5281                           tosh	equ	0xFFE
  5282                           tosl	equ	0xFFD
  5283                           stkptr	equ	0xFFC
  5284                           pclatu	equ	0xFFB
  5285                           pclath	equ	0xFFA
  5286                           pcl	equ	0xFF9
  5287                           tblptru	equ	0xFF8
  5288                           tblptrh	equ	0xFF7
  5289                           tblptrl	equ	0xFF6
  5290                           tablat	equ	0xFF5
  5291                           prodh	equ	0xFF4
  5292                           prodl	equ	0xFF3
  5293                           indf0	equ	0xFEF
  5294                           postinc0	equ	0xFEE
  5295                           postdec0	equ	0xFED
  5296                           preinc0	equ	0xFEC
  5297                           plusw0	equ	0xFEB
  5298                           fsr0h	equ	0xFEA
  5299                           fsr0l	equ	0xFE9
  5300                           wreg	equ	0xFE8
  5301                           indf1	equ	0xFE7
  5302                           postinc1	equ	0xFE6
  5303                           postdec1	equ	0xFE5
  5304                           preinc1	equ	0xFE4
  5305                           plusw1	equ	0xFE3
  5306                           fsr1h	equ	0xFE2
  5307                           fsr1l	equ	0xFE1
  5308                           bsr	equ	0xFE0
  5309                           indf2	equ	0xFDF
  5310                           postinc2	equ	0xFDE
  5311                           postdec2	equ	0xFDD
  5312                           preinc2	equ	0xFDC
  5313                           plusw2	equ	0xFDB
  5314                           fsr2h	equ	0xFDA
  5315                           fsr2l	equ	0xFD9
  5316                           status	equ	0xFD8


Data Sizes:
    Strings     20
    Constant    0
    Data        0
    BSS         90
    Persistent  0
    Stack       0

Auto Spaces:
    Space          Size  Autos    Used
    COMRAM           95     95      95
    BANK0           160     10     100
    BANK1           256      0       0
    BANK2           256      0       0
    BANK3           256      0       0
    BANK4           256      0       0
    BANK5           256      0       0
    BANK6           256      0       0
    BANK7           256      0       0

Pointer List with Targets:

    strlen@s	PTR const unsigned char  size(2) Largest target is 32
		 -> dbuf(BANK0[32]), 

    strlen@a	PTR const unsigned char  size(2) Largest target is 32
		 -> dbuf(BANK0[32]), 

    sprintf@fmt	PTR const unsigned char  size(2) Largest target is 20
		 -> STR_1(CODE[20]), 

    sprintf@s	PTR unsigned char  size(2) Largest target is 50
		 -> buffer(BANK0[50]), 

    sprintf@ap	PTR void [1] size(2) Largest target is 2
		 -> ?_sprintf(COMRAM[2]), 

    f.buffer	PTR unsigned char  size(2) Largest target is 50
		 -> buffer(BANK0[50]), 

    fputs@s	PTR const unsigned char  size(2) Largest target is 32
		 -> dbuf(BANK0[32]), 

    fputs@fp	PTR struct _IO_FILE size(2) Largest target is 7
		 -> sprintf@f(BANK0[6]), 

    S789_IO_FILE$buffer	PTR unsigned char  size(2) Largest target is 50
		 -> buffer(BANK0[50]), 

    fputc@fp.buffer	PTR unsigned char  size(2) Largest target is 50
		 -> buffer(BANK0[50]), 

    fputc@fp	PTR struct _IO_FILE size(2) Largest target is 7
		 -> sprintf@f(BANK0[6]), 

    vfprintf@ap	PTR PTR void  size(2) Largest target is 2
		 -> sprintf@ap(BANK0[2]), 

    vfprintf@fp	PTR struct _IO_FILE size(2) Largest target is 7
		 -> sprintf@f(BANK0[6]), 

    vfprintf@fmt	PTR const unsigned char  size(2) Largest target is 20
		 -> STR_1(CODE[20]), 

    vfprintf@cfmt	PTR unsigned char  size(2) Largest target is 20
		 -> STR_1(CODE[20]), 

    vfpfcnvrt@fp	PTR struct _IO_FILE size(2) Largest target is 7
		 -> sprintf@f(BANK0[6]), 

    vfpfcnvrt@ap	PTR PTR void  size(2) Largest target is 2
		 -> sprintf@ap(BANK0[2]), 

    vfpfcnvrt@fmt	PTR PTR unsigned char  size(2) Largest target is 2
		 -> vfprintf@cfmt(COMRAM[2]), 

    dtoa@fp	PTR struct _IO_FILE size(2) Largest target is 7
		 -> sprintf@f(BANK0[6]), 

    pad@fp	PTR struct _IO_FILE size(2) Largest target is 7
		 -> sprintf@f(BANK0[6]), 

    pad@buf	PTR unsigned char  size(2) Largest target is 32
		 -> dbuf(BANK0[32]), 

    UART_printf@cadena	PTR unsigned char  size(2) Largest target is 50
		 -> buffer(BANK0[50]), 


Critical Paths under _main in COMRAM

    _main->_sprintf
    _sprintf->_vfprintf
    _vfprintf->_vfpfcnvrt
    _vfpfcnvrt->_dtoa
    _dtoa->_pad
    _pad->_fputs
    _fputs->_fputc
    _abs->___aomod
    _pwmDuty->___fltol
    _map->___aldiv
    ___fltol->___flmul
    ___flmul->___fldiv
    ___fldiv->___xxtofl
    _dameDistancia->___lwdiv
    _UART_printf->_UART_write
    _UART_init->___aldiv
    ___aldiv->___lmul

Critical Paths under _main in BANK0

    _main->_sprintf

Critical Paths under _main in BANK1

    None.

Critical Paths under _main in BANK2

    None.

Critical Paths under _main in BANK3

    None.

Critical Paths under _main in BANK4

    None.

Critical Paths under _main in BANK5

    None.

Critical Paths under _main in BANK6

    None.

Critical Paths under _main in BANK7

    None.

Call Graph Tables:

 ---------------------------------------------------------------------------------
 (Depth) Function   	        Calls       Base Space   Used Autos Params    Refs
 ---------------------------------------------------------------------------------
 (0) _main                                                 2     2      0   13895
                                             93 COMRAM     2     2      0
                          _UART_init
                        _UART_printf
                          _configPwm
                      _dameDistancia
                            _pwmDuty
                            _sprintf
 ---------------------------------------------------------------------------------
 (1) _sprintf                                             16    10      6    6456
                                             87 COMRAM     6     0      6
                                              0 BANK0     10    10      0
                      _dameDistancia (ARG)
                           _vfprintf
 ---------------------------------------------------------------------------------
 (2) _vfprintf                                             8     2      6    6105
                                             79 COMRAM     8     2      6
                          _vfpfcnvrt
 ---------------------------------------------------------------------------------
 (3) _vfpfcnvrt                                           42    36      6    5751
                                             63 COMRAM    16    10      6
                               _dtoa
                              _fputc
 ---------------------------------------------------------------------------------
 (4) _dtoa                                                36    26     10    4358
                                             27 COMRAM    36    26     10
                            ___aodiv
                            ___aomod
                                _abs
                                _pad
 ---------------------------------------------------------------------------------
 (5) _pad                                                 11     5      6    2709
                                             16 COMRAM    11     5      6
                              _fputc
                              _fputs
                             _strlen
 ---------------------------------------------------------------------------------
 (6) _strlen                                               4     2      2     166
                                              0 COMRAM     4     2      2
 ---------------------------------------------------------------------------------
 (6) _fputs                                                7     3      4    1235
                                              9 COMRAM     7     3      4
                              _fputc
 ---------------------------------------------------------------------------------
 (4) _fputc                                                9     5      4     834
                                              0 COMRAM     9     5      4
                              _putch
 ---------------------------------------------------------------------------------
 (5) _putch                                                1     1      0       0
 ---------------------------------------------------------------------------------
 (5) _abs                                                  4     2      2     142
                                             18 COMRAM     4     2      2
                            ___aomod (ARG)
 ---------------------------------------------------------------------------------
 (5) ___aomod                                             18     2     16     448
                                              0 COMRAM    18     2     16
 ---------------------------------------------------------------------------------
 (5) ___aodiv                                             26    10     16     452
                                              0 COMRAM    26    10     16
 ---------------------------------------------------------------------------------
 (1) _pwmDuty                                             12     9      3    5988
                                             74 COMRAM    12     9      3
                            ___fldiv
                            ___flmul
                            ___fltol
                           ___xxtofl
                                _map
 ---------------------------------------------------------------------------------
 (2) _map                                                 20     0     20    1660
                                             26 COMRAM    20     0     20
                            ___aldiv
                             ___lmul
 ---------------------------------------------------------------------------------
 (3) ___lmul                                              12     4      8     370
                                              0 COMRAM    12     4      8
 ---------------------------------------------------------------------------------
 (2) ___xxtofl                                            14    10      4     398
                                              0 COMRAM    14    10      4
 ---------------------------------------------------------------------------------
 (2) ___fltol                                             10     6      4     305
                                             64 COMRAM    10     6      4
                            ___fldiv (ARG)
                            ___flmul (ARG)
                           ___xxtofl (ARG)
 ---------------------------------------------------------------------------------
 (2) ___flmul                                             25    17      8    1744
                                             39 COMRAM    25    17      8
                            ___fldiv (ARG)
                           ___xxtofl (ARG)
 ---------------------------------------------------------------------------------
 (2) ___fldiv                                             25    17      8    1399
                                             14 COMRAM    25    17      8
                           ___xxtofl (ARG)
 ---------------------------------------------------------------------------------
 (1) _dameDistancia                                        9     7      2     386
                                              7 COMRAM     9     7      2
                            ___lwdiv
 ---------------------------------------------------------------------------------
 (2) ___lwdiv                                              7     3      4     314
                                              0 COMRAM     7     3      4
 ---------------------------------------------------------------------------------
 (1) _configPwm                                            3     3      0      22
                                              0 COMRAM     3     3      0
 ---------------------------------------------------------------------------------
 (1) _UART_printf                                          2     0      2     143
                                              1 COMRAM     2     0      2
                         _UART_write
 ---------------------------------------------------------------------------------
 (2) _UART_write                                           1     1      0      22
                                              0 COMRAM     1     1      0
 ---------------------------------------------------------------------------------
 (1) _UART_init                                           12     8      4     900
                                             26 COMRAM    12     8      4
                            ___aldiv
 ---------------------------------------------------------------------------------
 (3) ___aldiv                                             14     6      8     756
                                             12 COMRAM    14     6      8
                             ___lmul (ARG)
 ---------------------------------------------------------------------------------
 Estimated maximum stack depth 6
 ---------------------------------------------------------------------------------

 Call Graph Graphs:

 _main (ROOT)
   _UART_init
     ___aldiv
       ___lmul (ARG)
   _UART_printf
     _UART_write
   _configPwm
   _dameDistancia
     ___lwdiv
   _pwmDuty
     ___fldiv
       ___xxtofl (ARG)
     ___flmul
       ___fldiv (ARG)
         ___xxtofl (ARG)
       ___xxtofl (ARG)
     ___fltol
       ___fldiv (ARG)
         ___xxtofl (ARG)
       ___flmul (ARG)
         ___fldiv (ARG)
           ___xxtofl (ARG)
         ___xxtofl (ARG)
       ___xxtofl (ARG)
     ___xxtofl
     _map
       ___aldiv
         ___lmul (ARG)
       ___lmul
   _sprintf
     _dameDistancia (ARG)
       ___lwdiv
     _vfprintf (ARG)
       _vfpfcnvrt
         _dtoa
           ___aodiv
           ___aomod
           _abs
             ___aomod (ARG)
           _pad
             _fputc
               _putch
             _fputs
               _fputc
                 _putch
             _strlen
         _fputc
           _putch

 Address spaces:
Name               Size   Autos  Total    Cost      Usage
BIGRAM             7FF      0       0      21        0.0%
EEDATA             100      0       0       0        0.0%
BITBANK7           100      0       0      18        0.0%
BANK7              100      0       0      19        0.0%
BITBANK6           100      0       0      16        0.0%
BANK6              100      0       0      17        0.0%
BITBANK5           100      0       0      14        0.0%
BANK5              100      0       0      15        0.0%
BITBANK4           100      0       0      12        0.0%
BANK4              100      0       0      13        0.0%
BITBANK3           100      0       0      10        0.0%
BANK3              100      0       0      11        0.0%
BITBANK2           100      0       0       8        0.0%
BANK2              100      0       0       9        0.0%
BITBANK1           100      0       0       6        0.0%
BANK1              100      0       0       7        0.0%
BITBANK0            A0      0       0       4        0.0%
BANK0               A0      A      64       5       62.5%
BITCOMRAM           5F      0       0       0        0.0%
COMRAM              5F     5F      5F       1      100.0%
BITSFR               0      0       0     200        0.0%
SFR                  0      0       0     200        0.0%
STACK                0      0       0       2        0.0%
NULL                 0      0       0       0        0.0%
ABS                  0      0      C3      20        0.0%
DATA                 0      0      C3       3        0.0%
CODE                 0      0       0       0        0.0%


Microchip Technology PIC18 Macro Assembler V2.10 build 88905656 
Symbol Table                                                                                   Mon Jul 13 11:08:23 2020

             ___fldiv@aexp 0027               ___fldiv@bexp 0026               ___fldiv@sign 001F  
                       l73 20B0                         l81 1622                         l90 22C2  
                       l91 2300                         l92 22CC                         l93 2302  
                       l86 22B6                         l98 1AE4                __CFG_BORV$3 000000  
             __CFG_CP0$OFF 000000               __CFG_CP1$OFF 000000               __CFG_CP2$OFF 000000  
             __CFG_CP3$OFF 000000                        l100 1AF2                        l101 1AF4  
                      l110 1B22                        l111 1B24                        l120 1B54  
                      l130 2194                        l106 1BA6                        l108 1B14  
                      l117 1B44                        l142 2418                        l230 2260  
                      l127 1BFA                        l119 1B52                        l223 146E  
                      l312 1D06                        l216 12BA                        l139 240A  
                      l148 23EC                        l244 21EE                        l245 21FE  
                      l229 2258                        l190 1F9C                        l360 1AC2  
                      l185 1F1E                        l530 1E0C                        l347 195E  
                      l188 1F60                        l196 107A                        l198 1082  
                      l731 2124                        l724 211C                        l820 0DFC  
                      l902 176E                        l815 0FD8                        l911 2386  
                      l817 0E38                        l826 0E7E                        l851 0C3E  
                      l923 1ED6                        l931 2346                        l828 0EF6  
                      l908 237E                        l829 0EE4                        l941 241A  
                      l854 0AD0                        l847 08DA                        l864 0C00  
                      l856 0B48                        l857 0B36                        l938 22B2  
                      l891 17D6                        l947 23BC                        l895 1712  
                      l888 167A               __CFG_CPB$OFF 000000                        _PR2 000FCB  
             __CFG_CPD$OFF 000000               __CFG_BOR$OFF 000000                        _abs 2348  
                      _map 2038                        _pad 1ED8                        wreg 000FE8  
             ___flmul@aexp 0039               ___flmul@bexp 003A               ___flmul@sign 0034  
             ___flmul@temp 003F               ___flmul@prod 003B               __CFG_LVP$OFF 000000  
             ___fltol@exp1 004A               __CFG_WDT$OFF 000000                       l2001 134C  
                     l2011 13FE                       l2003 1394                       ?_abs 0013  
                     l2101 0C4C                       l2013 1412                       l2111 0C8C  
                     l2103 0C5A                       l2031 2196                       l2007 13CC  
                     l2023 1438                       l2041 1BFC                       l2201 0EDC  
                     l2121 0CB2                       l2113 0C8E                       l2105 0C5C  
                     l2033 21A6                       l2025 145C                       l2009 13F0  
                     l2017 141E                       l2051 1C30                       l2043 1C00  
                     l2211 0F4A                       l2131 0CF2                       l2123 0CC0  
                     l2107 0C6C                       l2115 0C96                       l2035 21B4  
                     l2019 142C                       l2061 1C72                       l2053 1C40  
                     l2045 1C0E                       l2221 0FB4                       l2205 0F06  
                     l2213 0F4E                       l2141 0D32                       l2133 0CF4  
                     l2125 0CC2                       l2117 0CA6                       l2109 0C7C  
                     l2301 09BC                       l2037 21C4                       l2071 1CC4  
                     l2063 1C7E                       l2055 1C44                       l2047 1C1E  
                     l2223 0FB8                       l2215 0F68                       l2207 0F12  
                     l2151 0D62                       l2143 0D3A                       l2127 0CD2  
                     l2135 0CFC                       l2119 0CAC                       l2311 0A2A  
                     l2303 09D6                       l2039 21CE                       l2081 1CF6  
                     l2073 1CC6                       l2065 1C8C                       l2057 1C54  
                     l2049 1C22                       l2225 0FC6                       l2217 0F7E  
                     l2209 0F20                       l2161 0DA0                       l2153 0D62  
                     l2145 0D3E                       l2137 0D0C                       l2129 0CE2  
                     l2321 0AC0                       l2313 0A54                       l2305 09E6  
                     l2241 0830                       l2401 1DCC                       l2075 1CD0  
                     l2067 1C96                       l2059 1C6A                       l2411 20B2  
                     l2227 0FCC                       l2219 0F98                       l2171 0DEC  
                     l2163 0DB0                       l2139 0D22                       l2331 0B00  
                     l2323 0ACE                       l2315 0A8A                       l2307 0A02  
                     l2251 0868                       l2243 0832                       l2403 1DDC  
                     l2091 2200                       l2069 1CB4                       l2077 1CD6  
                     l2421 20EA                       l2413 20BA                       l2229 0FCE  
                     l2181 0E36                       l2173 0DFA                       l2165 0DC0  
                     l2157 0D76                       l2149 0D52                       l2341 0B72  
                     l2333 0B2E                       l2325 0AE0                       l2317 0A98  
                     l2309 0A0E                       l2261 0894                       l2253 0878  
                     l2245 0842                       l2237 0816                       l2405 1DEC  
                     l2085 2038                       l2093 2208                       l2079 1CE6  
                     l2503 22BA                       l2431 2116                       l2423 20F0  
                     l2415 20CC                       l2191 0E7C                       l2183 0E48  
                     l2175 0E06                       l2167 0DC8                       l2159 0D90  
                     l2351 0BE8                       l2343 0B9C                       l2327 0AEE  
                     l2319 0AB6                       l2271 08EA                       l2263 08A4  
                     l2255 087E                       l2247 0852                       l2239 0822  
                     l2407 1DFC                       l2095 2216                       l2089 2406  
                     l2425 2106                       l2417 20D4                       l2521 1B02  
                     l2513 1AC6                       l2185 0E5E                       l2193 0E8E  
                     l2177 0E24                       l2169 0DD8                       l2353 0C04  
                     l2361 0C2A                       l2337 0B58                       l2345 0BA0  
                     l2329 0AF2                       l2281 0924                       l2273 08FA  
                     l2265 08B4                       l2257 0884                       l2249 0862  
                     l2441 16A0                       l2433 1626                       l2097 223C  
                     l2601 1FCC                       l2507 22D6                       l2427 210E  
                     l2419 20DC                       l2531 1BB6                       l2523 1B32  
                     l2515 1AD6                       l2195 0E9C                       l2187 0E64  
                     l2179 0E26                       l2099 0C40                       l2363 0C2E  
                     l2355 0C14                       l2347 0BBA                       l2339 0B64  
                     l2291 0976                       l2283 093A                       l2267 08C4  
                     l2259 0892                       l2451 16FA                       l2435 1636  
                     l1803 2304                       l1811 2388                       l2603 1FDC  
                     l2429 2110                       l2533 1BC8                       l2525 1B62  
                     l2517 1AD8                       l2197 0EA0                       l2189 0E6E  
                     l2357 0C22                       l2349 0BCE                       l2293 0984  
                     l2285 0946                       l2277 090E                       l2269 08CA  
                     l2381 1D72                       l2373 1D32                       l2461 175E  
                     l2453 16FC                       l2445 16B4                       l2437 1644  
                     l1901 19A4                       l1805 2310                       l1813 2394  
                     l1821 1ED8                       l2605 1FEC                       l2551 2128  
                     l2535 1BE8                       l2519 1ADE                       l2199 0EAE  
                     l2359 0C24                       l2295 0990                       l2287 095E  
                     l2279 091A                       l2391 1DA2                       l2383 1D80  
                     l2375 1D5C                       l2367 1D08                       l2471 17B6  
                     l2463 177C                       l2455 1708                       l2447 16BC  
                     l2439 168A                       l1911 1A0C                       l1903 19C4  
                     l1807 2322                       l1815 2398                       l1831 1F2A  
                     l1823 1EE8                       l2607 200E                       l2561 218A  
                     l2553 212A                       l2537 1BE8                       l2529 1B74  
                     l2297 09A0                       l2289 096A                       l2393 1DAC  
                     l2377 1D5E                       l2369 1D1E                       l2473 17C4  
                     l2465 177E                       l2457 1744                       l2449 16C8  
                     l2481 14D0                       l1921 1A82                       l1913 1A3A  
                     l1905 19E2                       l1809 2326                       l1817 23B0  
                     l1833 1F3E                       l1825 1EFC                       l2609 201A  
                     l2563 218C                       l2555 215E                       l2547 2126  
                     l2571 23BE                       l2539 1BF2                       l2299 09AC  
                     l2379 1D6E                       l2475 17C6                       l2467 1782  
                     l2459 1750                       l2491 15F8                       l2483 14EE  
                     l1851 17EA                       l1923 1AA2                       l1915 1A5A  
                     l1907 19EA                       l1843 2348                       l1835 1F42  
                     l1827 1F0A                       l1931 1022                       l2565 218E  
                     l2557 2186                       l2549 2126                       l2573 23C2  
                     l2389 1D98                       l2469 17A6                       l2485 1574  
                     l1861 1840                       l1853 180A                       l1917 1A6C  
                     l1909 19FE                       l1845 2362                       l1837 1F70  
                     l1829 1F16                       l1941 108A                       l1933 1042  
                     l2581 2274                       l2567 2190                       l2559 2188  
                     l2575 23D0                       l2399 1DC0                       l2671 160C  
                     l2487 15B6                       l2479 1470                       l1871 1894  
                     l1863 184C                       l1855 180E                       l1847 17D8  
                     l1919 1A72                       l1791 1E20                       l1839 1F84  
                     l1951 10C0                       l1943 109C                       l1935 1052  
                     l1927 0FDA                       l2583 227C                       l2591 1F9E  
                     l2569 2192                       l2577 23D4                       l2497 22B6  
                     l2673 1B88                       l1881 1908                       l1873 18A6  
                     l1865 186A                       l1857 181C                       l1849 17DC  
                     l1793 1E32                       l1953 10C6                       l1961 11B8  
                     l1945 10AA                       l1937 1054                       l1929 0FFA  
                     l2585 2284                       l2593 1FA8                       l2675 22EA  
                     l1875 18D4                       l1867 1872                       l1883 190E  
                     l1859 183C                       l1891 1960                       l1795 1E3C  
                     l1963 11D2                       l1971 1234                       l1955 1148  
                     l1947 10B0                       l1939 106E                       l2587 22A0  
                     l2579 2262                       l2595 1FAC                       l1885 191E  
                     l1877 18F4                       l1869 1886                       l1893 1964  
                     l1797 1E5A                       l1789 1E0E                       l1981 127A  
                     l1973 1246                       l1965 11F0                       l1957 114E  
                     l1949 10B8                       l2597 1FB2                       ?_map 001B  
                     ?_pad 0011                       l1887 193E                       l1879 18F6  
                     l1895 1972                       l1799 1E90                       l1983 1282  
                     l1975 1256                       l1967 120A                       l1959 1154  
                     l1991 12E0                       l2599 1FB8                       l1897 1992  
                     l1977 125C                       l1985 1292                       l1969 1224  
                     l1993 12EE                       l1899 1996                       l1979 126E  
                     l1995 1300                       l1997 1304                       l1989 12BC  
                     l1999 1328                       STR_1 0801                       u2000 0EDC  
                     u2001 0ED8                       u2010 0EF2                       u2011 0EEE  
                     u2020 0F06                       u2100 0892                       u2021 0F02  
                     u2101 088E                       u2030 0F20                       u2110 08A4  
                     u1310 1E20                       u2031 0F1C                       u2111 08A0  
                     u1311 1E1C                       u2040 0F68                       u2200 0B44  
                     u2120 08B4                       u1320 1E32                       u1400 1F70  
                     u2041 0F64                       u2201 0B40                       u2121 08B0  
                     u1321 1E2E                       u1401 1F6C                       u2050 0F98  
                     u2210 0B58                       u2130 08EA                       u1410 2362  
                     u1330 1E5A                       u2051 0F94                       u2211 0B54  
                     u2131 08E6                       u1411 235E                       u1331 1E56  
                     u2060 0FC6                       u2220 0B72                       u2140 08FA  
                     u2300 1DBC                       u1420 17EA                       u1500 19A4  
                     u1340 1E90                       u2061 0FC2                       u2221 0B6E  
                     u2141 08F6                       u2301 1DB8                       u1421 17E6  
                     u1501 19A0                       u1341 1E8C                       u2230 0BBA  
                     u2150 0A74                       u2070 0830                       u2310 1DDC  
                     u1430 181C                       u1510 19E2                       u1350 2346  
                     u2231 0BB6                       u2071 082C                       u2311 1DD8  
                     u1431 1818                       u1511 19DE                       u1351 2342  
                     u2240 0BE8                       u2160 0ACE                       u2080 0842  
                     u2320 1DEC                       u2400 1740                       u1520 1A0C  
                     u1360 23B0                       u1600 109C                       u2241 0BE4  
                     u2161 0ACA                       u2081 083E                       u2321 1DE8  
                     u2401 173C                       u1441 1846                       u1521 1A08  
                     u1361 23AC                       u1601 1098                       u2330 20CC  
                     u2250 0C22                       u2170 0AEE                       u2090 0852  
                     u2410 175E                       u1450 186A                       u1530 1A3A  
                     u1370 1EE8                       u1610 10AA                       u2331 20C8  
                     u2251 0C1E                       u2171 0AEA                       u2155 0A6A  
                     u2091 084E                       u2411 175A                       u1451 1866  
                     u1531 1A36                       u1371 1EE4                       u1611 10A6  
                     u2340 20EA                       u2500 1B02                       u2180 0B00  
                     u2260 1D1E                       u2420 176E                       u1460 1894  
                     u1540 1A82                       u1380 1F0A                       u1620 11D2  
                     u1700 12E0                       u2341 20E6                       u2501 1AFE  
                     u2181 0AFC                       u2261 1D1A                       u2421 176A  
                     u1461 1890                       u1541 1A7E                       u1381 1F06  
                     u1621 11CE                       u1701 12DC                       u2350 2106  
                     u2510 1B10                       u2190 0B2E                       u2270 1D52  
                     u2430 177C                       u1470 18D4                       u1390 1F60  
                     u1630 11F0                       u1550 100A                       u1710 1328  
                     u2351 2102                       u2511 1B0C                       u2191 0B2A  
                     u2431 1778                       u1471 18D0                       u1391 1F5C  
                     u1631 11EC                       u1551 1004                       u1711 1324  
                     u1800 1CB4                       u2520 1B22                       u2280 1D80  
                     u2440 17B6                       u2360 1636                       u1480 191E  
                     u1640 120A                       u1560 100C                       u1720 134C  
                     u1801 1CB0                       u2521 1B1E                       u2281 1D7C  
                     u2441 17B2                       u2361 1632                       u1481 191A  
                     u1641 1206                       u1721 1348                       u1810 1CE6  
                     u2530 1B32                       u2290 1D94                       u2450 17C4  
                     u2370 1644                       u1490 1972                       u1650 1224  
                     u1570 1022                       u1730 13F0                       u1811 1CE2  
                     u2531 1B2E                       u2291 1D90                       u2275 1D48  
                     u2451 17C0                       u2371 1640                       u1491 196E  
                     u1651 1220                       u1571 101E                       u1731 13EC  
                     u1820 2418                       u2540 1B40                       u1900 0D22  
                     u2380 16A0                       u1740 21B4                       u2460 14EE  
                     u1660 1234                       u1580 1052                       u1821 2414  
                     u2541 1B3C                       u1901 0D1E                       u2381 169C  
                     u1741 21B0                       u2461 14EA                       u1661 1230  
                     u1581 104E                       u2550 1B52                       u1910 0D62  
                     u2390 16F6                       u1750 21EE                       u1670 1246  
                     u1590 106E                       u1830 2258                       u2551 1B4E  
                     u1911 0D5E                       u2391 16F2                       u1751 21EA  
                     u1671 1242                       u1591 106A                       u1831 2254  
                     u2607 2024                       u1760 1C0E                       u2560 1B62  
                     u1920 0DD8                       u1840 0C5A                       u1680 1256  
                     u1761 1C0A                       u2561 1B5E                       u2617 1ADA  
                     u1921 0DD4                       u1841 0C56                       u1681 1252  
                     u1770 1C30                       u2570 1B70                       u2490 1AF2  
                     u1930 0DFA                       u1850 0C6C                       u1690 126E  
                     u1771 1C2C                       u2571 1B6C                       u2491 1AEE  
                     u1931 0DF6                       u1851 0C68                       u2475 1588  
                     u1691 126A                       u1780 1C6A                       u2580 1BB6  
                     u1940 0E24                       u1860 0C7C                       u2476 1592  
                     u1781 1C66                       u2581 1BB2                       u1941 0E20  
                     u1861 0C78                       u2485 15CA                       u2477 15A2  
                     u1790 1C8C                       u2590 23EC                       u1950 0E48  
                     u1870 0CC0                       u2486 15D4                       u1791 1C88  
                     u2591 23E8                       u1951 0E44                       u1871 0CBC  
                     u2487 15E4                       u1960 0E5E                       u1880 0CD2  
                     u1961 0E5A                       u1881 0CCE                       u1970 0E7C  
                     u1890 0CE2                       u1971 0E78                       u1891 0CDE  
                     u1980 0E9C                       u1981 0E98                       u1990 0EAE  
                     u1991 0EAA                       _RCIF 007CF5                       abs@a 0013  
                     _dbuf 009A                       _main 1F9E                       _dtoa 0FDA  
                     _prec 0064                       _nout 0060                       pad@i 0018  
                     pad@p 0015                       fsr1h 000FE2                       fsr2h 000FDA  
                     indf2 000FDF                       fsr1l 000FE1                       pad@w 001A  
                     map@x 001B                       fsr2l 000FD9                       prodh 000FF4  
                     prodl 000FF3                       start 0000              __CFG_IESO$OFF 000000  
          ___fldiv@new_exp 0020              __CFG_MCLRE$ON 000000               ___param_bank 000000  
                    ??_abs 0015                      ??_map 002F                      ??_pad 0017  
            __CFG_PLLDIV$1 000000             __CFG_CCP2MX$ON 000000              ___fltol@sign1 0049  
          __end_of___aldiv 1D08            __end_of___aodiv 1960                      ?_main 0001  
                    ?_dtoa 001C            __end_of___aomod 1AC4            __end_of___fldiv 0FDA  
          __end_of___flmul 0C40            __end_of___fltol 1E0E                      _T1CON 000FCD  
                    _LATB0 007C50            __end_of___lwdiv 2126                      _RCREG 000FAE  
             vfpfcnvrt@fmt 0042                      _TMR1H 000FCF                      _TMR1L 000FCE  
                    _SPBRG 000FAF              __CFG_USBDIV$1 000000                      _TXREG 000FAD  
            __CFG_PWRT$OFF 000000              __CFG_WRT0$OFF 000000              __CFG_WRT1$OFF 000000  
            __CFG_WRT2$OFF 000000        ___lmul@multiplicand 0005              __CFG_WRT3$OFF 000000  
           __CFG_EBTR0$OFF 000000             __CFG_FCMEN$OFF 000000             __CFG_EBTR1$OFF 000000  
           __CFG_EBTR2$OFF 000000             __CFG_EBTR3$OFF 000000              __CFG_WRTB$OFF 000000  
            __CFG_WRTC$OFF 000000              __CFG_WRTD$OFF 000000             __CFG_EBTRB$OFF 000000  
       __size_of_UART_init 0070                      _flags 0066                      _fputc 1E0E  
                    _fputs 2304                ?_UART_write 0001                      pad@fp 0011  
                    _width 0062                      _putch 241A                      dtoa@d 001E  
                    dtoa@i 003E                      dtoa@n 0036                      dtoa@p 0030  
                    dtoa@s 0034                      dtoa@w 0032                      tablat 000FF5  
          __end_of_pwmDuty 1624                      status 000FD8            __end_of_sprintf 22B4  
           __CFG_ICPRT$OFF 000000            __initialization 23EE               __end_of_main 2038  
             __end_of_dtoa 12BC        dameDistancia@conteo 000F     dameDistancia@distancia 000D  
                   ??_main 005E                     ??_dtoa 0026              __activetblptr 000002  
                   _CCP1M2 007DEA                     _CCP1M3 007DEB                     _CCP2M2 007DD2  
                   _CCP2M3 007DD3                     ?_fputc 0001                     ?_fputs 000A  
                   _CCPR1L 000FBE                     _CCPR2L 000FBB                     ?_putch 0001  
                   _TMR1IF 007CF0                     _TMR1ON 007E68                     _TMR2ON 007E52  
                   _TRISB0 007C98                     _TRISB1 007C99                     _TRISB2 007C9A  
                   _TRISC1 007CA1                     _TRISB3 007C9B                     _TRISC2 007CA2  
                   _TRISC6 007CA6                     _TRISC7 007CA7           __end_of___xxtofl 17D8  
           __CFG_XINST$OFF 000000               vfprintf@cfmt 0056  dameDistancia@numeroSensor 000C  
                   ___lmul 2196                  ??___aldiv 0015                  ??___aodiv 0011  
                ??___aomod 0011          __end_of_UART_init 2196                  ??___fldiv 0017  
                ??___flmul 0030                  ??___fltol 0045                  ??___lwdiv 0005  
                   _buffer 0068        __size_of_UART_write 0016               ?_UART_printf 0002  
                   clear_0 23F4                     pad@buf 0013                     dtoa@fp 001C  
                   _strlen 2388                     fputc@c 0001                     fputs@c 000E  
                   fputs@i 000F                     fputs@s 000A               __mediumconst 0000  
                   tblptrh 000FF7                     tblptrl 000FF6                     tblptru 000FF8  
                ??_pwmDuty 004E                     putch@c 0001           __end_of_vfprintf 2262  
                ??_sprintf 005E               ___xxtofl@arg 000B               ___xxtofl@exp 000A  
             ___xxtofl@val 0001                 __accesstop 0060    __end_of__initialization 23FA  
          __CFG_PBADEN$OFF 000000            __CFG_FOSC$XT_XT 000000              ___rparam_used 000001  
               ___fltol@f1 0041     __size_of_dameDistancia 0138             __pcstackCOMRAM 0001  
            __end_of_fputc 1ED8              __end_of_fputs 2348              __end_of_putch 241C  
       __size_of_configPwm 0050                    ??_fputc 0005                    ??_fputs 000E  
                  ??_putch 0001                 __pbssBANK0 0060                    ?___lmul 0001  
                  _CCP1CON 000FBD                    _CCP2CON 000FBA             ___lmul@product 0009  
                  ?_strlen 0001                    _T2CKPS0 007E50                    _T2CKPS1 007E51  
                ?___xxtofl 0001              _dameDistancia 1AC4         __size_of_vfpfcnvrt 01B4  
             ??_UART_write 0001            __CFG_VREGEN$OFF 000000                    __Hparam 0000  
                  __Lparam 0000          __end_of_configPwm 2304                    ___aldiv 1BFC  
                  ___aodiv 17D8                    ___aomod 1960                    ___fldiv 0C40  
          __size_of___lmul 006A                    ___flmul 0816                    ___fltol 1D08  
                  ___lwdiv 20B2                  ?_vfprintf 0050               __psmallconst 0800  
          __CFG_STVREN$OFF 000000                    __pcinit 23EE                    __ramtop 0800  
       __end_of_UART_write 241A                    __ptext0 1F9E                    __ptext1 2262  
                  __ptext2 2200                    __ptext3 12BC                    __ptext4 0FDA  
                  __ptext5 1ED8                    __ptext6 2388                    __ptext7 2304  
                  __ptext8 1E0E                    __ptext9 241A            __size_of_strlen 0036  
     __size_of_UART_printf 0030               __size_of_abs 0040               __size_of_map 007A  
             __size_of_pad 00C6                 ??___xxtofl 0005             ?_dameDistancia 0008  
         ___aldiv@dividend 000D                    _pwmDuty 1470                    _sprintf 2262  
     end_of_initialization 23FA                    fputc@fp 0003              __Lmediumconst 0000  
                  fputs@fp 000C          __end_of_vfpfcnvrt 1470                  _RCSTAbits 000FAB  
         ___aldiv@quotient 0017                    postdec2 000FDD                    postinc0 000FEE  
                  postinc1 000FE6                    postinc2 000FDE                 ??_vfprintf 0056  
                  strlen@a 0003                    strlen@s 0001                  _PORTBbits 000F81  
                _UART_init 2126                pwmDuty@duty 0053              ___xxtofl@sign 0009  
              ___fldiv@grs 0022                ___fldiv@rem 001B                 map@out_max 002B  
               map@out_min 0027             _UART_init$1035 0023                ___flmul@grs 0035  
                _TXSTAbits 000FAC             __end_of___lmul 2200                vfpfcnvrt@ap 0044  
              vfpfcnvrt@fp 0040                vfpfcnvrt@ll 0048                 ?_UART_init 001B  
          ??_dameDistancia 000A             __end_of_strlen 23BE        start_initialization 23EE  
              __end_of_abs 2388                __end_of_map 20B2                __end_of_pad 1F9E  
      pwmDuty@cicloTrabajo 004B                vfprintf@fmt 0052                   ??___lmul 0009  
         __CFG_LPT1OSC$OFF 000000                   ??_strlen 0003                  ___fldiv@a 0013  
                ___fldiv@b 000F                  ___flmul@a 002C                  ___flmul@b 0028  
            __pcstackBANK0 00BA           ___aodiv@dividend 0001          __size_of___xxtofl 01B4  
        UART_printf@cadena 0002           ___lwdiv@dividend 0001                   ?___aldiv 000D  
                 ?___aodiv 0001                   ?___aomod 0001                   ?___fldiv 000F  
         ___aodiv@quotient 0013                   ?___flmul 0028                   ?___fltol 0041  
                 ?___lwdiv 0001                  _configPwm 22B4                ??_UART_init 001F  
        __size_of_vfprintf 0062                __smallconst 0800                   ?_pwmDuty 004B  
         ___lwdiv@quotient 0005                   ?_sprintf 0058             __size_of_fputc 00CA  
           __size_of_fputs 0044             __size_of_putch 0002            ___aldiv@divisor 0011  
          ___aldiv@counter 0015           __CFG_WDTPS$32768 000000              ??_UART_printf 0004  
                _vfpfcnvrt 12BC                 ?_configPwm 0001                  map@in_max 0023  
                map@in_min 001F           configPwm@channel 0003             UART_write@dato 0001  
        ___lmul@multiplier 0001                   __Hrparam 0000              UART_init@BAUD 001B  
               vfprintf@ap 0054                   __Lrparam 0000                 vfprintf@fp 0050  
         __size_of___aldiv 010C           __size_of___aodiv 0188           __size_of___aomod 0164  
         __size_of___fldiv 039A           __size_of___flmul 042A           __size_of___fltol 0106  
               ?_vfpfcnvrt 0040           __size_of___lwdiv 0074            ___aodiv@divisor 0009  
          ___aodiv@counter 0011                 sprintf@fmt 005A                   ___xxtofl 1624  
      __end_of_UART_printf 23EE                   _dtoa$328 002E            ___lwdiv@divisor 0003  
          ___lwdiv@counter 0007                   __ptext10 2348                   __ptext11 1960  
                 __ptext20 1AC4                   __ptext12 17D8                   __ptext21 20B2  
                 __ptext13 1470                   __ptext22 22B4                   __ptext14 2038  
                 __ptext23 23BE                   __ptext15 2196                   __ptext24 2404  
                 __ptext16 1624                   __ptext25 2126                   __ptext17 1D08  
                 __ptext26 1BFC                   __ptext18 0816                   __ptext19 0C40  
         __size_of_pwmDuty 01B4           __size_of_sprintf 0052              __size_of_main 009A  
            __size_of_dtoa 02E2                   _vfprintf 2200                ??_configPwm 0001  
         ___aomod@dividend 0001      __CFG_CPUDIV$OSC1_PLL2 000000      __end_of_dameDistancia 1BFC  
                sprintf@ap 00BC            ___aomod@divisor 0009                ??_vfpfcnvrt 0046  
          ___aomod@counter 0011                _UART_printf 23BE             pwmDuty@channel 004D  
                 sprintf@f 00BE                   sprintf@s 0058               ___aldiv@sign 0016  
               _UART_write 2404               ___aodiv@sign 0012               ___aomod@sign 0012  
