

Microchip MPLAB XC8 Assembler V2.10 build 88905656 
                                                                                               Wed Aug 19 23:28:40 2020

Microchip MPLAB XC8 C Compiler v2.10 (Free license) build 20190730164152 Og1 
     1                           	processor	18F4550
     2                           	fnconf	rparam,??,?,0
     3                           	opt	pw 120
     4                           	opt	flic
     5                           	psect	idataBANK0,global,class=CODE,delta=1,noexec
     6                           	psect	mediumconst,global,reloc=2,class=MEDIUMCONST,delta=1,noexec
     7                           	psect	cinit,global,reloc=2,class=CODE,delta=1
     8                           	psect	bssCOMRAM,global,class=COMRAM,space=1,delta=1,noexec
     9                           	psect	bssBANK0,global,class=BANK0,space=1,delta=1,lowdata,noexec
    10                           	psect	dataBANK0,global,class=BANK0,space=1,delta=1,lowdata,noexec
    11                           	psect	bssBANK1,global,class=BANK1,space=1,delta=1,lowdata,noexec
    12                           	psect	cstackBANK0,global,class=BANK0,space=1,delta=1,noexec
    13                           	psect	cstackCOMRAM,global,class=COMRAM,space=1,delta=1,noexec
    14                           	psect	text0,global,reloc=2,class=CODE,delta=1
    15                           	psect	text1,global,reloc=2,class=CODE,delta=1
    16                           	psect	text2,global,reloc=2,class=CODE,delta=1
    17                           	psect	text3,global,reloc=2,class=CODE,delta=1
    18                           	psect	text4,global,reloc=2,class=CODE,delta=1
    19                           	psect	text5,global,reloc=2,class=CODE,delta=1
    20                           	psect	text6,global,reloc=2,class=CODE,delta=1
    21                           	psect	text7,global,reloc=2,class=CODE,delta=1,group=1
    22                           	psect	text8,global,reloc=2,class=CODE,delta=1,group=1
    23                           	psect	text9,global,reloc=2,class=CODE,delta=1,group=1
    24                           	psect	text10,global,reloc=2,class=CODE,delta=1,group=1
    25                           	psect	text11,global,reloc=2,class=CODE,delta=1
    26                           	psect	text12,global,reloc=2,class=CODE,delta=1,group=1
    27                           	psect	text13,global,reloc=2,class=CODE,delta=1,group=1
    28                           	psect	text14,global,reloc=2,class=CODE,delta=1
    29                           	psect	text15,global,reloc=2,class=CODE,delta=1
    30                           	psect	text16,global,reloc=2,class=CODE,delta=1
    31                           	psect	text17,global,reloc=2,class=CODE,delta=1,group=1
    32                           	psect	intcode,global,reloc=2,class=CODE,delta=1
    33                           	psect	intcode_body,global,reloc=2,class=CODE,delta=1
    34                           	psect	text19,global,reloc=2,class=CODE,delta=1
    35                           	psect	intsave_regs,global,class=BIGRAM,space=1,delta=1,noexec
    36                           	psect	rparam,global,class=COMRAM,space=1,delta=1,noexec
    37                           	psect	temp,global,ovrld,common,class=COMRAM,space=1,delta=1
    38  0000                     
    39                           ; Version 2.10
    40                           ; Generated 31/07/2019 GMT
    41                           ; 
    42                           ; Copyright © 2019, Microchip Technology Inc. and its subsidiaries ("Microchip")
    43                           ; All rights reserved.
    44                           ; 
    45                           ; This software is developed by Microchip Technology Inc. and its subsidiaries ("Microch
      +                          ip").
    46                           ; 
    47                           ; Redistribution and use in source and binary forms, with or without modification, are
    48                           ; permitted provided that the following conditions are met:
    49                           ; 
    50                           ;     1. Redistributions of source code must retain the above copyright notice, this lis
      +                          t of
    51                           ;        conditions and the following disclaimer.
    52                           ; 
    53                           ;     2. Redistributions in binary form must reproduce the above copyright notice, this 
      +                          list
    54                           ;        of conditions and the following disclaimer in the documentation and/or other
    55                           ;        materials provided with the distribution.
    56                           ; 
    57                           ;     3. Microchip's name may not be used to endorse or promote products derived from th
      +                          is
    58                           ;        software without specific prior written permission.
    59                           ; 
    60                           ; THIS SOFTWARE IS PROVIDED BY MICROCHIP "AS IS" AND ANY EXPRESS OR IMPLIED WARRANTIES,
    61                           ; INCLUDING, BUT NOT LIMITED TO, THE IMPLIED WARRANTIES OF MERCHANTABILITY AND FITNESS F
      +                          OR
    62                           ; PURPOSE ARE DISCLAIMED.  IN NO EVENT SHALL MICROCHIP BE LIABLE FOR ANY DIRECT, INDIREC
      +                          T,
    63                           ; INCIDENTAL, SPECIAL, EXEMPLARY, OR CONSEQUENTIAL DAMAGES (INCLUDING BUT NOT LIMITED TO
    64                           ; PROCUREMENT OF SUBSTITUTE GOODS OR SERVICES; LOSS OF USE, DATA OR PROFITS; OR BUSINESS
    65                           ; INTERRUPTION) HOWSOEVER CAUSED AND ON ANY THEORY OF LIABILITY, WHETHER IN CONTRACT, ST
      +                          RICT
    66                           ; LIABILITY, OR TORT (INCLUDING NEGLIGENCE OR OTHERWISE) ARISING IN ANY WAY OUT OF THE U
      +                          SE OF
    67                           ; THIS SOFTWARE, EVEN IF ADVISED OF THE POSSIBILITY OF SUCH DAMAGE.
    68                           ; 
    69                           ; 
    70                           ; Code-generator required, PIC18F4550 Definitions
    71                           ; 
    72                           ; SFR Addresses
    73  0000                     
    74                           	psect	idataBANK0
    75  00143A                     __pidataBANK0:
    76                           	opt callstack 0
    77                           
    78                           ;initializer for _pausa
    79  00143A  01                 	db	1
    80                           
    81                           	psect	mediumconst
    82  007EB6                     __pmediumconst:
    83                           	opt callstack 0
    84  007EB6  00                 	db	0
    85  007EB7  0000               	dw	0
    86  007EB9  4B00               	dw	19200
    87  007EBB                     __end_of_toint:
    88                           	opt callstack 0
    89  0000                     _T1CON	set	4045
    90  0000                     _TRISDbits	set	3989
    91  0000                     _INTCON2bits	set	4081
    92  0000                     _INTCONbits	set	4082
    93  0000                     _ADRESL	set	4035
    94  0000                     _ADRESH	set	4036
    95  0000                     _ADCON0bits	set	4034
    96  0000                     _ADCON2	set	4032
    97  0000                     _ADCON1	set	4033
    98  0000                     _TXREG	set	4013
    99  0000                     _RCREG	set	4014
   100  0000                     _RCSTAbits	set	4011
   101  0000                     _TXSTAbits	set	4012
   102  0000                     _SPBRG	set	4015
   103  0000                     _PORTBbits	set	3969
   104  0000                     _TMR1L	set	4046
   105  0000                     _TMR1H	set	4047
   106  0000                     _PR2	set	4043
   107  0000                     _CCP2CON	set	4026
   108  0000                     _CCPR2L	set	4027
   109  0000                     _CCP1CON	set	4029
   110  0000                     _CCPR1L	set	4030
   111  0000                     _TRISB0	set	31896
   112  0000                     _TRISB7	set	31903
   113  0000                     _TRISB6	set	31902
   114  0000                     _TRISB5	set	31901
   115  0000                     _TRISB4	set	31900
   116  0000                     _TRISB3	set	31899
   117  0000                     _TRISB2	set	31898
   118  0000                     _TRISB1	set	31897
   119  0000                     _TRISD3	set	31915
   120  0000                     _LATB7	set	31831
   121  0000                     _LATB6	set	31830
   122  0000                     _LATB5	set	31829
   123  0000                     _LATB4	set	31828
   124  0000                     _LATD2	set	31842
   125  0000                     _INT0IF	set	32657
   126  0000                     _RCIF	set	31989
   127  0000                     _TRISC7	set	31911
   128  0000                     _TRISC6	set	31910
   129  0000                     _TMR1IF	set	31984
   130  0000                     _TMR1ON	set	32360
   131  0000                     _LATD3	set	31843
   132  0000                     _TMR2ON	set	32338
   133  0000                     _CCP2M2	set	32210
   134  0000                     _CCP2M3	set	32211
   135  0000                     _TRISC1	set	31905
   136  0000                     _CCP1M2	set	32234
   137  0000                     _CCP1M3	set	32235
   138  0000                     _TRISC2	set	31906
   139  0000                     _T2CKPS1	set	32337
   140  0000                     _T2CKPS0	set	32336
   141  007EBB  0A                 	db	10
   142  007EBC  0A                 	db	10
   143  007EBD  4F                 	db	79	;'O'
   144  007EBE  56                 	db	86	;'V'
   145  007EBF  45                 	db	69	;'E'
   146  007EC0  52                 	db	82	;'R'
   147  007EC1  46                 	db	70	;'F'
   148  007EC2  4C                 	db	76	;'L'
   149  007EC3  4F                 	db	79	;'O'
   150  007EC4  57                 	db	87	;'W'
   151  007EC5  20                 	db	32
   152  007EC6  65                 	db	101	;'e'
   153  007EC7  6E                 	db	110	;'n'
   154  007EC8  20                 	db	32
   155  007EC9  65                 	db	101	;'e'
   156  007ECA  6C                 	db	108	;'l'
   157  007ECB  20                 	db	32
   158  007ECC  6D                 	db	109	;'m'
   159  007ECD  61                 	db	97	;'a'
   160  007ECE  70                 	db	112	;'p'
   161  007ECF  65                 	db	101	;'e'
   162  007ED0  6F                 	db	111	;'o'
   163  007ED1  20                 	db	32
   164  007ED2  64                 	db	100	;'d'
   165  007ED3  65                 	db	101	;'e'
   166  007ED4  20                 	db	32
   167  007ED5  70                 	db	112	;'p'
   168  007ED6  61                 	db	97	;'a'
   169  007ED7  73                 	db	115	;'s'
   170  007ED8  6F                 	db	111	;'o'
   171  007ED9  73                 	db	115	;'s'
   172  007EDA  20                 	db	32
   173  007EDB  52                 	db	82	;'R'
   174  007EDC  65                 	db	101	;'e'
   175  007EDD  61                 	db	97	;'a'
   176  007EDE  6C                 	db	108	;'l'
   177  007EDF  69                 	db	105	;'i'
   178  007EE0  7A                 	db	122	;'z'
   179  007EE1  61                 	db	97	;'a'
   180  007EE2  64                 	db	100	;'d'
   181  007EE3  6F                 	db	111	;'o'
   182  007EE4  73                 	db	115	;'s'
   183  007EE5  20                 	db	32
   184  007EE6  70                 	db	112	;'p'
   185  007EE7  61                 	db	97	;'a'
   186  007EE8  72                 	db	114	;'r'
   187  007EE9  61                 	db	97	;'a'
   188  007EEA  20                 	db	32
   189  007EEB  63                 	db	99	;'c'
   190  007EEC  61                 	db	97	;'a'
   191  007EED  6D                 	db	109	;'m'
   192  007EEE  69                 	db	105	;'i'
   193  007EEF  6E                 	db	110	;'n'
   194  007EF0  6F                 	db	111	;'o'
   195  007EF1  20                 	db	32
   196  007EF2  54                 	db	84	;'T'
   197  007EF3  6F                 	db	111	;'o'
   198  007EF4  74                 	db	116	;'t'
   199  007EF5  61                 	db	97	;'a'
   200  007EF6  6C                 	db	108	;'l'
   201  007EF7  0A                 	db	10
   202  007EF8  0A                 	db	10
   203  007EF9  00                 	db	0
   204  007EFA  0A                 	db	10
   205  007EFB  0A                 	db	10
   206  007EFC  4F                 	db	79	;'O'
   207  007EFD  56                 	db	86	;'V'
   208  007EFE  45                 	db	69	;'E'
   209  007EFF  52                 	db	82	;'R'
   210  007F00  46                 	db	70	;'F'
   211  007F01  4C                 	db	76	;'L'
   212  007F02  4F                 	db	79	;'O'
   213  007F03  57                 	db	87	;'W'
   214  007F04  20                 	db	32
   215  007F05  65                 	db	101	;'e'
   216  007F06  6E                 	db	110	;'n'
   217  007F07  20                 	db	32
   218  007F08  65                 	db	101	;'e'
   219  007F09  6C                 	db	108	;'l'
   220  007F0A  20                 	db	32
   221  007F0B  6D                 	db	109	;'m'
   222  007F0C  61                 	db	97	;'a'
   223  007F0D  70                 	db	112	;'p'
   224  007F0E  65                 	db	101	;'e'
   225  007F0F  6F                 	db	111	;'o'
   226  007F10  20                 	db	32
   227  007F11  64                 	db	100	;'d'
   228  007F12  65                 	db	101	;'e'
   229  007F13  20                 	db	32
   230  007F14  70                 	db	112	;'p'
   231  007F15  61                 	db	97	;'a'
   232  007F16  73                 	db	115	;'s'
   233  007F17  6F                 	db	111	;'o'
   234  007F18  73                 	db	115	;'s'
   235  007F19  20                 	db	32
   236  007F1A  52                 	db	82	;'R'
   237  007F1B  65                 	db	101	;'e'
   238  007F1C  61                 	db	97	;'a'
   239  007F1D  6C                 	db	108	;'l'
   240  007F1E  69                 	db	105	;'i'
   241  007F1F  7A                 	db	122	;'z'
   242  007F20  61                 	db	97	;'a'
   243  007F21  64                 	db	100	;'d'
   244  007F22  6F                 	db	111	;'o'
   245  007F23  73                 	db	115	;'s'
   246  007F24  20                 	db	32
   247  007F25  70                 	db	112	;'p'
   248  007F26  61                 	db	97	;'a'
   249  007F27  72                 	db	114	;'r'
   250  007F28  61                 	db	97	;'a'
   251  007F29  20                 	db	32
   252  007F2A  63                 	db	99	;'c'
   253  007F2B  72                 	db	114	;'r'
   254  007F2C  75                 	db	117	;'u'
   255  007F2D  63                 	db	99	;'c'
   256  007F2E  65                 	db	101	;'e'
   257  007F2F  0A                 	db	10
   258  007F30  0A                 	db	10
   259  007F31  00                 	db	0
   260  007F32  0D                 	db	13
   261  007F33  4C                 	db	76	;'L'
   262  007F34  65                 	db	101	;'e'
   263  007F35  63                 	db	99	;'c'
   264  007F36  74                 	db	116	;'t'
   265  007F37  75                 	db	117	;'u'
   266  007F38  72                 	db	114	;'r'
   267  007F39  61                 	db	97	;'a'
   268  007F3A  20                 	db	32
   269  007F3B  64                 	db	100	;'d'
   270  007F3C  65                 	db	101	;'e'
   271  007F3D  20                 	db	32
   272  007F3E  73                 	db	115	;'s'
   273  007F3F  65                 	db	101	;'e'
   274  007F40  6E                 	db	110	;'n'
   275  007F41  73                 	db	115	;'s'
   276  007F42  6F                 	db	111	;'o'
   277  007F43  72                 	db	114	;'r'
   278  007F44  20                 	db	32
   279  007F45  4F                 	db	79	;'O'
   280  007F46  70                 	db	112	;'p'
   281  007F47  74                 	db	116	;'t'
   282  007F48  69                 	db	105	;'i'
   283  007F49  63                 	db	99	;'c'
   284  007F4A  6F                 	db	111	;'o'
   285  007F4B  20                 	db	32
   286  007F4C  3D                 	db	61	;'='
   287  007F4D  20                 	db	32
   288  007F4E  25                 	db	37
   289  007F4F  64                 	db	100	;'d'
   290  007F50  0D                 	db	13
   291  007F51  0A                 	db	10
   292  007F52  0A                 	db	10
   293  007F53  00                 	db	0
   294  007F54  0D                 	db	13
   295  007F55  4D                 	db	77	;'M'
   296  007F56  6F                 	db	111	;'o'
   297  007F57  76                 	db	118	;'v'
   298  007F58  69                 	db	105	;'i'
   299  007F59  6D                 	db	109	;'m'
   300  007F5A  69                 	db	105	;'i'
   301  007F5B  65                 	db	101	;'e'
   302  007F5C  6E                 	db	110	;'n'
   303  007F5D  74                 	db	116	;'t'
   304  007F5E  6F                 	db	111	;'o'
   305  007F5F  73                 	db	115	;'s'
   306  007F60  20                 	db	32
   307  007F61  52                 	db	82	;'R'
   308  007F62  65                 	db	101	;'e'
   309  007F63  61                 	db	97	;'a'
   310  007F64  6C                 	db	108	;'l'
   311  007F65  69                 	db	105	;'i'
   312  007F66  7A                 	db	122	;'z'
   313  007F67  61                 	db	97	;'a'
   314  007F68  64                 	db	100	;'d'
   315  007F69  6F                 	db	111	;'o'
   316  007F6A  73                 	db	115	;'s'
   317  007F6B  20                 	db	32
   318  007F6C  3D                 	db	61	;'='
   319  007F6D  20                 	db	32
   320  007F6E  25                 	db	37
   321  007F6F  64                 	db	100	;'d'
   322  007F70  0D                 	db	13
   323  007F71  0A                 	db	10
   324  007F72  0A                 	db	10
   325  007F73  00                 	db	0
   326  007F74  0D                 	db	13
   327  007F75  44                 	db	68	;'D'
   328  007F76  65                 	db	101	;'e'
   329  007F77  73                 	db	115	;'s'
   330  007F78  74                 	db	116	;'t'
   331  007F79  69                 	db	105	;'i'
   332  007F7A  6E                 	db	110	;'n'
   333  007F7B  6F                 	db	111	;'o'
   334  007F7C  20                 	db	32
   335  007F7D  6E                 	db	110	;'n'
   336  007F7E  6F                 	db	111	;'o'
   337  007F7F  20                 	db	32
   338  007F80  64                 	db	100	;'d'
   339  007F81  65                 	db	101	;'e'
   340  007F82  74                 	db	116	;'t'
   341  007F83  65                 	db	101	;'e'
   342  007F84  63                 	db	99	;'c'
   343  007F85  74                 	db	116	;'t'
   344  007F86  61                 	db	97	;'a'
   345  007F87  64                 	db	100	;'d'
   346  007F88  6F                 	db	111	;'o'
   347  007F89  20                 	db	32
   348  007F8A  0D                 	db	13
   349  007F8B  0A                 	db	10
   350  007F8C  00                 	db	0
   351  007F8D  0D                 	db	13
   352  007F8E  53                 	db	83	;'S'
   353  007F8F  65                 	db	101	;'e'
   354  007F90  20                 	db	32
   355  007F91  6C                 	db	108	;'l'
   356  007F92  6C                 	db	108	;'l'
   357  007F93  65                 	db	101	;'e'
   358  007F94  67                 	db	103	;'g'
   359  007F95  6F                 	db	111	;'o'
   360  007F96  20                 	db	32
   361  007F97  61                 	db	97	;'a'
   362  007F98  6C                 	db	108	;'l'
   363  007F99  20                 	db	32
   364  007F9A  64                 	db	100	;'d'
   365  007F9B  65                 	db	101	;'e'
   366  007F9C  73                 	db	115	;'s'
   367  007F9D  74                 	db	116	;'t'
   368  007F9E  69                 	db	105	;'i'
   369  007F9F  6E                 	db	110	;'n'
   370  007FA0  6F                 	db	111	;'o'
   371  007FA1  20                 	db	32
   372  007FA2  0D                 	db	13
   373  007FA3  0A                 	db	10
   374  007FA4  00                 	db	0
   375  007FA5  0D                 	db	13
   376  007FA6  49                 	db	73	;'I'
   377  007FA7  7A                 	db	122	;'z'
   378  007FA8  71                 	db	113	;'q'
   379  007FA9  75                 	db	117	;'u'
   380  007FAA  69                 	db	105	;'i'
   381  007FAB  65                 	db	101	;'e'
   382  007FAC  72                 	db	114	;'r'
   383  007FAD  64                 	db	100	;'d'
   384  007FAE  61                 	db	97	;'a'
   385  007FAF  3A                 	db	58	;':'
   386  007FB0  20                 	db	32
   387  007FB1  25                 	db	37
   388  007FB2  2E                 	db	46
   389  007FB3  32                 	db	50	;'2'
   390  007FB4  66                 	db	102	;'f'
   391  007FB5  0D                 	db	13
   392  007FB6  0A                 	db	10
   393  007FB7  00                 	db	0
   394  007FB8  0D                 	db	13
   395  007FB9  45                 	db	69	;'E'
   396  007FBA  6E                 	db	110	;'n'
   397  007FBB  66                 	db	102	;'f'
   398  007FBC  72                 	db	114	;'r'
   399  007FBD  65                 	db	101	;'e'
   400  007FBE  6E                 	db	110	;'n'
   401  007FBF  74                 	db	116	;'t'
   402  007FC0  65                 	db	101	;'e'
   403  007FC1  3A                 	db	58	;':'
   404  007FC2  20                 	db	32
   405  007FC3  25                 	db	37
   406  007FC4  2E                 	db	46
   407  007FC5  32                 	db	50	;'2'
   408  007FC6  66                 	db	102	;'f'
   409  007FC7  0D                 	db	13
   410  007FC8  0A                 	db	10
   411  007FC9  00                 	db	0
   412  007FCA  0D                 	db	13
   413  007FCB  44                 	db	68	;'D'
   414  007FCC  65                 	db	101	;'e'
   415  007FCD  72                 	db	114	;'r'
   416  007FCE  65                 	db	101	;'e'
   417  007FCF  63                 	db	99	;'c'
   418  007FD0  68                 	db	104	;'h'
   419  007FD1  61                 	db	97	;'a'
   420  007FD2  3A                 	db	58	;':'
   421  007FD3  20                 	db	32
   422  007FD4  25                 	db	37
   423  007FD5  2E                 	db	46
   424  007FD6  32                 	db	50	;'2'
   425  007FD7  66                 	db	102	;'f'
   426  007FD8  0D                 	db	13
   427  007FD9  0A                 	db	10
   428  007FDA  00                 	db	0
   429  007FDB  49                 	db	73	;'I'
   430  007FDC  7A                 	db	122	;'z'
   431  007FDD  71                 	db	113	;'q'
   432  007FDE  75                 	db	117	;'u'
   433  007FDF  69                 	db	105	;'i'
   434  007FE0  65                 	db	101	;'e'
   435  007FE1  72                 	db	114	;'r'
   436  007FE2  64                 	db	100	;'d'
   437  007FE3  61                 	db	97	;'a'
   438  007FE4  0A                 	db	10
   439  007FE5  00                 	db	0
   440  007FE6  45                 	db	69	;'E'
   441  007FE7  6E                 	db	110	;'n'
   442  007FE8  66                 	db	102	;'f'
   443  007FE9  72                 	db	114	;'r'
   444  007FEA  65                 	db	101	;'e'
   445  007FEB  6E                 	db	110	;'n'
   446  007FEC  74                 	db	116	;'t'
   447  007FED  65                 	db	101	;'e'
   448  007FEE  0A                 	db	10
   449  007FEF  00                 	db	0
   450  007FF0  44                 	db	68	;'D'
   451  007FF1  65                 	db	101	;'e'
   452  007FF2  72                 	db	114	;'r'
   453  007FF3  65                 	db	101	;'e'
   454  007FF4  63                 	db	99	;'c'
   455  007FF5  68                 	db	104	;'h'
   456  007FF6  61                 	db	97	;'a'
   457  007FF7  0A                 	db	10
   458  007FF8  00                 	db	0
   459  007FF9  41                 	db	65	;'A'
   460  007FFA  6C                 	db	108	;'l'
   461  007FFB  74                 	db	116	;'t'
   462  007FFC  6F                 	db	111	;'o'
   463  007FFD  0A                 	db	10
   464  007FFE  00                 	db	0
   465                           
   466                           ; #config settings
   467  007FFF  00                 	db	0	; dummy byte at the end
   468  0000                     
   469                           	psect	cinit
   470  0013C8                     __pcinit:
   471                           	opt callstack 0
   472  0013C8                     start_initialization:
   473                           	opt callstack 0
   474  0013C8                     __initialization:
   475                           	opt callstack 0
   476                           
   477                           ; Initialize objects allocated to BANK0 (1 bytes)
   478                           ; load TBLPTR registers with __pidataBANK0
   479  0013C8  0E3A               	movlw	low __pidataBANK0
   480  0013CA  6EF6               	movwf	tblptrl,c
   481  0013CC  0E14               	movlw	high __pidataBANK0
   482  0013CE  6EF7               	movwf	tblptrh,c
   483  0013D0  0E00               	movlw	low (__pidataBANK0 shr (0+16))
   484  0013D2  6EF8               	movwf	tblptru,c
   485  0013D4  0009               	tblrd		*+	;fetch initializer
   486  0013D6  CFF5 F0DA          	movff	tablat,__pdataBANK0
   487                           
   488                           ; Clear objects allocated to BANK1 (150 bytes)
   489  0013DA  EE01  F000         	lfsr	0,__pbssBANK1
   490  0013DE  0E96               	movlw	150
   491  0013E0                     clear_0:
   492  0013E0  6AEE               	clrf	postinc0,c
   493  0013E2  06E8               	decf	wreg,f,c
   494  0013E4  E1FD               	bnz	clear_0
   495                           
   496                           ; Clear objects allocated to BANK0 (105 bytes)
   497  0013E6  EE00  F060         	lfsr	0,__pbssBANK0
   498  0013EA  0E69               	movlw	105
   499  0013EC                     clear_1:
   500  0013EC  6AEE               	clrf	postinc0,c
   501  0013EE  06E8               	decf	wreg,f,c
   502  0013F0  E1FD               	bnz	clear_1
   503                           
   504                           ; Clear objects allocated to COMRAM (5 bytes)
   505  0013F2  6A59               	clrf	(__pbssCOMRAM+4)& (0+255),c
   506  0013F4  6A58               	clrf	(__pbssCOMRAM+3)& (0+255),c
   507  0013F6  6A57               	clrf	(__pbssCOMRAM+2)& (0+255),c
   508  0013F8  6A56               	clrf	(__pbssCOMRAM+1)& (0+255),c
   509  0013FA  6A55               	clrf	__pbssCOMRAM& (0+255),c
   510  0013FC                     end_of_initialization:
   511                           	opt callstack 0
   512  0013FC                     __end_of__initialization:
   513                           	opt callstack 0
   514  0013FC  905A               	bcf	int$flags,0,c	;clear compiler interrupt flag (level 1)
   515  0013FE  925A               	bcf	int$flags,1,c	;clear compiler interrupt flag (level 2)
   516  001400  0E00               	movlw	low (__Lmediumconst shr (0+16))
   517  001402  6EF8               	movwf	tblptru,c
   518  001404  0100               	movlb	0
   519  001406  EF13  F008         	goto	_main	;jump to C main() function
   520                           
   521                           	psect	bssCOMRAM
   522  000055                     __pbssCOMRAM:
   523                           	opt callstack 0
   524  000055                     _mouse:
   525                           	opt callstack 0
   526  000055                     	ds	2
   527  000057                     _llegoDestino:
   528                           	opt callstack 0
   529  000057                     	ds	1
   530  000058                     comportamientoBasico@numMovimientosTotales:
   531                           	opt callstack 0
   532  000058                     	ds	1
   533  000059                     comportamientoBasico@carroEspejeado:
   534                           	opt callstack 0
   535  000059                     	ds	1
   536                           
   537                           	psect	bssBANK0
   538  000060                     __pbssBANK0:
   539                           	opt callstack 0
   540  000060                     roundf@F525:
   541                           	opt callstack 0
   542  000060                     	ds	4
   543  000064                     _DISTANCIA_PRIORIDAD_BAJA:
   544                           	opt callstack 0
   545  000064                     	ds	4
   546  000068                     _DISTANCIA_PRIORIDAD_MEDIA:
   547                           	opt callstack 0
   548  000068                     	ds	4
   549  00006C                     _DISTANCIA_PRIORIDAD_ALTA:
   550                           	opt callstack 0
   551  00006C                     	ds	4
   552  000070                     _oldSensorEnfrente:
   553                           	opt callstack 0
   554  000070                     	ds	4
   555  000074                     _oldSensorIzquierda:
   556                           	opt callstack 0
   557  000074                     	ds	4
   558  000078                     _oldSensorDerecha:
   559                           	opt callstack 0
   560  000078                     	ds	4
   561  00007C                     _sensorEnfrente:
   562                           	opt callstack 0
   563  00007C                     	ds	4
   564  000080                     _sensorIzquierda:
   565                           	opt callstack 0
   566  000080                     	ds	4
   567  000084                     _sensorDerecha:
   568                           	opt callstack 0
   569  000084                     	ds	4
   570  000088                     PID@difAnt:
   571                           	opt callstack 0
   572  000088                     	ds	2
   573  00008A                     decidirDireccion@cambioOrientacionCarro:
   574                           	opt callstack 0
   575  00008A                     	ds	1
   576  00008B                     comportamientoBasico@caminoEncontrado:
   577                           	opt callstack 0
   578  00008B                     	ds	1
   579  00008C                     comportamientoBasico@cruceDetectado:
   580                           	opt callstack 0
   581  00008C                     	ds	1
   582  00008D                     comportamientoBasico@mapear:
   583                           	opt callstack 0
   584  00008D                     	ds	1
   585  00008E                     comportamientoBasico@espejearCarroY:
   586                           	opt callstack 0
   587  00008E                     	ds	1
   588  00008F                     _buffer:
   589                           	opt callstack 0
   590  00008F                     	ds	50
   591  0000C1                     comportamientoBasico@caminosRecorrer:
   592                           	opt callstack 0
   593  0000C1                     	ds	3
   594  0000C4                     comportamientoBasico@caminoActual:
   595                           	opt callstack 0
   596  0000C4                     	ds	1
   597  0000C5                     comportamientoBasico@contCaminosRecorridos:
   598                           	opt callstack 0
   599  0000C5                     	ds	1
   600  0000C6                     comportamientoBasico@posicionInvCruce:
   601                           	opt callstack 0
   602  0000C6                     	ds	1
   603  0000C7                     comportamientoBasico@investigandoCruce:
   604                           	opt callstack 0
   605  0000C7                     	ds	1
   606  0000C8                     comportamientoBasico@numMovimientos:
   607                           	opt callstack 0
   608  0000C8                     	ds	1
   609                           
   610                           	psect	dataBANK0
   611  0000DA                     __pdataBANK0:
   612                           	opt callstack 0
   613  0000DA                     _pausa:
   614                           	opt callstack 0
   615  0000DA                     	ds	1
   616                           
   617                           	psect	bssBANK1
   618  000100                     __pbssBANK1:
   619                           	opt callstack 0
   620  000100                     comportamientoBasico@caminoFinal:
   621                           	opt callstack 0
   622  000100                     	ds	100
   623  000164                     comportamientoBasico@movimientosRealizados:
   624                           	opt callstack 0
   625  000164                     	ds	50
   626                           
   627                           	psect	cstackBANK0
   628  0000C9                     __pcstackBANK0:
   629                           	opt callstack 0
   630  0000C9                     ___fltol@sign1:
   631                           	opt callstack 0
   632                           
   633                           ; 1 bytes @ 0x0
   634  0000C9                     	ds	1
   635  0000CA                     ___fltol@exp1:
   636                           	opt callstack 0
   637                           
   638                           ; 1 bytes @ 0x1
   639  0000CA                     	ds	1
   640  0000CB                     pwmDuty@cicloTrabajo:
   641                           	opt callstack 0
   642                           
   643                           ; 2 bytes @ 0x2
   644  0000CB                     	ds	2
   645  0000CD                     pwmDuty@channel:
   646                           	opt callstack 0
   647                           
   648                           ; 1 bytes @ 0x4
   649  0000CD                     	ds	1
   650  0000CE                     ??_pwmDuty:
   651                           
   652                           ; 1 bytes @ 0x5
   653  0000CE                     	ds	5
   654  0000D3                     pwmDuty@duty:
   655                           	opt callstack 0
   656                           
   657                           ; 4 bytes @ 0xA
   658  0000D3                     	ds	6
   659  0000D9                     main@iniciado:
   660                           	opt callstack 0
   661                           
   662                           ; 1 bytes @ 0x10
   663  0000D9                     	ds	1
   664                           
   665                           	psect	cstackCOMRAM
   666  000001                     __pcstackCOMRAM:
   667                           	opt callstack 0
   668  000001                     ??_antiRebote:
   669  000001                     
   670                           ; 1 bytes @ 0x0
   671  000001                     	ds	2
   672  000003                     antiRebote@pin:
   673                           	opt callstack 0
   674                           
   675                           ; 1 bytes @ 0x2
   676  000003                     	ds	1
   677  000004                     ??_boton:
   678                           
   679                           ; 1 bytes @ 0x3
   680  000004                     	ds	2
   681  000006                     ??_mover:
   682  000006                     ??_configPwm:
   683  000006                     ?___lwdiv:
   684                           	opt callstack 0
   685  000006                     ?___lmul:
   686                           	opt callstack 0
   687  000006                     ___lwdiv@dividend:
   688                           	opt callstack 0
   689  000006                     ___lmul@multiplier:
   690                           	opt callstack 0
   691                           
   692                           ; 4 bytes @ 0x5
   693  000006                     	ds	2
   694  000008                     ??_probarGirosAuto:
   695  000008                     configPwm@channel:
   696                           	opt callstack 0
   697  000008                     ___lwdiv@divisor:
   698                           	opt callstack 0
   699                           
   700                           ; 2 bytes @ 0x7
   701  000008                     	ds	2
   702  00000A                     probarGirosAuto@i:
   703                           	opt callstack 0
   704  00000A                     ___lwdiv@quotient:
   705                           	opt callstack 0
   706  00000A                     ___lmul@multiplicand:
   707                           	opt callstack 0
   708                           
   709                           ; 4 bytes @ 0x9
   710  00000A                     	ds	2
   711  00000C                     ___lwdiv@counter:
   712                           	opt callstack 0
   713  00000C                     probarGirosAuto@i_632:
   714                           	opt callstack 0
   715                           
   716                           ; 2 bytes @ 0xB
   717  00000C                     	ds	1
   718  00000D                     ?___xxtofl:
   719                           	opt callstack 0
   720  00000D                     ___xxtofl@val:
   721                           	opt callstack 0
   722                           
   723                           ; 4 bytes @ 0xC
   724  00000D                     	ds	1
   725  00000E                     ___lmul@product:
   726                           	opt callstack 0
   727                           
   728                           ; 4 bytes @ 0xD
   729  00000E                     	ds	3
   730  000011                     ??___xxtofl:
   731                           
   732                           ; 1 bytes @ 0x10
   733  000011                     	ds	1
   734  000012                     ?___aldiv:
   735                           	opt callstack 0
   736  000012                     ___aldiv@dividend:
   737                           	opt callstack 0
   738                           
   739                           ; 4 bytes @ 0x11
   740  000012                     	ds	3
   741  000015                     ___xxtofl@sign:
   742                           	opt callstack 0
   743                           
   744                           ; 1 bytes @ 0x14
   745  000015                     	ds	1
   746  000016                     ___xxtofl@exp:
   747                           	opt callstack 0
   748  000016                     ___aldiv@divisor:
   749                           	opt callstack 0
   750                           
   751                           ; 4 bytes @ 0x15
   752  000016                     	ds	1
   753  000017                     ___xxtofl@arg:
   754                           	opt callstack 0
   755                           
   756                           ; 4 bytes @ 0x16
   757  000017                     	ds	3
   758  00001A                     ___aldiv@counter:
   759                           	opt callstack 0
   760                           
   761                           ; 1 bytes @ 0x19
   762  00001A                     	ds	1
   763  00001B                     ?___fldiv:
   764                           	opt callstack 0
   765  00001B                     ?_dameDistancia:
   766                           	opt callstack 0
   767  00001B                     ___aldiv@sign:
   768                           	opt callstack 0
   769  00001B                     ___fldiv@b:
   770                           	opt callstack 0
   771                           
   772                           ; 4 bytes @ 0x1A
   773  00001B                     	ds	1
   774  00001C                     ___aldiv@quotient:
   775                           	opt callstack 0
   776                           
   777                           ; 4 bytes @ 0x1B
   778  00001C                     	ds	3
   779  00001F                     ??_dameDistancia:
   780  00001F                     ___fldiv@a:
   781                           	opt callstack 0
   782                           
   783                           ; 4 bytes @ 0x1E
   784  00001F                     	ds	1
   785  000020                     ?_map:
   786                           	opt callstack 0
   787  000020                     map@x:
   788                           	opt callstack 0
   789  000020                     UART_init@BAUD:
   790                           	opt callstack 0
   791                           
   792                           ; 4 bytes @ 0x1F
   793  000020                     	ds	1
   794  000021                     dameDistancia@numeroSensor:
   795                           	opt callstack 0
   796                           
   797                           ; 1 bytes @ 0x20
   798  000021                     	ds	1
   799  000022                     dameDistancia@distancia:
   800                           	opt callstack 0
   801                           
   802                           ; 4 bytes @ 0x21
   803  000022                     	ds	1
   804  000023                     ??___fldiv:
   805                           
   806                           ; 1 bytes @ 0x22
   807  000023                     	ds	1
   808  000024                     map@in_min:
   809                           	opt callstack 0
   810                           
   811                           ; 4 bytes @ 0x23
   812  000024                     	ds	2
   813  000026                     dameDistancia@conteo:
   814                           	opt callstack 0
   815                           
   816                           ; 2 bytes @ 0x25
   817  000026                     	ds	1
   818  000027                     ___fldiv@rem:
   819                           	opt callstack 0
   820                           
   821                           ; 4 bytes @ 0x26
   822  000027                     	ds	1
   823  000028                     map@in_max:
   824                           	opt callstack 0
   825  000028                     _UART_init$1464:
   826                           	opt callstack 0
   827                           
   828                           ; 4 bytes @ 0x27
   829  000028                     	ds	3
   830  00002B                     ___fldiv@sign:
   831                           	opt callstack 0
   832                           
   833                           ; 1 bytes @ 0x2A
   834  00002B                     	ds	1
   835  00002C                     ___fldiv@new_exp:
   836                           	opt callstack 0
   837  00002C                     map@out_min:
   838                           	opt callstack 0
   839                           
   840                           ; 4 bytes @ 0x2B
   841  00002C                     	ds	2
   842  00002E                     ___fldiv@grs:
   843                           	opt callstack 0
   844                           
   845                           ; 4 bytes @ 0x2D
   846  00002E                     	ds	2
   847  000030                     map@out_max:
   848                           	opt callstack 0
   849                           
   850                           ; 4 bytes @ 0x2F
   851  000030                     	ds	2
   852  000032                     ___fldiv@bexp:
   853                           	opt callstack 0
   854                           
   855                           ; 1 bytes @ 0x31
   856  000032                     	ds	1
   857  000033                     ___fldiv@aexp:
   858                           	opt callstack 0
   859                           
   860                           ; 1 bytes @ 0x32
   861  000033                     	ds	1
   862  000034                     ?___flmul:
   863                           	opt callstack 0
   864  000034                     ___flmul@b:
   865                           	opt callstack 0
   866                           
   867                           ; 4 bytes @ 0x33
   868  000034                     	ds	4
   869  000038                     ___flmul@a:
   870                           	opt callstack 0
   871                           
   872                           ; 4 bytes @ 0x37
   873  000038                     	ds	4
   874  00003C                     ??___flmul:
   875                           
   876                           ; 1 bytes @ 0x3B
   877  00003C                     	ds	4
   878  000040                     ___flmul@sign:
   879                           	opt callstack 0
   880                           
   881                           ; 1 bytes @ 0x3F
   882  000040                     	ds	1
   883  000041                     ___flmul@grs:
   884                           	opt callstack 0
   885                           
   886                           ; 4 bytes @ 0x40
   887  000041                     	ds	4
   888  000045                     ___flmul@aexp:
   889                           	opt callstack 0
   890                           
   891                           ; 1 bytes @ 0x44
   892  000045                     	ds	1
   893  000046                     ___flmul@bexp:
   894                           	opt callstack 0
   895                           
   896                           ; 1 bytes @ 0x45
   897  000046                     	ds	1
   898  000047                     ___flmul@prod:
   899                           	opt callstack 0
   900                           
   901                           ; 4 bytes @ 0x46
   902  000047                     	ds	4
   903  00004B                     ___flmul@temp:
   904                           	opt callstack 0
   905                           
   906                           ; 2 bytes @ 0x4A
   907  00004B                     	ds	2
   908  00004D                     ?___fltol:
   909                           	opt callstack 0
   910  00004D                     ___fltol@f1:
   911                           	opt callstack 0
   912                           
   913                           ; 4 bytes @ 0x4C
   914  00004D                     	ds	4
   915  000051                     ??___fltol:
   916                           
   917                           ; 1 bytes @ 0x50
   918  000051                     	ds	4
   919  000055                     
   920                           ; 1 bytes @ 0x54
   921 ;;
   922 ;;Main: autosize = 0, tempsize = 0, incstack = 0, save=0
   923 ;;
   924 ;; *************** function _main *****************
   925 ;; Defined at:
   926 ;;		line 1101 in file "main.c"
   927 ;; Parameters:    Size  Location     Type
   928 ;;		None
   929 ;; Auto vars:     Size  Location     Type
   930 ;;  numMovimient    2    0        int 
   931 ;;  iniciado        1   16[BANK0 ] unsigned char 
   932 ;; Return value:  Size  Location     Type
   933 ;;                  1    wreg      void 
   934 ;; Registers used:
   935 ;;		wreg, status,2, status,0, prodl, prodh, cstack
   936 ;; Tracked objects:
   937 ;;		On entry : 0/0
   938 ;;		On exit  : 0/0
   939 ;;		Unchanged: 0/0
   940 ;; Data sizes:     COMRAM   BANK0   BANK1   BANK2   BANK3   BANK4   BANK5   BANK6   BANK7
   941 ;;      Params:         0       0       0       0       0       0       0       0       0
   942 ;;      Locals:         0       3       0       0       0       0       0       0       0
   943 ;;      Temps:          0       0       0       0       0       0       0       0       0
   944 ;;      Totals:         0       3       0       0       0       0       0       0       0
   945 ;;Total ram usage:        3 bytes
   946 ;; Hardware stack levels required when called:    7
   947 ;; This function calls:
   948 ;;		_UART_init
   949 ;;		_configPwm
   950 ;;		_configurarAdc
   951 ;;		_inicializarComportamientoBasico
   952 ;;		_probarGirosAuto
   953 ;; This function is called by:
   954 ;;		Startup code after reset
   955 ;; This function uses a non-reentrant model
   956 ;;
   957                           
   958                           	psect	text0
   959  001026                     __ptext0:
   960                           	opt callstack 0
   961  001026                     _main:
   962                           	opt callstack 24
   963  001026                     
   964                           ;main.c: 1103:     T_BOOL iniciado = 0;
   965  001026  0E00               	movlw	0
   966  001028  0100               	movlb	0	; () banked
   967  00102A  6FD9               	movwf	main@iniciado& (0+255),b
   968  00102C                     
   969                           ; BSR set to: 0
   970                           ;main.c: 1107:     INTCONbits.GIE = 1;
   971  00102C  8EF2               	bsf	242,7,c	;volatile
   972  00102E                     
   973                           ; BSR set to: 0
   974                           ;main.c: 1108:     INTCONbits.INT0IE = 1;
   975  00102E  88F2               	bsf	242,4,c	;volatile
   976  001030                     
   977                           ; BSR set to: 0
   978                           ;main.c: 1109:     INTCON2bits.INTEDG0 = 1;
   979  001030  8CF1               	bsf	241,6,c	;volatile
   980  001032                     
   981                           ; BSR set to: 0
   982                           ;main.c: 1111:     TRISD3 = 0;
   983  001032  9695               	bcf	3989,3,c	;volatile
   984  001034                     
   985                           ; BSR set to: 0
   986                           ;main.c: 1112:     TRISB1 = 1;
   987  001034  8293               	bsf	3987,1,c	;volatile
   988  001036                     
   989                           ; BSR set to: 0
   990                           ;main.c: 1113:     TRISB2 = 1;
   991  001036  8493               	bsf	3987,2,c	;volatile
   992  001038                     
   993                           ; BSR set to: 0
   994                           ;main.c: 1114:     TRISB3 = 1;
   995  001038  8693               	bsf	3987,3,c	;volatile
   996  00103A                     
   997                           ; BSR set to: 0
   998                           ;main.c: 1116:     TRISB4 = 0;
   999  00103A  9893               	bcf	3987,4,c	;volatile
  1000  00103C                     
  1001                           ; BSR set to: 0
  1002                           ;main.c: 1117:     TRISB5 = 0;
  1003  00103C  9A93               	bcf	3987,5,c	;volatile
  1004  00103E                     
  1005                           ; BSR set to: 0
  1006                           ;main.c: 1118:     TRISB6 = 0;
  1007  00103E  9C93               	bcf	3987,6,c	;volatile
  1008  001040                     
  1009                           ; BSR set to: 0
  1010                           ;main.c: 1119:     TRISB7 = 0;
  1011  001040  9E93               	bcf	3987,7,c	;volatile
  1012  001042                     
  1013                           ; BSR set to: 0
  1014                           ;main.c: 1121:     TRISDbits.RD2 = 0;
  1015  001042  9495               	bcf	149,2,c	;volatile
  1016  001044                     
  1017                           ; BSR set to: 0
  1018                           ;main.c: 1122:     TRISB0 = 1;
  1019  001044  8093               	bsf	3987,0,c	;volatile
  1020  001046                     
  1021                           ; BSR set to: 0
  1022                           ;main.c: 1124:     LATD3 = 0;
  1023  001046  968C               	bcf	3980,3,c	;volatile
  1024  001048                     
  1025                           ; BSR set to: 0
  1026                           ;main.c: 1125:     LATB4 = 0;
  1027  001048  988A               	bcf	3978,4,c	;volatile
  1028  00104A                     
  1029                           ; BSR set to: 0
  1030                           ;main.c: 1126:     LATB5 = 0;
  1031  00104A  9A8A               	bcf	3978,5,c	;volatile
  1032  00104C                     
  1033                           ; BSR set to: 0
  1034                           ;main.c: 1127:     LATB6 = 0;
  1035  00104C  9C8A               	bcf	3978,6,c	;volatile
  1036  00104E                     
  1037                           ; BSR set to: 0
  1038                           ;main.c: 1128:     LATB7 = 0;
  1039  00104E  9E8A               	bcf	3978,7,c	;volatile
  1040  001050                     
  1041                           ; BSR set to: 0
  1042                           ;main.c: 1129:     LATD2 = 0;
  1043  001050  948C               	bcf	3980,2,c	;volatile
  1044                           
  1045                           ;main.c: 1132:     T1CON = 0b00000000;
  1046  001052  0E00               	movlw	0
  1047  001054  6ECD               	movwf	205,c	;volatile
  1048  001056                     
  1049                           ; BSR set to: 0
  1050                           ;main.c: 1134:     configPwm(1);
  1051  001056  0E01               	movlw	1
  1052  001058  EC96  F009         	call	_configPwm
  1053  00105C                     
  1054                           ;main.c: 1135:     configPwm(2);
  1055  00105C  0E02               	movlw	2
  1056  00105E  EC96  F009         	call	_configPwm
  1057  001062                     
  1058                           ;main.c: 1136:     configurarAdc();
  1059  001062  EC18  F00A         	call	_configurarAdc	;wreg free
  1060  001066                     
  1061                           ;main.c: 1138:     UART_init(9600);
  1062  001066  0E80               	movlw	128
  1063  001068  6E20               	movwf	UART_init@BAUD^0,c
  1064  00106A  0E25               	movlw	37
  1065  00106C  6E21               	movwf	(UART_init@BAUD+1)^0,c
  1066  00106E  0E00               	movlw	0
  1067  001070  6E22               	movwf	(UART_init@BAUD+2)^0,c
  1068  001072  0E00               	movlw	0
  1069  001074  6E23               	movwf	(UART_init@BAUD+3)^0,c
  1070  001076  ECD3  F008         	call	_UART_init	;wreg free
  1071  00107A                     l5190:
  1072                           
  1073                           ;main.c: 1143:         if (!pausa) {
  1074  00107A  0100               	movlb	0	; () banked
  1075  00107C  51DA               	movf	_pausa& (0+255),w,b
  1076  00107E  A4D8               	btfss	status,2,c
  1077  001080  EF44  F008         	goto	u4401
  1078  001084  EF46  F008         	goto	u4400
  1079  001088                     u4401:
  1080  001088  EF56  F008         	goto	l5200
  1081  00108C                     u4400:
  1082  00108C                     
  1083                           ; BSR set to: 0
  1084                           ;main.c: 1145:             if (!iniciado) {
  1085  00108C  51D9               	movf	main@iniciado& (0+255),w,b
  1086  00108E  A4D8               	btfss	status,2,c
  1087  001090  EF4C  F008         	goto	u4411
  1088  001094  EF4E  F008         	goto	u4410
  1089  001098                     u4411:
  1090  001098  EF52  F008         	goto	l5198
  1091  00109C                     u4410:
  1092  00109C                     
  1093                           ; BSR set to: 0
  1094                           ;main.c: 1146:                 iniciado = 1;
  1095  00109C  0E01               	movlw	1
  1096  00109E  6FD9               	movwf	main@iniciado& (0+255),b
  1097  0010A0                     
  1098                           ; BSR set to: 0
  1099                           ;main.c: 1147:                 inicializarComportamientoBasico();
  1100  0010A0  ECBE  F009         	call	_inicializarComportamientoBasico	;wreg free
  1101  0010A4                     l5198:
  1102                           
  1103                           ;main.c: 1151:             probarGirosAuto();
  1104  0010A4  EC5E  F007         	call	_probarGirosAuto	;wreg free
  1105                           
  1106                           ;main.c: 1156:         } else {
  1107  0010A8  EF3D  F008         	goto	l5190
  1108  0010AC                     l5200:
  1109                           
  1110                           ; BSR set to: 0
  1111                           ;main.c: 1158:             iniciado = 0;
  1112  0010AC  0E00               	movlw	0
  1113  0010AE  6FD9               	movwf	main@iniciado& (0+255),b
  1114  0010B0  EF3D  F008         	goto	l5190
  1115  0010B4  EF07  F000         	goto	start
  1116  0010B8                     __end_of_main:
  1117                           	opt callstack 0
  1118                           
  1119 ;; *************** function _probarGirosAuto *****************
  1120 ;; Defined at:
  1121 ;;		line 167 in file "main.c"
  1122 ;; Parameters:    Size  Location     Type
  1123 ;;		None
  1124 ;; Auto vars:     Size  Location     Type
  1125 ;;  i               2   11[COMRAM] int 
  1126 ;;  i               2    9[COMRAM] int 
  1127 ;; Return value:  Size  Location     Type
  1128 ;;                  1    wreg      void 
  1129 ;; Registers used:
  1130 ;;		wreg, status,2, status,0, cstack
  1131 ;; Tracked objects:
  1132 ;;		On entry : 0/0
  1133 ;;		On exit  : 0/0
  1134 ;;		Unchanged: 0/0
  1135 ;; Data sizes:     COMRAM   BANK0   BANK1   BANK2   BANK3   BANK4   BANK5   BANK6   BANK7
  1136 ;;      Params:         0       0       0       0       0       0       0       0       0
  1137 ;;      Locals:         4       0       0       0       0       0       0       0       0
  1138 ;;      Temps:          2       0       0       0       0       0       0       0       0
  1139 ;;      Totals:         6       0       0       0       0       0       0       0       0
  1140 ;;Total ram usage:        6 bytes
  1141 ;; Hardware stack levels used:    1
  1142 ;; Hardware stack levels required when called:    3
  1143 ;; This function calls:
  1144 ;;		_mover
  1145 ;; This function is called by:
  1146 ;;		_main
  1147 ;; This function uses a non-reentrant model
  1148 ;;
  1149                           
  1150                           	psect	text1
  1151  000EBC                     __ptext1:
  1152                           	opt callstack 0
  1153  000EBC                     _probarGirosAuto:
  1154                           	opt callstack 27
  1155  000EBC                     
  1156                           ;main.c: 169:     for (T_INT i = 0; i < 4; i++)
  1157  000EBC  0E00               	movlw	0
  1158  000EBE  6E0B               	movwf	(probarGirosAuto@i+1)^0,c
  1159  000EC0  0E00               	movlw	0
  1160  000EC2  6E0A               	movwf	probarGirosAuto@i^0,c
  1161  000EC4                     l3702:
  1162                           
  1163                           ;main.c: 170:     {;main.c: 171:         mouse.curr_state = DERECHA;
  1164  000EC4  0E03               	movlw	3
  1165  000EC6  6E55               	movwf	_mouse^0,c
  1166  000EC8                     
  1167                           ;main.c: 172:         mover();
  1168  000EC8  ECC3  F007         	call	_mover	;wreg free
  1169  000ECC                     
  1170                           ;main.c: 174:         mouse.curr_state = ALTO;
  1171  000ECC  0E04               	movlw	4
  1172  000ECE  6E55               	movwf	_mouse^0,c
  1173                           
  1174                           ;main.c: 175:         mover();
  1175  000ED0  ECC3  F007         	call	_mover	;wreg free
  1176  000ED4                     
  1177                           ;main.c: 176:         _delay((unsigned long)((1000)*(4000000/4000.0)));
  1178  000ED4  0E06               	movlw	6
  1179  000ED6  6E09               	movwf	(??_probarGirosAuto+1)^0,c
  1180  000ED8  0E13               	movlw	19
  1181  000EDA  6E08               	movwf	??_probarGirosAuto^0,c
  1182  000EDC  0EAE               	movlw	174
  1183  000EDE                     u4427:
  1184  000EDE  2EE8               	decfsz	wreg,f,c
  1185  000EE0  D7FE               	bra	u4427
  1186  000EE2  2E08               	decfsz	??_probarGirosAuto^0,f,c
  1187  000EE4  D7FC               	bra	u4427
  1188  000EE6  2E09               	decfsz	(??_probarGirosAuto+1)^0,f,c
  1189  000EE8  D7FA               	bra	u4427
  1190  000EEA                     
  1191                           ;main.c: 177:     }
  1192  000EEA  4A0A               	infsnz	probarGirosAuto@i^0,f,c
  1193  000EEC  2A0B               	incf	(probarGirosAuto@i+1)^0,f,c
  1194  000EEE  BE0B               	btfsc	(probarGirosAuto@i+1)^0,7,c
  1195  000EF0  EF83  F007         	goto	u3001
  1196  000EF4  500B               	movf	(probarGirosAuto@i+1)^0,w,c
  1197  000EF6  E109               	bnz	u3000
  1198  000EF8  0E04               	movlw	4
  1199  000EFA  5C0A               	subwf	probarGirosAuto@i^0,w,c
  1200  000EFC  A0D8               	btfss	status,0,c
  1201  000EFE  EF83  F007         	goto	u3001
  1202  000F02  EF85  F007         	goto	u3000
  1203  000F06                     u3001:
  1204  000F06  EF62  F007         	goto	l3702
  1205  000F0A                     u3000:
  1206  000F0A                     
  1207                           ;main.c: 179:     _delay((unsigned long)((3000)*(4000000/4000.0)));
  1208  000F0A  0E10               	movlw	16
  1209  000F0C  6E09               	movwf	(??_probarGirosAuto+1)^0,c
  1210  000F0E  0E39               	movlw	57
  1211  000F10  6E08               	movwf	??_probarGirosAuto^0,c
  1212  000F12  0E0E               	movlw	14
  1213  000F14                     u4437:
  1214  000F14  2EE8               	decfsz	wreg,f,c
  1215  000F16  D7FE               	bra	u4437
  1216  000F18  2E08               	decfsz	??_probarGirosAuto^0,f,c
  1217  000F1A  D7FC               	bra	u4437
  1218  000F1C  2E09               	decfsz	(??_probarGirosAuto+1)^0,f,c
  1219  000F1E  D7FA               	bra	u4437
  1220  000F20                     
  1221                           ;main.c: 181:     for (T_INT i = 0; i < 4; i++)
  1222  000F20  0E00               	movlw	0
  1223  000F22  6E0D               	movwf	(probarGirosAuto@i_632+1)^0,c
  1224  000F24  0E00               	movlw	0
  1225  000F26  6E0C               	movwf	probarGirosAuto@i_632^0,c
  1226  000F28                     l3722:
  1227                           
  1228                           ;main.c: 182:     {;main.c: 183:         mouse.curr_state = IZQUIERDA;
  1229  000F28  0E02               	movlw	2
  1230  000F2A  6E55               	movwf	_mouse^0,c
  1231  000F2C                     
  1232                           ;main.c: 184:         mover();
  1233  000F2C  ECC3  F007         	call	_mover	;wreg free
  1234  000F30                     
  1235                           ;main.c: 186:         mouse.curr_state = ALTO;
  1236  000F30  0E04               	movlw	4
  1237  000F32  6E55               	movwf	_mouse^0,c
  1238                           
  1239                           ;main.c: 187:         mover();
  1240  000F34  ECC3  F007         	call	_mover	;wreg free
  1241  000F38                     
  1242                           ;main.c: 188:         _delay((unsigned long)((1000)*(4000000/4000.0)));
  1243  000F38  0E06               	movlw	6
  1244  000F3A  6E09               	movwf	(??_probarGirosAuto+1)^0,c
  1245  000F3C  0E13               	movlw	19
  1246  000F3E  6E08               	movwf	??_probarGirosAuto^0,c
  1247  000F40  0EAE               	movlw	174
  1248  000F42                     u4447:
  1249  000F42  2EE8               	decfsz	wreg,f,c
  1250  000F44  D7FE               	bra	u4447
  1251  000F46  2E08               	decfsz	??_probarGirosAuto^0,f,c
  1252  000F48  D7FC               	bra	u4447
  1253  000F4A  2E09               	decfsz	(??_probarGirosAuto+1)^0,f,c
  1254  000F4C  D7FA               	bra	u4447
  1255  000F4E                     
  1256                           ;main.c: 189:     }
  1257  000F4E  4A0C               	infsnz	probarGirosAuto@i_632^0,f,c
  1258  000F50  2A0D               	incf	(probarGirosAuto@i_632+1)^0,f,c
  1259  000F52  BE0D               	btfsc	(probarGirosAuto@i_632+1)^0,7,c
  1260  000F54  EFB5  F007         	goto	u3011
  1261  000F58  500D               	movf	(probarGirosAuto@i_632+1)^0,w,c
  1262  000F5A  E109               	bnz	u3010
  1263  000F5C  0E04               	movlw	4
  1264  000F5E  5C0C               	subwf	probarGirosAuto@i_632^0,w,c
  1265  000F60  A0D8               	btfss	status,0,c
  1266  000F62  EFB5  F007         	goto	u3011
  1267  000F66  EFB7  F007         	goto	u3010
  1268  000F6A                     u3011:
  1269  000F6A  EF94  F007         	goto	l3722
  1270  000F6E                     u3010:
  1271  000F6E                     
  1272                           ;main.c: 191:     _delay((unsigned long)((3000)*(4000000/4000.0)));
  1273  000F6E  0E10               	movlw	16
  1274  000F70  6E09               	movwf	(??_probarGirosAuto+1)^0,c
  1275  000F72  0E39               	movlw	57
  1276  000F74  6E08               	movwf	??_probarGirosAuto^0,c
  1277  000F76  0E0E               	movlw	14
  1278  000F78                     u4457:
  1279  000F78  2EE8               	decfsz	wreg,f,c
  1280  000F7A  D7FE               	bra	u4457
  1281  000F7C  2E08               	decfsz	??_probarGirosAuto^0,f,c
  1282  000F7E  D7FC               	bra	u4457
  1283  000F80  2E09               	decfsz	(??_probarGirosAuto+1)^0,f,c
  1284  000F82  D7FA               	bra	u4457
  1285  000F84  0012               	return		;funcret
  1286  000F86                     __end_of_probarGirosAuto:
  1287                           	opt callstack 0
  1288                           
  1289 ;; *************** function _mover *****************
  1290 ;; Defined at:
  1291 ;;		line 499 in file "main.c"
  1292 ;; Parameters:    Size  Location     Type
  1293 ;;		None
  1294 ;; Auto vars:     Size  Location     Type
  1295 ;;		None
  1296 ;; Return value:  Size  Location     Type
  1297 ;;                  1    wreg      void 
  1298 ;; Registers used:
  1299 ;;		wreg, status,2, status,0
  1300 ;; Tracked objects:
  1301 ;;		On entry : 0/0
  1302 ;;		On exit  : 0/0
  1303 ;;		Unchanged: 0/0
  1304 ;; Data sizes:     COMRAM   BANK0   BANK1   BANK2   BANK3   BANK4   BANK5   BANK6   BANK7
  1305 ;;      Params:         0       0       0       0       0       0       0       0       0
  1306 ;;      Locals:         0       0       0       0       0       0       0       0       0
  1307 ;;      Temps:          2       0       0       0       0       0       0       0       0
  1308 ;;      Totals:         2       0       0       0       0       0       0       0       0
  1309 ;;Total ram usage:        2 bytes
  1310 ;; Hardware stack levels used:    1
  1311 ;; Hardware stack levels required when called:    2
  1312 ;; This function calls:
  1313 ;;		Nothing
  1314 ;; This function is called by:
  1315 ;;		_probarGirosAuto
  1316 ;;		_regresarPuntoPartida
  1317 ;;		_regresarAlCruce
  1318 ;;		_recorrerCaminoEncontrado
  1319 ;;		_probarPID
  1320 ;; This function uses a non-reentrant model
  1321 ;;
  1322                           
  1323                           	psect	text2
  1324  000F86                     __ptext2:
  1325                           	opt callstack 0
  1326  000F86                     _mover:
  1327                           	opt callstack 27
  1328  000F86                     
  1329                           ;main.c: 501:     switch (mouse.curr_state) {
  1330  000F86  EFF5  F007         	goto	l3394
  1331  000F8A                     l403:
  1332                           
  1333                           ;main.c: 505:             LATB4 = 1;
  1334  000F8A  888A               	bsf	3978,4,c	;volatile
  1335                           
  1336                           ;main.c: 506:             LATB5 = 0;
  1337  000F8C  9A8A               	bcf	3978,5,c	;volatile
  1338                           
  1339                           ;main.c: 507:             LATB6 = 1;
  1340  000F8E  8C8A               	bsf	3978,6,c	;volatile
  1341                           
  1342                           ;main.c: 508:             LATB7 = 0;
  1343  000F90  9E8A               	bcf	3978,7,c	;volatile
  1344                           
  1345                           ;main.c: 510:             break;
  1346  000F92  EF12  F008         	goto	l408
  1347  000F96                     l405:
  1348                           
  1349                           ;main.c: 514:             LATB4 = 0;
  1350  000F96  988A               	bcf	3978,4,c	;volatile
  1351                           
  1352                           ;main.c: 515:             LATB5 = 0;
  1353  000F98  9A8A               	bcf	3978,5,c	;volatile
  1354                           
  1355                           ;main.c: 516:             LATB6 = 1;
  1356  000F9A  8C8A               	bsf	3978,6,c	;volatile
  1357                           
  1358                           ;main.c: 517:             LATB7 = 0;
  1359  000F9C  9E8A               	bcf	3978,7,c	;volatile
  1360  000F9E                     
  1361                           ;main.c: 519:             _delay((unsigned long)((700)*(4000000/4000.0)));
  1362  000F9E  0E04               	movlw	4
  1363  000FA0  6E07               	movwf	(??_mover+1)^0,c
  1364  000FA2  0E8E               	movlw	142
  1365  000FA4  6E06               	movwf	??_mover^0,c
  1366  000FA6  0E12               	movlw	18
  1367  000FA8                     u4467:
  1368  000FA8  2EE8               	decfsz	wreg,f,c
  1369  000FAA  D7FE               	bra	u4467
  1370  000FAC  2E06               	decfsz	??_mover^0,f,c
  1371  000FAE  D7FC               	bra	u4467
  1372  000FB0  2E07               	decfsz	(??_mover+1)^0,f,c
  1373  000FB2  D7FA               	bra	u4467
  1374  000FB4  D000               	nop2	
  1375                           
  1376                           ;main.c: 521:             break;
  1377  000FB6  EF12  F008         	goto	l408
  1378  000FBA                     l406:
  1379                           
  1380                           ;main.c: 525:             LATB4 = 1;
  1381  000FBA  888A               	bsf	3978,4,c	;volatile
  1382                           
  1383                           ;main.c: 526:             LATB5 = 0;
  1384  000FBC  9A8A               	bcf	3978,5,c	;volatile
  1385                           
  1386                           ;main.c: 527:             LATB6 = 0;
  1387  000FBE  9C8A               	bcf	3978,6,c	;volatile
  1388                           
  1389                           ;main.c: 528:             LATB7 = 0;
  1390  000FC0  9E8A               	bcf	3978,7,c	;volatile
  1391  000FC2                     
  1392                           ;main.c: 530:             _delay((unsigned long)((730)*(4000000/4000.0)));
  1393  000FC2  0E04               	movlw	4
  1394  000FC4  6E07               	movwf	(??_mover+1)^0,c
  1395  000FC6  0EB5               	movlw	181
  1396  000FC8  6E06               	movwf	??_mover^0,c
  1397  000FCA  0E08               	movlw	8
  1398  000FCC                     u4477:
  1399  000FCC  2EE8               	decfsz	wreg,f,c
  1400  000FCE  D7FE               	bra	u4477
  1401  000FD0  2E06               	decfsz	??_mover^0,f,c
  1402  000FD2  D7FC               	bra	u4477
  1403  000FD4  2E07               	decfsz	(??_mover+1)^0,f,c
  1404  000FD6  D7FA               	bra	u4477
  1405  000FD8  D000               	nop2	
  1406                           
  1407                           ;main.c: 532:             break;
  1408  000FDA  EF12  F008         	goto	l408
  1409  000FDE                     l407:
  1410                           
  1411                           ;main.c: 536:             LATB4 = 0;
  1412  000FDE  988A               	bcf	3978,4,c	;volatile
  1413                           
  1414                           ;main.c: 537:             LATB5 = 0;
  1415  000FE0  9A8A               	bcf	3978,5,c	;volatile
  1416                           
  1417                           ;main.c: 538:             LATB6 = 0;
  1418  000FE2  9C8A               	bcf	3978,6,c	;volatile
  1419                           
  1420                           ;main.c: 539:             LATB7 = 0;
  1421  000FE4  9E8A               	bcf	3978,7,c	;volatile
  1422                           
  1423                           ;main.c: 541:             break;
  1424  000FE6  EF12  F008         	goto	l408
  1425  000FEA                     l3394:
  1426  000FEA  5055               	movf	_mouse^0,w,c
  1427  000FEC  6E06               	movwf	??_mover^0,c
  1428  000FEE  6A07               	clrf	(??_mover+1)^0,c
  1429                           
  1430                           ; Switch on 2 bytes has been partitioned into a top level switch of size 1, and 1 sub-sw
      +                          itches
  1431                           ; Switch size 1, requested type "simple"
  1432                           ; Number of cases is 1, Range of values is 0 to 0
  1433                           ; switch strategies available:
  1434                           ; Name         Instructions Cycles
  1435                           ; simple_byte            4     3 (average)
  1436                           ;	Chosen strategy is simple_byte
  1437  000FF0  5007               	movf	(??_mover+1)^0,w,c
  1438  000FF2  0A00               	xorlw	0	; case 0
  1439  000FF4  B4D8               	btfsc	status,2,c
  1440  000FF6  EFFF  F007         	goto	l5302
  1441  000FFA  EF12  F008         	goto	l408
  1442  000FFE                     l5302:
  1443                           
  1444                           ; Switch size 1, requested type "simple"
  1445                           ; Number of cases is 4, Range of values is 1 to 4
  1446                           ; switch strategies available:
  1447                           ; Name         Instructions Cycles
  1448                           ; simple_byte           13     7 (average)
  1449                           ;	Chosen strategy is simple_byte
  1450  000FFE  5006               	movf	??_mover^0,w,c
  1451  001000  0A01               	xorlw	1	; case 1
  1452  001002  B4D8               	btfsc	status,2,c
  1453  001004  EFC5  F007         	goto	l403
  1454  001008  0A03               	xorlw	3	; case 2
  1455  00100A  B4D8               	btfsc	status,2,c
  1456  00100C  EFCB  F007         	goto	l405
  1457  001010  0A01               	xorlw	1	; case 3
  1458  001012  B4D8               	btfsc	status,2,c
  1459  001014  EFDD  F007         	goto	l406
  1460  001018  0A07               	xorlw	7	; case 4
  1461  00101A  B4D8               	btfsc	status,2,c
  1462  00101C  EFEF  F007         	goto	l407
  1463  001020  EF12  F008         	goto	l408
  1464  001024                     l408:
  1465  001024  0012               	return		;funcret
  1466  001026                     __end_of_mover:
  1467                           	opt callstack 0
  1468                           
  1469 ;; *************** function _inicializarComportamientoBasico *****************
  1470 ;; Defined at:
  1471 ;;		line 233 in file "main.c"
  1472 ;; Parameters:    Size  Location     Type
  1473 ;;		None
  1474 ;; Auto vars:     Size  Location     Type
  1475 ;;		None
  1476 ;; Return value:  Size  Location     Type
  1477 ;;                  1    wreg      void 
  1478 ;; Registers used:
  1479 ;;		wreg, status,2, status,0, prodl, prodh, cstack
  1480 ;; Tracked objects:
  1481 ;;		On entry : 0/0
  1482 ;;		On exit  : 0/0
  1483 ;;		Unchanged: 0/0
  1484 ;; Data sizes:     COMRAM   BANK0   BANK1   BANK2   BANK3   BANK4   BANK5   BANK6   BANK7
  1485 ;;      Params:         0       0       0       0       0       0       0       0       0
  1486 ;;      Locals:         0       0       0       0       0       0       0       0       0
  1487 ;;      Temps:          0       0       0       0       0       0       0       0       0
  1488 ;;      Totals:         0       0       0       0       0       0       0       0       0
  1489 ;;Total ram usage:        0 bytes
  1490 ;; Hardware stack levels used:    1
  1491 ;; Hardware stack levels required when called:    6
  1492 ;; This function calls:
  1493 ;;		_dameDistancia
  1494 ;;		_velocidadEstandar
  1495 ;; This function is called by:
  1496 ;;		_main
  1497 ;; This function uses a non-reentrant model
  1498 ;;
  1499                           
  1500                           	psect	text3
  1501  00137C                     __ptext3:
  1502                           	opt callstack 0
  1503  00137C                     _inicializarComportamientoBasico:
  1504                           	opt callstack 24
  1505  00137C                     
  1506                           ;main.c: 235:     mouse.curr_state = ENFRENTE;
  1507  00137C  0E01               	movlw	1
  1508  00137E  6E55               	movwf	_mouse^0,c
  1509  001380                     
  1510                           ;main.c: 237:     oldSensorDerecha = dameDistancia(DERECHA);
  1511  001380  0E03               	movlw	3
  1512  001382  ECA3  F005         	call	_dameDistancia
  1513  001386  C01B  F078         	movff	?_dameDistancia,_oldSensorDerecha
  1514  00138A  C01C  F079         	movff	?_dameDistancia+1,_oldSensorDerecha+1
  1515  00138E  C01D  F07A         	movff	?_dameDistancia+2,_oldSensorDerecha+2
  1516  001392  C01E  F07B         	movff	?_dameDistancia+3,_oldSensorDerecha+3
  1517  001396                     
  1518                           ;main.c: 238:     oldSensorIzquierda = dameDistancia(IZQUIERDA);
  1519  001396  0E02               	movlw	2
  1520  001398  ECA3  F005         	call	_dameDistancia
  1521  00139C  C01B  F074         	movff	?_dameDistancia,_oldSensorIzquierda
  1522  0013A0  C01C  F075         	movff	?_dameDistancia+1,_oldSensorIzquierda+1
  1523  0013A4  C01D  F076         	movff	?_dameDistancia+2,_oldSensorIzquierda+2
  1524  0013A8  C01E  F077         	movff	?_dameDistancia+3,_oldSensorIzquierda+3
  1525  0013AC                     
  1526                           ;main.c: 239:     oldSensorEnfrente = dameDistancia(ENFRENTE);
  1527  0013AC  0E01               	movlw	1
  1528  0013AE  ECA3  F005         	call	_dameDistancia
  1529  0013B2  C01B  F070         	movff	?_dameDistancia,_oldSensorEnfrente
  1530  0013B6  C01C  F071         	movff	?_dameDistancia+1,_oldSensorEnfrente+1
  1531  0013BA  C01D  F072         	movff	?_dameDistancia+2,_oldSensorEnfrente+2
  1532  0013BE  C01E  F073         	movff	?_dameDistancia+3,_oldSensorEnfrente+3
  1533  0013C2                     
  1534                           ;main.c: 241:     velocidadEstandar();
  1535  0013C2  EC05  F00A         	call	_velocidadEstandar	;wreg free
  1536  0013C6  0012               	return		;funcret
  1537  0013C8                     __end_of_inicializarComportamientoBasico:
  1538                           	opt callstack 0
  1539                           
  1540 ;; *************** function _velocidadEstandar *****************
  1541 ;; Defined at:
  1542 ;;		line 1087 in file "main.c"
  1543 ;; Parameters:    Size  Location     Type
  1544 ;;		None
  1545 ;; Auto vars:     Size  Location     Type
  1546 ;;		None
  1547 ;; Return value:  Size  Location     Type
  1548 ;;                  1    wreg      void 
  1549 ;; Registers used:
  1550 ;;		wreg, status,2, status,0, prodl, prodh, cstack
  1551 ;; Tracked objects:
  1552 ;;		On entry : 0/0
  1553 ;;		On exit  : 0/0
  1554 ;;		Unchanged: 0/0
  1555 ;; Data sizes:     COMRAM   BANK0   BANK1   BANK2   BANK3   BANK4   BANK5   BANK6   BANK7
  1556 ;;      Params:         0       0       0       0       0       0       0       0       0
  1557 ;;      Locals:         0       0       0       0       0       0       0       0       0
  1558 ;;      Temps:          0       0       0       0       0       0       0       0       0
  1559 ;;      Totals:         0       0       0       0       0       0       0       0       0
  1560 ;;Total ram usage:        0 bytes
  1561 ;; Hardware stack levels used:    1
  1562 ;; Hardware stack levels required when called:    5
  1563 ;; This function calls:
  1564 ;;		_pwmDuty
  1565 ;; This function is called by:
  1566 ;;		_inicializarComportamientoBasico
  1567 ;;		_comportamientoBasico
  1568 ;;		_forzarEspejeoAuto
  1569 ;;		_regresarPuntoPartida
  1570 ;;		_regresarAlCruce
  1571 ;;		_recorrerCaminoEncontrado
  1572 ;; This function uses a non-reentrant model
  1573 ;;
  1574                           
  1575                           	psect	text4
  1576  00140A                     __ptext4:
  1577                           	opt callstack 0
  1578  00140A                     _velocidadEstandar:
  1579                           	opt callstack 24
  1580  00140A                     
  1581                           ;main.c: 1088:     pwmDuty(70, 1);
  1582  00140A  0E00               	movlw	0
  1583  00140C  0100               	movlb	0	; () banked
  1584  00140E  6FCC               	movwf	(pwmDuty@cicloTrabajo+1)& (0+255),b
  1585  001410  0E46               	movlw	70
  1586  001412  6FCB               	movwf	pwmDuty@cicloTrabajo& (0+255),b
  1587  001414  0E01               	movlw	1
  1588  001416  6FCD               	movwf	pwmDuty@channel& (0+255),b
  1589  001418  ECEB  F003         	call	_pwmDuty	;wreg free
  1590                           
  1591                           ;main.c: 1089:     pwmDuty(70, 2);
  1592  00141C  0E00               	movlw	0
  1593  00141E  0100               	movlb	0	; () banked
  1594  001420  6FCC               	movwf	(pwmDuty@cicloTrabajo+1)& (0+255),b
  1595  001422  0E46               	movlw	70
  1596  001424  6FCB               	movwf	pwmDuty@cicloTrabajo& (0+255),b
  1597  001426  0E02               	movlw	2
  1598  001428  6FCD               	movwf	pwmDuty@channel& (0+255),b
  1599  00142A  ECEB  F003         	call	_pwmDuty	;wreg free
  1600  00142E  0012               	return		;funcret
  1601  001430                     __end_of_velocidadEstandar:
  1602                           	opt callstack 0
  1603                           
  1604 ;; *************** function _pwmDuty *****************
  1605 ;; Defined at:
  1606 ;;		line 20 in file "./pwm.h"
  1607 ;; Parameters:    Size  Location     Type
  1608 ;;  cicloTrabajo    2    2[BANK0 ] unsigned int 
  1609 ;;  channel         1    4[BANK0 ] unsigned char 
  1610 ;; Auto vars:     Size  Location     Type
  1611 ;;  duty            4   10[BANK0 ] long 
  1612 ;; Return value:  Size  Location     Type
  1613 ;;                  1    wreg      void 
  1614 ;; Registers used:
  1615 ;;		wreg, status,2, status,0, prodl, prodh, cstack
  1616 ;; Tracked objects:
  1617 ;;		On entry : 0/0
  1618 ;;		On exit  : 0/0
  1619 ;;		Unchanged: 0/0
  1620 ;; Data sizes:     COMRAM   BANK0   BANK1   BANK2   BANK3   BANK4   BANK5   BANK6   BANK7
  1621 ;;      Params:         0       3       0       0       0       0       0       0       0
  1622 ;;      Locals:         0       4       0       0       0       0       0       0       0
  1623 ;;      Temps:          0       5       0       0       0       0       0       0       0
  1624 ;;      Totals:         0      12       0       0       0       0       0       0       0
  1625 ;;Total ram usage:       12 bytes
  1626 ;; Hardware stack levels used:    1
  1627 ;; Hardware stack levels required when called:    4
  1628 ;; This function calls:
  1629 ;;		___fldiv
  1630 ;;		___flmul
  1631 ;;		___fltol
  1632 ;;		___xxtofl
  1633 ;;		_map
  1634 ;; This function is called by:
  1635 ;;		_velocidadEstandar
  1636 ;;		_PID
  1637 ;; This function uses a non-reentrant model
  1638 ;;
  1639                           
  1640                           	psect	text5
  1641  0007D6                     __ptext5:
  1642                           	opt callstack 0
  1643  0007D6                     _pwmDuty:
  1644                           	opt callstack 24
  1645  0007D6                     
  1646                           ;./pwm.h: 22:     T_LONG duty = map(cicloTrabajo, 0, 100, 0, 1023);
  1647  0007D6  C0CB  F020         	movff	pwmDuty@cicloTrabajo,map@x
  1648  0007DA  C0CC  F021         	movff	pwmDuty@cicloTrabajo+1,map@x+1
  1649  0007DE  6A22               	clrf	(map@x+2)^0,c
  1650  0007E0  6A23               	clrf	(map@x+3)^0,c
  1651  0007E2  0E00               	movlw	0
  1652  0007E4  6E24               	movwf	map@in_min^0,c
  1653  0007E6  0E00               	movlw	0
  1654  0007E8  6E25               	movwf	(map@in_min+1)^0,c
  1655  0007EA  0E00               	movlw	0
  1656  0007EC  6E26               	movwf	(map@in_min+2)^0,c
  1657  0007EE  0E00               	movlw	0
  1658  0007F0  6E27               	movwf	(map@in_min+3)^0,c
  1659  0007F2  0E64               	movlw	100
  1660  0007F4  6E28               	movwf	map@in_max^0,c
  1661  0007F6  0E00               	movlw	0
  1662  0007F8  6E29               	movwf	(map@in_max+1)^0,c
  1663  0007FA  0E00               	movlw	0
  1664  0007FC  6E2A               	movwf	(map@in_max+2)^0,c
  1665  0007FE  0E00               	movlw	0
  1666  000800  6E2B               	movwf	(map@in_max+3)^0,c
  1667  000802  0E00               	movlw	0
  1668  000804  6E2C               	movwf	map@out_min^0,c
  1669  000806  0E00               	movlw	0
  1670  000808  6E2D               	movwf	(map@out_min+1)^0,c
  1671  00080A  0E00               	movlw	0
  1672  00080C  6E2E               	movwf	(map@out_min+2)^0,c
  1673  00080E  0E00               	movlw	0
  1674  000810  6E2F               	movwf	(map@out_min+3)^0,c
  1675  000812  0EFF               	movlw	255
  1676  000814  6E30               	movwf	map@out_max^0,c
  1677  000816  0E03               	movlw	3
  1678  000818  6E31               	movwf	(map@out_max+1)^0,c
  1679  00081A  0E00               	movlw	0
  1680  00081C  6E32               	movwf	(map@out_max+2)^0,c
  1681  00081E  0E00               	movlw	0
  1682  000820  6E33               	movwf	(map@out_max+3)^0,c
  1683  000822  EC5C  F008         	call	_map	;wreg free
  1684  000826  C020  F0D3         	movff	?_map,pwmDuty@duty
  1685  00082A  C021  F0D4         	movff	?_map+1,pwmDuty@duty+1
  1686  00082E  C022  F0D5         	movff	?_map+2,pwmDuty@duty+2
  1687  000832  C023  F0D6         	movff	?_map+3,pwmDuty@duty+3
  1688  000836                     
  1689                           ;./pwm.h: 24:     if (duty < 1024) {
  1690  000836  0100               	movlb	0	; () banked
  1691  000838  BFD6               	btfsc	(pwmDuty@duty+3)& (0+255),7,b
  1692  00083A  EF2B  F004         	goto	u4010
  1693  00083E  51D6               	movf	(pwmDuty@duty+3)& (0+255),w,b
  1694  000840  11D5               	iorwf	(pwmDuty@duty+2)& (0+255),w,b
  1695  000842  E107               	bnz	u4011
  1696  000844  0E04               	movlw	4
  1697  000846  5DD4               	subwf	(pwmDuty@duty+1)& (0+255),w,b
  1698  000848  B0D8               	btfsc	status,0,c
  1699  00084A  EF29  F004         	goto	u4011
  1700  00084E  EF2B  F004         	goto	u4010
  1701  000852                     u4011:
  1702  000852  EFC8  F004         	goto	l155
  1703  000856                     u4010:
  1704  000856                     
  1705                           ; BSR set to: 0
  1706                           ;./pwm.h: 26:         duty = ((T_FLOAT) duty / 1023)*(4000000 / (500 * 16));
  1707  000856  0E00               	movlw	0
  1708  000858  6E38               	movwf	___flmul@a^0,c
  1709  00085A  0E00               	movlw	0
  1710  00085C  6E39               	movwf	(___flmul@a+1)^0,c
  1711  00085E  0EFA               	movlw	250
  1712  000860  6E3A               	movwf	(___flmul@a+2)^0,c
  1713  000862  0E43               	movlw	67
  1714  000864  6E3B               	movwf	(___flmul@a+3)^0,c
  1715  000866  0E00               	movlw	0
  1716  000868  6E1F               	movwf	___fldiv@a^0,c
  1717  00086A  0EC0               	movlw	192
  1718  00086C  6E20               	movwf	(___fldiv@a+1)^0,c
  1719  00086E  0E7F               	movlw	127
  1720  000870  6E21               	movwf	(___fldiv@a+2)^0,c
  1721  000872  0E44               	movlw	68
  1722  000874  6E22               	movwf	(___fldiv@a+3)^0,c
  1723  000876  C0D3  F00D         	movff	pwmDuty@duty,___xxtofl@val
  1724  00087A  C0D4  F00E         	movff	pwmDuty@duty+1,___xxtofl@val+1
  1725  00087E  C0D5  F00F         	movff	pwmDuty@duty+2,___xxtofl@val+2
  1726  000882  C0D6  F010         	movff	pwmDuty@duty+3,___xxtofl@val+3
  1727  000886  0E01               	movlw	1
  1728  000888  ECC9  F004         	call	___xxtofl
  1729  00088C  C00D  F01B         	movff	?___xxtofl,___fldiv@b
  1730  000890  C00E  F01C         	movff	?___xxtofl+1,___fldiv@b+1
  1731  000894  C00F  F01D         	movff	?___xxtofl+2,___fldiv@b+2
  1732  000898  C010  F01E         	movff	?___xxtofl+3,___fldiv@b+3
  1733  00089C  EC1E  F002         	call	___fldiv	;wreg free
  1734  0008A0  C01B  F034         	movff	?___fldiv,___flmul@b
  1735  0008A4  C01C  F035         	movff	?___fldiv+1,___flmul@b+1
  1736  0008A8  C01D  F036         	movff	?___fldiv+2,___flmul@b+2
  1737  0008AC  C01E  F037         	movff	?___fldiv+3,___flmul@b+3
  1738  0008B0  EC09  F000         	call	___flmul	;wreg free
  1739  0008B4  C034  F04D         	movff	?___flmul,___fltol@f1
  1740  0008B8  C035  F04E         	movff	?___flmul+1,___fltol@f1+1
  1741  0008BC  C036  F04F         	movff	?___flmul+2,___fltol@f1+2
  1742  0008C0  C037  F050         	movff	?___flmul+3,___fltol@f1+3
  1743  0008C4  ECDA  F006         	call	___fltol	;wreg free
  1744  0008C8  C04D  F0D3         	movff	?___fltol,pwmDuty@duty
  1745  0008CC  C04E  F0D4         	movff	?___fltol+1,pwmDuty@duty+1
  1746  0008D0  C04F  F0D5         	movff	?___fltol+2,pwmDuty@duty+2
  1747  0008D4  C050  F0D6         	movff	?___fltol+3,pwmDuty@duty+3
  1748                           
  1749                           ;./pwm.h: 28:         switch (channel) {
  1750  0008D8  EFB2  F004         	goto	l4836
  1751  0008DC                     l4830:
  1752                           
  1753                           ; BSR set to: 0
  1754                           ;./pwm.h: 31:                 CCPR1L = duty >> 2;
  1755  0008DC  0E02               	movlw	2
  1756  0008DE  6FCE               	movwf	??_pwmDuty& (0+255),b
  1757  0008E0  C0D3  F0CF         	movff	pwmDuty@duty,??_pwmDuty+1
  1758  0008E4  C0D4  F0D0         	movff	pwmDuty@duty+1,??_pwmDuty+2
  1759  0008E8  C0D5  F0D1         	movff	pwmDuty@duty+2,??_pwmDuty+3
  1760  0008EC  C0D6  F0D2         	movff	pwmDuty@duty+3,??_pwmDuty+4
  1761  0008F0                     u4025:
  1762  0008F0  67CE               	tstfsz	??_pwmDuty& (0+255),b
  1763  0008F2  EF7D  F004         	goto	u4026
  1764  0008F6  EF85  F004         	goto	u4027
  1765  0008FA                     u4026:
  1766  0008FA  35D2               	rlcf	(??_pwmDuty+4)& (0+255),w,b
  1767  0008FC  33D2               	rrcf	(??_pwmDuty+4)& (0+255),f,b
  1768  0008FE  33D1               	rrcf	(??_pwmDuty+3)& (0+255),f,b
  1769  000900  33D0               	rrcf	(??_pwmDuty+2)& (0+255),f,b
  1770  000902  33CF               	rrcf	(??_pwmDuty+1)& (0+255),f,b
  1771  000904  2FCE               	decfsz	??_pwmDuty& (0+255),f,b
  1772  000906  EF78  F004         	goto	u4025
  1773  00090A                     u4027:
  1774  00090A  0100               	movlb	0	; () banked
  1775  00090C  51CF               	movf	(??_pwmDuty+1)& (0+255),w,b
  1776  00090E  6EBE               	movwf	190,c	;volatile
  1777                           
  1778                           ;./pwm.h: 32:                 CCP1CON &= 0xCF;
  1779  000910  0ECF               	movlw	207
  1780  000912  16BD               	andwf	189,f,c	;volatile
  1781                           
  1782                           ;./pwm.h: 33:                 CCP1CON |= ((duty << 4)&0x30);
  1783  000914  39D3               	swapf	pwmDuty@duty& (0+255),w,b	;volatile
  1784  000916  0BF0               	andlw	240
  1785  000918  0B30               	andlw	48
  1786  00091A  12BD               	iorwf	189,f,c	;volatile
  1787                           
  1788                           ;./pwm.h: 34:                 break;
  1789  00091C  EFC8  F004         	goto	l155
  1790  000920                     l4832:
  1791                           
  1792                           ; BSR set to: 0
  1793                           ;./pwm.h: 37:                 CCPR2L = duty >> 2;
  1794  000920  0E02               	movlw	2
  1795  000922  6FCE               	movwf	??_pwmDuty& (0+255),b
  1796  000924  C0D3  F0CF         	movff	pwmDuty@duty,??_pwmDuty+1
  1797  000928  C0D4  F0D0         	movff	pwmDuty@duty+1,??_pwmDuty+2
  1798  00092C  C0D5  F0D1         	movff	pwmDuty@duty+2,??_pwmDuty+3
  1799  000930  C0D6  F0D2         	movff	pwmDuty@duty+3,??_pwmDuty+4
  1800  000934                     u4035:
  1801  000934  67CE               	tstfsz	??_pwmDuty& (0+255),b
  1802  000936  EF9F  F004         	goto	u4036
  1803  00093A  EFA7  F004         	goto	u4037
  1804  00093E                     u4036:
  1805  00093E  35D2               	rlcf	(??_pwmDuty+4)& (0+255),w,b
  1806  000940  33D2               	rrcf	(??_pwmDuty+4)& (0+255),f,b
  1807  000942  33D1               	rrcf	(??_pwmDuty+3)& (0+255),f,b
  1808  000944  33D0               	rrcf	(??_pwmDuty+2)& (0+255),f,b
  1809  000946  33CF               	rrcf	(??_pwmDuty+1)& (0+255),f,b
  1810  000948  2FCE               	decfsz	??_pwmDuty& (0+255),f,b
  1811  00094A  EF9A  F004         	goto	u4035
  1812  00094E                     u4037:
  1813  00094E  0100               	movlb	0	; () banked
  1814  000950  51CF               	movf	(??_pwmDuty+1)& (0+255),w,b
  1815  000952  6EBB               	movwf	187,c	;volatile
  1816                           
  1817                           ;./pwm.h: 38:                 CCP2CON &= 0xCF;
  1818  000954  0ECF               	movlw	207
  1819  000956  16BA               	andwf	186,f,c	;volatile
  1820                           
  1821                           ;./pwm.h: 39:                 CCP2CON |= ((duty << 4)&0x30);
  1822  000958  39D3               	swapf	pwmDuty@duty& (0+255),w,b	;volatile
  1823  00095A  0BF0               	andlw	240
  1824  00095C  0B30               	andlw	48
  1825  00095E  12BA               	iorwf	186,f,c	;volatile
  1826                           
  1827                           ;./pwm.h: 40:                 break;
  1828  000960  EFC8  F004         	goto	l155
  1829  000964                     l4836:
  1830  000964  0100               	movlb	0	; () banked
  1831  000966  51CD               	movf	pwmDuty@channel& (0+255),w,b
  1832  000968  6FCE               	movwf	??_pwmDuty& (0+255),b
  1833  00096A  6BCF               	clrf	(??_pwmDuty+1)& (0+255),b
  1834                           
  1835                           ; Switch on 2 bytes has been partitioned into a top level switch of size 1, and 1 sub-sw
      +                          itches
  1836                           ; Switch size 1, requested type "simple"
  1837                           ; Number of cases is 1, Range of values is 0 to 0
  1838                           ; switch strategies available:
  1839                           ; Name         Instructions Cycles
  1840                           ; simple_byte            4     3 (average)
  1841                           ;	Chosen strategy is simple_byte
  1842  00096C  51CF               	movf	(??_pwmDuty+1)& (0+255),w,b
  1843  00096E  0A00               	xorlw	0	; case 0
  1844  000970  B4D8               	btfsc	status,2,c
  1845  000972  EFBD  F004         	goto	l5304
  1846  000976  EFC8  F004         	goto	l155
  1847  00097A                     l5304:
  1848                           
  1849                           ; BSR set to: 0
  1850                           ; Switch size 1, requested type "simple"
  1851                           ; Number of cases is 2, Range of values is 1 to 2
  1852                           ; switch strategies available:
  1853                           ; Name         Instructions Cycles
  1854                           ; simple_byte            7     4 (average)
  1855                           ;	Chosen strategy is simple_byte
  1856  00097A  51CE               	movf	??_pwmDuty& (0+255),w,b
  1857  00097C  0A01               	xorlw	1	; case 1
  1858  00097E  B4D8               	btfsc	status,2,c
  1859  000980  EF6E  F004         	goto	l4830
  1860  000984  0A03               	xorlw	3	; case 2
  1861  000986  B4D8               	btfsc	status,2,c
  1862  000988  EF90  F004         	goto	l4832
  1863  00098C  EFC8  F004         	goto	l155
  1864  000990                     l155:
  1865                           
  1866                           ; BSR set to: 0
  1867  000990  0012               	return		;funcret
  1868  000992                     __end_of_pwmDuty:
  1869                           	opt callstack 0
  1870                           
  1871 ;; *************** function _map *****************
  1872 ;; Defined at:
  1873 ;;		line 16 in file "./pwm.h"
  1874 ;; Parameters:    Size  Location     Type
  1875 ;;  x               4   31[COMRAM] long 
  1876 ;;  in_min          4   35[COMRAM] long 
  1877 ;;  in_max          4   39[COMRAM] long 
  1878 ;;  out_min         4   43[COMRAM] long 
  1879 ;;  out_max         4   47[COMRAM] long 
  1880 ;; Auto vars:     Size  Location     Type
  1881 ;;		None
  1882 ;; Return value:  Size  Location     Type
  1883 ;;                  4   31[COMRAM] long 
  1884 ;; Registers used:
  1885 ;;		wreg, status,2, status,0, cstack
  1886 ;; Tracked objects:
  1887 ;;		On entry : 0/0
  1888 ;;		On exit  : 0/0
  1889 ;;		Unchanged: 0/0
  1890 ;; Data sizes:     COMRAM   BANK0   BANK1   BANK2   BANK3   BANK4   BANK5   BANK6   BANK7
  1891 ;;      Params:        20       0       0       0       0       0       0       0       0
  1892 ;;      Locals:         0       0       0       0       0       0       0       0       0
  1893 ;;      Temps:          0       0       0       0       0       0       0       0       0
  1894 ;;      Totals:        20       0       0       0       0       0       0       0       0
  1895 ;;Total ram usage:       20 bytes
  1896 ;; Hardware stack levels used:    1
  1897 ;; Hardware stack levels required when called:    3
  1898 ;; This function calls:
  1899 ;;		___aldiv
  1900 ;;		___lmul
  1901 ;; This function is called by:
  1902 ;;		_pwmDuty
  1903 ;; This function uses a non-reentrant model
  1904 ;;
  1905                           
  1906                           	psect	text6
  1907  0010B8                     __ptext6:
  1908                           	opt callstack 0
  1909  0010B8                     _map:
  1910                           	opt callstack 24
  1911  0010B8                     
  1912                           ;./pwm.h: 17:     return (x - in_min) * (out_max - out_min) / (in_max - in_min) + out_mi
      +                          n;
  1913  0010B8  5024               	movf	map@in_min^0,w,c
  1914  0010BA  5C20               	subwf	map@x^0,w,c
  1915  0010BC  6E06               	movwf	___lmul@multiplier^0,c
  1916  0010BE  5025               	movf	(map@in_min+1)^0,w,c
  1917  0010C0  5821               	subwfb	(map@x+1)^0,w,c
  1918  0010C2  6E07               	movwf	(___lmul@multiplier+1)^0,c
  1919  0010C4  5026               	movf	(map@in_min+2)^0,w,c
  1920  0010C6  5822               	subwfb	(map@x+2)^0,w,c
  1921  0010C8  6E08               	movwf	(___lmul@multiplier+2)^0,c
  1922  0010CA  5027               	movf	(map@in_min+3)^0,w,c
  1923  0010CC  5823               	subwfb	(map@x+3)^0,w,c
  1924  0010CE  6E09               	movwf	(___lmul@multiplier+3)^0,c
  1925  0010D0  502C               	movf	map@out_min^0,w,c
  1926  0010D2  5C30               	subwf	map@out_max^0,w,c
  1927  0010D4  6E0A               	movwf	___lmul@multiplicand^0,c
  1928  0010D6  502D               	movf	(map@out_min+1)^0,w,c
  1929  0010D8  5831               	subwfb	(map@out_max+1)^0,w,c
  1930  0010DA  6E0B               	movwf	(___lmul@multiplicand+1)^0,c
  1931  0010DC  502E               	movf	(map@out_min+2)^0,w,c
  1932  0010DE  5832               	subwfb	(map@out_max+2)^0,w,c
  1933  0010E0  6E0C               	movwf	(___lmul@multiplicand+2)^0,c
  1934  0010E2  502F               	movf	(map@out_min+3)^0,w,c
  1935  0010E4  5833               	subwfb	(map@out_max+3)^0,w,c
  1936  0010E6  6E0D               	movwf	(___lmul@multiplicand+3)^0,c
  1937  0010E8  EC0B  F009         	call	___lmul	;wreg free
  1938  0010EC  C006  F012         	movff	?___lmul,___aldiv@dividend
  1939  0010F0  C007  F013         	movff	?___lmul+1,___aldiv@dividend+1
  1940  0010F4  C008  F014         	movff	?___lmul+2,___aldiv@dividend+2
  1941  0010F8  C009  F015         	movff	?___lmul+3,___aldiv@dividend+3
  1942  0010FC  5024               	movf	map@in_min^0,w,c
  1943  0010FE  5C28               	subwf	map@in_max^0,w,c
  1944  001100  6E16               	movwf	___aldiv@divisor^0,c
  1945  001102  5025               	movf	(map@in_min+1)^0,w,c
  1946  001104  5829               	subwfb	(map@in_max+1)^0,w,c
  1947  001106  6E17               	movwf	(___aldiv@divisor+1)^0,c
  1948  001108  5026               	movf	(map@in_min+2)^0,w,c
  1949  00110A  582A               	subwfb	(map@in_max+2)^0,w,c
  1950  00110C  6E18               	movwf	(___aldiv@divisor+2)^0,c
  1951  00110E  5027               	movf	(map@in_min+3)^0,w,c
  1952  001110  582B               	subwfb	(map@in_max+3)^0,w,c
  1953  001112  6E19               	movwf	(___aldiv@divisor+3)^0,c
  1954  001114  EC54  F006         	call	___aldiv	;wreg free
  1955  001118  502C               	movf	map@out_min^0,w,c
  1956  00111A  2412               	addwf	?___aldiv^0,w,c
  1957  00111C  6E20               	movwf	?_map^0,c
  1958  00111E  502D               	movf	(map@out_min+1)^0,w,c
  1959  001120  2013               	addwfc	(?___aldiv+1)^0,w,c
  1960  001122  6E21               	movwf	(?_map+1)^0,c
  1961  001124  502E               	movf	(map@out_min+2)^0,w,c
  1962  001126  2014               	addwfc	(?___aldiv+2)^0,w,c
  1963  001128  6E22               	movwf	(?_map+2)^0,c
  1964  00112A  502F               	movf	(map@out_min+3)^0,w,c
  1965  00112C  2015               	addwfc	(?___aldiv+3)^0,w,c
  1966  00112E  6E23               	movwf	(?_map+3)^0,c
  1967  001130  0012               	return		;funcret
  1968  001132                     __end_of_map:
  1969                           	opt callstack 0
  1970                           
  1971 ;; *************** function ___lmul *****************
  1972 ;; Defined at:
  1973 ;;		line 15 in file "C:\Program Files (x86)\Microchip\xc8\v2.10\pic\sources\c99\common\Umul32.c"
  1974 ;; Parameters:    Size  Location     Type
  1975 ;;  multiplier      4    5[COMRAM] unsigned long 
  1976 ;;  multiplicand    4    9[COMRAM] unsigned long 
  1977 ;; Auto vars:     Size  Location     Type
  1978 ;;  product         4   13[COMRAM] unsigned long 
  1979 ;; Return value:  Size  Location     Type
  1980 ;;                  4    5[COMRAM] unsigned long 
  1981 ;; Registers used:
  1982 ;;		wreg, status,2, status,0
  1983 ;; Tracked objects:
  1984 ;;		On entry : 0/0
  1985 ;;		On exit  : 0/0
  1986 ;;		Unchanged: 0/0
  1987 ;; Data sizes:     COMRAM   BANK0   BANK1   BANK2   BANK3   BANK4   BANK5   BANK6   BANK7
  1988 ;;      Params:         8       0       0       0       0       0       0       0       0
  1989 ;;      Locals:         4       0       0       0       0       0       0       0       0
  1990 ;;      Temps:          0       0       0       0       0       0       0       0       0
  1991 ;;      Totals:        12       0       0       0       0       0       0       0       0
  1992 ;;Total ram usage:       12 bytes
  1993 ;; Hardware stack levels used:    1
  1994 ;; Hardware stack levels required when called:    2
  1995 ;; This function calls:
  1996 ;;		Nothing
  1997 ;; This function is called by:
  1998 ;;		_map
  1999 ;; This function uses a non-reentrant model
  2000 ;;
  2001                           
  2002                           	psect	text7
  2003  001216                     __ptext7:
  2004                           	opt callstack 0
  2005  001216                     ___lmul:
  2006                           	opt callstack 24
  2007  001216  0E00               	movlw	0
  2008  001218  6E0E               	movwf	___lmul@product^0,c
  2009  00121A  0E00               	movlw	0
  2010  00121C  6E0F               	movwf	(___lmul@product+1)^0,c
  2011  00121E  0E00               	movlw	0
  2012  001220  6E10               	movwf	(___lmul@product+2)^0,c
  2013  001222  0E00               	movlw	0
  2014  001224  6E11               	movwf	(___lmul@product+3)^0,c
  2015  001226                     l2882:
  2016  001226  A006               	btfss	___lmul@multiplier^0,0,c
  2017  001228  EF18  F009         	goto	u1711
  2018  00122C  EF1A  F009         	goto	u1710
  2019  001230                     u1711:
  2020  001230  EF22  F009         	goto	l2886
  2021  001234                     u1710:
  2022  001234  500A               	movf	___lmul@multiplicand^0,w,c
  2023  001236  260E               	addwf	___lmul@product^0,f,c
  2024  001238  500B               	movf	(___lmul@multiplicand+1)^0,w,c
  2025  00123A  220F               	addwfc	(___lmul@product+1)^0,f,c
  2026  00123C  500C               	movf	(___lmul@multiplicand+2)^0,w,c
  2027  00123E  2210               	addwfc	(___lmul@product+2)^0,f,c
  2028  001240  500D               	movf	(___lmul@multiplicand+3)^0,w,c
  2029  001242  2211               	addwfc	(___lmul@product+3)^0,f,c
  2030  001244                     l2886:
  2031  001244  90D8               	bcf	status,0,c
  2032  001246  360A               	rlcf	___lmul@multiplicand^0,f,c
  2033  001248  360B               	rlcf	(___lmul@multiplicand+1)^0,f,c
  2034  00124A  360C               	rlcf	(___lmul@multiplicand+2)^0,f,c
  2035  00124C  360D               	rlcf	(___lmul@multiplicand+3)^0,f,c
  2036  00124E  90D8               	bcf	status,0,c
  2037  001250  3209               	rrcf	(___lmul@multiplier+3)^0,f,c
  2038  001252  3208               	rrcf	(___lmul@multiplier+2)^0,f,c
  2039  001254  3207               	rrcf	(___lmul@multiplier+1)^0,f,c
  2040  001256  3206               	rrcf	___lmul@multiplier^0,f,c
  2041  001258  5006               	movf	___lmul@multiplier^0,w,c
  2042  00125A  1007               	iorwf	(___lmul@multiplier+1)^0,w,c
  2043  00125C  1008               	iorwf	(___lmul@multiplier+2)^0,w,c
  2044  00125E  1009               	iorwf	(___lmul@multiplier+3)^0,w,c
  2045  001260  A4D8               	btfss	status,2,c
  2046  001262  EF35  F009         	goto	u1721
  2047  001266  EF37  F009         	goto	u1720
  2048  00126A                     u1721:
  2049  00126A  EF13  F009         	goto	l2882
  2050  00126E                     u1720:
  2051  00126E  C00E  F006         	movff	___lmul@product,?___lmul
  2052  001272  C00F  F007         	movff	___lmul@product+1,?___lmul+1
  2053  001276  C010  F008         	movff	___lmul@product+2,?___lmul+2
  2054  00127A  C011  F009         	movff	___lmul@product+3,?___lmul+3
  2055  00127E  0012               	return		;funcret
  2056  001280                     __end_of___lmul:
  2057                           	opt callstack 0
  2058                           
  2059 ;; *************** function ___fltol *****************
  2060 ;; Defined at:
  2061 ;;		line 43 in file "C:\Program Files (x86)\Microchip\xc8\v2.10\pic\sources\c99\common\fltol.c"
  2062 ;; Parameters:    Size  Location     Type
  2063 ;;  f1              4   76[COMRAM] unsigned long 
  2064 ;; Auto vars:     Size  Location     Type
  2065 ;;  exp1            1    1[BANK0 ] unsigned char 
  2066 ;;  sign1           1    0[BANK0 ] unsigned char 
  2067 ;; Return value:  Size  Location     Type
  2068 ;;                  4   76[COMRAM] long 
  2069 ;; Registers used:
  2070 ;;		wreg, status,2, status,0
  2071 ;; Tracked objects:
  2072 ;;		On entry : 0/0
  2073 ;;		On exit  : 0/0
  2074 ;;		Unchanged: 0/0
  2075 ;; Data sizes:     COMRAM   BANK0   BANK1   BANK2   BANK3   BANK4   BANK5   BANK6   BANK7
  2076 ;;      Params:         4       0       0       0       0       0       0       0       0
  2077 ;;      Locals:         0       2       0       0       0       0       0       0       0
  2078 ;;      Temps:          4       0       0       0       0       0       0       0       0
  2079 ;;      Totals:         8       2       0       0       0       0       0       0       0
  2080 ;;Total ram usage:       10 bytes
  2081 ;; Hardware stack levels used:    1
  2082 ;; Hardware stack levels required when called:    2
  2083 ;; This function calls:
  2084 ;;		Nothing
  2085 ;; This function is called by:
  2086 ;;		_pwmDuty
  2087 ;;		_PID
  2088 ;; This function uses a non-reentrant model
  2089 ;;
  2090                           
  2091                           	psect	text8
  2092  000DB4                     __ptext8:
  2093                           	opt callstack 0
  2094  000DB4                     ___fltol:
  2095                           	opt callstack 25
  2096  000DB4  344F               	rlcf	(___fltol@f1+2)^0,w,c
  2097  000DB6  3450               	rlcf	(___fltol@f1+3)^0,w,c
  2098  000DB8  0100               	movlb	0	; () banked
  2099  000DBA  6FCA               	movwf	___fltol@exp1& (0+255),b
  2100  000DBC  51CA               	movf	___fltol@exp1& (0+255),w,b
  2101  000DBE  A4D8               	btfss	status,2,c
  2102  000DC0  EFE4  F006         	goto	u3941
  2103  000DC4  EFE6  F006         	goto	u3940
  2104  000DC8                     u3941:
  2105  000DC8  EFF0  F006         	goto	l4786
  2106  000DCC                     u3940:
  2107  000DCC                     l4782:
  2108                           
  2109                           ; BSR set to: 0
  2110  000DCC  0E00               	movlw	0
  2111  000DCE  6E4D               	movwf	?___fltol^0,c
  2112  000DD0  0E00               	movlw	0
  2113  000DD2  6E4E               	movwf	(?___fltol+1)^0,c
  2114  000DD4  0E00               	movlw	0
  2115  000DD6  6E4F               	movwf	(?___fltol+2)^0,c
  2116  000DD8  0E00               	movlw	0
  2117  000DDA  6E50               	movwf	(?___fltol+3)^0,c
  2118  000DDC  EF5D  F007         	goto	l962
  2119  000DE0                     l4786:
  2120                           
  2121                           ; BSR set to: 0
  2122  000DE0  C04D  F051         	movff	___fltol@f1,??___fltol
  2123  000DE4  C04E  F052         	movff	___fltol@f1+1,??___fltol+1
  2124  000DE8  C04F  F053         	movff	___fltol@f1+2,??___fltol+2
  2125  000DEC  C050  F054         	movff	___fltol@f1+3,??___fltol+3
  2126  000DF0  0E20               	movlw	32
  2127  000DF2  EF00  F007         	goto	u3950
  2128  000DF6                     u3955:
  2129  000DF6  90D8               	bcf	status,0,c
  2130  000DF8  3254               	rrcf	(??___fltol+3)^0,f,c
  2131  000DFA  3253               	rrcf	(??___fltol+2)^0,f,c
  2132  000DFC  3252               	rrcf	(??___fltol+1)^0,f,c
  2133  000DFE  3251               	rrcf	??___fltol^0,f,c
  2134  000E00                     u3950:
  2135  000E00  2EE8               	decfsz	wreg,f,c
  2136  000E02  EFFB  F006         	goto	u3955
  2137  000E06  5051               	movf	??___fltol^0,w,c
  2138  000E08  6FC9               	movwf	___fltol@sign1& (0+255),b
  2139  000E0A                     
  2140                           ; BSR set to: 0
  2141  000E0A  8E4F               	bsf	(___fltol@f1+2)^0,7,c
  2142  000E0C                     
  2143                           ; BSR set to: 0
  2144  000E0C  0EFF               	movlw	255
  2145  000E0E  164D               	andwf	___fltol@f1^0,f,c
  2146  000E10  0EFF               	movlw	255
  2147  000E12  164E               	andwf	(___fltol@f1+1)^0,f,c
  2148  000E14  0EFF               	movlw	255
  2149  000E16  164F               	andwf	(___fltol@f1+2)^0,f,c
  2150  000E18  0E00               	movlw	0
  2151  000E1A  1650               	andwf	(___fltol@f1+3)^0,f,c
  2152  000E1C                     
  2153                           ; BSR set to: 0
  2154  000E1C  0E96               	movlw	150
  2155  000E1E  5FCA               	subwf	___fltol@exp1& (0+255),f,b
  2156  000E20                     
  2157                           ; BSR set to: 0
  2158  000E20  BFCA               	btfsc	___fltol@exp1& (0+255),7,b
  2159  000E22  EF17  F007         	goto	u3960
  2160  000E26  EF15  F007         	goto	u3961
  2161  000E2A                     u3961:
  2162  000E2A  EF2D  F007         	goto	l4806
  2163  000E2E                     u3960:
  2164  000E2E                     
  2165                           ; BSR set to: 0
  2166  000E2E  51CA               	movf	___fltol@exp1& (0+255),w,b
  2167  000E30  0A80               	xorlw	128
  2168  000E32  0F97               	addlw	151
  2169  000E34  B0D8               	btfsc	status,0,c
  2170  000E36  EF1F  F007         	goto	u3971
  2171  000E3A  EF21  F007         	goto	u3970
  2172  000E3E                     u3971:
  2173  000E3E  EF23  F007         	goto	l4802
  2174  000E42                     u3970:
  2175  000E42  EFE6  F006         	goto	l4782
  2176  000E46                     l4802:
  2177                           
  2178                           ; BSR set to: 0
  2179  000E46  90D8               	bcf	status,0,c
  2180  000E48  3250               	rrcf	(___fltol@f1+3)^0,f,c
  2181  000E4A  324F               	rrcf	(___fltol@f1+2)^0,f,c
  2182  000E4C  324E               	rrcf	(___fltol@f1+1)^0,f,c
  2183  000E4E  324D               	rrcf	___fltol@f1^0,f,c
  2184  000E50                     
  2185                           ; BSR set to: 0
  2186  000E50  3FCA               	incfsz	___fltol@exp1& (0+255),f,b
  2187  000E52  EF23  F007         	goto	l4802
  2188  000E56  EF45  F007         	goto	l4816
  2189  000E5A                     l4806:
  2190                           
  2191                           ; BSR set to: 0
  2192  000E5A  0E1F               	movlw	31
  2193  000E5C  65CA               	cpfsgt	___fltol@exp1& (0+255),b
  2194  000E5E  EF33  F007         	goto	u3981
  2195  000E62  EF35  F007         	goto	u3980
  2196  000E66                     u3981:
  2197  000E66  EF3D  F007         	goto	l4814
  2198  000E6A                     u3980:
  2199  000E6A  EFE6  F006         	goto	l4782
  2200  000E6E                     l4812:
  2201                           
  2202                           ; BSR set to: 0
  2203  000E6E  90D8               	bcf	status,0,c
  2204  000E70  364D               	rlcf	___fltol@f1^0,f,c
  2205  000E72  364E               	rlcf	(___fltol@f1+1)^0,f,c
  2206  000E74  364F               	rlcf	(___fltol@f1+2)^0,f,c
  2207  000E76  3650               	rlcf	(___fltol@f1+3)^0,f,c
  2208  000E78  07CA               	decf	___fltol@exp1& (0+255),f,b
  2209  000E7A                     l4814:
  2210                           
  2211                           ; BSR set to: 0
  2212  000E7A  51CA               	movf	___fltol@exp1& (0+255),w,b
  2213  000E7C  A4D8               	btfss	status,2,c
  2214  000E7E  EF43  F007         	goto	u3991
  2215  000E82  EF45  F007         	goto	u3990
  2216  000E86                     u3991:
  2217  000E86  EF37  F007         	goto	l4812
  2218  000E8A                     u3990:
  2219  000E8A                     l4816:
  2220                           
  2221                           ; BSR set to: 0
  2222  000E8A  51C9               	movf	___fltol@sign1& (0+255),w,b
  2223  000E8C  B4D8               	btfsc	status,2,c
  2224  000E8E  EF4B  F007         	goto	u4001
  2225  000E92  EF4D  F007         	goto	u4000
  2226  000E96                     u4001:
  2227  000E96  EF55  F007         	goto	l4820
  2228  000E9A                     u4000:
  2229  000E9A                     
  2230                           ; BSR set to: 0
  2231  000E9A  1E50               	comf	(___fltol@f1+3)^0,f,c
  2232  000E9C  1E4F               	comf	(___fltol@f1+2)^0,f,c
  2233  000E9E  1E4E               	comf	(___fltol@f1+1)^0,f,c
  2234  000EA0  6C4D               	negf	___fltol@f1^0,c
  2235  000EA2  0E00               	movlw	0
  2236  000EA4  224E               	addwfc	(___fltol@f1+1)^0,f,c
  2237  000EA6  224F               	addwfc	(___fltol@f1+2)^0,f,c
  2238  000EA8  2250               	addwfc	(___fltol@f1+3)^0,f,c
  2239  000EAA                     l4820:
  2240                           
  2241                           ; BSR set to: 0
  2242  000EAA  C04D  F04D         	movff	___fltol@f1,?___fltol
  2243  000EAE  C04E  F04E         	movff	___fltol@f1+1,?___fltol+1
  2244  000EB2  C04F  F04F         	movff	___fltol@f1+2,?___fltol+2
  2245  000EB6  C050  F050         	movff	___fltol@f1+3,?___fltol+3
  2246  000EBA                     l962:
  2247                           
  2248                           ; BSR set to: 0
  2249  000EBA  0012               	return		;funcret
  2250  000EBC                     __end_of___fltol:
  2251                           	opt callstack 0
  2252                           
  2253 ;; *************** function ___flmul *****************
  2254 ;; Defined at:
  2255 ;;		line 8 in file "C:\Program Files (x86)\Microchip\xc8\v2.10\pic\sources\c99\common\sprcmul.c"
  2256 ;; Parameters:    Size  Location     Type
  2257 ;;  b               4   51[COMRAM] long 
  2258 ;;  a               4   55[COMRAM] long 
  2259 ;; Auto vars:     Size  Location     Type
  2260 ;;  prod            4   70[COMRAM] struct .
  2261 ;;  grs             4   64[COMRAM] unsigned long 
  2262 ;;  temp            2   74[COMRAM] struct .
  2263 ;;  bexp            1   69[COMRAM] unsigned char 
  2264 ;;  aexp            1   68[COMRAM] unsigned char 
  2265 ;;  sign            1   63[COMRAM] unsigned char 
  2266 ;; Return value:  Size  Location     Type
  2267 ;;                  4   51[COMRAM] unsigned char 
  2268 ;; Registers used:
  2269 ;;		wreg, status,2, status,0, prodl, prodh
  2270 ;; Tracked objects:
  2271 ;;		On entry : 0/0
  2272 ;;		On exit  : 0/0
  2273 ;;		Unchanged: 0/0
  2274 ;; Data sizes:     COMRAM   BANK0   BANK1   BANK2   BANK3   BANK4   BANK5   BANK6   BANK7
  2275 ;;      Params:         8       0       0       0       0       0       0       0       0
  2276 ;;      Locals:        13       0       0       0       0       0       0       0       0
  2277 ;;      Temps:          4       0       0       0       0       0       0       0       0
  2278 ;;      Totals:        25       0       0       0       0       0       0       0       0
  2279 ;;Total ram usage:       25 bytes
  2280 ;; Hardware stack levels used:    1
  2281 ;; Hardware stack levels required when called:    2
  2282 ;; This function calls:
  2283 ;;		Nothing
  2284 ;; This function is called by:
  2285 ;;		_pwmDuty
  2286 ;;		_PID
  2287 ;;		_roundf
  2288 ;; This function uses a non-reentrant model
  2289 ;;
  2290                           
  2291                           	psect	text9
  2292  000012                     __ptext9:
  2293                           	opt callstack 0
  2294  000012                     ___flmul:
  2295                           	opt callstack 25
  2296  000012  5037               	movf	(___flmul@b+3)^0,w,c
  2297  000014  0B80               	andlw	128
  2298  000016  6E40               	movwf	___flmul@sign^0,c
  2299  000018  5037               	movf	(___flmul@b+3)^0,w,c
  2300  00001A  2437               	addwf	(___flmul@b+3)^0,w,c
  2301  00001C  6E46               	movwf	___flmul@bexp^0,c
  2302  00001E  AE36               	btfss	(___flmul@b+2)^0,7,c
  2303  000020  EF14  F000         	goto	u2021
  2304  000024  EF16  F000         	goto	u2020
  2305  000028                     u2021:
  2306  000028  EF17  F000         	goto	l3082
  2307  00002C                     u2020:
  2308  00002C  8046               	bsf	___flmul@bexp^0,0,c
  2309  00002E                     l3082:
  2310  00002E  5046               	movf	___flmul@bexp^0,w,c
  2311  000030  B4D8               	btfsc	status,2,c
  2312  000032  EF1D  F000         	goto	u2031
  2313  000036  EF1F  F000         	goto	u2030
  2314  00003A                     u2031:
  2315  00003A  EF32  F000         	goto	l3090
  2316  00003E                     u2030:
  2317  00003E  2846               	incf	___flmul@bexp^0,w,c
  2318  000040  A4D8               	btfss	status,2,c
  2319  000042  EF25  F000         	goto	u2041
  2320  000046  EF27  F000         	goto	u2040
  2321  00004A                     u2041:
  2322  00004A  EF2F  F000         	goto	l3088
  2323  00004E                     u2040:
  2324  00004E  0E00               	movlw	0
  2325  000050  6E34               	movwf	___flmul@b^0,c
  2326  000052  0E00               	movlw	0
  2327  000054  6E35               	movwf	(___flmul@b+1)^0,c
  2328  000056  0E00               	movlw	0
  2329  000058  6E36               	movwf	(___flmul@b+2)^0,c
  2330  00005A  0E00               	movlw	0
  2331  00005C  6E37               	movwf	(___flmul@b+3)^0,c
  2332  00005E                     l3088:
  2333  00005E  8E36               	bsf	(___flmul@b+2)^0,7,c
  2334  000060  EF3A  F000         	goto	l3092
  2335  000064                     l3090:
  2336  000064  0E00               	movlw	0
  2337  000066  6E34               	movwf	___flmul@b^0,c
  2338  000068  0E00               	movlw	0
  2339  00006A  6E35               	movwf	(___flmul@b+1)^0,c
  2340  00006C  0E00               	movlw	0
  2341  00006E  6E36               	movwf	(___flmul@b+2)^0,c
  2342  000070  0E00               	movlw	0
  2343  000072  6E37               	movwf	(___flmul@b+3)^0,c
  2344  000074                     l3092:
  2345  000074  503B               	movf	(___flmul@a+3)^0,w,c
  2346  000076  0B80               	andlw	128
  2347  000078  1A40               	xorwf	___flmul@sign^0,f,c
  2348  00007A  503B               	movf	(___flmul@a+3)^0,w,c
  2349  00007C  243B               	addwf	(___flmul@a+3)^0,w,c
  2350  00007E  6E45               	movwf	___flmul@aexp^0,c
  2351  000080  AE3A               	btfss	(___flmul@a+2)^0,7,c
  2352  000082  EF45  F000         	goto	u2051
  2353  000086  EF47  F000         	goto	u2050
  2354  00008A                     u2051:
  2355  00008A  EF48  F000         	goto	l3100
  2356  00008E                     u2050:
  2357  00008E  8045               	bsf	___flmul@aexp^0,0,c
  2358  000090                     l3100:
  2359  000090  5045               	movf	___flmul@aexp^0,w,c
  2360  000092  B4D8               	btfsc	status,2,c
  2361  000094  EF4E  F000         	goto	u2061
  2362  000098  EF50  F000         	goto	u2060
  2363  00009C                     u2061:
  2364  00009C  EF63  F000         	goto	l3108
  2365  0000A0                     u2060:
  2366  0000A0  2845               	incf	___flmul@aexp^0,w,c
  2367  0000A2  A4D8               	btfss	status,2,c
  2368  0000A4  EF56  F000         	goto	u2071
  2369  0000A8  EF58  F000         	goto	u2070
  2370  0000AC                     u2071:
  2371  0000AC  EF60  F000         	goto	l3106
  2372  0000B0                     u2070:
  2373  0000B0  0E00               	movlw	0
  2374  0000B2  6E38               	movwf	___flmul@a^0,c
  2375  0000B4  0E00               	movlw	0
  2376  0000B6  6E39               	movwf	(___flmul@a+1)^0,c
  2377  0000B8  0E00               	movlw	0
  2378  0000BA  6E3A               	movwf	(___flmul@a+2)^0,c
  2379  0000BC  0E00               	movlw	0
  2380  0000BE  6E3B               	movwf	(___flmul@a+3)^0,c
  2381  0000C0                     l3106:
  2382  0000C0  8E3A               	bsf	(___flmul@a+2)^0,7,c
  2383  0000C2  EF6B  F000         	goto	l1279
  2384  0000C6                     l3108:
  2385  0000C6  0E00               	movlw	0
  2386  0000C8  6E38               	movwf	___flmul@a^0,c
  2387  0000CA  0E00               	movlw	0
  2388  0000CC  6E39               	movwf	(___flmul@a+1)^0,c
  2389  0000CE  0E00               	movlw	0
  2390  0000D0  6E3A               	movwf	(___flmul@a+2)^0,c
  2391  0000D2  0E00               	movlw	0
  2392  0000D4  6E3B               	movwf	(___flmul@a+3)^0,c
  2393  0000D6                     l1279:
  2394  0000D6  5045               	movf	___flmul@aexp^0,w,c
  2395  0000D8  B4D8               	btfsc	status,2,c
  2396  0000DA  EF71  F000         	goto	u2081
  2397  0000DE  EF73  F000         	goto	u2080
  2398  0000E2                     u2081:
  2399  0000E2  EF7B  F000         	goto	l3112
  2400  0000E6                     u2080:
  2401  0000E6  5046               	movf	___flmul@bexp^0,w,c
  2402  0000E8  A4D8               	btfss	status,2,c
  2403  0000EA  EF79  F000         	goto	u2091
  2404  0000EE  EF7B  F000         	goto	u2090
  2405  0000F2                     u2091:
  2406  0000F2  EF85  F000         	goto	l3116
  2407  0000F6                     u2090:
  2408  0000F6                     l3112:
  2409  0000F6  0E00               	movlw	0
  2410  0000F8  6E34               	movwf	?___flmul^0,c
  2411  0000FA  0E00               	movlw	0
  2412  0000FC  6E35               	movwf	(?___flmul+1)^0,c
  2413  0000FE  0E00               	movlw	0
  2414  000100  6E36               	movwf	(?___flmul+2)^0,c
  2415  000102  0E00               	movlw	0
  2416  000104  6E37               	movwf	(?___flmul+3)^0,c
  2417  000106  EF1D  F002         	goto	l1283
  2418  00010A                     l3116:
  2419  00010A  503A               	movf	(___flmul@a+2)^0,w,c
  2420  00010C  0234               	mulwf	___flmul@b^0,c
  2421  00010E  CFF3 F04B          	movff	prodl,___flmul@temp
  2422  000112  CFF4 F04C          	movff	prodh,___flmul@temp+1
  2423  000116  504B               	movf	___flmul@temp^0,w,c
  2424  000118  6E41               	movwf	___flmul@grs^0,c
  2425  00011A  6A42               	clrf	(___flmul@grs+1)^0,c
  2426  00011C  6A43               	clrf	(___flmul@grs+2)^0,c
  2427  00011E  6A44               	clrf	(___flmul@grs+3)^0,c
  2428  000120  504C               	movf	(___flmul@temp+1)^0,w,c
  2429  000122  6E47               	movwf	___flmul@prod^0,c
  2430  000124  6A48               	clrf	(___flmul@prod+1)^0,c
  2431  000126  6A49               	clrf	(___flmul@prod+2)^0,c
  2432  000128  6A4A               	clrf	(___flmul@prod+3)^0,c
  2433  00012A  5039               	movf	(___flmul@a+1)^0,w,c
  2434  00012C  0235               	mulwf	(___flmul@b+1)^0,c
  2435  00012E  CFF3 F04B          	movff	prodl,___flmul@temp
  2436  000132  CFF4 F04C          	movff	prodh,___flmul@temp+1
  2437  000136  504B               	movf	___flmul@temp^0,w,c
  2438  000138  2641               	addwf	___flmul@grs^0,f,c
  2439  00013A  0E00               	movlw	0
  2440  00013C  2242               	addwfc	(___flmul@grs+1)^0,f,c
  2441  00013E  2243               	addwfc	(___flmul@grs+2)^0,f,c
  2442  000140  2244               	addwfc	(___flmul@grs+3)^0,f,c
  2443  000142  504C               	movf	(___flmul@temp+1)^0,w,c
  2444  000144  2647               	addwf	___flmul@prod^0,f,c
  2445  000146  0E00               	movlw	0
  2446  000148  2248               	addwfc	(___flmul@prod+1)^0,f,c
  2447  00014A  2249               	addwfc	(___flmul@prod+2)^0,f,c
  2448  00014C  224A               	addwfc	(___flmul@prod+3)^0,f,c
  2449  00014E  5038               	movf	___flmul@a^0,w,c
  2450  000150  0236               	mulwf	(___flmul@b+2)^0,c
  2451  000152  CFF3 F04B          	movff	prodl,___flmul@temp
  2452  000156  CFF4 F04C          	movff	prodh,___flmul@temp+1
  2453  00015A  504B               	movf	___flmul@temp^0,w,c
  2454  00015C  2641               	addwf	___flmul@grs^0,f,c
  2455  00015E  0E00               	movlw	0
  2456  000160  2242               	addwfc	(___flmul@grs+1)^0,f,c
  2457  000162  2243               	addwfc	(___flmul@grs+2)^0,f,c
  2458  000164  2244               	addwfc	(___flmul@grs+3)^0,f,c
  2459  000166  504C               	movf	(___flmul@temp+1)^0,w,c
  2460  000168  2647               	addwf	___flmul@prod^0,f,c
  2461  00016A  0E00               	movlw	0
  2462  00016C  2248               	addwfc	(___flmul@prod+1)^0,f,c
  2463  00016E  2249               	addwfc	(___flmul@prod+2)^0,f,c
  2464  000170  224A               	addwfc	(___flmul@prod+3)^0,f,c
  2465  000172  C043  F044         	movff	___flmul@grs+2,___flmul@grs+3
  2466  000176  C042  F043         	movff	___flmul@grs+1,___flmul@grs+2
  2467  00017A  C041  F042         	movff	___flmul@grs,___flmul@grs+1
  2468  00017E  6A41               	clrf	___flmul@grs^0,c
  2469  000180  5038               	movf	___flmul@a^0,w,c
  2470  000182  0235               	mulwf	(___flmul@b+1)^0,c
  2471  000184  CFF3 F04B          	movff	prodl,___flmul@temp
  2472  000188  CFF4 F04C          	movff	prodh,___flmul@temp+1
  2473  00018C  504B               	movf	___flmul@temp^0,w,c
  2474  00018E  2641               	addwf	___flmul@grs^0,f,c
  2475  000190  504C               	movf	(___flmul@temp+1)^0,w,c
  2476  000192  2242               	addwfc	(___flmul@grs+1)^0,f,c
  2477  000194  0E00               	movlw	0
  2478  000196  2243               	addwfc	(___flmul@grs+2)^0,f,c
  2479  000198  0E00               	movlw	0
  2480  00019A  2244               	addwfc	(___flmul@grs+3)^0,f,c
  2481  00019C  5039               	movf	(___flmul@a+1)^0,w,c
  2482  00019E  0234               	mulwf	___flmul@b^0,c
  2483  0001A0  CFF3 F04B          	movff	prodl,___flmul@temp
  2484  0001A4  CFF4 F04C          	movff	prodh,___flmul@temp+1
  2485  0001A8  504B               	movf	___flmul@temp^0,w,c
  2486  0001AA  2641               	addwf	___flmul@grs^0,f,c
  2487  0001AC  504C               	movf	(___flmul@temp+1)^0,w,c
  2488  0001AE  2242               	addwfc	(___flmul@grs+1)^0,f,c
  2489  0001B0  0E00               	movlw	0
  2490  0001B2  2243               	addwfc	(___flmul@grs+2)^0,f,c
  2491  0001B4  0E00               	movlw	0
  2492  0001B6  2244               	addwfc	(___flmul@grs+3)^0,f,c
  2493  0001B8  C043  F044         	movff	___flmul@grs+2,___flmul@grs+3
  2494  0001BC  C042  F043         	movff	___flmul@grs+1,___flmul@grs+2
  2495  0001C0  C041  F042         	movff	___flmul@grs,___flmul@grs+1
  2496  0001C4  6A41               	clrf	___flmul@grs^0,c
  2497  0001C6  5038               	movf	___flmul@a^0,w,c
  2498  0001C8  0234               	mulwf	___flmul@b^0,c
  2499  0001CA  CFF3 F04B          	movff	prodl,___flmul@temp
  2500  0001CE  CFF4 F04C          	movff	prodh,___flmul@temp+1
  2501  0001D2  504B               	movf	___flmul@temp^0,w,c
  2502  0001D4  2641               	addwf	___flmul@grs^0,f,c
  2503  0001D6  504C               	movf	(___flmul@temp+1)^0,w,c
  2504  0001D8  2242               	addwfc	(___flmul@grs+1)^0,f,c
  2505  0001DA  0E00               	movlw	0
  2506  0001DC  2243               	addwfc	(___flmul@grs+2)^0,f,c
  2507  0001DE  0E00               	movlw	0
  2508  0001E0  2244               	addwfc	(___flmul@grs+3)^0,f,c
  2509  0001E2  503A               	movf	(___flmul@a+2)^0,w,c
  2510  0001E4  0235               	mulwf	(___flmul@b+1)^0,c
  2511  0001E6  CFF3 F04B          	movff	prodl,___flmul@temp
  2512  0001EA  CFF4 F04C          	movff	prodh,___flmul@temp+1
  2513  0001EE  504B               	movf	___flmul@temp^0,w,c
  2514  0001F0  2647               	addwf	___flmul@prod^0,f,c
  2515  0001F2  504C               	movf	(___flmul@temp+1)^0,w,c
  2516  0001F4  2248               	addwfc	(___flmul@prod+1)^0,f,c
  2517  0001F6  0E00               	movlw	0
  2518  0001F8  2249               	addwfc	(___flmul@prod+2)^0,f,c
  2519  0001FA  0E00               	movlw	0
  2520  0001FC  224A               	addwfc	(___flmul@prod+3)^0,f,c
  2521  0001FE  5039               	movf	(___flmul@a+1)^0,w,c
  2522  000200  0236               	mulwf	(___flmul@b+2)^0,c
  2523  000202  CFF3 F04B          	movff	prodl,___flmul@temp
  2524  000206  CFF4 F04C          	movff	prodh,___flmul@temp+1
  2525  00020A  504B               	movf	___flmul@temp^0,w,c
  2526  00020C  2647               	addwf	___flmul@prod^0,f,c
  2527  00020E  504C               	movf	(___flmul@temp+1)^0,w,c
  2528  000210  2248               	addwfc	(___flmul@prod+1)^0,f,c
  2529  000212  0E00               	movlw	0
  2530  000214  2249               	addwfc	(___flmul@prod+2)^0,f,c
  2531  000216  0E00               	movlw	0
  2532  000218  224A               	addwfc	(___flmul@prod+3)^0,f,c
  2533  00021A  503A               	movf	(___flmul@a+2)^0,w,c
  2534  00021C  0236               	mulwf	(___flmul@b+2)^0,c
  2535  00021E  CFF3 F04B          	movff	prodl,___flmul@temp
  2536  000222  CFF4 F04C          	movff	prodh,___flmul@temp+1
  2537  000226  504B               	movf	___flmul@temp^0,w,c
  2538  000228  6E3C               	movwf	??___flmul^0,c
  2539  00022A  504C               	movf	(___flmul@temp+1)^0,w,c
  2540  00022C  6E3D               	movwf	(??___flmul+1)^0,c
  2541  00022E  6A3E               	clrf	(??___flmul+2)^0,c
  2542  000230  6A3F               	clrf	(??___flmul+3)^0,c
  2543  000232  C03E  F03F         	movff	??___flmul+2,??___flmul+3
  2544  000236  C03D  F03E         	movff	??___flmul+1,??___flmul+2
  2545  00023A  C03C  F03D         	movff	??___flmul,??___flmul+1
  2546  00023E  6A3C               	clrf	??___flmul^0,c
  2547  000240  503C               	movf	??___flmul^0,w,c
  2548  000242  2647               	addwf	___flmul@prod^0,f,c
  2549  000244  503D               	movf	(??___flmul+1)^0,w,c
  2550  000246  2248               	addwfc	(___flmul@prod+1)^0,f,c
  2551  000248  503E               	movf	(??___flmul+2)^0,w,c
  2552  00024A  2249               	addwfc	(___flmul@prod+2)^0,f,c
  2553  00024C  503F               	movf	(??___flmul+3)^0,w,c
  2554  00024E  224A               	addwfc	(___flmul@prod+3)^0,f,c
  2555  000250  C041  F03C         	movff	___flmul@grs,??___flmul
  2556  000254  C042  F03D         	movff	___flmul@grs+1,??___flmul+1
  2557  000258  C043  F03E         	movff	___flmul@grs+2,??___flmul+2
  2558  00025C  C044  F03F         	movff	___flmul@grs+3,??___flmul+3
  2559  000260  0E19               	movlw	25
  2560  000262  EF38  F001         	goto	u2100
  2561  000266                     u2105:
  2562  000266  90D8               	bcf	status,0,c
  2563  000268  323F               	rrcf	(??___flmul+3)^0,f,c
  2564  00026A  323E               	rrcf	(??___flmul+2)^0,f,c
  2565  00026C  323D               	rrcf	(??___flmul+1)^0,f,c
  2566  00026E  323C               	rrcf	??___flmul^0,f,c
  2567  000270                     u2100:
  2568  000270  2EE8               	decfsz	wreg,f,c
  2569  000272  EF33  F001         	goto	u2105
  2570  000276  503C               	movf	??___flmul^0,w,c
  2571  000278  2647               	addwf	___flmul@prod^0,f,c
  2572  00027A  503D               	movf	(??___flmul+1)^0,w,c
  2573  00027C  2248               	addwfc	(___flmul@prod+1)^0,f,c
  2574  00027E  503E               	movf	(??___flmul+2)^0,w,c
  2575  000280  2249               	addwfc	(___flmul@prod+2)^0,f,c
  2576  000282  503F               	movf	(??___flmul+3)^0,w,c
  2577  000284  224A               	addwfc	(___flmul@prod+3)^0,f,c
  2578  000286  C043  F044         	movff	___flmul@grs+2,___flmul@grs+3
  2579  00028A  C042  F043         	movff	___flmul@grs+1,___flmul@grs+2
  2580  00028E  C041  F042         	movff	___flmul@grs,___flmul@grs+1
  2581  000292  6A41               	clrf	___flmul@grs^0,c
  2582  000294  5045               	movf	___flmul@aexp^0,w,c
  2583  000296  C046  F03C         	movff	___flmul@bexp,??___flmul
  2584  00029A  6A3D               	clrf	(??___flmul+1)^0,c
  2585  00029C  263C               	addwf	??___flmul^0,f,c
  2586  00029E  0E00               	movlw	0
  2587  0002A0  223D               	addwfc	(??___flmul+1)^0,f,c
  2588  0002A2  0E82               	movlw	130
  2589  0002A4  243C               	addwf	??___flmul^0,w,c
  2590  0002A6  6E4B               	movwf	___flmul@temp^0,c
  2591  0002A8  0EFF               	movlw	255
  2592  0002AA  203D               	addwfc	(??___flmul+1)^0,w,c
  2593  0002AC  6E4C               	movwf	(___flmul@temp+1)^0,c
  2594  0002AE  EF6E  F001         	goto	l3164
  2595  0002B2                     l3158:
  2596  0002B2  90D8               	bcf	status,0,c
  2597  0002B4  3647               	rlcf	___flmul@prod^0,f,c
  2598  0002B6  3648               	rlcf	(___flmul@prod+1)^0,f,c
  2599  0002B8  3649               	rlcf	(___flmul@prod+2)^0,f,c
  2600  0002BA  364A               	rlcf	(___flmul@prod+3)^0,f,c
  2601  0002BC  AE44               	btfss	(___flmul@grs+3)^0,7,c
  2602  0002BE  EF63  F001         	goto	u2111
  2603  0002C2  EF65  F001         	goto	u2110
  2604  0002C6                     u2111:
  2605  0002C6  EF66  F001         	goto	l1286
  2606  0002CA                     u2110:
  2607  0002CA  8047               	bsf	___flmul@prod^0,0,c
  2608  0002CC                     l1286:
  2609  0002CC  90D8               	bcf	status,0,c
  2610  0002CE  3641               	rlcf	___flmul@grs^0,f,c
  2611  0002D0  3642               	rlcf	(___flmul@grs+1)^0,f,c
  2612  0002D2  3643               	rlcf	(___flmul@grs+2)^0,f,c
  2613  0002D4  3644               	rlcf	(___flmul@grs+3)^0,f,c
  2614  0002D6  064B               	decf	___flmul@temp^0,f,c
  2615  0002D8  A0D8               	btfss	status,0,c
  2616  0002DA  064C               	decf	(___flmul@temp+1)^0,f,c
  2617  0002DC                     l3164:
  2618  0002DC  AE49               	btfss	(___flmul@prod+2)^0,7,c
  2619  0002DE  EF73  F001         	goto	u2121
  2620  0002E2  EF75  F001         	goto	u2120
  2621  0002E6                     u2121:
  2622  0002E6  EF59  F001         	goto	l3158
  2623  0002EA                     u2120:
  2624  0002EA  0E00               	movlw	0
  2625  0002EC  6E45               	movwf	___flmul@aexp^0,c
  2626  0002EE  AE44               	btfss	(___flmul@grs+3)^0,7,c
  2627  0002F0  EF7C  F001         	goto	u2131
  2628  0002F4  EF7E  F001         	goto	u2130
  2629  0002F8                     u2131:
  2630  0002F8  EFA2  F001         	goto	l1288
  2631  0002FC                     u2130:
  2632  0002FC  0EFF               	movlw	255
  2633  0002FE  1441               	andwf	___flmul@grs^0,w,c
  2634  000300  6E3C               	movwf	??___flmul^0,c
  2635  000302  0EFF               	movlw	255
  2636  000304  1442               	andwf	(___flmul@grs+1)^0,w,c
  2637  000306  6E3D               	movwf	(??___flmul+1)^0,c
  2638  000308  0EFF               	movlw	255
  2639  00030A  1443               	andwf	(___flmul@grs+2)^0,w,c
  2640  00030C  6E3E               	movwf	(??___flmul+2)^0,c
  2641  00030E  0E7F               	movlw	127
  2642  000310  1444               	andwf	(___flmul@grs+3)^0,w,c
  2643  000312  6E3F               	movwf	(??___flmul+3)^0,c
  2644  000314  503C               	movf	??___flmul^0,w,c
  2645  000316  103D               	iorwf	(??___flmul+1)^0,w,c
  2646  000318  103E               	iorwf	(??___flmul+2)^0,w,c
  2647  00031A  103F               	iorwf	(??___flmul+3)^0,w,c
  2648  00031C  B4D8               	btfsc	status,2,c
  2649  00031E  EF93  F001         	goto	u2141
  2650  000322  EF95  F001         	goto	u2140
  2651  000326                     u2141:
  2652  000326  EF99  F001         	goto	l1289
  2653  00032A                     u2140:
  2654  00032A                     l3172:
  2655  00032A  0E01               	movlw	1
  2656  00032C  6E45               	movwf	___flmul@aexp^0,c
  2657  00032E  EFA2  F001         	goto	l1288
  2658  000332                     l1289:
  2659  000332  A047               	btfss	___flmul@prod^0,0,c
  2660  000334  EF9E  F001         	goto	u2151
  2661  000338  EFA0  F001         	goto	u2150
  2662  00033C                     u2151:
  2663  00033C  EFA2  F001         	goto	l1288
  2664  000340                     u2150:
  2665  000340  EF95  F001         	goto	l3172
  2666  000344                     l1288:
  2667  000344  5045               	movf	___flmul@aexp^0,w,c
  2668  000346  B4D8               	btfsc	status,2,c
  2669  000348  EFA8  F001         	goto	u2161
  2670  00034C  EFAA  F001         	goto	u2160
  2671  000350                     u2161:
  2672  000350  EFCE  F001         	goto	l3184
  2673  000354                     u2160:
  2674  000354  0E01               	movlw	1
  2675  000356  2647               	addwf	___flmul@prod^0,f,c
  2676  000358  0E00               	movlw	0
  2677  00035A  2248               	addwfc	(___flmul@prod+1)^0,f,c
  2678  00035C  2249               	addwfc	(___flmul@prod+2)^0,f,c
  2679  00035E  224A               	addwfc	(___flmul@prod+3)^0,f,c
  2680  000360  A04A               	btfss	(___flmul@prod+3)^0,0,c
  2681  000362  EFB5  F001         	goto	u2171
  2682  000366  EFB7  F001         	goto	u2170
  2683  00036A                     u2171:
  2684  00036A  EFCE  F001         	goto	l3184
  2685  00036E                     u2170:
  2686  00036E  C047  F03C         	movff	___flmul@prod,??___flmul
  2687  000372  C048  F03D         	movff	___flmul@prod+1,??___flmul+1
  2688  000376  C049  F03E         	movff	___flmul@prod+2,??___flmul+2
  2689  00037A  C04A  F03F         	movff	___flmul@prod+3,??___flmul+3
  2690  00037E  343F               	rlcf	(??___flmul+3)^0,w,c
  2691  000380  323F               	rrcf	(??___flmul+3)^0,f,c
  2692  000382  323E               	rrcf	(??___flmul+2)^0,f,c
  2693  000384  323D               	rrcf	(??___flmul+1)^0,f,c
  2694  000386  323C               	rrcf	??___flmul^0,f,c
  2695  000388  C03C  F047         	movff	??___flmul,___flmul@prod
  2696  00038C  C03D  F048         	movff	??___flmul+1,___flmul@prod+1
  2697  000390  C03E  F049         	movff	??___flmul+2,___flmul@prod+2
  2698  000394  C03F  F04A         	movff	??___flmul+3,___flmul@prod+3
  2699  000398  4A4B               	infsnz	___flmul@temp^0,f,c
  2700  00039A  2A4C               	incf	(___flmul@temp+1)^0,f,c
  2701  00039C                     l3184:
  2702  00039C  BE4C               	btfsc	(___flmul@temp+1)^0,7,c
  2703  00039E  EFD9  F001         	goto	u2181
  2704  0003A2  504C               	movf	(___flmul@temp+1)^0,w,c
  2705  0003A4  E108               	bnz	u2180
  2706  0003A6  284B               	incf	___flmul@temp^0,w,c
  2707  0003A8  A0D8               	btfss	status,0,c
  2708  0003AA  EFD9  F001         	goto	u2181
  2709  0003AE  EFDB  F001         	goto	u2180
  2710  0003B2                     u2181:
  2711  0003B2  EFE5  F001         	goto	l3188
  2712  0003B6                     u2180:
  2713  0003B6  0E00               	movlw	0
  2714  0003B8  6E47               	movwf	___flmul@prod^0,c
  2715  0003BA  0E00               	movlw	0
  2716  0003BC  6E48               	movwf	(___flmul@prod+1)^0,c
  2717  0003BE  0E80               	movlw	128
  2718  0003C0  6E49               	movwf	(___flmul@prod+2)^0,c
  2719  0003C2  0E7F               	movlw	127
  2720  0003C4  6E4A               	movwf	(___flmul@prod+3)^0,c
  2721  0003C6  EF13  F002         	goto	l3200
  2722  0003CA                     l3188:
  2723  0003CA  BE4C               	btfsc	(___flmul@temp+1)^0,7,c
  2724  0003CC  EFF2  F001         	goto	u2190
  2725  0003D0  504C               	movf	(___flmul@temp+1)^0,w,c
  2726  0003D2  E106               	bnz	u2191
  2727  0003D4  044B               	decf	___flmul@temp^0,w,c
  2728  0003D6  B0D8               	btfsc	status,0,c
  2729  0003D8  EFF0  F001         	goto	u2191
  2730  0003DC  EFF2  F001         	goto	u2190
  2731  0003E0                     u2191:
  2732  0003E0  EFFE  F001         	goto	l1296
  2733  0003E4                     u2190:
  2734  0003E4  0E00               	movlw	0
  2735  0003E6  6E47               	movwf	___flmul@prod^0,c
  2736  0003E8  0E00               	movlw	0
  2737  0003EA  6E48               	movwf	(___flmul@prod+1)^0,c
  2738  0003EC  0E00               	movlw	0
  2739  0003EE  6E49               	movwf	(___flmul@prod+2)^0,c
  2740  0003F0  0E00               	movlw	0
  2741  0003F2  6E4A               	movwf	(___flmul@prod+3)^0,c
  2742  0003F4  0E00               	movlw	0
  2743  0003F6  6E40               	movwf	___flmul@sign^0,c
  2744  0003F8  EF13  F002         	goto	l3200
  2745  0003FC                     l1296:
  2746  0003FC  C04B  F046         	movff	___flmul@temp,___flmul@bexp
  2747  000400  0EFF               	movlw	255
  2748  000402  1647               	andwf	___flmul@prod^0,f,c
  2749  000404  0EFF               	movlw	255
  2750  000406  1648               	andwf	(___flmul@prod+1)^0,f,c
  2751  000408  0E7F               	movlw	127
  2752  00040A  1649               	andwf	(___flmul@prod+2)^0,f,c
  2753  00040C  0E00               	movlw	0
  2754  00040E  164A               	andwf	(___flmul@prod+3)^0,f,c
  2755  000410  A046               	btfss	___flmul@bexp^0,0,c
  2756  000412  EF0D  F002         	goto	u2201
  2757  000416  EF0F  F002         	goto	u2200
  2758  00041A                     u2201:
  2759  00041A  EF10  F002         	goto	l3198
  2760  00041E                     u2200:
  2761  00041E  8E49               	bsf	(___flmul@prod+2)^0,7,c
  2762  000420                     l3198:
  2763  000420  90D8               	bcf	status,0,c
  2764  000422  3046               	rrcf	___flmul@bexp^0,w,c
  2765  000424  6E4A               	movwf	(___flmul@prod+3)^0,c
  2766  000426                     l3200:
  2767  000426  5040               	movf	___flmul@sign^0,w,c
  2768  000428  124A               	iorwf	(___flmul@prod+3)^0,f,c
  2769  00042A  C047  F034         	movff	___flmul@prod,?___flmul
  2770  00042E  C048  F035         	movff	___flmul@prod+1,?___flmul+1
  2771  000432  C049  F036         	movff	___flmul@prod+2,?___flmul+2
  2772  000436  C04A  F037         	movff	___flmul@prod+3,?___flmul+3
  2773  00043A                     l1283:
  2774  00043A  0012               	return		;funcret
  2775  00043C                     __end_of___flmul:
  2776                           	opt callstack 0
  2777                           
  2778 ;; *************** function ___fldiv *****************
  2779 ;; Defined at:
  2780 ;;		line 11 in file "C:\Program Files (x86)\Microchip\xc8\v2.10\pic\sources\c99\common\sprcdiv.c"
  2781 ;; Parameters:    Size  Location     Type
  2782 ;;  b               4   26[COMRAM] unsigned char 
  2783 ;;  a               4   30[COMRAM] unsigned char 
  2784 ;; Auto vars:     Size  Location     Type
  2785 ;;  grs             4   45[COMRAM] unsigned long 
  2786 ;;  rem             4   38[COMRAM] unsigned long 
  2787 ;;  new_exp         2   43[COMRAM] short 
  2788 ;;  aexp            1   50[COMRAM] unsigned char 
  2789 ;;  bexp            1   49[COMRAM] unsigned char 
  2790 ;;  sign            1   42[COMRAM] unsigned char 
  2791 ;; Return value:  Size  Location     Type
  2792 ;;                  4   26[COMRAM] unsigned char 
  2793 ;; Registers used:
  2794 ;;		wreg, status,2, status,0
  2795 ;; Tracked objects:
  2796 ;;		On entry : 0/0
  2797 ;;		On exit  : 0/0
  2798 ;;		Unchanged: 0/0
  2799 ;; Data sizes:     COMRAM   BANK0   BANK1   BANK2   BANK3   BANK4   BANK5   BANK6   BANK7
  2800 ;;      Params:         8       0       0       0       0       0       0       0       0
  2801 ;;      Locals:        13       0       0       0       0       0       0       0       0
  2802 ;;      Temps:          4       0       0       0       0       0       0       0       0
  2803 ;;      Totals:        25       0       0       0       0       0       0       0       0
  2804 ;;Total ram usage:       25 bytes
  2805 ;; Hardware stack levels used:    1
  2806 ;; Hardware stack levels required when called:    2
  2807 ;; This function calls:
  2808 ;;		Nothing
  2809 ;; This function is called by:
  2810 ;;		_pwmDuty
  2811 ;;		_leerSensores
  2812 ;; This function uses a non-reentrant model
  2813 ;;
  2814                           
  2815                           	psect	text10
  2816  00043C                     __ptext10:
  2817                           	opt callstack 0
  2818  00043C                     ___fldiv:
  2819                           	opt callstack 25
  2820  00043C  501E               	movf	(___fldiv@b+3)^0,w,c
  2821  00043E  0B80               	andlw	128
  2822  000440  6E2B               	movwf	___fldiv@sign^0,c
  2823  000442  501E               	movf	(___fldiv@b+3)^0,w,c
  2824  000444  241E               	addwf	(___fldiv@b+3)^0,w,c
  2825  000446  6E32               	movwf	___fldiv@bexp^0,c
  2826  000448  AE1D               	btfss	(___fldiv@b+2)^0,7,c
  2827  00044A  EF29  F002         	goto	u1791
  2828  00044E  EF2B  F002         	goto	u1790
  2829  000452                     u1791:
  2830  000452  EF2C  F002         	goto	l2944
  2831  000456                     u1790:
  2832  000456  8032               	bsf	___fldiv@bexp^0,0,c
  2833  000458                     l2944:
  2834  000458  5032               	movf	___fldiv@bexp^0,w,c
  2835  00045A  B4D8               	btfsc	status,2,c
  2836  00045C  EF32  F002         	goto	u1801
  2837  000460  EF34  F002         	goto	u1800
  2838  000464                     u1801:
  2839  000464  EF49  F002         	goto	l2954
  2840  000468                     u1800:
  2841  000468  2832               	incf	___fldiv@bexp^0,w,c
  2842  00046A  A4D8               	btfss	status,2,c
  2843  00046C  EF3A  F002         	goto	u1811
  2844  000470  EF3C  F002         	goto	u1810
  2845  000474                     u1811:
  2846  000474  EF44  F002         	goto	l2950
  2847  000478                     u1810:
  2848  000478  0E00               	movlw	0
  2849  00047A  6E1B               	movwf	___fldiv@b^0,c
  2850  00047C  0E00               	movlw	0
  2851  00047E  6E1C               	movwf	(___fldiv@b+1)^0,c
  2852  000480  0E00               	movlw	0
  2853  000482  6E1D               	movwf	(___fldiv@b+2)^0,c
  2854  000484  0E00               	movlw	0
  2855  000486  6E1E               	movwf	(___fldiv@b+3)^0,c
  2856  000488                     l2950:
  2857  000488  8E1D               	bsf	(___fldiv@b+2)^0,7,c
  2858  00048A  0E00               	movlw	0
  2859  00048C  6E1E               	movwf	(___fldiv@b+3)^0,c
  2860  00048E  EF51  F002         	goto	l2956
  2861  000492                     l2954:
  2862  000492  0E00               	movlw	0
  2863  000494  6E1B               	movwf	___fldiv@b^0,c
  2864  000496  0E00               	movlw	0
  2865  000498  6E1C               	movwf	(___fldiv@b+1)^0,c
  2866  00049A  0E00               	movlw	0
  2867  00049C  6E1D               	movwf	(___fldiv@b+2)^0,c
  2868  00049E  0E00               	movlw	0
  2869  0004A0  6E1E               	movwf	(___fldiv@b+3)^0,c
  2870  0004A2                     l2956:
  2871  0004A2  5022               	movf	(___fldiv@a+3)^0,w,c
  2872  0004A4  0B80               	andlw	128
  2873  0004A6  1A2B               	xorwf	___fldiv@sign^0,f,c
  2874  0004A8  5022               	movf	(___fldiv@a+3)^0,w,c
  2875  0004AA  2422               	addwf	(___fldiv@a+3)^0,w,c
  2876  0004AC  6E33               	movwf	___fldiv@aexp^0,c
  2877  0004AE  AE21               	btfss	(___fldiv@a+2)^0,7,c
  2878  0004B0  EF5C  F002         	goto	u1821
  2879  0004B4  EF5E  F002         	goto	u1820
  2880  0004B8                     u1821:
  2881  0004B8  EF5F  F002         	goto	l2964
  2882  0004BC                     u1820:
  2883  0004BC  8033               	bsf	___fldiv@aexp^0,0,c
  2884  0004BE                     l2964:
  2885  0004BE  5033               	movf	___fldiv@aexp^0,w,c
  2886  0004C0  B4D8               	btfsc	status,2,c
  2887  0004C2  EF65  F002         	goto	u1831
  2888  0004C6  EF67  F002         	goto	u1830
  2889  0004CA                     u1831:
  2890  0004CA  EF7C  F002         	goto	l2974
  2891  0004CE                     u1830:
  2892  0004CE  2833               	incf	___fldiv@aexp^0,w,c
  2893  0004D0  A4D8               	btfss	status,2,c
  2894  0004D2  EF6D  F002         	goto	u1841
  2895  0004D6  EF6F  F002         	goto	u1840
  2896  0004DA                     u1841:
  2897  0004DA  EF77  F002         	goto	l2970
  2898  0004DE                     u1840:
  2899  0004DE  0E00               	movlw	0
  2900  0004E0  6E1F               	movwf	___fldiv@a^0,c
  2901  0004E2  0E00               	movlw	0
  2902  0004E4  6E20               	movwf	(___fldiv@a+1)^0,c
  2903  0004E6  0E00               	movlw	0
  2904  0004E8  6E21               	movwf	(___fldiv@a+2)^0,c
  2905  0004EA  0E00               	movlw	0
  2906  0004EC  6E22               	movwf	(___fldiv@a+3)^0,c
  2907  0004EE                     l2970:
  2908  0004EE  8E21               	bsf	(___fldiv@a+2)^0,7,c
  2909  0004F0  0E00               	movlw	0
  2910  0004F2  6E22               	movwf	(___fldiv@a+3)^0,c
  2911  0004F4  EF84  F002         	goto	l2976
  2912  0004F8                     l2974:
  2913  0004F8  0E00               	movlw	0
  2914  0004FA  6E1F               	movwf	___fldiv@a^0,c
  2915  0004FC  0E00               	movlw	0
  2916  0004FE  6E20               	movwf	(___fldiv@a+1)^0,c
  2917  000500  0E00               	movlw	0
  2918  000502  6E21               	movwf	(___fldiv@a+2)^0,c
  2919  000504  0E00               	movlw	0
  2920  000506  6E22               	movwf	(___fldiv@a+3)^0,c
  2921  000508                     l2976:
  2922  000508  501F               	movf	___fldiv@a^0,w,c
  2923  00050A  1020               	iorwf	(___fldiv@a+1)^0,w,c
  2924  00050C  1021               	iorwf	(___fldiv@a+2)^0,w,c
  2925  00050E  1022               	iorwf	(___fldiv@a+3)^0,w,c
  2926  000510  A4D8               	btfss	status,2,c
  2927  000512  EF8D  F002         	goto	u1851
  2928  000516  EF8F  F002         	goto	u1850
  2929  00051A                     u1851:
  2930  00051A  EFA7  F002         	goto	l2988
  2931  00051E                     u1850:
  2932  00051E  0E00               	movlw	0
  2933  000520  6E1B               	movwf	___fldiv@b^0,c
  2934  000522  0E00               	movlw	0
  2935  000524  6E1C               	movwf	(___fldiv@b+1)^0,c
  2936  000526  0E00               	movlw	0
  2937  000528  6E1D               	movwf	(___fldiv@b+2)^0,c
  2938  00052A  0E00               	movlw	0
  2939  00052C  6E1E               	movwf	(___fldiv@b+3)^0,c
  2940  00052E  0E80               	movlw	128
  2941  000530  121D               	iorwf	(___fldiv@b+2)^0,f,c
  2942  000532  0E7F               	movlw	127
  2943  000534  121E               	iorwf	(___fldiv@b+3)^0,f,c
  2944  000536                     l2982:
  2945  000536  502B               	movf	___fldiv@sign^0,w,c
  2946  000538  121E               	iorwf	(___fldiv@b+3)^0,f,c
  2947  00053A  C01B  F01B         	movff	___fldiv@b,?___fldiv
  2948  00053E  C01C  F01C         	movff	___fldiv@b+1,?___fldiv+1
  2949  000542  C01D  F01D         	movff	___fldiv@b+2,?___fldiv+2
  2950  000546  C01E  F01E         	movff	___fldiv@b+3,?___fldiv+3
  2951  00054A  EFEA  F003         	goto	l1247
  2952  00054E                     l2988:
  2953  00054E  5032               	movf	___fldiv@bexp^0,w,c
  2954  000550  A4D8               	btfss	status,2,c
  2955  000552  EFAD  F002         	goto	u1861
  2956  000556  EFAF  F002         	goto	u1860
  2957  00055A                     u1861:
  2958  00055A  EFB9  F002         	goto	l2996
  2959  00055E                     u1860:
  2960  00055E  0E00               	movlw	0
  2961  000560  6E1B               	movwf	?___fldiv^0,c
  2962  000562  0E00               	movlw	0
  2963  000564  6E1C               	movwf	(?___fldiv+1)^0,c
  2964  000566  0E00               	movlw	0
  2965  000568  6E1D               	movwf	(?___fldiv+2)^0,c
  2966  00056A  0E00               	movlw	0
  2967  00056C  6E1E               	movwf	(?___fldiv+3)^0,c
  2968  00056E  EFEA  F003         	goto	l1247
  2969  000572                     l2996:
  2970  000572  5033               	movf	___fldiv@aexp^0,w,c
  2971  000574  C032  F023         	movff	___fldiv@bexp,??___fldiv
  2972  000578  6A24               	clrf	(??___fldiv+1)^0,c
  2973  00057A  5E23               	subwf	??___fldiv^0,f,c
  2974  00057C  0E00               	movlw	0
  2975  00057E  5A24               	subwfb	(??___fldiv+1)^0,f,c
  2976  000580  0E7F               	movlw	127
  2977  000582  2423               	addwf	??___fldiv^0,w,c
  2978  000584  6E2C               	movwf	___fldiv@new_exp^0,c
  2979  000586  0E00               	movlw	0
  2980  000588  2024               	addwfc	(??___fldiv+1)^0,w,c
  2981  00058A  6E2D               	movwf	(___fldiv@new_exp+1)^0,c
  2982  00058C  C01B  F027         	movff	___fldiv@b,___fldiv@rem
  2983  000590  C01C  F028         	movff	___fldiv@b+1,___fldiv@rem+1
  2984  000594  C01D  F029         	movff	___fldiv@b+2,___fldiv@rem+2
  2985  000598  C01E  F02A         	movff	___fldiv@b+3,___fldiv@rem+3
  2986  00059C  0E00               	movlw	0
  2987  00059E  6E1B               	movwf	___fldiv@b^0,c
  2988  0005A0  0E00               	movlw	0
  2989  0005A2  6E1C               	movwf	(___fldiv@b+1)^0,c
  2990  0005A4  0E00               	movlw	0
  2991  0005A6  6E1D               	movwf	(___fldiv@b+2)^0,c
  2992  0005A8  0E00               	movlw	0
  2993  0005AA  6E1E               	movwf	(___fldiv@b+3)^0,c
  2994  0005AC  0E00               	movlw	0
  2995  0005AE  6E2E               	movwf	___fldiv@grs^0,c
  2996  0005B0  0E00               	movlw	0
  2997  0005B2  6E2F               	movwf	(___fldiv@grs+1)^0,c
  2998  0005B4  0E00               	movlw	0
  2999  0005B6  6E30               	movwf	(___fldiv@grs+2)^0,c
  3000  0005B8  0E00               	movlw	0
  3001  0005BA  6E31               	movwf	(___fldiv@grs+3)^0,c
  3002  0005BC  0E00               	movlw	0
  3003  0005BE  6E33               	movwf	___fldiv@aexp^0,c
  3004  0005C0  EF1A  F003         	goto	l1249
  3005  0005C4                     l3006:
  3006  0005C4  5033               	movf	___fldiv@aexp^0,w,c
  3007  0005C6  B4D8               	btfsc	status,2,c
  3008  0005C8  EFE8  F002         	goto	u1871
  3009  0005CC  EFEA  F002         	goto	u1870
  3010  0005D0                     u1871:
  3011  0005D0  EF01  F003         	goto	l3014
  3012  0005D4                     u1870:
  3013  0005D4  90D8               	bcf	status,0,c
  3014  0005D6  3627               	rlcf	___fldiv@rem^0,f,c
  3015  0005D8  3628               	rlcf	(___fldiv@rem+1)^0,f,c
  3016  0005DA  3629               	rlcf	(___fldiv@rem+2)^0,f,c
  3017  0005DC  362A               	rlcf	(___fldiv@rem+3)^0,f,c
  3018  0005DE  90D8               	bcf	status,0,c
  3019  0005E0  361B               	rlcf	___fldiv@b^0,f,c
  3020  0005E2  361C               	rlcf	(___fldiv@b+1)^0,f,c
  3021  0005E4  361D               	rlcf	(___fldiv@b+2)^0,f,c
  3022  0005E6  361E               	rlcf	(___fldiv@b+3)^0,f,c
  3023  0005E8  AE31               	btfss	(___fldiv@grs+3)^0,7,c
  3024  0005EA  EFF9  F002         	goto	u1881
  3025  0005EE  EFFB  F002         	goto	u1880
  3026  0005F2                     u1881:
  3027  0005F2  EFFC  F002         	goto	l1252
  3028  0005F6                     u1880:
  3029  0005F6  801B               	bsf	___fldiv@b^0,0,c
  3030  0005F8                     l1252:
  3031  0005F8  90D8               	bcf	status,0,c
  3032  0005FA  362E               	rlcf	___fldiv@grs^0,f,c
  3033  0005FC  362F               	rlcf	(___fldiv@grs+1)^0,f,c
  3034  0005FE  3630               	rlcf	(___fldiv@grs+2)^0,f,c
  3035  000600  3631               	rlcf	(___fldiv@grs+3)^0,f,c
  3036  000602                     l3014:
  3037  000602  501F               	movf	___fldiv@a^0,w,c
  3038  000604  5C27               	subwf	___fldiv@rem^0,w,c
  3039  000606  5020               	movf	(___fldiv@a+1)^0,w,c
  3040  000608  5828               	subwfb	(___fldiv@rem+1)^0,w,c
  3041  00060A  5021               	movf	(___fldiv@a+2)^0,w,c
  3042  00060C  5829               	subwfb	(___fldiv@rem+2)^0,w,c
  3043  00060E  5022               	movf	(___fldiv@a+3)^0,w,c
  3044  000610  582A               	subwfb	(___fldiv@rem+3)^0,w,c
  3045  000612  A0D8               	btfss	status,0,c
  3046  000614  EF0E  F003         	goto	u1891
  3047  000618  EF10  F003         	goto	u1890
  3048  00061C                     u1891:
  3049  00061C  EF19  F003         	goto	l3020
  3050  000620                     u1890:
  3051  000620  8C31               	bsf	(___fldiv@grs+3)^0,6,c
  3052  000622  501F               	movf	___fldiv@a^0,w,c
  3053  000624  5E27               	subwf	___fldiv@rem^0,f,c
  3054  000626  5020               	movf	(___fldiv@a+1)^0,w,c
  3055  000628  5A28               	subwfb	(___fldiv@rem+1)^0,f,c
  3056  00062A  5021               	movf	(___fldiv@a+2)^0,w,c
  3057  00062C  5A29               	subwfb	(___fldiv@rem+2)^0,f,c
  3058  00062E  5022               	movf	(___fldiv@a+3)^0,w,c
  3059  000630  5A2A               	subwfb	(___fldiv@rem+3)^0,f,c
  3060  000632                     l3020:
  3061  000632  2A33               	incf	___fldiv@aexp^0,f,c
  3062  000634                     l1249:
  3063  000634  0E19               	movlw	25
  3064  000636  6433               	cpfsgt	___fldiv@aexp^0,c
  3065  000638  EF20  F003         	goto	u1901
  3066  00063C  EF22  F003         	goto	u1900
  3067  000640                     u1901:
  3068  000640  EFE2  F002         	goto	l3006
  3069  000644                     u1900:
  3070  000644  5027               	movf	___fldiv@rem^0,w,c
  3071  000646  1028               	iorwf	(___fldiv@rem+1)^0,w,c
  3072  000648  1029               	iorwf	(___fldiv@rem+2)^0,w,c
  3073  00064A  102A               	iorwf	(___fldiv@rem+3)^0,w,c
  3074  00064C  B4D8               	btfsc	status,2,c
  3075  00064E  EF2B  F003         	goto	u1911
  3076  000652  EF2D  F003         	goto	u1910
  3077  000656                     u1911:
  3078  000656  EF45  F003         	goto	l3032
  3079  00065A                     u1910:
  3080  00065A  802E               	bsf	___fldiv@grs^0,0,c
  3081  00065C  EF45  F003         	goto	l3032
  3082  000660                     l3026:
  3083  000660  90D8               	bcf	status,0,c
  3084  000662  361B               	rlcf	___fldiv@b^0,f,c
  3085  000664  361C               	rlcf	(___fldiv@b+1)^0,f,c
  3086  000666  361D               	rlcf	(___fldiv@b+2)^0,f,c
  3087  000668  361E               	rlcf	(___fldiv@b+3)^0,f,c
  3088  00066A  AE31               	btfss	(___fldiv@grs+3)^0,7,c
  3089  00066C  EF3A  F003         	goto	u1921
  3090  000670  EF3C  F003         	goto	u1920
  3091  000674                     u1921:
  3092  000674  EF3D  F003         	goto	l1258
  3093  000678                     u1920:
  3094  000678  801B               	bsf	___fldiv@b^0,0,c
  3095  00067A                     l1258:
  3096  00067A  90D8               	bcf	status,0,c
  3097  00067C  362E               	rlcf	___fldiv@grs^0,f,c
  3098  00067E  362F               	rlcf	(___fldiv@grs+1)^0,f,c
  3099  000680  3630               	rlcf	(___fldiv@grs+2)^0,f,c
  3100  000682  3631               	rlcf	(___fldiv@grs+3)^0,f,c
  3101  000684  062C               	decf	___fldiv@new_exp^0,f,c
  3102  000686  A0D8               	btfss	status,0,c
  3103  000688  062D               	decf	(___fldiv@new_exp+1)^0,f,c
  3104  00068A                     l3032:
  3105  00068A  AE1D               	btfss	(___fldiv@b+2)^0,7,c
  3106  00068C  EF4A  F003         	goto	u1931
  3107  000690  EF4C  F003         	goto	u1930
  3108  000694                     u1931:
  3109  000694  EF30  F003         	goto	l3026
  3110  000698                     u1930:
  3111  000698  0E00               	movlw	0
  3112  00069A  6E33               	movwf	___fldiv@aexp^0,c
  3113  00069C  AE31               	btfss	(___fldiv@grs+3)^0,7,c
  3114  00069E  EF53  F003         	goto	u1941
  3115  0006A2  EF55  F003         	goto	u1940
  3116  0006A6                     u1941:
  3117  0006A6  EF79  F003         	goto	l1260
  3118  0006AA                     u1940:
  3119  0006AA  0EFF               	movlw	255
  3120  0006AC  142E               	andwf	___fldiv@grs^0,w,c
  3121  0006AE  6E23               	movwf	??___fldiv^0,c
  3122  0006B0  0EFF               	movlw	255
  3123  0006B2  142F               	andwf	(___fldiv@grs+1)^0,w,c
  3124  0006B4  6E24               	movwf	(??___fldiv+1)^0,c
  3125  0006B6  0EFF               	movlw	255
  3126  0006B8  1430               	andwf	(___fldiv@grs+2)^0,w,c
  3127  0006BA  6E25               	movwf	(??___fldiv+2)^0,c
  3128  0006BC  0E7F               	movlw	127
  3129  0006BE  1431               	andwf	(___fldiv@grs+3)^0,w,c
  3130  0006C0  6E26               	movwf	(??___fldiv+3)^0,c
  3131  0006C2  5023               	movf	??___fldiv^0,w,c
  3132  0006C4  1024               	iorwf	(??___fldiv+1)^0,w,c
  3133  0006C6  1025               	iorwf	(??___fldiv+2)^0,w,c
  3134  0006C8  1026               	iorwf	(??___fldiv+3)^0,w,c
  3135  0006CA  B4D8               	btfsc	status,2,c
  3136  0006CC  EF6A  F003         	goto	u1951
  3137  0006D0  EF6C  F003         	goto	u1950
  3138  0006D4                     u1951:
  3139  0006D4  EF70  F003         	goto	l1261
  3140  0006D8                     u1950:
  3141  0006D8                     l3040:
  3142  0006D8  0E01               	movlw	1
  3143  0006DA  6E33               	movwf	___fldiv@aexp^0,c
  3144  0006DC  EF79  F003         	goto	l1260
  3145  0006E0                     l1261:
  3146  0006E0  A01B               	btfss	___fldiv@b^0,0,c
  3147  0006E2  EF75  F003         	goto	u1961
  3148  0006E6  EF77  F003         	goto	u1960
  3149  0006EA                     u1961:
  3150  0006EA  EF79  F003         	goto	l1260
  3151  0006EE                     u1960:
  3152  0006EE  EF6C  F003         	goto	l3040
  3153  0006F2                     l1260:
  3154  0006F2  5033               	movf	___fldiv@aexp^0,w,c
  3155  0006F4  B4D8               	btfsc	status,2,c
  3156  0006F6  EF7F  F003         	goto	u1971
  3157  0006FA  EF81  F003         	goto	u1970
  3158  0006FE                     u1971:
  3159  0006FE  EFA5  F003         	goto	l3052
  3160  000702                     u1970:
  3161  000702  0E01               	movlw	1
  3162  000704  261B               	addwf	___fldiv@b^0,f,c
  3163  000706  0E00               	movlw	0
  3164  000708  221C               	addwfc	(___fldiv@b+1)^0,f,c
  3165  00070A  221D               	addwfc	(___fldiv@b+2)^0,f,c
  3166  00070C  221E               	addwfc	(___fldiv@b+3)^0,f,c
  3167  00070E  A01E               	btfss	(___fldiv@b+3)^0,0,c
  3168  000710  EF8C  F003         	goto	u1981
  3169  000714  EF8E  F003         	goto	u1980
  3170  000718                     u1981:
  3171  000718  EFA5  F003         	goto	l3052
  3172  00071C                     u1980:
  3173  00071C  C01B  F023         	movff	___fldiv@b,??___fldiv
  3174  000720  C01C  F024         	movff	___fldiv@b+1,??___fldiv+1
  3175  000724  C01D  F025         	movff	___fldiv@b+2,??___fldiv+2
  3176  000728  C01E  F026         	movff	___fldiv@b+3,??___fldiv+3
  3177  00072C  3426               	rlcf	(??___fldiv+3)^0,w,c
  3178  00072E  3226               	rrcf	(??___fldiv+3)^0,f,c
  3179  000730  3225               	rrcf	(??___fldiv+2)^0,f,c
  3180  000732  3224               	rrcf	(??___fldiv+1)^0,f,c
  3181  000734  3223               	rrcf	??___fldiv^0,f,c
  3182  000736  C023  F01B         	movff	??___fldiv,___fldiv@b
  3183  00073A  C024  F01C         	movff	??___fldiv+1,___fldiv@b+1
  3184  00073E  C025  F01D         	movff	??___fldiv+2,___fldiv@b+2
  3185  000742  C026  F01E         	movff	??___fldiv+3,___fldiv@b+3
  3186  000746  4A2C               	infsnz	___fldiv@new_exp^0,f,c
  3187  000748  2A2D               	incf	(___fldiv@new_exp+1)^0,f,c
  3188  00074A                     l3052:
  3189  00074A  BE2D               	btfsc	(___fldiv@new_exp+1)^0,7,c
  3190  00074C  EFB0  F003         	goto	u1991
  3191  000750  502D               	movf	(___fldiv@new_exp+1)^0,w,c
  3192  000752  E108               	bnz	u1990
  3193  000754  282C               	incf	___fldiv@new_exp^0,w,c
  3194  000756  A0D8               	btfss	status,0,c
  3195  000758  EFB0  F003         	goto	u1991
  3196  00075C  EFB2  F003         	goto	u1990
  3197  000760                     u1991:
  3198  000760  EFBD  F003         	goto	l3056
  3199  000764                     u1990:
  3200  000764  0E00               	movlw	0
  3201  000766  6E2D               	movwf	(___fldiv@new_exp+1)^0,c
  3202  000768  682C               	setf	___fldiv@new_exp^0,c
  3203  00076A  0E00               	movlw	0
  3204  00076C  6E1B               	movwf	___fldiv@b^0,c
  3205  00076E  0E00               	movlw	0
  3206  000770  6E1C               	movwf	(___fldiv@b+1)^0,c
  3207  000772  0E00               	movlw	0
  3208  000774  6E1D               	movwf	(___fldiv@b+2)^0,c
  3209  000776  0E00               	movlw	0
  3210  000778  6E1E               	movwf	(___fldiv@b+3)^0,c
  3211  00077A                     l3056:
  3212  00077A  BE2D               	btfsc	(___fldiv@new_exp+1)^0,7,c
  3213  00077C  EFCA  F003         	goto	u2000
  3214  000780  502D               	movf	(___fldiv@new_exp+1)^0,w,c
  3215  000782  E106               	bnz	u2001
  3216  000784  042C               	decf	___fldiv@new_exp^0,w,c
  3217  000786  B0D8               	btfsc	status,0,c
  3218  000788  EFC8  F003         	goto	u2001
  3219  00078C  EFCA  F003         	goto	u2000
  3220  000790                     u2001:
  3221  000790  EFD8  F003         	goto	l3060
  3222  000794                     u2000:
  3223  000794  0E00               	movlw	0
  3224  000796  6E2D               	movwf	(___fldiv@new_exp+1)^0,c
  3225  000798  0E00               	movlw	0
  3226  00079A  6E2C               	movwf	___fldiv@new_exp^0,c
  3227  00079C  0E00               	movlw	0
  3228  00079E  6E1B               	movwf	___fldiv@b^0,c
  3229  0007A0  0E00               	movlw	0
  3230  0007A2  6E1C               	movwf	(___fldiv@b+1)^0,c
  3231  0007A4  0E00               	movlw	0
  3232  0007A6  6E1D               	movwf	(___fldiv@b+2)^0,c
  3233  0007A8  0E00               	movlw	0
  3234  0007AA  6E1E               	movwf	(___fldiv@b+3)^0,c
  3235  0007AC  0E00               	movlw	0
  3236  0007AE  6E2B               	movwf	___fldiv@sign^0,c
  3237  0007B0                     l3060:
  3238  0007B0  C02C  F032         	movff	___fldiv@new_exp,___fldiv@bexp
  3239  0007B4  A032               	btfss	___fldiv@bexp^0,0,c
  3240  0007B6  EFDF  F003         	goto	u2011
  3241  0007BA  EFE1  F003         	goto	u2010
  3242  0007BE                     u2011:
  3243  0007BE  EFE4  F003         	goto	l3066
  3244  0007C2                     u2010:
  3245  0007C2  8E1D               	bsf	(___fldiv@b+2)^0,7,c
  3246  0007C4  EFE5  F003         	goto	l3068
  3247  0007C8                     l3066:
  3248  0007C8  9E1D               	bcf	(___fldiv@b+2)^0,7,c
  3249  0007CA                     l3068:
  3250  0007CA  90D8               	bcf	status,0,c
  3251  0007CC  3032               	rrcf	___fldiv@bexp^0,w,c
  3252  0007CE  6E1E               	movwf	(___fldiv@b+3)^0,c
  3253  0007D0  EF9B  F002         	goto	l2982
  3254  0007D4                     l1247:
  3255  0007D4  0012               	return		;funcret
  3256  0007D6                     __end_of___fldiv:
  3257                           	opt callstack 0
  3258                           
  3259 ;; *************** function _dameDistancia *****************
  3260 ;; Defined at:
  3261 ;;		line 26 in file "./ultrasonico.h"
  3262 ;; Parameters:    Size  Location     Type
  3263 ;;  numeroSensor    1    wreg     unsigned char 
  3264 ;; Auto vars:     Size  Location     Type
  3265 ;;  numeroSensor    1   32[COMRAM] unsigned char 
  3266 ;;  distancia       4   33[COMRAM] float 
  3267 ;;  conteo          2   37[COMRAM] unsigned int 
  3268 ;; Return value:  Size  Location     Type
  3269 ;;                  4   26[COMRAM] float 
  3270 ;; Registers used:
  3271 ;;		wreg, status,2, status,0, cstack
  3272 ;; Tracked objects:
  3273 ;;		On entry : 0/0
  3274 ;;		On exit  : 0/0
  3275 ;;		Unchanged: 0/0
  3276 ;; Data sizes:     COMRAM   BANK0   BANK1   BANK2   BANK3   BANK4   BANK5   BANK6   BANK7
  3277 ;;      Params:         4       0       0       0       0       0       0       0       0
  3278 ;;      Locals:         7       0       0       0       0       0       0       0       0
  3279 ;;      Temps:          2       0       0       0       0       0       0       0       0
  3280 ;;      Totals:        13       0       0       0       0       0       0       0       0
  3281 ;;Total ram usage:       13 bytes
  3282 ;; Hardware stack levels used:    1
  3283 ;; Hardware stack levels required when called:    3
  3284 ;; This function calls:
  3285 ;;		___lwdiv
  3286 ;;		___xxtofl
  3287 ;; This function is called by:
  3288 ;;		_inicializarComportamientoBasico
  3289 ;;		_leerSensores
  3290 ;; This function uses a non-reentrant model
  3291 ;;
  3292                           
  3293                           	psect	text11
  3294  000B46                     __ptext11:
  3295                           	opt callstack 0
  3296  000B46                     _dameDistancia:
  3297                           	opt callstack 26
  3298                           
  3299                           ;incstack = 0
  3300                           ;dameDistancia@numeroSensor stored from wreg
  3301  000B46  6E21               	movwf	dameDistancia@numeroSensor^0,c
  3302  000B48                     
  3303                           ;./ultrasonico.h: 28:     T_UINT conteo;;./ultrasonico.h: 29:     T_FLOAT distancia;;./u
      +                          ltrasonico.h: 31:     TMR1H = 0x00;
  3304  000B48  0E00               	movlw	0
  3305  000B4A  6ECF               	movwf	207,c	;volatile
  3306                           
  3307                           ;./ultrasonico.h: 32:     TMR1L = 0x00;
  3308  000B4C  0E00               	movlw	0
  3309  000B4E  6ECE               	movwf	206,c	;volatile
  3310                           
  3311                           ;./ultrasonico.h: 33:     conteo = 0;
  3312  000B50  0E00               	movlw	0
  3313  000B52  6E27               	movwf	(dameDistancia@conteo+1)^0,c
  3314  000B54  0E00               	movlw	0
  3315  000B56  6E26               	movwf	dameDistancia@conteo^0,c
  3316  000B58                     
  3317                           ;./ultrasonico.h: 34:     LATD3 = 1;
  3318  000B58  868C               	bsf	3980,3,c	;volatile
  3319  000B5A                     
  3320                           ;./ultrasonico.h: 35:     _delay((unsigned long)((12)*(4000000/4000000.0)));
  3321  000B5A  0E04               	movlw	4
  3322  000B5C                     u4487:
  3323  000B5C  2EE8               	decfsz	wreg,f,c
  3324  000B5E  D7FE               	bra	u4487
  3325  000B60                     
  3326                           ;./ultrasonico.h: 36:     LATD3 = 0;
  3327  000B60  968C               	bcf	3980,3,c	;volatile
  3328                           
  3329                           ;./ultrasonico.h: 38:     switch (numeroSensor) {
  3330  000B62  EFFB  F005         	goto	l3352
  3331  000B66                     l183:
  3332  000B66  A281               	btfss	129,1,c	;volatile
  3333  000B68  EFB8  F005         	goto	u2441
  3334  000B6C  EFBA  F005         	goto	u2440
  3335  000B70                     u2441:
  3336  000B70  EFB3  F005         	goto	l183
  3337  000B74                     u2440:
  3338  000B74                     
  3339                           ;./ultrasonico.h: 43:             TMR1ON = 1;
  3340  000B74  80CD               	bsf	4045,0,c	;volatile
  3341  000B76                     l186:
  3342  000B76  A281               	btfss	129,1,c	;volatile
  3343  000B78  EFC0  F005         	goto	u2451
  3344  000B7C  EFC2  F005         	goto	u2450
  3345  000B80                     u2451:
  3346  000B80  EF14  F006         	goto	l191
  3347  000B84                     u2450:
  3348  000B84  A09E               	btfss	3998,0,c	;volatile
  3349  000B86  EFC7  F005         	goto	u2461
  3350  000B8A  EFC9  F005         	goto	u2460
  3351  000B8E                     u2461:
  3352  000B8E  EFBB  F005         	goto	l186
  3353  000B92                     u2460:
  3354  000B92  EF14  F006         	goto	l191
  3355  000B96                     l193:
  3356  000B96  A481               	btfss	129,2,c	;volatile
  3357  000B98  EFD0  F005         	goto	u2471
  3358  000B9C  EFD2  F005         	goto	u2470
  3359  000BA0                     u2471:
  3360  000BA0  EFCB  F005         	goto	l193
  3361  000BA4                     u2470:
  3362  000BA4                     
  3363                           ;./ultrasonico.h: 51:             TMR1ON = 1;
  3364  000BA4  80CD               	bsf	4045,0,c	;volatile
  3365  000BA6                     l196:
  3366  000BA6  A481               	btfss	129,2,c	;volatile
  3367  000BA8  EFD8  F005         	goto	u2481
  3368  000BAC  EFDA  F005         	goto	u2480
  3369  000BB0                     u2481:
  3370  000BB0  EF14  F006         	goto	l191
  3371  000BB4                     u2480:
  3372  000BB4  A09E               	btfss	3998,0,c	;volatile
  3373  000BB6  EFDF  F005         	goto	u2491
  3374  000BBA  EFE1  F005         	goto	u2490
  3375  000BBE                     u2491:
  3376  000BBE  EFD3  F005         	goto	l196
  3377  000BC2                     u2490:
  3378  000BC2  EF14  F006         	goto	l191
  3379  000BC6                     l202:
  3380  000BC6  A681               	btfss	129,3,c	;volatile
  3381  000BC8  EFE8  F005         	goto	u2501
  3382  000BCC  EFEA  F005         	goto	u2500
  3383  000BD0                     u2501:
  3384  000BD0  EFE3  F005         	goto	l202
  3385  000BD4                     u2500:
  3386  000BD4                     
  3387                           ;./ultrasonico.h: 59:             TMR1ON = 1;
  3388  000BD4  80CD               	bsf	4045,0,c	;volatile
  3389  000BD6                     l205:
  3390  000BD6  A681               	btfss	129,3,c	;volatile
  3391  000BD8  EFF0  F005         	goto	u2511
  3392  000BDC  EFF2  F005         	goto	u2510
  3393  000BE0                     u2511:
  3394  000BE0  EF14  F006         	goto	l191
  3395  000BE4                     u2510:
  3396  000BE4  A09E               	btfss	3998,0,c	;volatile
  3397  000BE6  EFF7  F005         	goto	u2521
  3398  000BEA  EFF9  F005         	goto	u2520
  3399  000BEE                     u2521:
  3400  000BEE  EFEB  F005         	goto	l205
  3401  000BF2                     u2520:
  3402  000BF2  EF14  F006         	goto	l191
  3403  000BF6                     l3352:
  3404  000BF6  5021               	movf	dameDistancia@numeroSensor^0,w,c
  3405  000BF8  6E1F               	movwf	??_dameDistancia^0,c
  3406  000BFA  6A20               	clrf	(??_dameDistancia+1)^0,c
  3407                           
  3408                           ; Switch on 2 bytes has been partitioned into a top level switch of size 1, and 1 sub-sw
      +                          itches
  3409                           ; Switch size 1, requested type "simple"
  3410                           ; Number of cases is 1, Range of values is 0 to 0
  3411                           ; switch strategies available:
  3412                           ; Name         Instructions Cycles
  3413                           ; simple_byte            4     3 (average)
  3414                           ;	Chosen strategy is simple_byte
  3415  000BFC  5020               	movf	(??_dameDistancia+1)^0,w,c
  3416  000BFE  0A00               	xorlw	0	; case 0
  3417  000C00  B4D8               	btfsc	status,2,c
  3418  000C02  EF05  F006         	goto	l5306
  3419  000C06  EF14  F006         	goto	l191
  3420  000C0A                     l5306:
  3421                           
  3422                           ; Switch size 1, requested type "simple"
  3423                           ; Number of cases is 3, Range of values is 1 to 3
  3424                           ; switch strategies available:
  3425                           ; Name         Instructions Cycles
  3426                           ; simple_byte           10     6 (average)
  3427                           ;	Chosen strategy is simple_byte
  3428  000C0A  501F               	movf	??_dameDistancia^0,w,c
  3429  000C0C  0A01               	xorlw	1	; case 1
  3430  000C0E  B4D8               	btfsc	status,2,c
  3431  000C10  EFB3  F005         	goto	l183
  3432  000C14  0A03               	xorlw	3	; case 2
  3433  000C16  B4D8               	btfsc	status,2,c
  3434  000C18  EFCB  F005         	goto	l193
  3435  000C1C  0A01               	xorlw	1	; case 3
  3436  000C1E  B4D8               	btfsc	status,2,c
  3437  000C20  EFE3  F005         	goto	l202
  3438  000C24  EF14  F006         	goto	l191
  3439  000C28                     l191:
  3440                           
  3441                           ;./ultrasonico.h: 66:     TMR1ON = 0;
  3442  000C28  90CD               	bcf	4045,0,c	;volatile
  3443                           
  3444                           ;./ultrasonico.h: 68:     if (!TMR1IF) {
  3445  000C2A  B09E               	btfsc	3998,0,c	;volatile
  3446  000C2C  EF1A  F006         	goto	u2531
  3447  000C30  EF1C  F006         	goto	u2530
  3448  000C34                     u2531:
  3449  000C34  EF42  F006         	goto	l3358
  3450  000C38                     u2530:
  3451  000C38                     
  3452                           ;./ultrasonico.h: 69:         conteo |= TMR1H << 8;
  3453  000C38  50CF               	movf	207,w,c	;volatile
  3454  000C3A  6E20               	movwf	(??_dameDistancia+1)^0,c
  3455  000C3C  6A1F               	clrf	??_dameDistancia^0,c
  3456  000C3E  501F               	movf	??_dameDistancia^0,w,c
  3457  000C40  1226               	iorwf	dameDistancia@conteo^0,f,c
  3458  000C42  5020               	movf	(??_dameDistancia+1)^0,w,c
  3459  000C44  1227               	iorwf	(dameDistancia@conteo+1)^0,f,c
  3460                           
  3461                           ;./ultrasonico.h: 70:         conteo |= TMR1L;
  3462  000C46  50CE               	movf	206,w,c	;volatile
  3463  000C48  1226               	iorwf	dameDistancia@conteo^0,f,c
  3464  000C4A                     
  3465                           ;./ultrasonico.h: 72:         distancia = conteo / 58;
  3466  000C4A  0E00               	movlw	0
  3467  000C4C  6E09               	movwf	(___lwdiv@divisor+1)^0,c
  3468  000C4E  0E3A               	movlw	58
  3469  000C50  6E08               	movwf	___lwdiv@divisor^0,c
  3470  000C52  C026  F006         	movff	dameDistancia@conteo,___lwdiv@dividend
  3471  000C56  C027  F007         	movff	dameDistancia@conteo+1,___lwdiv@dividend+1
  3472  000C5A  EC99  F008         	call	___lwdiv	;wreg free
  3473  000C5E  C006  F00D         	movff	?___lwdiv,___xxtofl@val
  3474  000C62  C007  F00E         	movff	?___lwdiv+1,___xxtofl@val+1
  3475  000C66  6A0F               	clrf	(___xxtofl@val+2)^0,c
  3476  000C68  6A10               	clrf	(___xxtofl@val+3)^0,c
  3477  000C6A  0E00               	movlw	0
  3478  000C6C  ECC9  F004         	call	___xxtofl
  3479  000C70  C00D  F022         	movff	?___xxtofl,dameDistancia@distancia
  3480  000C74  C00E  F023         	movff	?___xxtofl+1,dameDistancia@distancia+1
  3481  000C78  C00F  F024         	movff	?___xxtofl+2,dameDistancia@distancia+2
  3482  000C7C  C010  F025         	movff	?___xxtofl+3,dameDistancia@distancia+3
  3483                           
  3484                           ;./ultrasonico.h: 73:     } else {
  3485  000C80  EF4B  F006         	goto	l3362
  3486  000C84                     l3358:
  3487  000C84                     
  3488                           ;./ultrasonico.h: 75:         TMR1IF = 0;
  3489  000C84  909E               	bcf	3998,0,c	;volatile
  3490                           
  3491                           ;./ultrasonico.h: 76:         distancia = 0;
  3492  000C86  0E00               	movlw	0
  3493  000C88  6E22               	movwf	dameDistancia@distancia^0,c
  3494  000C8A  0E00               	movlw	0
  3495  000C8C  6E23               	movwf	(dameDistancia@distancia+1)^0,c
  3496  000C8E  0E00               	movlw	0
  3497  000C90  6E24               	movwf	(dameDistancia@distancia+2)^0,c
  3498  000C92  0E00               	movlw	0
  3499  000C94  6E25               	movwf	(dameDistancia@distancia+3)^0,c
  3500  000C96                     l3362:
  3501                           
  3502                           ;./ultrasonico.h: 80:     return distancia;
  3503  000C96  C022  F01B         	movff	dameDistancia@distancia,?_dameDistancia
  3504  000C9A  C023  F01C         	movff	dameDistancia@distancia+1,?_dameDistancia+1
  3505  000C9E  C024  F01D         	movff	dameDistancia@distancia+2,?_dameDistancia+2
  3506  000CA2  C025  F01E         	movff	dameDistancia@distancia+3,?_dameDistancia+3
  3507  000CA6  0012               	return		;funcret
  3508  000CA8                     __end_of_dameDistancia:
  3509                           	opt callstack 0
  3510                           
  3511 ;; *************** function ___xxtofl *****************
  3512 ;; Defined at:
  3513 ;;		line 10 in file "C:\Program Files (x86)\Microchip\xc8\v2.10\pic\sources\c99\common\xxtofl.c"
  3514 ;; Parameters:    Size  Location     Type
  3515 ;;  sign            1    wreg     unsigned char 
  3516 ;;  val             4   12[COMRAM] long 
  3517 ;; Auto vars:     Size  Location     Type
  3518 ;;  sign            1   20[COMRAM] unsigned char 
  3519 ;;  arg             4   22[COMRAM] unsigned long 
  3520 ;;  exp             1   21[COMRAM] unsigned char 
  3521 ;; Return value:  Size  Location     Type
  3522 ;;                  4   12[COMRAM] unsigned char 
  3523 ;; Registers used:
  3524 ;;		wreg, status,2, status,0
  3525 ;; Tracked objects:
  3526 ;;		On entry : 0/0
  3527 ;;		On exit  : 0/0
  3528 ;;		Unchanged: 0/0
  3529 ;; Data sizes:     COMRAM   BANK0   BANK1   BANK2   BANK3   BANK4   BANK5   BANK6   BANK7
  3530 ;;      Params:         4       0       0       0       0       0       0       0       0
  3531 ;;      Locals:         6       0       0       0       0       0       0       0       0
  3532 ;;      Temps:          4       0       0       0       0       0       0       0       0
  3533 ;;      Totals:        14       0       0       0       0       0       0       0       0
  3534 ;;Total ram usage:       14 bytes
  3535 ;; Hardware stack levels used:    1
  3536 ;; Hardware stack levels required when called:    2
  3537 ;; This function calls:
  3538 ;;		Nothing
  3539 ;; This function is called by:
  3540 ;;		_pwmDuty
  3541 ;;		_dameDistancia
  3542 ;;		_PID
  3543 ;; This function uses a non-reentrant model
  3544 ;;
  3545                           
  3546                           	psect	text12
  3547  000992                     __ptext12:
  3548                           	opt callstack 0
  3549  000992                     ___xxtofl:
  3550                           	opt callstack 25
  3551                           
  3552                           ;incstack = 0
  3553                           ;___xxtofl@sign stored from wreg
  3554  000992  6E15               	movwf	___xxtofl@sign^0,c
  3555  000994  5015               	movf	___xxtofl@sign^0,w,c
  3556  000996  B4D8               	btfsc	status,2,c
  3557  000998  EFD0  F004         	goto	u2281
  3558  00099C  EFD2  F004         	goto	u2280
  3559  0009A0                     u2281:
  3560  0009A0  EFF4  F004         	goto	l1320
  3561  0009A4                     u2280:
  3562  0009A4  BE10               	btfsc	(___xxtofl@val+3)^0,7,c
  3563  0009A6  EFD9  F004         	goto	u2290
  3564  0009AA  EFD7  F004         	goto	u2291
  3565  0009AE                     u2291:
  3566  0009AE  EFF4  F004         	goto	l1320
  3567  0009B2                     u2290:
  3568  0009B2  C00D  F011         	movff	___xxtofl@val,??___xxtofl
  3569  0009B6  C00E  F012         	movff	___xxtofl@val+1,??___xxtofl+1
  3570  0009BA  C00F  F013         	movff	___xxtofl@val+2,??___xxtofl+2
  3571  0009BE  C010  F014         	movff	___xxtofl@val+3,??___xxtofl+3
  3572  0009C2  1E11               	comf	??___xxtofl^0,f,c
  3573  0009C4  1E12               	comf	(??___xxtofl+1)^0,f,c
  3574  0009C6  1E13               	comf	(??___xxtofl+2)^0,f,c
  3575  0009C8  1E14               	comf	(??___xxtofl+3)^0,f,c
  3576  0009CA  2A11               	incf	??___xxtofl^0,f,c
  3577  0009CC  0E00               	movlw	0
  3578  0009CE  2212               	addwfc	(??___xxtofl+1)^0,f,c
  3579  0009D0  2213               	addwfc	(??___xxtofl+2)^0,f,c
  3580  0009D2  2214               	addwfc	(??___xxtofl+3)^0,f,c
  3581  0009D4  C011  F017         	movff	??___xxtofl,___xxtofl@arg
  3582  0009D8  C012  F018         	movff	??___xxtofl+1,___xxtofl@arg+1
  3583  0009DC  C013  F019         	movff	??___xxtofl+2,___xxtofl@arg+2
  3584  0009E0  C014  F01A         	movff	??___xxtofl+3,___xxtofl@arg+3
  3585  0009E4  EFFC  F004         	goto	l3256
  3586  0009E8                     l1320:
  3587  0009E8  C00D  F017         	movff	___xxtofl@val,___xxtofl@arg
  3588  0009EC  C00E  F018         	movff	___xxtofl@val+1,___xxtofl@arg+1
  3589  0009F0  C00F  F019         	movff	___xxtofl@val+2,___xxtofl@arg+2
  3590  0009F4  C010  F01A         	movff	___xxtofl@val+3,___xxtofl@arg+3
  3591  0009F8                     l3256:
  3592  0009F8  500D               	movf	___xxtofl@val^0,w,c
  3593  0009FA  100E               	iorwf	(___xxtofl@val+1)^0,w,c
  3594  0009FC  100F               	iorwf	(___xxtofl@val+2)^0,w,c
  3595  0009FE  1010               	iorwf	(___xxtofl@val+3)^0,w,c
  3596  000A00  A4D8               	btfss	status,2,c
  3597  000A02  EF05  F005         	goto	u2301
  3598  000A06  EF07  F005         	goto	u2300
  3599  000A0A                     u2301:
  3600  000A0A  EF11  F005         	goto	l3262
  3601  000A0E                     u2300:
  3602  000A0E  0E00               	movlw	0
  3603  000A10  6E0D               	movwf	?___xxtofl^0,c
  3604  000A12  0E00               	movlw	0
  3605  000A14  6E0E               	movwf	(?___xxtofl+1)^0,c
  3606  000A16  0E00               	movlw	0
  3607  000A18  6E0F               	movwf	(?___xxtofl+2)^0,c
  3608  000A1A  0E00               	movlw	0
  3609  000A1C  6E10               	movwf	(?___xxtofl+3)^0,c
  3610  000A1E  EFA2  F005         	goto	l1323
  3611  000A22                     l3262:
  3612  000A22  0E96               	movlw	150
  3613  000A24  6E16               	movwf	___xxtofl@exp^0,c
  3614  000A26  EF1B  F005         	goto	l3266
  3615  000A2A                     l3264:
  3616  000A2A  2A16               	incf	___xxtofl@exp^0,f,c
  3617  000A2C  90D8               	bcf	status,0,c
  3618  000A2E  321A               	rrcf	(___xxtofl@arg+3)^0,f,c
  3619  000A30  3219               	rrcf	(___xxtofl@arg+2)^0,f,c
  3620  000A32  3218               	rrcf	(___xxtofl@arg+1)^0,f,c
  3621  000A34  3217               	rrcf	___xxtofl@arg^0,f,c
  3622  000A36                     l3266:
  3623  000A36  0E00               	movlw	0
  3624  000A38  1417               	andwf	___xxtofl@arg^0,w,c
  3625  000A3A  6E11               	movwf	??___xxtofl^0,c
  3626  000A3C  0E00               	movlw	0
  3627  000A3E  1418               	andwf	(___xxtofl@arg+1)^0,w,c
  3628  000A40  6E12               	movwf	(??___xxtofl+1)^0,c
  3629  000A42  0E00               	movlw	0
  3630  000A44  1419               	andwf	(___xxtofl@arg+2)^0,w,c
  3631  000A46  6E13               	movwf	(??___xxtofl+2)^0,c
  3632  000A48  0EFE               	movlw	254
  3633  000A4A  141A               	andwf	(___xxtofl@arg+3)^0,w,c
  3634  000A4C  6E14               	movwf	(??___xxtofl+3)^0,c
  3635  000A4E  5011               	movf	??___xxtofl^0,w,c
  3636  000A50  1012               	iorwf	(??___xxtofl+1)^0,w,c
  3637  000A52  1013               	iorwf	(??___xxtofl+2)^0,w,c
  3638  000A54  1014               	iorwf	(??___xxtofl+3)^0,w,c
  3639  000A56  A4D8               	btfss	status,2,c
  3640  000A58  EF30  F005         	goto	u2311
  3641  000A5C  EF32  F005         	goto	u2310
  3642  000A60                     u2311:
  3643  000A60  EF15  F005         	goto	l3264
  3644  000A64                     u2310:
  3645  000A64  EF40  F005         	goto	l1327
  3646  000A68                     l3268:
  3647  000A68  2A16               	incf	___xxtofl@exp^0,f,c
  3648  000A6A  0E01               	movlw	1
  3649  000A6C  2617               	addwf	___xxtofl@arg^0,f,c
  3650  000A6E  0E00               	movlw	0
  3651  000A70  2218               	addwfc	(___xxtofl@arg+1)^0,f,c
  3652  000A72  2219               	addwfc	(___xxtofl@arg+2)^0,f,c
  3653  000A74  221A               	addwfc	(___xxtofl@arg+3)^0,f,c
  3654  000A76  90D8               	bcf	status,0,c
  3655  000A78  321A               	rrcf	(___xxtofl@arg+3)^0,f,c
  3656  000A7A  3219               	rrcf	(___xxtofl@arg+2)^0,f,c
  3657  000A7C  3218               	rrcf	(___xxtofl@arg+1)^0,f,c
  3658  000A7E  3217               	rrcf	___xxtofl@arg^0,f,c
  3659  000A80                     l1327:
  3660  000A80  0E00               	movlw	0
  3661  000A82  1417               	andwf	___xxtofl@arg^0,w,c
  3662  000A84  6E11               	movwf	??___xxtofl^0,c
  3663  000A86  0E00               	movlw	0
  3664  000A88  1418               	andwf	(___xxtofl@arg+1)^0,w,c
  3665  000A8A  6E12               	movwf	(??___xxtofl+1)^0,c
  3666  000A8C  0E00               	movlw	0
  3667  000A8E  1419               	andwf	(___xxtofl@arg+2)^0,w,c
  3668  000A90  6E13               	movwf	(??___xxtofl+2)^0,c
  3669  000A92  0EFF               	movlw	255
  3670  000A94  141A               	andwf	(___xxtofl@arg+3)^0,w,c
  3671  000A96  6E14               	movwf	(??___xxtofl+3)^0,c
  3672  000A98  5011               	movf	??___xxtofl^0,w,c
  3673  000A9A  1012               	iorwf	(??___xxtofl+1)^0,w,c
  3674  000A9C  1013               	iorwf	(??___xxtofl+2)^0,w,c
  3675  000A9E  1014               	iorwf	(??___xxtofl+3)^0,w,c
  3676  000AA0  A4D8               	btfss	status,2,c
  3677  000AA2  EF55  F005         	goto	u2321
  3678  000AA6  EF57  F005         	goto	u2320
  3679  000AAA                     u2321:
  3680  000AAA  EF34  F005         	goto	l3268
  3681  000AAE                     u2320:
  3682  000AAE  EF5F  F005         	goto	l3276
  3683  000AB2                     l3274:
  3684  000AB2  0616               	decf	___xxtofl@exp^0,f,c
  3685  000AB4  90D8               	bcf	status,0,c
  3686  000AB6  3617               	rlcf	___xxtofl@arg^0,f,c
  3687  000AB8  3618               	rlcf	(___xxtofl@arg+1)^0,f,c
  3688  000ABA  3619               	rlcf	(___xxtofl@arg+2)^0,f,c
  3689  000ABC  361A               	rlcf	(___xxtofl@arg+3)^0,f,c
  3690  000ABE                     l3276:
  3691  000ABE  BE19               	btfsc	(___xxtofl@arg+2)^0,7,c
  3692  000AC0  EF64  F005         	goto	u2331
  3693  000AC4  EF66  F005         	goto	u2330
  3694  000AC8                     u2331:
  3695  000AC8  EF6E  F005         	goto	l1334
  3696  000ACC                     u2330:
  3697  000ACC  0E02               	movlw	2
  3698  000ACE  6016               	cpfslt	___xxtofl@exp^0,c
  3699  000AD0  EF6C  F005         	goto	u2341
  3700  000AD4  EF6E  F005         	goto	u2340
  3701  000AD8                     u2341:
  3702  000AD8  EF59  F005         	goto	l3274
  3703  000ADC                     u2340:
  3704  000ADC                     l1334:
  3705  000ADC  B016               	btfsc	___xxtofl@exp^0,0,c
  3706  000ADE  EF73  F005         	goto	u2351
  3707  000AE2  EF75  F005         	goto	u2350
  3708  000AE6                     u2351:
  3709  000AE6  EF76  F005         	goto	l3282
  3710  000AEA                     u2350:
  3711  000AEA  9E19               	bcf	(___xxtofl@arg+2)^0,7,c
  3712  000AEC                     l3282:
  3713  000AEC  90D8               	bcf	status,0,c
  3714  000AEE  3216               	rrcf	___xxtofl@exp^0,f,c
  3715  000AF0  C016  F011         	movff	___xxtofl@exp,??___xxtofl
  3716  000AF4  6A12               	clrf	(??___xxtofl+1)^0,c
  3717  000AF6  6A13               	clrf	(??___xxtofl+2)^0,c
  3718  000AF8  6A14               	clrf	(??___xxtofl+3)^0,c
  3719  000AFA  C011  F014         	movff	??___xxtofl,??___xxtofl+3
  3720  000AFE  6A13               	clrf	(??___xxtofl+2)^0,c
  3721  000B00  6A12               	clrf	(??___xxtofl+1)^0,c
  3722  000B02  6A11               	clrf	??___xxtofl^0,c
  3723  000B04  5011               	movf	??___xxtofl^0,w,c
  3724  000B06  1217               	iorwf	___xxtofl@arg^0,f,c
  3725  000B08  5012               	movf	(??___xxtofl+1)^0,w,c
  3726  000B0A  1218               	iorwf	(___xxtofl@arg+1)^0,f,c
  3727  000B0C  5013               	movf	(??___xxtofl+2)^0,w,c
  3728  000B0E  1219               	iorwf	(___xxtofl@arg+2)^0,f,c
  3729  000B10  5014               	movf	(??___xxtofl+3)^0,w,c
  3730  000B12  121A               	iorwf	(___xxtofl@arg+3)^0,f,c
  3731  000B14  5015               	movf	___xxtofl@sign^0,w,c
  3732  000B16  B4D8               	btfsc	status,2,c
  3733  000B18  EF90  F005         	goto	u2361
  3734  000B1C  EF92  F005         	goto	u2360
  3735  000B20                     u2361:
  3736  000B20  EF9A  F005         	goto	l3292
  3737  000B24                     u2360:
  3738  000B24  BE10               	btfsc	(___xxtofl@val+3)^0,7,c
  3739  000B26  EF99  F005         	goto	u2370
  3740  000B2A  EF97  F005         	goto	u2371
  3741  000B2E                     u2371:
  3742  000B2E  EF9A  F005         	goto	l3292
  3743  000B32                     u2370:
  3744  000B32  8E1A               	bsf	(___xxtofl@arg+3)^0,7,c
  3745  000B34                     l3292:
  3746  000B34  C017  F00D         	movff	___xxtofl@arg,?___xxtofl
  3747  000B38  C018  F00E         	movff	___xxtofl@arg+1,?___xxtofl+1
  3748  000B3C  C019  F00F         	movff	___xxtofl@arg+2,?___xxtofl+2
  3749  000B40  C01A  F010         	movff	___xxtofl@arg+3,?___xxtofl+3
  3750  000B44                     l1323:
  3751  000B44  0012               	return		;funcret
  3752  000B46                     __end_of___xxtofl:
  3753                           	opt callstack 0
  3754                           
  3755 ;; *************** function ___lwdiv *****************
  3756 ;; Defined at:
  3757 ;;		line 7 in file "C:\Program Files (x86)\Microchip\xc8\v2.10\pic\sources\c99\common\lwdiv.c"
  3758 ;; Parameters:    Size  Location     Type
  3759 ;;  dividend        2    5[COMRAM] unsigned int 
  3760 ;;  divisor         2    7[COMRAM] unsigned int 
  3761 ;; Auto vars:     Size  Location     Type
  3762 ;;  quotient        2    9[COMRAM] unsigned int 
  3763 ;;  counter         1   11[COMRAM] unsigned char 
  3764 ;; Return value:  Size  Location     Type
  3765 ;;                  2    5[COMRAM] unsigned int 
  3766 ;; Registers used:
  3767 ;;		wreg, status,2, status,0
  3768 ;; Tracked objects:
  3769 ;;		On entry : 0/0
  3770 ;;		On exit  : 0/0
  3771 ;;		Unchanged: 0/0
  3772 ;; Data sizes:     COMRAM   BANK0   BANK1   BANK2   BANK3   BANK4   BANK5   BANK6   BANK7
  3773 ;;      Params:         4       0       0       0       0       0       0       0       0
  3774 ;;      Locals:         3       0       0       0       0       0       0       0       0
  3775 ;;      Temps:          0       0       0       0       0       0       0       0       0
  3776 ;;      Totals:         7       0       0       0       0       0       0       0       0
  3777 ;;Total ram usage:        7 bytes
  3778 ;; Hardware stack levels used:    1
  3779 ;; Hardware stack levels required when called:    2
  3780 ;; This function calls:
  3781 ;;		Nothing
  3782 ;; This function is called by:
  3783 ;;		_dameDistancia
  3784 ;; This function uses a non-reentrant model
  3785 ;;
  3786                           
  3787                           	psect	text13
  3788  001132                     __ptext13:
  3789                           	opt callstack 0
  3790  001132                     ___lwdiv:
  3791                           	opt callstack 26
  3792  001132  0E00               	movlw	0
  3793  001134  6E0B               	movwf	(___lwdiv@quotient+1)^0,c
  3794  001136  0E00               	movlw	0
  3795  001138  6E0A               	movwf	___lwdiv@quotient^0,c
  3796  00113A  5008               	movf	___lwdiv@divisor^0,w,c
  3797  00113C  1009               	iorwf	(___lwdiv@divisor+1)^0,w,c
  3798  00113E  B4D8               	btfsc	status,2,c
  3799  001140  EFA4  F008         	goto	u2411
  3800  001144  EFA6  F008         	goto	u2410
  3801  001148                     u2411:
  3802  001148  EFCE  F008         	goto	l1156
  3803  00114C                     u2410:
  3804  00114C  0E01               	movlw	1
  3805  00114E  6E0C               	movwf	___lwdiv@counter^0,c
  3806  001150  EFAE  F008         	goto	l3322
  3807  001154                     l3320:
  3808  001154  90D8               	bcf	status,0,c
  3809  001156  3608               	rlcf	___lwdiv@divisor^0,f,c
  3810  001158  3609               	rlcf	(___lwdiv@divisor+1)^0,f,c
  3811  00115A  2A0C               	incf	___lwdiv@counter^0,f,c
  3812  00115C                     l3322:
  3813  00115C  AE09               	btfss	(___lwdiv@divisor+1)^0,7,c
  3814  00115E  EFB3  F008         	goto	u2421
  3815  001162  EFB5  F008         	goto	u2420
  3816  001166                     u2421:
  3817  001166  EFAA  F008         	goto	l3320
  3818  00116A                     u2420:
  3819  00116A                     l3324:
  3820  00116A  90D8               	bcf	status,0,c
  3821  00116C  360A               	rlcf	___lwdiv@quotient^0,f,c
  3822  00116E  360B               	rlcf	(___lwdiv@quotient+1)^0,f,c
  3823  001170  5008               	movf	___lwdiv@divisor^0,w,c
  3824  001172  5C06               	subwf	___lwdiv@dividend^0,w,c
  3825  001174  5009               	movf	(___lwdiv@divisor+1)^0,w,c
  3826  001176  5807               	subwfb	(___lwdiv@dividend+1)^0,w,c
  3827  001178  A0D8               	btfss	status,0,c
  3828  00117A  EFC1  F008         	goto	u2431
  3829  00117E  EFC3  F008         	goto	u2430
  3830  001182                     u2431:
  3831  001182  EFC8  F008         	goto	l3332
  3832  001186                     u2430:
  3833  001186  5008               	movf	___lwdiv@divisor^0,w,c
  3834  001188  5E06               	subwf	___lwdiv@dividend^0,f,c
  3835  00118A  5009               	movf	(___lwdiv@divisor+1)^0,w,c
  3836  00118C  5A07               	subwfb	(___lwdiv@dividend+1)^0,f,c
  3837  00118E  800A               	bsf	___lwdiv@quotient^0,0,c
  3838  001190                     l3332:
  3839  001190  90D8               	bcf	status,0,c
  3840  001192  3209               	rrcf	(___lwdiv@divisor+1)^0,f,c
  3841  001194  3208               	rrcf	___lwdiv@divisor^0,f,c
  3842  001196  2E0C               	decfsz	___lwdiv@counter^0,f,c
  3843  001198  EFB5  F008         	goto	l3324
  3844  00119C                     l1156:
  3845  00119C  C00A  F006         	movff	___lwdiv@quotient,?___lwdiv
  3846  0011A0  C00B  F007         	movff	___lwdiv@quotient+1,?___lwdiv+1
  3847  0011A4  0012               	return		;funcret
  3848  0011A6                     __end_of___lwdiv:
  3849                           	opt callstack 0
  3850                           
  3851 ;; *************** function _configurarAdc *****************
  3852 ;; Defined at:
  3853 ;;		line 7 in file "./adc.h"
  3854 ;; Parameters:    Size  Location     Type
  3855 ;;		None
  3856 ;; Auto vars:     Size  Location     Type
  3857 ;;		None
  3858 ;; Return value:  Size  Location     Type
  3859 ;;                  1    wreg      void 
  3860 ;; Registers used:
  3861 ;;		wreg, status,2
  3862 ;; Tracked objects:
  3863 ;;		On entry : 0/0
  3864 ;;		On exit  : 0/0
  3865 ;;		Unchanged: 0/0
  3866 ;; Data sizes:     COMRAM   BANK0   BANK1   BANK2   BANK3   BANK4   BANK5   BANK6   BANK7
  3867 ;;      Params:         0       0       0       0       0       0       0       0       0
  3868 ;;      Locals:         0       0       0       0       0       0       0       0       0
  3869 ;;      Temps:          0       0       0       0       0       0       0       0       0
  3870 ;;      Totals:         0       0       0       0       0       0       0       0       0
  3871 ;;Total ram usage:        0 bytes
  3872 ;; Hardware stack levels used:    1
  3873 ;; Hardware stack levels required when called:    2
  3874 ;; This function calls:
  3875 ;;		Nothing
  3876 ;; This function is called by:
  3877 ;;		_main
  3878 ;; This function uses a non-reentrant model
  3879 ;;
  3880                           
  3881                           	psect	text14
  3882  001430                     __ptext14:
  3883                           	opt callstack 0
  3884  001430                     _configurarAdc:
  3885                           	opt callstack 28
  3886  001430                     
  3887                           ;./adc.h: 8:     ADCON1 = 0b00001110;
  3888  001430  0E0E               	movlw	14
  3889  001432  6EC1               	movwf	193,c	;volatile
  3890                           
  3891                           ;./adc.h: 9:     ADCON2 = 0b10100101;
  3892  001434  0EA5               	movlw	165
  3893  001436  6EC0               	movwf	192,c	;volatile
  3894  001438  0012               	return		;funcret
  3895  00143A                     __end_of_configurarAdc:
  3896                           	opt callstack 0
  3897                           
  3898 ;; *************** function _configPwm *****************
  3899 ;; Defined at:
  3900 ;;		line 47 in file "./pwm.h"
  3901 ;; Parameters:    Size  Location     Type
  3902 ;;  channel         1    wreg     unsigned char 
  3903 ;; Auto vars:     Size  Location     Type
  3904 ;;  channel         1    7[COMRAM] unsigned char 
  3905 ;; Return value:  Size  Location     Type
  3906 ;;                  1    wreg      void 
  3907 ;; Registers used:
  3908 ;;		wreg, status,2, status,0
  3909 ;; Tracked objects:
  3910 ;;		On entry : 0/0
  3911 ;;		On exit  : 0/0
  3912 ;;		Unchanged: 0/0
  3913 ;; Data sizes:     COMRAM   BANK0   BANK1   BANK2   BANK3   BANK4   BANK5   BANK6   BANK7
  3914 ;;      Params:         0       0       0       0       0       0       0       0       0
  3915 ;;      Locals:         1       0       0       0       0       0       0       0       0
  3916 ;;      Temps:          2       0       0       0       0       0       0       0       0
  3917 ;;      Totals:         3       0       0       0       0       0       0       0       0
  3918 ;;Total ram usage:        3 bytes
  3919 ;; Hardware stack levels used:    1
  3920 ;; Hardware stack levels required when called:    2
  3921 ;; This function calls:
  3922 ;;		Nothing
  3923 ;; This function is called by:
  3924 ;;		_main
  3925 ;; This function uses a non-reentrant model
  3926 ;;
  3927                           
  3928                           	psect	text15
  3929  00132C                     __ptext15:
  3930                           	opt callstack 0
  3931  00132C                     _configPwm:
  3932                           	opt callstack 28
  3933                           
  3934                           ;incstack = 0
  3935                           ;configPwm@channel stored from wreg
  3936  00132C  6E08               	movwf	configPwm@channel^0,c
  3937  00132E                     
  3938                           ;./pwm.h: 56:         T2CKPS0 = 1;
  3939  00132E  80CA               	bsf	4042,0,c	;volatile
  3940                           
  3941                           ;./pwm.h: 57:         T2CKPS1 = 1;
  3942  001330  82CA               	bsf	4042,1,c	;volatile
  3943  001332                     
  3944                           ;./pwm.h: 61:     PR2 = (4000000 / (500 * 4 * 16)) - 1;
  3945  001332  0E7C               	movlw	124
  3946  001334  6ECB               	movwf	203,c	;volatile
  3947                           
  3948                           ;./pwm.h: 63:     switch (channel) {
  3949  001336  EFA7  F009         	goto	l3628
  3950  00133A                     l163:
  3951                           
  3952                           ;./pwm.h: 66:             TRISC2 = 0;
  3953  00133A  9494               	bcf	3988,2,c	;volatile
  3954                           
  3955                           ;./pwm.h: 67:             CCP1M3 = 1;
  3956  00133C  86BD               	bsf	4029,3,c	;volatile
  3957                           
  3958                           ;./pwm.h: 68:             CCP1M2 = 1;
  3959  00133E  84BD               	bsf	4029,2,c	;volatile
  3960                           
  3961                           ;./pwm.h: 71:             break;
  3962  001340  EFBC  F009         	goto	l164
  3963  001344                     l165:
  3964                           
  3965                           ;./pwm.h: 74:             TRISC1 = 0;
  3966  001344  9294               	bcf	3988,1,c	;volatile
  3967                           
  3968                           ;./pwm.h: 75:             CCP2M3 = 1;
  3969  001346  86BA               	bsf	4026,3,c	;volatile
  3970                           
  3971                           ;./pwm.h: 76:             CCP2M2 = 1;
  3972  001348  84BA               	bsf	4026,2,c	;volatile
  3973                           
  3974                           ;./pwm.h: 77:             break;
  3975  00134A  EFBC  F009         	goto	l164
  3976  00134E                     l3628:
  3977  00134E  5008               	movf	configPwm@channel^0,w,c
  3978  001350  6E06               	movwf	??_configPwm^0,c
  3979  001352  6A07               	clrf	(??_configPwm+1)^0,c
  3980                           
  3981                           ; Switch on 2 bytes has been partitioned into a top level switch of size 1, and 1 sub-sw
      +                          itches
  3982                           ; Switch size 1, requested type "simple"
  3983                           ; Number of cases is 1, Range of values is 0 to 0
  3984                           ; switch strategies available:
  3985                           ; Name         Instructions Cycles
  3986                           ; simple_byte            4     3 (average)
  3987                           ;	Chosen strategy is simple_byte
  3988  001354  5007               	movf	(??_configPwm+1)^0,w,c
  3989  001356  0A00               	xorlw	0	; case 0
  3990  001358  B4D8               	btfsc	status,2,c
  3991  00135A  EFB1  F009         	goto	l5308
  3992  00135E  EFBC  F009         	goto	l164
  3993  001362                     l5308:
  3994                           
  3995                           ; Switch size 1, requested type "simple"
  3996                           ; Number of cases is 2, Range of values is 1 to 2
  3997                           ; switch strategies available:
  3998                           ; Name         Instructions Cycles
  3999                           ; simple_byte            7     4 (average)
  4000                           ;	Chosen strategy is simple_byte
  4001  001362  5006               	movf	??_configPwm^0,w,c
  4002  001364  0A01               	xorlw	1	; case 1
  4003  001366  B4D8               	btfsc	status,2,c
  4004  001368  EF9D  F009         	goto	l163
  4005  00136C  0A03               	xorlw	3	; case 2
  4006  00136E  B4D8               	btfsc	status,2,c
  4007  001370  EFA2  F009         	goto	l165
  4008  001374  EFBC  F009         	goto	l164
  4009  001378                     l164:
  4010                           
  4011                           ;./pwm.h: 81:     TMR2ON = 1;
  4012  001378  84CA               	bsf	4042,2,c	;volatile
  4013  00137A  0012               	return		;funcret
  4014  00137C                     __end_of_configPwm:
  4015                           	opt callstack 0
  4016                           
  4017 ;; *************** function _UART_init *****************
  4018 ;; Defined at:
  4019 ;;		line 13 in file "./UART.h"
  4020 ;; Parameters:    Size  Location     Type
  4021 ;;  BAUD            4   31[COMRAM] long 
  4022 ;; Auto vars:     Size  Location     Type
  4023 ;;  frecuenciaCr    4    0        long 
  4024 ;; Return value:  Size  Location     Type
  4025 ;;                  1    wreg      void 
  4026 ;; Registers used:
  4027 ;;		wreg, status,2, status,0, cstack
  4028 ;; Tracked objects:
  4029 ;;		On entry : 0/0
  4030 ;;		On exit  : 0/0
  4031 ;;		Unchanged: 0/0
  4032 ;; Data sizes:     COMRAM   BANK0   BANK1   BANK2   BANK3   BANK4   BANK5   BANK6   BANK7
  4033 ;;      Params:         4       0       0       0       0       0       0       0       0
  4034 ;;      Locals:         8       0       0       0       0       0       0       0       0
  4035 ;;      Temps:          0       0       0       0       0       0       0       0       0
  4036 ;;      Totals:        12       0       0       0       0       0       0       0       0
  4037 ;;Total ram usage:       12 bytes
  4038 ;; Hardware stack levels used:    1
  4039 ;; Hardware stack levels required when called:    3
  4040 ;; This function calls:
  4041 ;;		___aldiv
  4042 ;; This function is called by:
  4043 ;;		_main
  4044 ;; This function uses a non-reentrant model
  4045 ;;
  4046                           
  4047                           	psect	text16
  4048  0011A6                     __ptext16:
  4049                           	opt callstack 0
  4050  0011A6                     _UART_init:
  4051                           	opt callstack 27
  4052  0011A6                     
  4053                           ;./UART.h: 16:     TRISC6 = 0;
  4054  0011A6  9C94               	bcf	3988,6,c	;volatile
  4055  0011A8                     
  4056                           ;./UART.h: 17:     TRISC7 = 1;
  4057  0011A8  8E94               	bsf	3988,7,c	;volatile
  4058  0011AA                     
  4059                           ;./UART.h: 20:     SPBRG = (frecuenciaCristal / 16 / BAUD) - 1;
  4060  0011AA  0E10               	movlw	16
  4061  0011AC  6E16               	movwf	___aldiv@divisor^0,c
  4062  0011AE  0E00               	movlw	0
  4063  0011B0  6E17               	movwf	(___aldiv@divisor+1)^0,c
  4064  0011B2  0E00               	movlw	0
  4065  0011B4  6E18               	movwf	(___aldiv@divisor+2)^0,c
  4066  0011B6  0E00               	movlw	0
  4067  0011B8  6E19               	movwf	(___aldiv@divisor+3)^0,c
  4068  0011BA  0E00               	movlw	0
  4069  0011BC  6E12               	movwf	___aldiv@dividend^0,c
  4070  0011BE  0E09               	movlw	9
  4071  0011C0  6E13               	movwf	(___aldiv@dividend+1)^0,c
  4072  0011C2  0E3D               	movlw	61
  4073  0011C4  6E14               	movwf	(___aldiv@dividend+2)^0,c
  4074  0011C6  0E00               	movlw	0
  4075  0011C8  6E15               	movwf	(___aldiv@dividend+3)^0,c
  4076  0011CA  EC54  F006         	call	___aldiv	;wreg free
  4077  0011CE  C012  F028         	movff	?___aldiv,_UART_init$1464
  4078  0011D2  C013  F029         	movff	?___aldiv+1,_UART_init$1464+1
  4079  0011D6  C014  F02A         	movff	?___aldiv+2,_UART_init$1464+2
  4080  0011DA  C015  F02B         	movff	?___aldiv+3,_UART_init$1464+3
  4081  0011DE                     
  4082                           ;./UART.h: 20:     SPBRG = (frecuenciaCristal / 16 / BAUD) - 1;
  4083  0011DE  C028  F012         	movff	_UART_init$1464,___aldiv@dividend
  4084  0011E2  C029  F013         	movff	_UART_init$1464+1,___aldiv@dividend+1
  4085  0011E6  C02A  F014         	movff	_UART_init$1464+2,___aldiv@dividend+2
  4086  0011EA  C02B  F015         	movff	_UART_init$1464+3,___aldiv@dividend+3
  4087  0011EE  C020  F016         	movff	UART_init@BAUD,___aldiv@divisor
  4088  0011F2  C021  F017         	movff	UART_init@BAUD+1,___aldiv@divisor+1
  4089  0011F6  C022  F018         	movff	UART_init@BAUD+2,___aldiv@divisor+2
  4090  0011FA  C023  F019         	movff	UART_init@BAUD+3,___aldiv@divisor+3
  4091  0011FE  EC54  F006         	call	___aldiv	;wreg free
  4092  001202  0412               	decf	?___aldiv^0,w,c
  4093  001204  6EAF               	movwf	175,c	;volatile
  4094  001206                     
  4095                           ;./UART.h: 23:     TXSTAbits.BRGH = 1;
  4096  001206  84AC               	bsf	172,2,c	;volatile
  4097  001208                     
  4098                           ;./UART.h: 24:     TXSTAbits.SYNC = 0;
  4099  001208  98AC               	bcf	172,4,c	;volatile
  4100  00120A                     
  4101                           ;./UART.h: 25:     RCSTAbits.SPEN = 1;
  4102  00120A  8EAB               	bsf	171,7,c	;volatile
  4103  00120C                     
  4104                           ;./UART.h: 28:     TXSTAbits.TX9 = 0;
  4105  00120C  9CAC               	bcf	172,6,c	;volatile
  4106  00120E                     
  4107                           ;./UART.h: 29:     TXSTAbits.TXEN = 1;
  4108  00120E  8AAC               	bsf	172,5,c	;volatile
  4109  001210                     
  4110                           ;./UART.h: 32:     RCSTAbits.RC9 = 0;
  4111  001210  9CAB               	bcf	171,6,c	;volatile
  4112  001212                     
  4113                           ;./UART.h: 33:     RCSTAbits.CREN = 1;
  4114  001212  88AB               	bsf	171,4,c	;volatile
  4115  001214  0012               	return		;funcret
  4116  001216                     __end_of_UART_init:
  4117                           	opt callstack 0
  4118                           
  4119 ;; *************** function ___aldiv *****************
  4120 ;; Defined at:
  4121 ;;		line 7 in file "C:\Program Files (x86)\Microchip\xc8\v2.10\pic\sources\c99\common\aldiv.c"
  4122 ;; Parameters:    Size  Location     Type
  4123 ;;  dividend        4   17[COMRAM] long 
  4124 ;;  divisor         4   21[COMRAM] long 
  4125 ;; Auto vars:     Size  Location     Type
  4126 ;;  quotient        4   27[COMRAM] long 
  4127 ;;  sign            1   26[COMRAM] unsigned char 
  4128 ;;  counter         1   25[COMRAM] unsigned char 
  4129 ;; Return value:  Size  Location     Type
  4130 ;;                  4   17[COMRAM] long 
  4131 ;; Registers used:
  4132 ;;		wreg, status,2, status,0
  4133 ;; Tracked objects:
  4134 ;;		On entry : 0/0
  4135 ;;		On exit  : 0/0
  4136 ;;		Unchanged: 0/0
  4137 ;; Data sizes:     COMRAM   BANK0   BANK1   BANK2   BANK3   BANK4   BANK5   BANK6   BANK7
  4138 ;;      Params:         8       0       0       0       0       0       0       0       0
  4139 ;;      Locals:         6       0       0       0       0       0       0       0       0
  4140 ;;      Temps:          0       0       0       0       0       0       0       0       0
  4141 ;;      Totals:        14       0       0       0       0       0       0       0       0
  4142 ;;Total ram usage:       14 bytes
  4143 ;; Hardware stack levels used:    1
  4144 ;; Hardware stack levels required when called:    2
  4145 ;; This function calls:
  4146 ;;		Nothing
  4147 ;; This function is called by:
  4148 ;;		_map
  4149 ;;		_UART_init
  4150 ;; This function uses a non-reentrant model
  4151 ;;
  4152                           
  4153                           	psect	text17
  4154  000CA8                     __ptext17:
  4155                           	opt callstack 0
  4156  000CA8                     ___aldiv:
  4157                           	opt callstack 24
  4158  000CA8  0E00               	movlw	0
  4159  000CAA  6E1B               	movwf	___aldiv@sign^0,c
  4160  000CAC  BE19               	btfsc	(___aldiv@divisor+3)^0,7,c
  4161  000CAE  EF5D  F006         	goto	u1730
  4162  000CB2  EF5B  F006         	goto	u1731
  4163  000CB6                     u1731:
  4164  000CB6  EF67  F006         	goto	l2898
  4165  000CBA                     u1730:
  4166  000CBA  1E19               	comf	(___aldiv@divisor+3)^0,f,c
  4167  000CBC  1E18               	comf	(___aldiv@divisor+2)^0,f,c
  4168  000CBE  1E17               	comf	(___aldiv@divisor+1)^0,f,c
  4169  000CC0  6C16               	negf	___aldiv@divisor^0,c
  4170  000CC2  0E00               	movlw	0
  4171  000CC4  2217               	addwfc	(___aldiv@divisor+1)^0,f,c
  4172  000CC6  2218               	addwfc	(___aldiv@divisor+2)^0,f,c
  4173  000CC8  2219               	addwfc	(___aldiv@divisor+3)^0,f,c
  4174  000CCA  0E01               	movlw	1
  4175  000CCC  6E1B               	movwf	___aldiv@sign^0,c
  4176  000CCE                     l2898:
  4177  000CCE  BE15               	btfsc	(___aldiv@dividend+3)^0,7,c
  4178  000CD0  EF6E  F006         	goto	u1740
  4179  000CD4  EF6C  F006         	goto	u1741
  4180  000CD8                     u1741:
  4181  000CD8  EF78  F006         	goto	l2904
  4182  000CDC                     u1740:
  4183  000CDC  1E15               	comf	(___aldiv@dividend+3)^0,f,c
  4184  000CDE  1E14               	comf	(___aldiv@dividend+2)^0,f,c
  4185  000CE0  1E13               	comf	(___aldiv@dividend+1)^0,f,c
  4186  000CE2  6C12               	negf	___aldiv@dividend^0,c
  4187  000CE4  0E00               	movlw	0
  4188  000CE6  2213               	addwfc	(___aldiv@dividend+1)^0,f,c
  4189  000CE8  2214               	addwfc	(___aldiv@dividend+2)^0,f,c
  4190  000CEA  2215               	addwfc	(___aldiv@dividend+3)^0,f,c
  4191  000CEC  0E01               	movlw	1
  4192  000CEE  1A1B               	xorwf	___aldiv@sign^0,f,c
  4193  000CF0                     l2904:
  4194  000CF0  0E00               	movlw	0
  4195  000CF2  6E1C               	movwf	___aldiv@quotient^0,c
  4196  000CF4  0E00               	movlw	0
  4197  000CF6  6E1D               	movwf	(___aldiv@quotient+1)^0,c
  4198  000CF8  0E00               	movlw	0
  4199  000CFA  6E1E               	movwf	(___aldiv@quotient+2)^0,c
  4200  000CFC  0E00               	movlw	0
  4201  000CFE  6E1F               	movwf	(___aldiv@quotient+3)^0,c
  4202  000D00  5016               	movf	___aldiv@divisor^0,w,c
  4203  000D02  1017               	iorwf	(___aldiv@divisor+1)^0,w,c
  4204  000D04  1018               	iorwf	(___aldiv@divisor+2)^0,w,c
  4205  000D06  1019               	iorwf	(___aldiv@divisor+3)^0,w,c
  4206  000D08  B4D8               	btfsc	status,2,c
  4207  000D0A  EF89  F006         	goto	u1751
  4208  000D0E  EF8B  F006         	goto	u1750
  4209  000D12                     u1751:
  4210  000D12  EFC1  F006         	goto	l2926
  4211  000D16                     u1750:
  4212  000D16  0E01               	movlw	1
  4213  000D18  6E1A               	movwf	___aldiv@counter^0,c
  4214  000D1A  EF95  F006         	goto	l2912
  4215  000D1E                     l2910:
  4216  000D1E  90D8               	bcf	status,0,c
  4217  000D20  3616               	rlcf	___aldiv@divisor^0,f,c
  4218  000D22  3617               	rlcf	(___aldiv@divisor+1)^0,f,c
  4219  000D24  3618               	rlcf	(___aldiv@divisor+2)^0,f,c
  4220  000D26  3619               	rlcf	(___aldiv@divisor+3)^0,f,c
  4221  000D28  2A1A               	incf	___aldiv@counter^0,f,c
  4222  000D2A                     l2912:
  4223  000D2A  AE19               	btfss	(___aldiv@divisor+3)^0,7,c
  4224  000D2C  EF9A  F006         	goto	u1761
  4225  000D30  EF9C  F006         	goto	u1760
  4226  000D34                     u1761:
  4227  000D34  EF8F  F006         	goto	l2910
  4228  000D38                     u1760:
  4229  000D38                     l2914:
  4230  000D38  90D8               	bcf	status,0,c
  4231  000D3A  361C               	rlcf	___aldiv@quotient^0,f,c
  4232  000D3C  361D               	rlcf	(___aldiv@quotient+1)^0,f,c
  4233  000D3E  361E               	rlcf	(___aldiv@quotient+2)^0,f,c
  4234  000D40  361F               	rlcf	(___aldiv@quotient+3)^0,f,c
  4235  000D42  5016               	movf	___aldiv@divisor^0,w,c
  4236  000D44  5C12               	subwf	___aldiv@dividend^0,w,c
  4237  000D46  5017               	movf	(___aldiv@divisor+1)^0,w,c
  4238  000D48  5813               	subwfb	(___aldiv@dividend+1)^0,w,c
  4239  000D4A  5018               	movf	(___aldiv@divisor+2)^0,w,c
  4240  000D4C  5814               	subwfb	(___aldiv@dividend+2)^0,w,c
  4241  000D4E  5019               	movf	(___aldiv@divisor+3)^0,w,c
  4242  000D50  5815               	subwfb	(___aldiv@dividend+3)^0,w,c
  4243  000D52  A0D8               	btfss	status,0,c
  4244  000D54  EFAE  F006         	goto	u1771
  4245  000D58  EFB0  F006         	goto	u1770
  4246  000D5C                     u1771:
  4247  000D5C  EFB9  F006         	goto	l2922
  4248  000D60                     u1770:
  4249  000D60  5016               	movf	___aldiv@divisor^0,w,c
  4250  000D62  5E12               	subwf	___aldiv@dividend^0,f,c
  4251  000D64  5017               	movf	(___aldiv@divisor+1)^0,w,c
  4252  000D66  5A13               	subwfb	(___aldiv@dividend+1)^0,f,c
  4253  000D68  5018               	movf	(___aldiv@divisor+2)^0,w,c
  4254  000D6A  5A14               	subwfb	(___aldiv@dividend+2)^0,f,c
  4255  000D6C  5019               	movf	(___aldiv@divisor+3)^0,w,c
  4256  000D6E  5A15               	subwfb	(___aldiv@dividend+3)^0,f,c
  4257  000D70  801C               	bsf	___aldiv@quotient^0,0,c
  4258  000D72                     l2922:
  4259  000D72  90D8               	bcf	status,0,c
  4260  000D74  3219               	rrcf	(___aldiv@divisor+3)^0,f,c
  4261  000D76  3218               	rrcf	(___aldiv@divisor+2)^0,f,c
  4262  000D78  3217               	rrcf	(___aldiv@divisor+1)^0,f,c
  4263  000D7A  3216               	rrcf	___aldiv@divisor^0,f,c
  4264  000D7C  2E1A               	decfsz	___aldiv@counter^0,f,c
  4265  000D7E  EF9C  F006         	goto	l2914
  4266  000D82                     l2926:
  4267  000D82  501B               	movf	___aldiv@sign^0,w,c
  4268  000D84  B4D8               	btfsc	status,2,c
  4269  000D86  EFC7  F006         	goto	u1781
  4270  000D8A  EFC9  F006         	goto	u1780
  4271  000D8E                     u1781:
  4272  000D8E  EFD1  F006         	goto	l2930
  4273  000D92                     u1780:
  4274  000D92  1E1F               	comf	(___aldiv@quotient+3)^0,f,c
  4275  000D94  1E1E               	comf	(___aldiv@quotient+2)^0,f,c
  4276  000D96  1E1D               	comf	(___aldiv@quotient+1)^0,f,c
  4277  000D98  6C1C               	negf	___aldiv@quotient^0,c
  4278  000D9A  0E00               	movlw	0
  4279  000D9C  221D               	addwfc	(___aldiv@quotient+1)^0,f,c
  4280  000D9E  221E               	addwfc	(___aldiv@quotient+2)^0,f,c
  4281  000DA0  221F               	addwfc	(___aldiv@quotient+3)^0,f,c
  4282  000DA2                     l2930:
  4283  000DA2  C01C  F012         	movff	___aldiv@quotient,?___aldiv
  4284  000DA6  C01D  F013         	movff	___aldiv@quotient+1,?___aldiv+1
  4285  000DAA  C01E  F014         	movff	___aldiv@quotient+2,?___aldiv+2
  4286  000DAE  C01F  F015         	movff	___aldiv@quotient+3,?___aldiv+3
  4287  000DB2  0012               	return		;funcret
  4288  000DB4                     __end_of___aldiv:
  4289                           	opt callstack 0
  4290                           
  4291 ;; *************** function _boton *****************
  4292 ;; Defined at:
  4293 ;;		line 106 in file "main.c"
  4294 ;; Parameters:    Size  Location     Type
  4295 ;;		None
  4296 ;; Auto vars:     Size  Location     Type
  4297 ;;		None
  4298 ;; Return value:  Size  Location     Type
  4299 ;;                  1    wreg      void 
  4300 ;; Registers used:
  4301 ;;		wreg, status,2, status,0, cstack
  4302 ;; Tracked objects:
  4303 ;;		On entry : 0/0
  4304 ;;		On exit  : 0/0
  4305 ;;		Unchanged: 0/0
  4306 ;; Data sizes:     COMRAM   BANK0   BANK1   BANK2   BANK3   BANK4   BANK5   BANK6   BANK7
  4307 ;;      Params:         0       0       0       0       0       0       0       0       0
  4308 ;;      Locals:         0       0       0       0       0       0       0       0       0
  4309 ;;      Temps:          2       0       0       0       0       0       0       0       0
  4310 ;;      Totals:         2       0       0       0       0       0       0       0       0
  4311 ;;Total ram usage:        2 bytes
  4312 ;; Hardware stack levels used:    1
  4313 ;; Hardware stack levels required when called:    1
  4314 ;; This function calls:
  4315 ;;		_antiRebote
  4316 ;; This function is called by:
  4317 ;;		Interrupt level 2
  4318 ;; This function uses a non-reentrant model
  4319 ;;
  4320                           
  4321                           	psect	intcode
  4322  000008                     __pintcode:
  4323                           	opt callstack 0
  4324  000008                     _boton:
  4325                           	opt callstack 24
  4326                           
  4327                           ;incstack = 0
  4328  000008  825A               	bsf	int$flags,1,c	;set compiler interrupt flag (level 2)
  4329  00000A  ED6C  F009         	call	int_func,f	;refresh shadow registers
  4330                           
  4331                           	psect	intcode_body
  4332  0012D8                     __pintcode_body:
  4333                           	opt callstack 24
  4334  0012D8                     int_func:
  4335                           	opt callstack 24
  4336  0012D8  0006               	pop		; remove dummy address from shadow register refresh
  4337  0012DA                     
  4338                           ;main.c: 108:     if (INT0IF)
  4339  0012DA  A2F2               	btfss	4082,1,c	;volatile
  4340  0012DC  EF72  F009         	goto	i2u313_41
  4341  0012E0  EF74  F009         	goto	i2u313_40
  4342  0012E4                     i2u313_41:
  4343  0012E4  EF94  F009         	goto	i2l264
  4344  0012E8                     i2u313_40:
  4345  0012E8                     
  4346                           ;main.c: 109:     {;main.c: 110:         antiRebote(1);
  4347  0012E8  0E01               	movlw	1
  4348  0012EA  EC40  F009         	call	_antiRebote
  4349  0012EE                     
  4350                           ;main.c: 111:         if (pausa) {
  4351  0012EE  0100               	movlb	0	; () banked
  4352  0012F0  51DA               	movf	_pausa& (0+255),w,b
  4353  0012F2  B4D8               	btfsc	status,2,c
  4354  0012F4  EF7E  F009         	goto	i2u314_41
  4355  0012F8  EF80  F009         	goto	i2u314_40
  4356  0012FC                     i2u314_41:
  4357  0012FC  EF90  F009         	goto	i2l262
  4358  001300                     i2u314_40:
  4359  001300                     
  4360                           ; BSR set to: 0
  4361                           ;main.c: 112:             pausa = 0;
  4362  001300  0E00               	movlw	0
  4363  001302  6FDA               	movwf	_pausa& (0+255),b
  4364  001304                     
  4365                           ; BSR set to: 0
  4366                           ;main.c: 113:             LATD2 = 1;
  4367  001304  848C               	bsf	3980,2,c	;volatile
  4368  001306                     
  4369                           ; BSR set to: 0
  4370                           ;main.c: 114:             _delay((unsigned long)((3000)*(4000000/4000.0)));
  4371  001306  0E10               	movlw	16
  4372  001308  6E05               	movwf	(??_boton+1)^0,c
  4373  00130A  0E39               	movlw	57
  4374  00130C  6E04               	movwf	??_boton^0,c
  4375  00130E  0E0E               	movlw	14
  4376  001310                     i2u449_47:
  4377  001310  2EE8               	decfsz	wreg,f,c
  4378  001312  D7FE               	bra	i2u449_47
  4379  001314  2E04               	decfsz	??_boton^0,f,c
  4380  001316  D7FC               	bra	i2u449_47
  4381  001318  2E05               	decfsz	(??_boton+1)^0,f,c
  4382  00131A  D7FA               	bra	i2u449_47
  4383                           
  4384                           ;main.c: 115:         } else {
  4385  00131C  EF93  F009         	goto	i2l3842
  4386  001320                     i2l262:
  4387                           
  4388                           ; BSR set to: 0
  4389                           ;main.c: 116:             LATD2 = 0;
  4390  001320  948C               	bcf	3980,2,c	;volatile
  4391  001322                     
  4392                           ; BSR set to: 0
  4393                           ;main.c: 117:             pausa = 1;
  4394  001322  0E01               	movlw	1
  4395  001324  6FDA               	movwf	_pausa& (0+255),b
  4396  001326                     i2l3842:
  4397                           
  4398                           ;main.c: 120:         INT0IF = 0;
  4399  001326  92F2               	bcf	4082,1,c	;volatile
  4400  001328                     i2l264:
  4401  001328  925A               	bcf	int$flags,1,c	;clear compiler interrupt flag (level 2)
  4402  00132A  0011               	retfie		f
  4403  00132C                     __end_of_boton:
  4404                           	opt callstack 0
  4405                           
  4406 ;; *************** function _antiRebote *****************
  4407 ;; Defined at:
  4408 ;;		line 218 in file "main.c"
  4409 ;; Parameters:    Size  Location     Type
  4410 ;;  pin             1    wreg     unsigned char 
  4411 ;; Auto vars:     Size  Location     Type
  4412 ;;  pin             1    2[COMRAM] unsigned char 
  4413 ;; Return value:  Size  Location     Type
  4414 ;;                  1    wreg      void 
  4415 ;; Registers used:
  4416 ;;		wreg, status,2, status,0
  4417 ;; Tracked objects:
  4418 ;;		On entry : 0/0
  4419 ;;		On exit  : 0/0
  4420 ;;		Unchanged: 0/0
  4421 ;; Data sizes:     COMRAM   BANK0   BANK1   BANK2   BANK3   BANK4   BANK5   BANK6   BANK7
  4422 ;;      Params:         0       0       0       0       0       0       0       0       0
  4423 ;;      Locals:         1       0       0       0       0       0       0       0       0
  4424 ;;      Temps:          2       0       0       0       0       0       0       0       0
  4425 ;;      Totals:         3       0       0       0       0       0       0       0       0
  4426 ;;Total ram usage:        3 bytes
  4427 ;; Hardware stack levels used:    1
  4428 ;; This function calls:
  4429 ;;		Nothing
  4430 ;; This function is called by:
  4431 ;;		_boton
  4432 ;; This function uses a non-reentrant model
  4433 ;;
  4434                           
  4435                           	psect	text19
  4436  001280                     __ptext19:
  4437                           	opt callstack 0
  4438  001280                     _antiRebote:
  4439                           	opt callstack 24
  4440                           
  4441                           ;incstack = 0
  4442                           ;antiRebote@pin stored from wreg
  4443  001280  6E03               	movwf	antiRebote@pin^0,c
  4444  001282                     
  4445                           ;main.c: 220:     switch (pin) {
  4446  001282  EF5A  F009         	goto	i2l3674
  4447  001286                     i2l298:
  4448  001286  A081               	btfss	129,0,c	;volatile
  4449  001288  EF48  F009         	goto	i2u298_41
  4450  00128C  EF4A  F009         	goto	i2u298_40
  4451  001290                     i2u298_41:
  4452  001290  EF43  F009         	goto	i2l298
  4453  001294                     i2u298_40:
  4454  001294                     i2l301:
  4455  001294  B081               	btfsc	129,0,c	;volatile
  4456  001296  EF4F  F009         	goto	i2u299_41
  4457  00129A  EF51  F009         	goto	i2u299_40
  4458  00129E                     i2u299_41:
  4459  00129E  EF4A  F009         	goto	i2l301
  4460  0012A2                     i2u299_40:
  4461  0012A2                     
  4462                           ;main.c: 224:             _delay((unsigned long)((100)*(4000000/4000.0)));
  4463  0012A2  0E82               	movlw	130
  4464  0012A4  6E01               	movwf	??_antiRebote^0,c
  4465  0012A6  0EDE               	movlw	222
  4466  0012A8                     i2u450_47:
  4467  0012A8  2EE8               	decfsz	wreg,f,c
  4468  0012AA  D7FE               	bra	i2u450_47
  4469  0012AC  2E01               	decfsz	??_antiRebote^0,f,c
  4470  0012AE  D7FC               	bra	i2u450_47
  4471                           
  4472                           ;main.c: 225:             break;
  4473  0012B0  EF6B  F009         	goto	i2l306
  4474  0012B4                     i2l3674:
  4475  0012B4  5003               	movf	antiRebote@pin^0,w,c
  4476  0012B6  6E01               	movwf	??_antiRebote^0,c
  4477  0012B8  6A02               	clrf	(??_antiRebote+1)^0,c
  4478                           
  4479                           ; Switch on 2 bytes has been partitioned into a top level switch of size 1, and 1 sub-sw
      +                          itches
  4480                           ; Switch size 1, requested type "simple"
  4481                           ; Number of cases is 1, Range of values is 0 to 0
  4482                           ; switch strategies available:
  4483                           ; Name         Instructions Cycles
  4484                           ; simple_byte            4     3 (average)
  4485                           ;	Chosen strategy is simple_byte
  4486  0012BA  5002               	movf	(??_antiRebote+1)^0,w,c
  4487  0012BC  0A00               	xorlw	0	; case 0
  4488  0012BE  B4D8               	btfsc	status,2,c
  4489  0012C0  EF64  F009         	goto	i2l5310
  4490  0012C4  EF6B  F009         	goto	i2l306
  4491  0012C8                     i2l5310:
  4492                           
  4493                           ; Switch size 1, requested type "simple"
  4494                           ; Number of cases is 1, Range of values is 1 to 1
  4495                           ; switch strategies available:
  4496                           ; Name         Instructions Cycles
  4497                           ; simple_byte            4     3 (average)
  4498                           ;	Chosen strategy is simple_byte
  4499  0012C8  5001               	movf	??_antiRebote^0,w,c
  4500  0012CA  0A01               	xorlw	1	; case 1
  4501  0012CC  B4D8               	btfsc	status,2,c
  4502  0012CE  EF43  F009         	goto	i2l298
  4503  0012D2  EF6B  F009         	goto	i2l306
  4504  0012D6                     i2l306:
  4505  0012D6  0012               	return		;funcret
  4506  0012D8                     __end_of_antiRebote:
  4507                           	opt callstack 0
  4508                           
  4509                           	psect	rparam
  4510  0000                     
  4511                           	psect	temp
  4512  00005A                     btemp:
  4513                           	opt callstack 0
  4514  00005A                     	ds	1
  4515  0000                     int$flags	set	btemp
  4516  0000                     wtemp8	set	btemp+1
  4517  0000                     ttemp5	set	btemp+1
  4518  0000                     ttemp6	set	btemp+4
  4519  0000                     ttemp7	set	btemp+8
  4520                           tosu	equ	0xFFF
  4521                           tosh	equ	0xFFE
  4522                           tosl	equ	0xFFD
  4523                           stkptr	equ	0xFFC
  4524                           pclatu	equ	0xFFB
  4525                           pclath	equ	0xFFA
  4526                           pcl	equ	0xFF9
  4527                           tblptru	equ	0xFF8
  4528                           tblptrh	equ	0xFF7
  4529                           tblptrl	equ	0xFF6
  4530                           tablat	equ	0xFF5
  4531                           prodh	equ	0xFF4
  4532                           prodl	equ	0xFF3
  4533                           indf0	equ	0xFEF
  4534                           postinc0	equ	0xFEE
  4535                           postdec0	equ	0xFED
  4536                           preinc0	equ	0xFEC
  4537                           plusw0	equ	0xFEB
  4538                           fsr0h	equ	0xFEA
  4539                           fsr0l	equ	0xFE9
  4540                           wreg	equ	0xFE8
  4541                           indf1	equ	0xFE7
  4542                           postinc1	equ	0xFE6
  4543                           postdec1	equ	0xFE5
  4544                           preinc1	equ	0xFE4
  4545                           plusw1	equ	0xFE3
  4546                           fsr1h	equ	0xFE2
  4547                           fsr1l	equ	0xFE1
  4548                           bsr	equ	0xFE0
  4549                           indf2	equ	0xFDF
  4550                           postinc2	equ	0xFDE
  4551                           postdec2	equ	0xFDD
  4552                           preinc2	equ	0xFDC
  4553                           plusw2	equ	0xFDB
  4554                           fsr2h	equ	0xFDA
  4555                           fsr2l	equ	0xFD9
  4556                           status	equ	0xFD8


Data Sizes:
    Strings     324
    Constant    4
    Data        1
    BSS         260
    Persistent  0
    Stack       0

Auto Spaces:
    Space          Size  Autos    Used
    COMRAM           94     84      89
    BANK0           160     17     123
    BANK1           256      0     150
    BANK2           256      0       0
    BANK3           256      0       0
    BANK4           256      0       0
    BANK5           256      0       0
    BANK6           256      0       0
    BANK7           256      0       0

Pointer List with Targets:

    vfprintf$2	PTR PTR void  size(2) Largest target is 2
		 -> sprintf@ap(COMRAM[2]), 

    vfprintf$1	PTR const unsigned char  size(2) Largest target is 34
		 -> STR_11(CODE[32]), STR_6(CODE[17]), STR_5(CODE[19]), STR_4(CODE[18]), 
		 -> STR_3(CODE[34]), 

    vfprintf$0	PTR struct _IO_FILE size(2) Largest target is 7
		 -> sprintf@f(COMRAM[6]), 

    S1211_IO_FILE$buffer	PTR unsigned char  size(2) Largest target is 50
		 -> buffer(BANK0[50]), 

    f.buffer	PTR unsigned char  size(2) Largest target is 50
		 -> buffer(BANK0[50]), 


Critical Paths under _main in COMRAM

    _probarGirosAuto->_mover
    _pwmDuty->___fltol
    _map->___aldiv
    ___fltol->___flmul
    ___flmul->___fldiv
    ___fldiv->___xxtofl
    _dameDistancia->___xxtofl
    ___xxtofl->___lwdiv
    _UART_init->___aldiv
    ___aldiv->___lmul

Critical Paths under _boton in COMRAM

    _boton->_antiRebote

Critical Paths under _main in BANK0

    _velocidadEstandar->_pwmDuty
    _pwmDuty->___fltol

Critical Paths under _boton in BANK0

    None.

Critical Paths under _main in BANK1

    None.

Critical Paths under _boton in BANK1

    None.

Critical Paths under _main in BANK2

    None.

Critical Paths under _boton in BANK2

    None.

Critical Paths under _main in BANK3

    None.

Critical Paths under _boton in BANK3

    None.

Critical Paths under _main in BANK4

    None.

Critical Paths under _boton in BANK4

    None.

Critical Paths under _main in BANK5

    None.

Critical Paths under _boton in BANK5

    None.

Critical Paths under _main in BANK6

    None.

Critical Paths under _boton in BANK6

    None.

Critical Paths under _main in BANK7

    None.

Critical Paths under _boton in BANK7

    None.

Call Graph Tables:

 ---------------------------------------------------------------------------------
 (Depth) Function   	        Calls       Base Space   Used Autos Params    Refs
 ---------------------------------------------------------------------------------
 (0) _main                                                 3     3      0    9967
                                             14 BANK0      3     3      0
                          _UART_init
                          _configPwm
                      _configurarAdc
    _inicializarComportamientoBasico
                    _probarGirosAuto
 ---------------------------------------------------------------------------------
 (1) _probarGirosAuto                                      6     6      0      92
                                              7 COMRAM     6     6      0
                              _mover
 ---------------------------------------------------------------------------------
 (2) _mover                                                2     2      0       0
                                              5 COMRAM     2     2      0
 ---------------------------------------------------------------------------------
 (1) _inicializarComportamientoBasico                      0     0      0    8910
                      _dameDistancia
                  _velocidadEstandar
 ---------------------------------------------------------------------------------
 (2) _velocidadEstandar                                    0     0      0    7898
                            _pwmDuty
 ---------------------------------------------------------------------------------
 (3) _pwmDuty                                             12     9      3    7898
                                              2 BANK0     12     9      3
                            ___fldiv
                            ___flmul
                            ___fltol
                           ___xxtofl
                                _map
 ---------------------------------------------------------------------------------
 (4) _map                                                 20     0     20    1660
                                             31 COMRAM    20     0     20
                            ___aldiv
                             ___lmul
 ---------------------------------------------------------------------------------
 (5) ___lmul                                              12     4      8     370
                                              5 COMRAM    12     4      8
 ---------------------------------------------------------------------------------
 (4) ___fltol                                             10     6      4     607
                                             76 COMRAM     8     4      4
                                              0 BANK0      2     2      0
                            ___fldiv (ARG)
                            ___flmul (ARG)
                           ___xxtofl (ARG)
 ---------------------------------------------------------------------------------
 (4) ___flmul                                             25    17      8    2176
                                             51 COMRAM    25    17      8
                            ___fldiv (ARG)
                           ___xxtofl (ARG)
 ---------------------------------------------------------------------------------
 (4) ___fldiv                                             25    17      8    1855
                                             26 COMRAM    25    17      8
                           ___xxtofl (ARG)
 ---------------------------------------------------------------------------------
 (2) _dameDistancia                                       13     9      4    1012
                                             26 COMRAM    13     9      4
                            ___lwdiv
                           ___xxtofl
 ---------------------------------------------------------------------------------
 (4) ___xxtofl                                            14    10      4     626
                                             12 COMRAM    14    10      4
                            ___lwdiv (ARG)
 ---------------------------------------------------------------------------------
 (3) ___lwdiv                                              7     3      4     314
                                              5 COMRAM     7     3      4
 ---------------------------------------------------------------------------------
 (1) _configurarAdc                                        0     0      0       0
 ---------------------------------------------------------------------------------
 (1) _configPwm                                            3     3      0      22
                                              5 COMRAM     3     3      0
 ---------------------------------------------------------------------------------
 (1) _UART_init                                           12     8      4     900
                                             31 COMRAM    12     8      4
                            ___aldiv
 ---------------------------------------------------------------------------------
 (5) ___aldiv                                             14     6      8     756
                                             17 COMRAM    14     6      8
                             ___lmul (ARG)
 ---------------------------------------------------------------------------------
 Estimated maximum stack depth 5
 ---------------------------------------------------------------------------------
 (Depth) Function   	        Calls       Base Space   Used Autos Params    Refs
 ---------------------------------------------------------------------------------
 (6) _boton                                                2     2      0      22
                                              3 COMRAM     2     2      0
                         _antiRebote
 ---------------------------------------------------------------------------------
 (7) _antiRebote                                           3     3      0      22
                                              0 COMRAM     3     3      0
 ---------------------------------------------------------------------------------
 Estimated maximum stack depth 7
 ---------------------------------------------------------------------------------

 Call Graph Graphs:

 _main (ROOT)
   _UART_init
     ___aldiv
       ___lmul (ARG)
   _configPwm
   _configurarAdc
   _inicializarComportamientoBasico
     _dameDistancia
       ___lwdiv
       ___xxtofl
         ___lwdiv (ARG)
     _velocidadEstandar
       _pwmDuty
         ___fldiv
           ___xxtofl (ARG)
             ___lwdiv (ARG)
         ___flmul
           ___fldiv (ARG)
             ___xxtofl (ARG)
               ___lwdiv (ARG)
           ___xxtofl (ARG)
             ___lwdiv (ARG)
         ___fltol
           ___fldiv (ARG)
             ___xxtofl (ARG)
               ___lwdiv (ARG)
           ___flmul (ARG)
             ___fldiv (ARG)
               ___xxtofl (ARG)
                 ___lwdiv (ARG)
             ___xxtofl (ARG)
               ___lwdiv (ARG)
           ___xxtofl (ARG)
             ___lwdiv (ARG)
         ___xxtofl
           ___lwdiv (ARG)
         _map
           ___aldiv
             ___lmul (ARG)
           ___lmul
   _probarGirosAuto
     _mover

 _boton (ROOT)
   _antiRebote

 Address spaces:
Name               Size   Autos  Total    Cost      Usage
BIGRAM             7FF      0       0      21        0.0%
EEDATA             100      0       0       0        0.0%
BITBANK7           100      0       0      18        0.0%
BANK7              100      0       0      19        0.0%
BITBANK6           100      0       0      16        0.0%
BANK6              100      0       0      17        0.0%
BITBANK5           100      0       0      14        0.0%
BANK5              100      0       0      15        0.0%
BITBANK4           100      0       0      12        0.0%
BANK4              100      0       0      13        0.0%
BITBANK3           100      0       0      10        0.0%
BANK3              100      0       0      11        0.0%
BITBANK2           100      0       0       8        0.0%
BANK2              100      0       0       9        0.0%
BITBANK1           100      0       0       6        0.0%
BANK1              100      0      96       7       58.6%
BITBANK0            A0      0       0       4        0.0%
BANK0               A0     11      7B       5       76.9%
BITCOMRAM           5E      0       0       0        0.0%
COMRAM              5E     54      59       1       94.7%
BITSFR               0      0       0     200        0.0%
SFR                  0      0       0     200        0.0%
STACK                0      0       0       2        0.0%
NULL                 0      0       0       0        0.0%
ABS                  0      0     16A      20        0.0%
DATA                 0      0     16A       3        0.0%
CODE                 0      0       0       0        0.0%


Microchip Technology PIC18 Macro Assembler V2.10 build 88905656 
Symbol Table                                                                                   Wed Aug 19 23:28:40 2020

                             ___fldiv@aexp 0033                               ___fldiv@bexp 0032  
                             ___fldiv@sign 002B                             ?_configurarAdc 0001  
                              __CFG_BORV$3 000000                               __CFG_CP0$OFF 000000  
                             __CFG_CP1$OFF 000000                               __CFG_CP2$OFF 000000  
                             __CFG_CP3$OFF 000000            comportamientoBasico@caminoFinal 0100  
                                      l202 0BC6                                        l212 0CA6  
                                      l204 0BD4                                        l205 0BD6  
                                      l215 1214                                        l160 132E  
                                      l163 133A                                        l147 1130  
                                      l155 0990                                        l403 0F8A  
                                      l164 1378                                        l236 1438  
                                      l165 1344                                        l309 13C6  
                                      l405 0F96                                        l166 137A  
                                      l406 0FBA                                        l191 0C28  
                                      l183 0B66                                        l407 0FDE  
                                      l408 1024                                        l193 0B96  
                                      l185 0B74                                        l186 0B76  
                                      l195 0BA4                                        l196 0BA6  
                                      l284 0F84                                        l645 142E  
                                      l744 0DB2                                        l676 126E  
                                      l677 127E                                        l962 0EBA  
                             __CFG_CPB$OFF 000000                                        _PR2 000FCB  
                             __CFG_CPD$OFF 000000                               __CFG_BOR$OFF 000000  
                                      _map 10B8                                        wreg 000FE8  
                             ___flmul@aexp 0045                               ___flmul@bexp 0046  
                 _DISTANCIA_PRIORIDAD_BAJA 0064                   _DISTANCIA_PRIORIDAD_ALTA 006C  
                 __size_of_probarGirosAuto 00CA                               ___flmul@sign 0040  
                             ___flmul@temp 004B                               ___flmul@prod 0047  
                             __CFG_LVP$OFF 000000                               ___fltol@exp1 00CA  
                             __CFG_WDT$OFF 000000                                       l1320 09E8  
                                     l3000 059C                                       l3010 05E8  
                                     l3002 05AC                                       l1163 11A4  
                                     l1323 0B44                                       l1156 119C  
                                     l1260 06F2                                       l3020 0632  
                                     l3012 05F6                                       l1252 05F8  
                                     l3004 05BC                                       l3100 0090  
                                     l1261 06E0                                       l1334 0ADC  
                                     l3030 0678                                       l3022 0644  
                                     l3014 0602                                       l3006 05C4  
                                     l3110 00E6                                       l3102 00A0  
                                     l1327 0A80                                       l1247 07D4  
                                     l3040 06D8                                       l3024 065A  
                                     l3032 068A                                       l3016 0620  
                                     l3008 05D4                                       l3200 0426  
                                     l3120 0120                                       l3112 00F6  
                                     l3104 00B0                                       l1249 0634  
                                     l3050 0746                                       l3034 0698  
                                     l1258 067A                                       l3026 0660  
                                     l3018 0622                                       l3202 042A  
                                     l3130 0172                                       l3122 0136  
                                     l3106 00C0                                       l1283 043A  
                                     l3060 07B0                                       l3044 0702  
                                     l3052 074A                                       l3036 069C  
                                     l3028 066A                                       l3140 01B8  
                                     l3132 0180                                       l3124 0142  
                                     l3116 010A                                       l3108 00C6  
                                     l3062 07B4                                       l3054 0764  
                                     l3046 070E                                       l3038 06AA  
                                     l1286 02CC                                       l3150 0226  
                                     l3142 01D2                                       l3134 018C  
                                     l3126 015A                                       l3118 0116  
                                     l1279 00D6                                       l3320 1154  
                                     l3064 07C2                                       l3056 077A  
                                     l3048 071C                                       l1296 03FC  
                                     l1288 0344                                       l3160 02BC  
                                     l3152 0250                                       l3144 01E2  
                                     l3136 019C                                       l3128 0166  
                                     l3080 002C                                       l1289 0332  
                                     l3330 118E                                       l3322 115C  
                                     l3314 1132                                       l3250 0994  
                                     l3066 07C8                                       l3058 0794  
                                     l3170 02FC                                       l3162 02CA  
                                     l3154 0286                                       l3146 01FE  
                                     l3138 01A8                                       l3090 0064  
                                     l3082 002E                                       l3332 1190  
                                     l3324 116A                                       l3316 113A  
                                     l3252 09A4                                       l3340 0B5A  
                                     l3068 07CA                                       l3180 036E  
                                     l3172 032A                                       l3164 02DC  
                                     l3156 0294                                       l3148 020A  
                                     l3092 0074                                       l3084 003E  
                                     l3076 0012                                       l3334 1196  
                                     l3326 1170                                       l3318 114C  
                                     l3270 0A6A                                       l3262 0A22  
                                     l3254 09B2                                       l3342 0B60  
                                     l3190 03E4                                       l3182 0398  
                                     l3166 02EA                                       l3158 02B2  
                                     l3094 007A                                       l3086 004E  
                                     l3078 001E                                       l3328 1186  
                                     l3280 0AEA                                       l3272 0A76  
                                     l3264 0A2A                                       l3256 09F8  
                                     l3360 0C84                                       l3344 0B84  
                                     l3352 0BF6                                       l3336 0B48  
                                     l3192 0400                                       l3176 0354  
                                     l3184 039C                                       l3168 02EE  
                                     l3096 0080                                       l3088 005E  
                                     l5200 10AC                                       l3290 0B32  
                                     l3282 0AEC                                       l3274 0AB2  
                                     l3266 0A36                                       l3258 0A0E  
                                     l3362 0C96                                       l3354 0C38  
                                     l3346 0BB4                                       l3338 0B58  
                                     l3194 0410                                       l3186 03B6  
                                     l3178 0360                                       l3098 008E  
                                     l2900 0CDC                                       l3292 0B34  
                                     l3284 0AF0                                       l3276 0ABE  
                                     l3268 0A68                                       l3356 0C4A  
                                     l3348 0BE4                                       l3196 041E  
                                     l3188 03CA                                       l2910 0D1E  
                                     l2902 0CEC                                       l3286 0B14  
                                     l3278 0ACC                                       l3358 0C84  
                                     l3198 0420                                       l5302 0FFE  
                                     l3390 0FC2                                       l3710 0EEA  
                                     l3702 0EC4                                       l5150 1032  
                                     l5142 1026                                       l2920 0D70  
                                     l2912 0D2A                                       l2904 0CF0  
                                     l3640 11AA                                       l3624 1332  
                                     l3288 0B24                                       l5304 097A  
                                     l3712 0EEE                                       l3704 0EC8  
                                     l5160 103C                                       l5152 1034  
                                     l5144 102C                                       l2930 0DA2  
                                     l2922 0D72                                       l2914 0D38  
                                     l2906 0D00                                       l3650 120C  
                                     l3642 11DE                                       l3634 11A6  
                                     l3618 132E                                       l5306 0C0A  
                                     l3394 0FEA                                       l3386 0F86  
                                     l3730 0F4E                                       l3722 0F28  
                                     l3714 0F0A                                       l3706 0ECC  
                                     l5170 1046                                       l5162 103E  
                                     l5154 1036                                       l5146 102E  
                                     l2924 0D7C                                       l2916 0D42  
                                     l2908 0D16                                       l3652 120E  
                                     l3644 1206                                       l3636 11A6  
                                     l5308 1362                                       l3628 134E  
                                     l2940 0448                                       l3388 0F9E  
                                     l3732 0F52                                       l3724 0F2C  
                                     l3716 0F20                                       l3708 0ED4  
                                     l5180 1050                                       l5172 1048  
                                     l5164 1040                                       l5156 1038  
                                     l5148 1030                                       l2918 0D60  
                                     l2926 0D82                                       l3654 1210  
                                     l3646 1208                                       l3638 11A8  
                                     l2950 0488                                       l2942 0456  
                                     l2934 10B8                                       l3734 0F6E  
                                     l3726 0F30                                       l5190 107A  
                                     l5182 1056                                       l5174 104A  
                                     l5166 1042                                       l5158 103A  
                                     ?_map 0020                                       l2928 0D92  
                                     l3656 1212                                       l3648 120A  
                                     l2960 04AE                                       l2952 048A  
                                     l2944 0458                                       l2880 1216  
                                     l3728 0F38                                       l5192 108C  
                                     l5184 105C                                       l5176 104C  
                                     l5168 1044                                       l2890 0CA8  
                                     l3666 1430                                       l2970 04EE  
                                     l2962 04BC                                       l2946 0468  
                                     l2954 0492                                       l2938 043C  
                                     l4802 0E46                                       l2882 1226  
                                     l5194 109C                                       l5186 1062  
                                     l5178 104E                                       l2892 0CAC  
                                     l2980 052E                                       l2972 04F0  
                                     l2964 04BE                                       l2956 04A2  
                                     l2948 0478                                       l4820 0EAA  
                                     l4812 0E6E                                       l4804 0E50  
                                     l2884 1234                                       l5196 10A0  
                                     l5188 1066                                       l2894 0CBA  
                                     l2990 055E                                       l2982 0536  
                                     l2966 04CE                                       l2974 04F8  
                                     l2958 04A8                                       l4814 0E7A  
                                     l4806 0E5A                                       l2886 1244  
                                     l4830 08DC                                       l5198 10A4  
                                     l2896 0CCA                                       l2992 055E  
                                     l2984 053A                                       l2976 0508  
                                     l2968 04DE                                       l4816 0E8A  
                                     l2888 124E                                       l4832 0920  
                                     l4824 07D6                                       l3696 0EBC  
                                     l2898 0CCE                                       l2978 051E  
                                     l4818 0E9A                                       l4826 0836  
                                     l4842 140A                                       l2996 0572  
                                     l2988 054E                                       l4780 0DB4  
                                     l4836 0964                                       l4828 0856  
                                     l4860 1396                                       l2998 058C  
                                     l4790 0E0C                                       l4782 0DCC  
                                     l4862 13AC                                       l4792 0E1C  
                                     l4864 13C2                                       l4856 137C  
                                     l4794 0E20                                       l4786 0DE0  
                                     l4858 1380                                       l4796 0E2E  
                                     l4788 0E0A                                       STR_1 7F8D  
                                     STR_2 7F74                                       STR_3 7F32  
                                     STR_4 7FB8                                       STR_5 7FA5  
                                     STR_6 7FCA                                       STR_7 7FE6  
                                     STR_8 7FDB                                       STR_9 7FF0  
                                     u2000 0794                                       u2001 0790  
                                     u2010 07C2                                       u2011 07BE  
                                     u2100 0270                                       u2020 002C  
                                     u2021 0028                                       u2110 02CA  
                                     u2030 003E                                       u2111 02C6  
                                     u2031 003A                                       u2200 041E  
                                     u2120 02EA                                       u2040 004E  
                                     u3000 0F0A                                       u2201 041A  
                                     u2121 02E6                                       u2105 0266  
                                     u2041 004A                                       u3001 0F06  
                                     u2130 02FC                                       u2050 008E  
                                     u3010 0F6E                                       u2131 02F8  
                                     u2051 008A                                       u3011 0F6A  
                                     u2300 0A0E                                       u2140 032A  
                                     u2060 00A0                                       u2301 0A0A  
                                     u2141 0326                                       u2061 009C  
                                     u2310 0A64                                       u2150 0340  
                                     u2070 00B0                                       u2311 0A60  
                                     u2151 033C                                       u2071 00AC  
                                     u2320 0AAE                                       u2160 0354  
                                     u2080 00E6                                       u4000 0E9A  
                                     u2321 0AAA                                       u2161 0350  
                                     u2081 00E2                                       u4001 0E96  
                                     u2410 114C                                       u2330 0ACC  
                                     u2170 036E                                       u2090 00F6  
                                     u4010 0856                                       u2411 1148  
                                     u2331 0AC8                                       u2171 036A  
                                     u2091 00F2                                       u4011 0852  
                                     u2420 116A                                       u2340 0ADC  
                                     u2500 0BD4                                       u2180 03B6  
                                     u2421 1166                                       u2341 0AD8  
                                     u2501 0BD0                                       u2181 03B2  
                                     u2430 1186                                       u2350 0AEA  
                                     u2510 0BE4                                       u2190 03E4  
                                     u1710 1234                                       u2431 1182  
                                     u2351 0AE6                                       u2511 0BE0  
                                     u2191 03E0                                       u1711 1230  
                                     u2360 0B24                                       u2280 09A4  
                                     u2520 0BF2                                       u2440 0B74  
                                     u1800 0468                                       u1720 126E  
                                     u2361 0B20                                       u2281 09A0  
                                     u2521 0BEE                                       u2441 0B70  
                                     u1801 0464                                       u1721 126A  
                                     u4025 08F0                                       u1730 0CBA  
                                     u2370 0B32                                       u2290 09B2  
                                     u2530 0C38                                       u2450 0B84  
                                     u1810 0478                                       u4026 08FA  
                                     u1731 0CB6                                       u2371 0B2E  
                                     u2291 09AE                                       u2531 0C34  
                                     u2451 0B80                                       u1811 0474  
                                     u4035 0934                                       u4027 090A  
                                     u1740 0CDC                                       u2460 0B92  
                                     u1900 0644                                       u1820 04BC  
                                     u4036 093E                                       u1741 0CD8  
                                     u2461 0B8E                                       u1901 0640  
                                     u1821 04B8                                       u4037 094E  
                                     u1750 0D16                                       u2470 0BA4  
                                     u1910 065A                                       u1830 04CE  
                                     u1751 0D12                                       u2471 0BA0  
                                     u1911 0656                                       u1831 04CA  
                                     u1760 0D38                                       u2480 0BB4  
                                     u1920 0678                                       u1840 04DE  
                                     u4400 108C                                       u1761 0D34  
                                     u2481 0BB0                                       u1921 0674  
                                     u1841 04DA                                       u4401 1088  
                                     u1770 0D60                                       u2490 0BC2  
                                     u1930 0698                                       u1850 051E  
                                     u4410 109C                                       u1771 0D5C  
                                     u2491 0BBE                                       u1931 0694  
                                     u1851 051A                                       u4411 1098  
                                     u1780 0D92                                       u1940 06AA  
                                     u1860 055E                                       u1781 0D8E  
                                     u1941 06A6                                       u1861 055A  
                                     u1950 06D8                                       u1870 05D4  
                                     u1790 0456                                       u1951 06D4  
                                     u1871 05D0                                       u1791 0452  
                                     u1960 06EE                                       u1880 05F6  
                                     u1961 06EA                                       u1881 05F2  
                                     u1970 0702                                       u1890 0620  
                                     u1971 06FE                                       u1891 061C  
                                     u4427 0EDE                                       u1980 071C  
                                     u1981 0718                                       u4437 0F14  
                                     u1990 0764                                       u1991 0760  
                                     u4447 0F42                                       u4457 0F78  
                                     u4467 0FA8                                       u3940 0DCC  
                                     _RCIF 007CF5                                       u3941 0DC8  
                                     u4477 0FCC                                       u3950 0E00  
                                     u4487 0B5C                                       u3960 0E2E  
                                     u3961 0E2A                                       u3970 0E42  
                                     u3971 0E3E                                       u3955 0DF6  
                                     u3980 0E6A                                       u3981 0E66  
                                     u3990 0E8A                                       u3991 0E86  
     comportamientoBasico@caminoEncontrado 008B                                       _main 1026  
                                     map@x 0020                                       btemp 005A  
                                     prodh 000FF4                                       prodl 000FF3  
                                     start 000E                              __CFG_IESO$OFF 000000  
                          ___fldiv@new_exp 002C                              __CFG_MCLRE$ON 000000  
                             ___param_bank 000000                                      ??_map 0034  
                            __CFG_PLLDIV$1 000000                             __CFG_CCP2MX$ON 000000  
                            ___fltol@sign1 00C9                            __end_of___aldiv 0DB4  
                                    ?_main 0001                            __end_of___fldiv 07D6  
                                    STR_10 7FF9                                      STR_11 7F54  
                                    STR_12 7EFA                                      STR_13 7EBB  
                          __end_of___flmul 043C                            __end_of___fltol 0EBC  
                                    _T1CON 000FCD                                      _LATB4 007C54  
                                    _LATB5 007C55                                      _LATD2 007C62  
                                    _LATB6 007C56                                      _LATD3 007C63  
                                    _LATB7 007C57                            __end_of___lwdiv 11A6  
                                    i2l301 1294                                      i2l306 12D6  
                                    i2l262 1320                                      i2l264 1328  
                                    i2l298 1286                               main@iniciado 00D9  
                                    _RCREG 000FAE                                      _TMR1H 000FCF  
                                    _TMR1L 000FCE                                      _SPBRG 000FAF  
                            __CFG_USBDIV$1 000000                                      _TXREG 000FAD  
                            __CFG_PWRT$OFF 000000                              __CFG_WRT0$OFF 000000  
                            __CFG_WRT1$OFF 000000                              __CFG_WRT2$OFF 000000  
                      ___lmul@multiplicand 000A                              __CFG_WRT3$OFF 000000  
                           __CFG_EBTR0$OFF 000000                             __CFG_FCMEN$OFF 000000  
                           __CFG_EBTR1$OFF 000000                             __CFG_EBTR2$OFF 000000  
                           __CFG_EBTR3$OFF 000000                              __CFG_WRTB$OFF 000000  
                            __CFG_WRTC$OFF 000000                              __CFG_WRTD$OFF 000000  
                           __CFG_EBTRB$OFF 000000                         __size_of_UART_init 0070  
                                    _boton 0008                                      _pausa 00DA  
                                    _mover 0F86                                      _mouse 0055  
                                    _toint 7EB7                                      tablat 000FF5  
                          __end_of_pwmDuty 0992                                      ttemp5 005B  
                                    ttemp6 005E                                      ttemp7 0062  
                                    status 000FD8                                      wtemp8 005B  
                           __CFG_ICPRT$OFF 000000                            __initialization 13C8  
                             __end_of_main 10B8                            ??_configurarAdc 0006  
                      dameDistancia@conteo 0026                     dameDistancia@distancia 0022  
                                   ??_main 0055        comportamientoBasico@caminosRecorrer 00C1  
                            __activetblptr 000002                                     _ADCON1 000FC1  
                                   _ADCON2 000FC0                                     ?_boton 0001  
                                   _CCP1M2 007DEA                                     _CCP1M3 007DEB  
                                   _CCP2M2 007DD2                                     _CCP2M3 007DD3  
                                   _ADRESH 000FC4                                     _ADRESL 000FC3  
                                   _CCPR1L 000FBE                                     _CCPR2L 000FBB  
                                   ?_mover 0001                                     _INT0IF 007F91  
                                   i2l5310 12C8                                     i2l3670 12A2  
                                   i2l3830 12E8                                     i2l3840 1322  
                                   i2l3832 12EE                                     i2l3674 12B4  
                                   i2l3842 1326                                     i2l3834 1300  
                                   i2l3668 1282                                     i2l3836 1304  
                                   i2l3828 12DA                                     i2l3838 1306  
                        ??_probarGirosAuto 0008                                     _TMR1IF 007CF0  
                                   _TMR1ON 007E68                                     _TMR2ON 007E52  
                                   _TRISB0 007C98                                     _TRISB1 007C99  
                                   _TRISB2 007C9A                                     _TRISC1 007CA1  
                                   _TRISB3 007C9B                                     _TRISC2 007CA2  
                                   _TRISB4 007C9C                                     _TRISB5 007C9D  
                                   _TRISB6 007C9E                                     _TRISD3 007CAB  
                                   _TRISB7 007C9F                                     _TRISC6 007CA6  
                                   _TRISC7 007CA7                           __end_of___xxtofl 0B46  
                           __CFG_XINST$OFF 000000         comportamientoBasico@numMovimientos 00C8  
                dameDistancia@numeroSensor 0021                                     ___lmul 1216  
                                ??___aldiv 001A                          __end_of_UART_init 1216  
                                ??___fldiv 0023         comportamientoBasico@espejearCarroY 008E  
                                ??___flmul 003C                                  ??___fltol 0051  
                                ??___lwdiv 000A                                     _buffer 008F  
                                   clear_0 13E0                                     clear_1 13EC  
                        _oldSensorEnfrente 0070                               __mediumconst 7EB6  
                                   tblptrh 000FF7                                     tblptrl 000FF6  
                                   tblptru 000FF8                                  ??_pwmDuty 00CE  
                        _velocidadEstandar 140A                               ___xxtofl@arg 0017  
                             ___xxtofl@exp 0016                               ___xxtofl@val 000D  
                               __accesstop 0060                    __end_of__initialization 13FC  
                          __CFG_PBADEN$OFF 000000                            __CFG_FOSC$XT_XT 000000  
                       ?_velocidadEstandar 0001                              ___rparam_used 000001  
                               ___fltol@f1 004D                     __size_of_dameDistancia 0162  
                           __pcstackCOMRAM 0001                        ??_velocidadEstandar 0055  
                             __pidataBANK0 143A                            _sensorIzquierda 0080  
                            __end_of_boton 132C                              __end_of_mover 1026  
                            __end_of_toint 7EBB  comportamientoBasico@numMovimientosTotales 0058  
comportamientoBasico@movimientosRealizados 0164                         __size_of_configPwm 0050  
                                PID@difAnt 0088                  __end_of_velocidadEstandar 1430  
                                  ??_boton 0004                                    ??_mover 0006  
                               __pbssBANK0 0060                                 __pbssBANK1 0100  
                                  ?___lmul 0006                                    _CCP1CON 000FBD  
                                  _CCP2CON 000FBA                             ___lmul@product 000E  
   decidirDireccion@cambioOrientacionCarro 008A                                 _antiRebote 1280  
                                  _T2CKPS0 007E50                                    _T2CKPS1 007E51  
                                ?___xxtofl 000D                              _dameDistancia 0B46  
                          __CFG_VREGEN$OFF 000000  comportamientoBasico@contCaminosRecorridos 00C5  
                                  __Hparam 0000                                    __Lparam 0000  
                        __end_of_configPwm 137C                                    ___aldiv 0CA8  
                                  ___fldiv 043C                            __size_of___lmul 006A  
                                  ___flmul 0012                                    ___fltol 0DB4  
                                  ___lwdiv 1132                            __CFG_STVREN$OFF 000000  
                                  __pcinit 13C8                                    __ramtop 0800  
                                  __ptext0 1026                                    __ptext1 0EBC  
                                  __ptext2 0F86                                    __ptext3 137C  
                                  __ptext4 140A                                    __ptext5 07D6  
                                  __ptext6 10B8                                    __ptext7 1216  
                                  __ptext8 0DB4                                    __ptext9 0012  
                             __size_of_map 007A                                 ??___xxtofl 0011  
                          _probarGirosAuto 0EBC                             ?_dameDistancia 001B  
                         ___aldiv@dividend 0012                                    _pwmDuty 07D6  
               __size_of_velocidadEstandar 0026                             __pintcode_body 12D8  
                     end_of_initialization 13FC                              __Lmediumconst 7EB6  
                                  int_func 12D8                                  _RCSTAbits 000FAB  
                         ___aldiv@quotient 001C                                    postinc0 000FEE  
                    __end_of_configurarAdc 143A                                ?_antiRebote 0001  
                                _PORTBbits 000F81                                  _UART_init 11A6  
                              pwmDuty@duty 00D3                              ___xxtofl@sign 0015  
                                _TRISDbits 000F95                                ___fldiv@grs 002E  
                       _oldSensorIzquierda 0074                                ___fldiv@rem 0027  
     comportamientoBasico@posicionInvCruce 00C6                                 map@out_max 0030  
                               map@out_min 002C                                ___flmul@grs 0041  
                           _UART_init$1464 0028                                  _TXSTAbits 000FAC  
                           __end_of___lmul 1280                    __end_of_probarGirosAuto 0F86  
                               ?_UART_init 0020                            ??_dameDistancia 001F  
    comportamientoBasico@investigandoCruce 00C7                        start_initialization 13C8  
                              __end_of_map 1132                        __size_of_antiRebote 0058  
                      pwmDuty@cicloTrabajo 00CB                                   ??___lmul 000E  
                         _oldSensorDerecha 0078                 comportamientoBasico@mapear 008D  
                           _sensorEnfrente 007C                                __pdataBANK0 00DA  
                         __CFG_LPT1OSC$OFF 000000                                  ___fldiv@a 001F  
                                ___fldiv@b 001B                               _llegoDestino 0057  
                                ___flmul@a 0038                                  ___flmul@b 0034  
                              __pbssCOMRAM 0055           comportamientoBasico@caminoActual 00C4  
                            __pcstackBANK0 00C9                          __size_of___xxtofl 01B4  
                _DISTANCIA_PRIORIDAD_MEDIA 0068                           ___lwdiv@dividend 0006  
                                __pintcode 0008                              __pmediumconst 7EB6  
                                 ?___aldiv 0012                                   ?___fldiv 001B  
                                 ?___flmul 0034                                   ?___fltol 004D  
                                 ?___lwdiv 0006                           ?_probarGirosAuto 0001  
                                _configPwm 132C                                ??_UART_init 0024  
                                 ?_pwmDuty 00CB                           ___lwdiv@quotient 000A  
                           __size_of_boton 1324                             __size_of_mover 00A0  
                          ___aldiv@divisor 0016                            ___aldiv@counter 001A  
                                 i2u313_40 12E8                                   i2u313_41 12E4  
                                 i2u314_40 1300                                   i2u314_41 12FC  
                                 i2u450_47 12A8                                   i2u449_47 1310  
                                 i2u298_40 1294                                   i2u298_41 1290  
                                 i2u299_40 12A2                                   i2u299_41 129E  
                         __CFG_WDTPS$32768 000000                               ??_antiRebote 0001  
                               ?_configPwm 0001                                  map@in_max 0028  
                                map@in_min 0024                                 _ADCON0bits 000FC2  
                         configPwm@channel 0008                          ___lmul@multiplier 0006  
                              _INTCON2bits 000FF1                         __end_of_antiRebote 12D8  
                               roundf@F525 0060                                   __Hrparam 0000  
                            UART_init@BAUD 0020                              _sensorDerecha 0084  
                                 __Lrparam 0000                           __size_of___aldiv 010C  
                         __size_of___fldiv 039A                           __size_of___flmul 042A  
                         __size_of___fltol 0108                           __size_of___lwdiv 0074  
                                 ___xxtofl 0992                            ___lwdiv@divisor 0008  
                          ___lwdiv@counter 000C                                   __ptext10 043C  
                                 __ptext11 0B46                                   __ptext12 0992  
                                 __ptext13 1132                                   __ptext14 1430  
                                 __ptext15 132C                                   __ptext16 11A6  
                                 __ptext17 0CA8                                   __ptext19 1280  
                         __size_of_pwmDuty 01BC    __end_of_inicializarComportamientoBasico 13C8  
 __size_of_inicializarComportamientoBasico 004C          ??_inicializarComportamientoBasico 0055  
         ?_inicializarComportamientoBasico 0001            _inicializarComportamientoBasico 137C  
                            antiRebote@pin 0003         comportamientoBasico@cruceDetectado 008C  
                   __size_of_configurarAdc 000A                              __size_of_main 0092  
                                 int$flags 005A                           probarGirosAuto@i 000A  
                              ??_configPwm 0006                      __CFG_CPUDIV$OSC1_PLL2 000000  
                               _INTCONbits 000FF2                      __end_of_dameDistancia 0CA8  
                                 intlevel2 0000                              _configurarAdc 1430  
                           pwmDuty@channel 00CD         comportamientoBasico@carroEspejeado 0059  
                             ___aldiv@sign 001B                       probarGirosAuto@i_632 000C  
