

Microchip MPLAB XC8 Assembler V2.10 build 88905656 
                                                                                               Fri Jul 10 14:16:51 2020

Microchip MPLAB XC8 C Compiler v2.10 (Free license) build 20190730164152 Og1 
     1                           	processor	16F877
     2                           	opt	pw 120
     3                           	opt	flic
     4                           	psect	cinit,global,class=CODE,merge=1,delta=2
     5                           	psect	cstackCOMMON,global,class=COMMON,space=1,delta=1
     6                           	psect	cstackBANK0,global,class=BANK0,space=1,delta=1
     7                           	psect	maintext,global,class=CODE,split=1,delta=2
     8                           	psect	text1,local,class=CODE,merge=1,delta=2
     9                           	psect	text2,local,class=CODE,merge=1,delta=2
    10                           	psect	text3,local,class=CODE,merge=1,delta=2,group=1
    11                           	psect	text4,local,class=CODE,merge=1,delta=2,group=1
    12                           	psect	text5,local,class=CODE,merge=1,delta=2,group=1
    13                           	psect	text6,local,class=CODE,merge=1,delta=2,group=1
    14                           	psect	text7,local,class=CODE,merge=1,delta=2,group=1
    15                           	psect	text8,local,class=CODE,merge=1,delta=2,group=1
    16                           	psect	text9,local,class=CODE,merge=1,delta=2,group=1
    17                           	psect	text10,local,class=CODE,merge=1,delta=2
    18                           	dabs	1,0x7E,2
    19  0000                     
    20                           ; Version 2.10
    21                           ; Generated 31/07/2019 GMT
    22                           ; 
    23                           ; Copyright © 2019, Microchip Technology Inc. and its subsidiaries ("Microchip")
    24                           ; All rights reserved.
    25                           ; 
    26                           ; This software is developed by Microchip Technology Inc. and its subsidiaries ("Microch
      +                          ip").
    27                           ; 
    28                           ; Redistribution and use in source and binary forms, with or without modification, are
    29                           ; permitted provided that the following conditions are met:
    30                           ; 
    31                           ;     1. Redistributions of source code must retain the above copyright notice, this lis
      +                          t of
    32                           ;        conditions and the following disclaimer.
    33                           ; 
    34                           ;     2. Redistributions in binary form must reproduce the above copyright notice, this 
      +                          list
    35                           ;        of conditions and the following disclaimer in the documentation and/or other
    36                           ;        materials provided with the distribution.
    37                           ; 
    38                           ;     3. Microchip's name may not be used to endorse or promote products derived from th
      +                          is
    39                           ;        software without specific prior written permission.
    40                           ; 
    41                           ; THIS SOFTWARE IS PROVIDED BY MICROCHIP "AS IS" AND ANY EXPRESS OR IMPLIED WARRANTIES,
    42                           ; INCLUDING, BUT NOT LIMITED TO, THE IMPLIED WARRANTIES OF MERCHANTABILITY AND FITNESS F
      +                          OR
    43                           ; PURPOSE ARE DISCLAIMED.  IN NO EVENT SHALL MICROCHIP BE LIABLE FOR ANY DIRECT, INDIREC
      +                          T,
    44                           ; INCIDENTAL, SPECIAL, EXEMPLARY, OR CONSEQUENTIAL DAMAGES (INCLUDING BUT NOT LIMITED TO
    45                           ; PROCUREMENT OF SUBSTITUTE GOODS OR SERVICES; LOSS OF USE, DATA OR PROFITS; OR BUSINESS
    46                           ; INTERRUPTION) HOWSOEVER CAUSED AND ON ANY THEORY OF LIABILITY, WHETHER IN CONTRACT, ST
      +                          RICT
    47                           ; LIABILITY, OR TORT (INCLUDING NEGLIGENCE OR OTHERWISE) ARISING IN ANY WAY OUT OF THE U
      +                          SE OF
    48                           ; THIS SOFTWARE, EVEN IF ADVISED OF THE POSSIBILITY OF SUCH DAMAGE.
    49                           ; 
    50                           ; 
    51                           ; Code-generator required, PIC16F877 Definitions
    52                           ; 
    53                           ; SFR Addresses
    54  0000                     	;# 
    55  0001                     	;# 
    56  0002                     	;# 
    57  0003                     	;# 
    58  0004                     	;# 
    59  0005                     	;# 
    60  0006                     	;# 
    61  0007                     	;# 
    62  0008                     	;# 
    63  0009                     	;# 
    64  000A                     	;# 
    65  000B                     	;# 
    66  000C                     	;# 
    67  000D                     	;# 
    68  000E                     	;# 
    69  000E                     	;# 
    70  000F                     	;# 
    71  0010                     	;# 
    72  0011                     	;# 
    73  0012                     	;# 
    74  0013                     	;# 
    75  0014                     	;# 
    76  0015                     	;# 
    77  0015                     	;# 
    78  0016                     	;# 
    79  0017                     	;# 
    80  0018                     	;# 
    81  0019                     	;# 
    82  001A                     	;# 
    83  001B                     	;# 
    84  001B                     	;# 
    85  001C                     	;# 
    86  001D                     	;# 
    87  001E                     	;# 
    88  001F                     	;# 
    89  0081                     	;# 
    90  0085                     	;# 
    91  0086                     	;# 
    92  0087                     	;# 
    93  0088                     	;# 
    94  0089                     	;# 
    95  008C                     	;# 
    96  008D                     	;# 
    97  008E                     	;# 
    98  0091                     	;# 
    99  0092                     	;# 
   100  0093                     	;# 
   101  0094                     	;# 
   102  0098                     	;# 
   103  0099                     	;# 
   104  009E                     	;# 
   105  009F                     	;# 
   106  010C                     	;# 
   107  010D                     	;# 
   108  010E                     	;# 
   109  010F                     	;# 
   110  018C                     	;# 
   111  018D                     	;# 
   112  0000                     	;# 
   113  0001                     	;# 
   114  0002                     	;# 
   115  0003                     	;# 
   116  0004                     	;# 
   117  0005                     	;# 
   118  0006                     	;# 
   119  0007                     	;# 
   120  0008                     	;# 
   121  0009                     	;# 
   122  000A                     	;# 
   123  000B                     	;# 
   124  000C                     	;# 
   125  000D                     	;# 
   126  000E                     	;# 
   127  000E                     	;# 
   128  000F                     	;# 
   129  0010                     	;# 
   130  0011                     	;# 
   131  0012                     	;# 
   132  0013                     	;# 
   133  0014                     	;# 
   134  0015                     	;# 
   135  0015                     	;# 
   136  0016                     	;# 
   137  0017                     	;# 
   138  0018                     	;# 
   139  0019                     	;# 
   140  001A                     	;# 
   141  001B                     	;# 
   142  001B                     	;# 
   143  001C                     	;# 
   144  001D                     	;# 
   145  001E                     	;# 
   146  001F                     	;# 
   147  0081                     	;# 
   148  0085                     	;# 
   149  0086                     	;# 
   150  0087                     	;# 
   151  0088                     	;# 
   152  0089                     	;# 
   153  008C                     	;# 
   154  008D                     	;# 
   155  008E                     	;# 
   156  0091                     	;# 
   157  0092                     	;# 
   158  0093                     	;# 
   159  0094                     	;# 
   160  0098                     	;# 
   161  0099                     	;# 
   162  009E                     	;# 
   163  009F                     	;# 
   164  010C                     	;# 
   165  010D                     	;# 
   166  010E                     	;# 
   167  010F                     	;# 
   168  018C                     	;# 
   169  018D                     	;# 
   170  001B                     _CCPR2L	set	27
   171  0015                     _CCPR1L	set	21
   172  0092                     _TMR2ON	set	146
   173  00EA                     _CCP2M2	set	234
   174  00EB                     _CCP2M3	set	235
   175  00BA                     _CCP1M2	set	186
   176  00BB                     _CCP1M3	set	187
   177  0091                     _T2CKPS1	set	145
   178  0090                     _T2CKPS0	set	144
   179  00EC                     _CCP2Y	set	236
   180  00ED                     _CCP2X	set	237
   181  00BC                     _CCP1Y	set	188
   182  00BD                     _CCP1X	set	189
   183  0092                     _PR2	set	146
   184  0439                     _TRISC1	set	1081
   185  043A                     _TRISC2	set	1082
   186                           
   187                           ; #config settings
   188  0000                     
   189                           	psect	cinit
   190  07FC                     start_initialization:	
   191  07FC                     __initialization:	
   192  07FC                     end_of_initialization:	
   193                           ;End of C runtime variable initialization code
   194                           
   195  07FC                     __end_of__initialization:	
   196  07FC  0183               	clrf	3
   197  07FD  120A  158A  2EA2   	ljmp	_main	;jump to C main() function
   198                           
   199                           	psect	cstackCOMMON
   200  0070                     __pcstackCOMMON:	
   201  0070                     ?_configPwm:	
   202  0070                     ??_configPwm:	
   203                           ; 1 bytes @ 0x0
   204                           
   205  0070                     ?_main:	
   206                           ; 1 bytes @ 0x0
   207                           
   208  0070                     ?__Umul8_16:	
   209                           ; 1 bytes @ 0x0
   210                           
   211  0070                     ?___lmul:	
   212                           ; 2 bytes @ 0x0
   213                           
   214  0070                     ?___xxtofl:	
   215                           ; 4 bytes @ 0x0
   216                           
   217  0070                     __Umul8_16@multiplicand:	
   218                           ; 4 bytes @ 0x0
   219                           
   220  0070                     ___lmul@multiplier:	
   221                           ; 1 bytes @ 0x0
   222                           
   223  0070                     ___xxtofl@val:	
   224                           ; 4 bytes @ 0x0
   225                           
   226                           
   227                           ; 4 bytes @ 0x0
   228  0070                     	ds	2
   229  0072                     ??__Umul8_16:	
   230  0072                     configPwm@channel:	
   231                           ; 1 bytes @ 0x2
   232                           
   233                           
   234                           ; 1 bytes @ 0x2
   235  0072                     	ds	2
   236  0074                     ??___xxtofl:	
   237  0074                     __Umul8_16@product:	
   238                           ; 1 bytes @ 0x4
   239                           
   240  0074                     ___lmul@multiplicand:	
   241                           ; 2 bytes @ 0x4
   242                           
   243                           
   244                           ; 4 bytes @ 0x4
   245  0074                     	ds	2
   246  0076                     __Umul8_16@word_mpld:	
   247                           
   248                           ; 2 bytes @ 0x6
   249  0076                     	ds	2
   250  0078                     ??___lmul:	
   251  0078                     ___xxtofl@sign:	
   252                           ; 1 bytes @ 0x8
   253                           
   254  0078                     __Umul8_16@multiplier:	
   255                           ; 1 bytes @ 0x8
   256                           
   257                           
   258                           ; 1 bytes @ 0x8
   259  0078                     	ds	1
   260  0079                     ___xxtofl@exp:	
   261  0079                     ___lmul@product:	
   262                           ; 1 bytes @ 0x9
   263                           
   264                           
   265                           ; 4 bytes @ 0x9
   266  0079                     	ds	1
   267  007A                     ___xxtofl@arg:	
   268                           
   269                           ; 4 bytes @ 0xA
   270  007A                     	ds	3
   271  007D                     ??___aldiv:	
   272                           
   273                           ; 1 bytes @ 0xD
   274  007D                     	ds	1
   275                           
   276                           	psect	cstackBANK0
   277  0020                     __pcstackBANK0:	
   278  0020                     ?___aldiv:	
   279  0020                     ?___fldiv:	
   280                           ; 4 bytes @ 0x0
   281                           
   282  0020                     ___aldiv@divisor:	
   283                           ; 4 bytes @ 0x0
   284                           
   285  0020                     ___fldiv@a:	
   286                           ; 4 bytes @ 0x0
   287                           
   288                           
   289                           ; 4 bytes @ 0x0
   290  0020                     	ds	4
   291  0024                     ___aldiv@dividend:	
   292  0024                     ___fldiv@b:	
   293                           ; 4 bytes @ 0x4
   294                           
   295                           
   296                           ; 4 bytes @ 0x4
   297  0024                     	ds	4
   298  0028                     ??___fldiv:	
   299  0028                     ___aldiv@counter:	
   300                           ; 1 bytes @ 0x8
   301                           
   302                           
   303                           ; 1 bytes @ 0x8
   304  0028                     	ds	1
   305  0029                     ___aldiv@sign:	
   306                           
   307                           ; 1 bytes @ 0x9
   308  0029                     	ds	1
   309  002A                     ___aldiv@quotient:	
   310                           
   311                           ; 4 bytes @ 0xA
   312  002A                     	ds	3
   313  002D                     ___fldiv@rem:	
   314                           
   315                           ; 4 bytes @ 0xD
   316  002D                     	ds	1
   317  002E                     ?_map:	
   318  002E                     map@x:	
   319                           ; 4 bytes @ 0xE
   320                           
   321                           
   322                           ; 4 bytes @ 0xE
   323  002E                     	ds	3
   324  0031                     ___fldiv@sign:	
   325                           
   326                           ; 1 bytes @ 0x11
   327  0031                     	ds	1
   328  0032                     ___fldiv@new_exp:	
   329  0032                     map@in_min:	
   330                           ; 2 bytes @ 0x12
   331                           
   332                           
   333                           ; 4 bytes @ 0x12
   334  0032                     	ds	2
   335  0034                     ___fldiv@grs:	
   336                           
   337                           ; 4 bytes @ 0x14
   338  0034                     	ds	2
   339  0036                     map@in_max:	
   340                           
   341                           ; 4 bytes @ 0x16
   342  0036                     	ds	2
   343  0038                     ___fldiv@bexp:	
   344                           
   345                           ; 1 bytes @ 0x18
   346  0038                     	ds	1
   347  0039                     ___fldiv@aexp:	
   348                           
   349                           ; 1 bytes @ 0x19
   350  0039                     	ds	1
   351  003A                     ?___flmul:	
   352  003A                     map@out_min:	
   353                           ; 4 bytes @ 0x1A
   354                           
   355  003A                     ___flmul@b:	
   356                           ; 4 bytes @ 0x1A
   357                           
   358                           
   359                           ; 4 bytes @ 0x1A
   360  003A                     	ds	4
   361  003E                     map@out_max:	
   362  003E                     ___flmul@a:	
   363                           ; 4 bytes @ 0x1E
   364                           
   365                           
   366                           ; 4 bytes @ 0x1E
   367  003E                     	ds	4
   368  0042                     ??_map:	
   369  0042                     ??___flmul:	
   370                           ; 1 bytes @ 0x22
   371                           
   372                           
   373                           ; 1 bytes @ 0x22
   374  0042                     	ds	5
   375  0047                     ___flmul@sign:	
   376                           
   377                           ; 1 bytes @ 0x27
   378  0047                     	ds	1
   379  0048                     ___flmul@grs:	
   380                           
   381                           ; 4 bytes @ 0x28
   382  0048                     	ds	4
   383  004C                     ___flmul@aexp:	
   384                           
   385                           ; 1 bytes @ 0x2C
   386  004C                     	ds	1
   387  004D                     ___flmul@bexp:	
   388                           
   389                           ; 1 bytes @ 0x2D
   390  004D                     	ds	1
   391  004E                     ___flmul@prod:	
   392                           
   393                           ; 4 bytes @ 0x2E
   394  004E                     	ds	4
   395  0052                     ___flmul@temp:	
   396                           
   397                           ; 2 bytes @ 0x32
   398  0052                     	ds	2
   399  0054                     ?___fltol:	
   400  0054                     ___fltol@f1:	
   401                           ; 4 bytes @ 0x34
   402                           
   403                           
   404                           ; 4 bytes @ 0x34
   405  0054                     	ds	4
   406  0058                     ??___fltol:	
   407                           
   408                           ; 1 bytes @ 0x38
   409  0058                     	ds	5
   410  005D                     ___fltol@sign1:	
   411                           
   412                           ; 1 bytes @ 0x3D
   413  005D                     	ds	1
   414  005E                     ___fltol@exp1:	
   415                           
   416                           ; 1 bytes @ 0x3E
   417  005E                     	ds	1
   418  005F                     ?_pwmDuty:	
   419  005F                     pwmDuty@cicloTrabajo:	
   420                           ; 1 bytes @ 0x3F
   421                           
   422                           
   423                           ; 2 bytes @ 0x3F
   424  005F                     	ds	2
   425  0061                     pwmDuty@channel:	
   426                           
   427                           ; 1 bytes @ 0x41
   428  0061                     	ds	1
   429  0062                     ??_pwmDuty:	
   430                           
   431                           ; 1 bytes @ 0x42
   432  0062                     	ds	5
   433  0067                     pwmDuty@duty:	
   434                           
   435                           ; 4 bytes @ 0x47
   436  0067                     	ds	4
   437  006B                     ??_main:	
   438                           
   439                           ; 1 bytes @ 0x4B
   440  006B                     	ds	1
   441  006C                     main@i:	
   442                           
   443                           ; 2 bytes @ 0x4C
   444  006C                     	ds	2
   445                           
   446                           	psect	maintext
   447  0EA2                     __pmaintext:	
   448 ;;
   449 ;;Main: autosize = 0, tempsize = 1, incstack = 0, save=0
   450 ;;
   451 ;; *************** function _main *****************
   452 ;; Defined at:
   453 ;;		line 4 in file "main.c"
   454 ;; Parameters:    Size  Location     Type
   455 ;;		None
   456 ;; Auto vars:     Size  Location     Type
   457 ;;  i               2   76[BANK0 ] int 
   458 ;; Return value:  Size  Location     Type
   459 ;;                  1    wreg      void 
   460 ;; Registers used:
   461 ;;		wreg, fsr0l, fsr0h, status,2, status,0, btemp+1, pclath, cstack
   462 ;; Tracked objects:
   463 ;;		On entry : B00/0
   464 ;;		On exit  : 0/0
   465 ;;		Unchanged: 0/0
   466 ;; Data sizes:     COMMON   BANK0   BANK1   BANK3   BANK2
   467 ;;      Params:         0       0       0       0       0
   468 ;;      Locals:         0       2       0       0       0
   469 ;;      Temps:          0       1       0       0       0
   470 ;;      Totals:         0       3       0       0       0
   471 ;;Total ram usage:        3 bytes
   472 ;; Hardware stack levels required when called:    3
   473 ;; This function calls:
   474 ;;		_configPwm
   475 ;;		_pwmDuty
   476 ;; This function is called by:
   477 ;;		Startup code after reset
   478 ;; This function uses a non-reentrant model
   479 ;;
   480                           
   481                           
   482                           ;psect for function _main
   483  0EA2                     _main:	
   484  0EA2                     l1647:	
   485                           ;incstack = 0
   486                           ; Regs used in _main: [wreg-fsr0h+status,2+status,0+btemp+1+pclath+cstack]
   487                           
   488                           
   489                           ;main.c: 6:     configPwm(1);
   490  0EA2  3001               	movlw	1
   491  0EA3  120A  158A  2679  120A  158A  	fcall	_configPwm
   492                           
   493                           ;main.c: 7:     configPwm(2);
   494  0EA8  3002               	movlw	2
   495  0EA9  120A  158A  2679  120A  158A  	fcall	_configPwm
   496  0EAE                     l1649:	
   497                           
   498                           ;main.c: 11:         for (int i = 0; i < 100; i += 10) {
   499  0EAE  1283               	bcf	3,5	;RP0=0, select bank0
   500  0EAF  1303               	bcf	3,6	;RP1=0, select bank0
   501  0EB0  01EC               	clrf	main@i
   502  0EB1  01ED               	clrf	main@i+1
   503  0EB2                     l1655:	
   504                           
   505                           ;main.c: 12:             pwmDuty(i, 1);
   506  0EB2  1283               	bcf	3,5	;RP0=0, select bank0
   507  0EB3  1303               	bcf	3,6	;RP1=0, select bank0
   508  0EB4  086D               	movf	main@i+1,w
   509  0EB5  00E0               	movwf	pwmDuty@cicloTrabajo+1
   510  0EB6  086C               	movf	main@i,w
   511  0EB7  00DF               	movwf	pwmDuty@cicloTrabajo
   512  0EB8  01E1               	clrf	pwmDuty@channel
   513  0EB9  0AE1               	incf	pwmDuty@channel,f
   514  0EBA  120A  118A  21CE  120A  158A  	fcall	_pwmDuty
   515                           
   516                           ;main.c: 13:             pwmDuty(i, 2);
   517  0EBF  1283               	bcf	3,5	;RP0=0, select bank0
   518  0EC0  1303               	bcf	3,6	;RP1=0, select bank0
   519  0EC1  086D               	movf	main@i+1,w
   520  0EC2  00E0               	movwf	pwmDuty@cicloTrabajo+1
   521  0EC3  086C               	movf	main@i,w
   522  0EC4  00DF               	movwf	pwmDuty@cicloTrabajo
   523  0EC5  3002               	movlw	2
   524  0EC6  00EB               	movwf	??_main
   525  0EC7  086B               	movf	??_main,w
   526  0EC8  00E1               	movwf	pwmDuty@channel
   527  0EC9  120A  118A  21CE  120A  158A  	fcall	_pwmDuty
   528  0ECE                     l1657:	
   529                           
   530                           ;main.c: 14:         }
   531  0ECE  300A               	movlw	10
   532  0ECF  1283               	bcf	3,5	;RP0=0, select bank0
   533  0ED0  1303               	bcf	3,6	;RP1=0, select bank0
   534  0ED1  07EC               	addwf	main@i,f
   535  0ED2  1803               	skipnc
   536  0ED3  0AED               	incf	main@i+1,f
   537  0ED4  3000               	movlw	0
   538  0ED5  07ED               	addwf	main@i+1,f
   539  0ED6                     l1659:	
   540  0ED6  086D               	movf	main@i+1,w
   541  0ED7  3A80               	xorlw	128
   542  0ED8  00FF               	movwf	btemp+1
   543  0ED9  3080               	movlw	128
   544  0EDA  027F               	subwf	btemp+1,w
   545  0EDB  1D03               	skipz
   546  0EDC  2EDF               	goto	u2385
   547  0EDD  3064               	movlw	100
   548  0EDE  026C               	subwf	main@i,w
   549  0EDF                     u2385:	
   550  0EDF  1C03               	skipc
   551  0EE0  2EE2               	goto	u2381
   552  0EE1  2EE3               	goto	u2380
   553  0EE2                     u2381:	
   554  0EE2  2EB2               	goto	l1655
   555  0EE3                     u2380:	
   556  0EE3  2EAE               	goto	l1649
   557  0EE4  120A  118A  2800   	ljmp	start
   558  0EE7                     __end_of_main:	
   559                           
   560                           	psect	text1
   561  01CE                     __ptext1:	
   562 ;; *************** function _pwmDuty *****************
   563 ;; Defined at:
   564 ;;		line 17 in file "./pwm.h"
   565 ;; Parameters:    Size  Location     Type
   566 ;;  cicloTrabajo    2   63[BANK0 ] unsigned int 
   567 ;;  channel         1   65[BANK0 ] unsigned char 
   568 ;; Auto vars:     Size  Location     Type
   569 ;;  duty            4   71[BANK0 ] long 
   570 ;; Return value:  Size  Location     Type
   571 ;;                  1    wreg      void 
   572 ;; Registers used:
   573 ;;		wreg, fsr0l, fsr0h, status,2, status,0, btemp+1, pclath, cstack
   574 ;; Tracked objects:
   575 ;;		On entry : 0/0
   576 ;;		On exit  : 0/0
   577 ;;		Unchanged: 0/0
   578 ;; Data sizes:     COMMON   BANK0   BANK1   BANK3   BANK2
   579 ;;      Params:         0       3       0       0       0
   580 ;;      Locals:         0       4       0       0       0
   581 ;;      Temps:          0       5       0       0       0
   582 ;;      Totals:         0      12       0       0       0
   583 ;;Total ram usage:       12 bytes
   584 ;; Hardware stack levels used:    1
   585 ;; Hardware stack levels required when called:    2
   586 ;; This function calls:
   587 ;;		___fldiv
   588 ;;		___flmul
   589 ;;		___fltol
   590 ;;		___xxtofl
   591 ;;		_map
   592 ;; This function is called by:
   593 ;;		_main
   594 ;; This function uses a non-reentrant model
   595 ;;
   596                           
   597                           
   598                           ;psect for function _pwmDuty
   599  01CE                     _pwmDuty:	
   600  01CE                     l1613:	
   601                           ;incstack = 0
   602                           ; Regs used in _pwmDuty: [wreg-fsr0h+status,2+status,0+btemp+1+pclath+cstack]
   603                           
   604                           
   605                           ;./pwm.h: 19:     long duty = map(cicloTrabajo, 0, 100, 0, 1023);
   606  01CE  1283               	bcf	3,5	;RP0=0, select bank0
   607  01CF  1303               	bcf	3,6	;RP1=0, select bank0
   608  01D0  085F               	movf	pwmDuty@cicloTrabajo,w
   609  01D1  00AE               	movwf	map@x
   610  01D2  0860               	movf	pwmDuty@cicloTrabajo+1,w
   611  01D3  00AF               	movwf	map@x+1
   612  01D4  01B0               	clrf	map@x+2
   613  01D5  01B1               	clrf	map@x+3
   614  01D6  3000               	movlw	0
   615  01D7  00B5               	movwf	map@in_min+3
   616  01D8  3000               	movlw	0
   617  01D9  00B4               	movwf	map@in_min+2
   618  01DA  3000               	movlw	0
   619  01DB  00B3               	movwf	map@in_min+1
   620  01DC  3000               	movlw	0
   621  01DD  00B2               	movwf	map@in_min
   622  01DE  3000               	movlw	0
   623  01DF  00B9               	movwf	map@in_max+3
   624  01E0  3000               	movlw	0
   625  01E1  00B8               	movwf	map@in_max+2
   626  01E2  3000               	movlw	0
   627  01E3  00B7               	movwf	map@in_max+1
   628  01E4  3064               	movlw	100
   629  01E5  00B6               	movwf	map@in_max
   630  01E6  3000               	movlw	0
   631  01E7  00BD               	movwf	map@out_min+3
   632  01E8  3000               	movlw	0
   633  01E9  00BC               	movwf	map@out_min+2
   634  01EA  3000               	movlw	0
   635  01EB  00BB               	movwf	map@out_min+1
   636  01EC  3000               	movlw	0
   637  01ED  00BA               	movwf	map@out_min
   638  01EE  3000               	movlw	0
   639  01EF  00C1               	movwf	map@out_max+3
   640  01F0  3000               	movlw	0
   641  01F1  00C0               	movwf	map@out_max+2
   642  01F2  3003               	movlw	3
   643  01F3  00BF               	movwf	map@out_max+1
   644  01F4  30FF               	movlw	255
   645  01F5  00BE               	movwf	map@out_max
   646  01F6  120A  118A  206C  120A  118A  	fcall	_map
   647  01FB  1283               	bcf	3,5	;RP0=0, select bank0
   648  01FC  1303               	bcf	3,6	;RP1=0, select bank0
   649  01FD  0831               	movf	?_map+3,w
   650  01FE  00EA               	movwf	pwmDuty@duty+3
   651  01FF  0830               	movf	?_map+2,w
   652  0200  00E9               	movwf	pwmDuty@duty+2
   653  0201  082F               	movf	?_map+1,w
   654  0202  00E8               	movwf	pwmDuty@duty+1
   655  0203  082E               	movf	?_map,w
   656  0204  00E7               	movwf	pwmDuty@duty
   657  0205                     l1615:	
   658                           
   659                           ;./pwm.h: 21:     if (duty < 1024) {
   660  0205  1BEA               	btfsc	pwmDuty@duty+3,7
   661  0206  2A19               	goto	u2310
   662  0207  086A               	movf	pwmDuty@duty+3,w
   663  0208  1D03               	btfss	3,2
   664  0209  2A18               	goto	u2311
   665  020A  0869               	movf	pwmDuty@duty+2,w
   666  020B  1D03               	btfss	3,2
   667  020C  2A18               	goto	u2311
   668  020D  3004               	movlw	4
   669  020E  0268               	subwf	pwmDuty@duty+1,w
   670  020F  1D03               	skipz
   671  0210  2A15               	goto	u2313
   672  0211  3000               	movlw	0
   673  0212  0267               	subwf	pwmDuty@duty,w
   674  0213  1D03               	skipz
   675  0214  2A15               	goto	u2313
   676  0215                     u2313:	
   677  0215  1803               	btfsc	3,0
   678  0216  2A18               	goto	u2311
   679  0217  2A19               	goto	u2310
   680  0218                     u2311:	
   681  0218  2ABD               	goto	l43
   682  0219                     u2310:	
   683  0219                     l1617:	
   684                           
   685                           ;./pwm.h: 23:         duty = ((float) duty / 1023)*(4000000 / (300 * 16));
   686  0219  086A               	movf	pwmDuty@duty+3,w
   687  021A  00F3               	movwf	___xxtofl@val+3
   688  021B  0869               	movf	pwmDuty@duty+2,w
   689  021C  00F2               	movwf	___xxtofl@val+2
   690  021D  0868               	movf	pwmDuty@duty+1,w
   691  021E  00F1               	movwf	___xxtofl@val+1
   692  021F  0867               	movf	pwmDuty@duty,w
   693  0220  00F0               	movwf	___xxtofl@val
   694  0221  3001               	movlw	1
   695  0222  120A  118A  2114  120A  118A  	fcall	___xxtofl
   696  0227  0873               	movf	?___xxtofl+3,w
   697  0228  1283               	bcf	3,5	;RP0=0, select bank0
   698  0229  1303               	bcf	3,6	;RP1=0, select bank0
   699  022A  00A7               	movwf	___fldiv@b+3
   700  022B  0872               	movf	?___xxtofl+2,w
   701  022C  00A6               	movwf	___fldiv@b+2
   702  022D  0871               	movf	?___xxtofl+1,w
   703  022E  00A5               	movwf	___fldiv@b+1
   704  022F  0870               	movf	?___xxtofl,w
   705  0230  00A4               	movwf	___fldiv@b
   706  0231  3044               	movlw	68
   707  0232  00A3               	movwf	___fldiv@a+3
   708  0233  307F               	movlw	127
   709  0234  00A2               	movwf	___fldiv@a+2
   710  0235  30C0               	movlw	192
   711  0236  00A1               	movwf	___fldiv@a+1
   712  0237  3000               	movlw	0
   713  0238  00A0               	movwf	___fldiv@a
   714  0239  120A  118A  22BE  120A  118A  	fcall	___fldiv
   715  023E  1283               	bcf	3,5	;RP0=0, select bank0
   716  023F  1303               	bcf	3,6	;RP1=0, select bank0
   717  0240  0823               	movf	?___fldiv+3,w
   718  0241  00C1               	movwf	___flmul@a+3
   719  0242  0822               	movf	?___fldiv+2,w
   720  0243  00C0               	movwf	___flmul@a+2
   721  0244  0821               	movf	?___fldiv+1,w
   722  0245  00BF               	movwf	___flmul@a+1
   723  0246  0820               	movf	?___fldiv,w
   724  0247  00BE               	movwf	___flmul@a
   725  0248  3044               	movlw	68
   726  0249  00BD               	movwf	___flmul@b+3
   727  024A  3050               	movlw	80
   728  024B  00BC               	movwf	___flmul@b+2
   729  024C  3040               	movlw	64
   730  024D  00BB               	movwf	___flmul@b+1
   731  024E  3000               	movlw	0
   732  024F  00BA               	movwf	___flmul@b
   733  0250  120A  118A  249B  120A  118A  	fcall	___flmul
   734  0255  1283               	bcf	3,5	;RP0=0, select bank0
   735  0256  1303               	bcf	3,6	;RP1=0, select bank0
   736  0257  083D               	movf	?___flmul+3,w
   737  0258  00D7               	movwf	___fltol@f1+3
   738  0259  083C               	movf	?___flmul+2,w
   739  025A  00D6               	movwf	___fltol@f1+2
   740  025B  083B               	movf	?___flmul+1,w
   741  025C  00D5               	movwf	___fltol@f1+1
   742  025D  083A               	movf	?___flmul,w
   743  025E  00D4               	movwf	___fltol@f1
   744  025F  120A  158A  26E7  120A  118A  	fcall	___fltol
   745  0264  1283               	bcf	3,5	;RP0=0, select bank0
   746  0265  1303               	bcf	3,6	;RP1=0, select bank0
   747  0266  0857               	movf	?___fltol+3,w
   748  0267  00EA               	movwf	pwmDuty@duty+3
   749  0268  0856               	movf	?___fltol+2,w
   750  0269  00E9               	movwf	pwmDuty@duty+2
   751  026A  0855               	movf	?___fltol+1,w
   752  026B  00E8               	movwf	pwmDuty@duty+1
   753  026C  0854               	movf	?___fltol,w
   754  026D  00E7               	movwf	pwmDuty@duty
   755                           
   756                           ;./pwm.h: 25:         switch (channel) {
   757  026E  2AAD               	goto	l1625
   758  026F                     l40:	
   759                           ;./pwm.h: 27:             case 1:
   760                           
   761                           
   762                           ;./pwm.h: 28:                 CCP1X = duty & 1;
   763  026F  1867               	btfsc	pwmDuty@duty,0
   764  0270  2A72               	goto	u2321
   765  0271  2A76               	goto	u2320
   766  0272                     u2321:	
   767  0272  1283               	bcf	3,5	;RP0=0, select bank0
   768  0273  1303               	bcf	3,6	;RP1=0, select bank0
   769  0274  1697               	bsf	23,5	;volatile
   770  0275  2A79               	goto	u2334
   771  0276                     u2320:	
   772  0276  1283               	bcf	3,5	;RP0=0, select bank0
   773  0277  1303               	bcf	3,6	;RP1=0, select bank0
   774  0278  1297               	bcf	23,5	;volatile
   775  0279                     u2334:	
   776                           
   777                           ;./pwm.h: 29:                 CCP1Y = duty & 2;
   778  0279  1217               	bcf	23,4	;volatile
   779  027A                     l1619:	
   780                           
   781                           ;./pwm.h: 30:                 CCPR1L = duty >> 2;
   782  027A  0867               	movf	pwmDuty@duty,w
   783  027B  00E2               	movwf	??_pwmDuty
   784  027C  0868               	movf	pwmDuty@duty+1,w
   785  027D  00E3               	movwf	??_pwmDuty+1
   786  027E  0869               	movf	pwmDuty@duty+2,w
   787  027F  00E4               	movwf	??_pwmDuty+2
   788  0280  086A               	movf	pwmDuty@duty+3,w
   789  0281  00E5               	movwf	??_pwmDuty+3
   790  0282  3002               	movlw	2
   791  0283  00E6               	movwf	??_pwmDuty+4
   792  0284                     u2345:	
   793  0284  0D65               	rlf	??_pwmDuty+3,w
   794  0285  0CE5               	rrf	??_pwmDuty+3,f
   795  0286  0CE4               	rrf	??_pwmDuty+2,f
   796  0287  0CE3               	rrf	??_pwmDuty+1,f
   797  0288  0CE2               	rrf	??_pwmDuty,f
   798  0289                     u2340:	
   799  0289  0BE6               	decfsz	??_pwmDuty+4,f
   800  028A  2A84               	goto	u2345
   801  028B  0862               	movf	??_pwmDuty,w
   802  028C  0095               	movwf	21	;volatile
   803                           
   804                           ;./pwm.h: 31:                 break;
   805  028D  2ABD               	goto	l43
   806  028E                     l42:	
   807                           ;./pwm.h: 33:             case 2:
   808                           
   809                           
   810                           ;./pwm.h: 34:                 CCP2X = duty & 1;
   811  028E  1867               	btfsc	pwmDuty@duty,0
   812  028F  2A91               	goto	u2351
   813  0290  2A95               	goto	u2350
   814  0291                     u2351:	
   815  0291  1283               	bcf	3,5	;RP0=0, select bank0
   816  0292  1303               	bcf	3,6	;RP1=0, select bank0
   817  0293  169D               	bsf	29,5	;volatile
   818  0294  2A98               	goto	u2364
   819  0295                     u2350:	
   820  0295  1283               	bcf	3,5	;RP0=0, select bank0
   821  0296  1303               	bcf	3,6	;RP1=0, select bank0
   822  0297  129D               	bcf	29,5	;volatile
   823  0298                     u2364:	
   824                           
   825                           ;./pwm.h: 35:                 CCP2Y = duty & 2;
   826  0298  121D               	bcf	29,4	;volatile
   827  0299                     l1621:	
   828                           
   829                           ;./pwm.h: 36:                 CCPR2L = duty >> 2;
   830  0299  0867               	movf	pwmDuty@duty,w
   831  029A  00E2               	movwf	??_pwmDuty
   832  029B  0868               	movf	pwmDuty@duty+1,w
   833  029C  00E3               	movwf	??_pwmDuty+1
   834  029D  0869               	movf	pwmDuty@duty+2,w
   835  029E  00E4               	movwf	??_pwmDuty+2
   836  029F  086A               	movf	pwmDuty@duty+3,w
   837  02A0  00E5               	movwf	??_pwmDuty+3
   838  02A1  3002               	movlw	2
   839  02A2  00E6               	movwf	??_pwmDuty+4
   840  02A3                     u2375:	
   841  02A3  0D65               	rlf	??_pwmDuty+3,w
   842  02A4  0CE5               	rrf	??_pwmDuty+3,f
   843  02A5  0CE4               	rrf	??_pwmDuty+2,f
   844  02A6  0CE3               	rrf	??_pwmDuty+1,f
   845  02A7  0CE2               	rrf	??_pwmDuty,f
   846  02A8                     u2370:	
   847  02A8  0BE6               	decfsz	??_pwmDuty+4,f
   848  02A9  2AA3               	goto	u2375
   849  02AA  0862               	movf	??_pwmDuty,w
   850  02AB  009B               	movwf	27	;volatile
   851                           
   852                           ;./pwm.h: 37:                 break;
   853  02AC  2ABD               	goto	l43
   854  02AD                     l1625:	
   855  02AD  0861               	movf	pwmDuty@channel,w
   856  02AE  00E2               	movwf	??_pwmDuty
   857  02AF  01E3               	clrf	??_pwmDuty+1
   858                           
   859                           ; Switch on 2 bytes has been partitioned into a top level switch of size 1, and 1 sub-sw
      +                          itches
   860                           ; Switch size 1, requested type "simple"
   861                           ; Number of cases is 1, Range of values is 0 to 0
   862                           ; switch strategies available:
   863                           ; Name         Instructions Cycles
   864                           ; simple_byte            4     3 (average)
   865                           ; direct_byte           11     8 (fixed)
   866                           ; jumptable            260     6 (fixed)
   867                           ;	Chosen strategy is simple_byte
   868  02B0  0863               	movf	??_pwmDuty+1,w
   869  02B1  3A00               	xorlw	0	; case 0
   870  02B2  1903               	skipnz
   871  02B3  2AB5               	goto	l1701
   872  02B4  2ABD               	goto	l43
   873  02B5                     l1701:	
   874                           
   875                           ; Switch size 1, requested type "simple"
   876                           ; Number of cases is 2, Range of values is 1 to 2
   877                           ; switch strategies available:
   878                           ; Name         Instructions Cycles
   879                           ; simple_byte            7     4 (average)
   880                           ; direct_byte           17    11 (fixed)
   881                           ; jumptable            263     9 (fixed)
   882                           ;	Chosen strategy is simple_byte
   883  02B5  0862               	movf	??_pwmDuty,w
   884  02B6  3A01               	xorlw	1	; case 1
   885  02B7  1903               	skipnz
   886  02B8  2A6F               	goto	l40
   887  02B9  3A03               	xorlw	3	; case 2
   888  02BA  1903               	skipnz
   889  02BB  2A8E               	goto	l42
   890  02BC  2ABD               	goto	l43
   891  02BD                     l43:	
   892  02BD  0008               	return
   893  02BE                     __end_of_pwmDuty:	
   894                           
   895                           	psect	text2
   896  006C                     __ptext2:	
   897 ;; *************** function _map *****************
   898 ;; Defined at:
   899 ;;		line 13 in file "./pwm.h"
   900 ;; Parameters:    Size  Location     Type
   901 ;;  x               4   14[BANK0 ] long 
   902 ;;  in_min          4   18[BANK0 ] long 
   903 ;;  in_max          4   22[BANK0 ] long 
   904 ;;  out_min         4   26[BANK0 ] long 
   905 ;;  out_max         4   30[BANK0 ] long 
   906 ;; Auto vars:     Size  Location     Type
   907 ;;		None
   908 ;; Return value:  Size  Location     Type
   909 ;;                  4   14[BANK0 ] long 
   910 ;; Registers used:
   911 ;;		wreg, status,2, status,0, pclath, cstack
   912 ;; Tracked objects:
   913 ;;		On entry : 0/0
   914 ;;		On exit  : 0/0
   915 ;;		Unchanged: 0/0
   916 ;; Data sizes:     COMMON   BANK0   BANK1   BANK3   BANK2
   917 ;;      Params:         0      20       0       0       0
   918 ;;      Locals:         0       0       0       0       0
   919 ;;      Temps:          0      16       0       0       0
   920 ;;      Totals:         0      36       0       0       0
   921 ;;Total ram usage:       36 bytes
   922 ;; Hardware stack levels used:    1
   923 ;; Hardware stack levels required when called:    1
   924 ;; This function calls:
   925 ;;		___aldiv
   926 ;;		___lmul
   927 ;; This function is called by:
   928 ;;		_pwmDuty
   929 ;; This function uses a non-reentrant model
   930 ;;
   931                           
   932                           
   933                           ;psect for function _map
   934  006C                     _map:	
   935  006C                     l1247:	
   936                           ;incstack = 0
   937                           ; Regs used in _map: [wreg+status,2+status,0+pclath+cstack]
   938                           
   939                           
   940                           ;./pwm.h: 14:     return (x - in_min) * (out_max - out_min) / (in_max - in_min) + out_mi
      +                          n;
   941  006C  1283               	bcf	3,5	;RP0=0, select bank0
   942  006D  1303               	bcf	3,6	;RP1=0, select bank0
   943  006E  0836               	movf	map@in_max,w
   944  006F  00C2               	movwf	??_map
   945  0070  0837               	movf	map@in_max+1,w
   946  0071  00C3               	movwf	??_map+1
   947  0072  0838               	movf	map@in_max+2,w
   948  0073  00C4               	movwf	??_map+2
   949  0074  0839               	movf	map@in_max+3,w
   950  0075  00C5               	movwf	??_map+3
   951  0076  0832               	movf	map@in_min,w
   952  0077  02C2               	subwf	??_map,f
   953  0078  0833               	movf	map@in_min+1,w
   954  0079  1C03               	skipc
   955  007A  0F33               	incfsz	map@in_min+1,w
   956  007B  287D               	goto	u1381
   957  007C  287E               	goto	u1382
   958  007D                     u1381:	
   959  007D  02C3               	subwf	??_map+1,f
   960  007E                     u1382:	
   961  007E  0834               	movf	map@in_min+2,w
   962  007F  1C03               	skipc
   963  0080  0F34               	incfsz	map@in_min+2,w
   964  0081  2883               	goto	u1383
   965  0082  2884               	goto	u1384
   966  0083                     u1383:	
   967  0083  02C4               	subwf	??_map+2,f
   968  0084                     u1384:	
   969  0084  0835               	movf	map@in_min+3,w
   970  0085  1C03               	skipc
   971  0086  0F35               	incfsz	map@in_min+3,w
   972  0087  2889               	goto	u1385
   973  0088  288A               	goto	u1386
   974  0089                     u1385:	
   975  0089  02C5               	subwf	??_map+3,f
   976  008A                     u1386:	
   977  008A  0845               	movf	??_map+3,w
   978  008B  00A3               	movwf	___aldiv@divisor+3
   979  008C  0844               	movf	??_map+2,w
   980  008D  00A2               	movwf	___aldiv@divisor+2
   981  008E  0843               	movf	??_map+1,w
   982  008F  00A1               	movwf	___aldiv@divisor+1
   983  0090  0842               	movf	??_map,w
   984  0091  00A0               	movwf	___aldiv@divisor
   985  0092  082E               	movf	map@x,w
   986  0093  00C6               	movwf	??_map+4
   987  0094  082F               	movf	map@x+1,w
   988  0095  00C7               	movwf	??_map+5
   989  0096  0830               	movf	map@x+2,w
   990  0097  00C8               	movwf	??_map+6
   991  0098  0831               	movf	map@x+3,w
   992  0099  00C9               	movwf	??_map+7
   993  009A  0832               	movf	map@in_min,w
   994  009B  02C6               	subwf	??_map+4,f
   995  009C  0833               	movf	map@in_min+1,w
   996  009D  1C03               	skipc
   997  009E  0F33               	incfsz	map@in_min+1,w
   998  009F  28A1               	goto	u1391
   999  00A0  28A2               	goto	u1392
  1000  00A1                     u1391:	
  1001  00A1  02C7               	subwf	??_map+5,f
  1002  00A2                     u1392:	
  1003  00A2  0834               	movf	map@in_min+2,w
  1004  00A3  1C03               	skipc
  1005  00A4  0F34               	incfsz	map@in_min+2,w
  1006  00A5  28A7               	goto	u1393
  1007  00A6  28A8               	goto	u1394
  1008  00A7                     u1393:	
  1009  00A7  02C8               	subwf	??_map+6,f
  1010  00A8                     u1394:	
  1011  00A8  0835               	movf	map@in_min+3,w
  1012  00A9  1C03               	skipc
  1013  00AA  0F35               	incfsz	map@in_min+3,w
  1014  00AB  28AD               	goto	u1395
  1015  00AC  28AE               	goto	u1396
  1016  00AD                     u1395:	
  1017  00AD  02C9               	subwf	??_map+7,f
  1018  00AE                     u1396:	
  1019  00AE  0849               	movf	??_map+7,w
  1020  00AF  00F3               	movwf	___lmul@multiplier+3
  1021  00B0  0848               	movf	??_map+6,w
  1022  00B1  00F2               	movwf	___lmul@multiplier+2
  1023  00B2  0847               	movf	??_map+5,w
  1024  00B3  00F1               	movwf	___lmul@multiplier+1
  1025  00B4  0846               	movf	??_map+4,w
  1026  00B5  00F0               	movwf	___lmul@multiplier
  1027  00B6  083E               	movf	map@out_max,w
  1028  00B7  00CA               	movwf	??_map+8
  1029  00B8  083F               	movf	map@out_max+1,w
  1030  00B9  00CB               	movwf	??_map+9
  1031  00BA  0840               	movf	map@out_max+2,w
  1032  00BB  00CC               	movwf	??_map+10
  1033  00BC  0841               	movf	map@out_max+3,w
  1034  00BD  00CD               	movwf	??_map+11
  1035  00BE  083A               	movf	map@out_min,w
  1036  00BF  02CA               	subwf	??_map+8,f
  1037  00C0  083B               	movf	map@out_min+1,w
  1038  00C1  1C03               	skipc
  1039  00C2  0F3B               	incfsz	map@out_min+1,w
  1040  00C3  28C5               	goto	u1401
  1041  00C4  28C6               	goto	u1402
  1042  00C5                     u1401:	
  1043  00C5  02CB               	subwf	??_map+9,f
  1044  00C6                     u1402:	
  1045  00C6  083C               	movf	map@out_min+2,w
  1046  00C7  1C03               	skipc
  1047  00C8  0F3C               	incfsz	map@out_min+2,w
  1048  00C9  28CB               	goto	u1403
  1049  00CA  28CC               	goto	u1404
  1050  00CB                     u1403:	
  1051  00CB  02CC               	subwf	??_map+10,f
  1052  00CC                     u1404:	
  1053  00CC  083D               	movf	map@out_min+3,w
  1054  00CD  1C03               	skipc
  1055  00CE  0F3D               	incfsz	map@out_min+3,w
  1056  00CF  28D1               	goto	u1405
  1057  00D0  28D2               	goto	u1406
  1058  00D1                     u1405:	
  1059  00D1  02CD               	subwf	??_map+11,f
  1060  00D2                     u1406:	
  1061  00D2  084D               	movf	??_map+11,w
  1062  00D3  00F7               	movwf	___lmul@multiplicand+3
  1063  00D4  084C               	movf	??_map+10,w
  1064  00D5  00F6               	movwf	___lmul@multiplicand+2
  1065  00D6  084B               	movf	??_map+9,w
  1066  00D7  00F5               	movwf	___lmul@multiplicand+1
  1067  00D8  084A               	movf	??_map+8,w
  1068  00D9  00F4               	movwf	___lmul@multiplicand
  1069  00DA  120A  118A  2026  120A  118A  	fcall	___lmul
  1070  00DF  0873               	movf	?___lmul+3,w
  1071  00E0  1283               	bcf	3,5	;RP0=0, select bank0
  1072  00E1  1303               	bcf	3,6	;RP1=0, select bank0
  1073  00E2  00A7               	movwf	___aldiv@dividend+3
  1074  00E3  0872               	movf	?___lmul+2,w
  1075  00E4  00A6               	movwf	___aldiv@dividend+2
  1076  00E5  0871               	movf	?___lmul+1,w
  1077  00E6  00A5               	movwf	___aldiv@dividend+1
  1078  00E7  0870               	movf	?___lmul,w
  1079  00E8  00A4               	movwf	___aldiv@dividend
  1080  00E9  120A  158A  2763  120A  118A  	fcall	___aldiv
  1081  00EE  1283               	bcf	3,5	;RP0=0, select bank0
  1082  00EF  1303               	bcf	3,6	;RP1=0, select bank0
  1083  00F0  0820               	movf	?___aldiv,w
  1084  00F1  073A               	addwf	map@out_min,w
  1085  00F2  00CE               	movwf	??_map+12
  1086  00F3  3000               	movlw	0
  1087  00F4  1803               	skipnc
  1088  00F5  3001               	movlw	1
  1089  00F6  0721               	addwf	?___aldiv+1,w
  1090  00F7  01D0               	clrf	??_map+14
  1091  00F8  1803               	skipnc
  1092  00F9  0AD0               	incf	??_map+14,f
  1093  00FA  073B               	addwf	map@out_min+1,w
  1094  00FB  00CF               	movwf	??_map+13
  1095  00FC  1803               	skipnc
  1096  00FD  0AD0               	incf	??_map+14,f
  1097  00FE  0822               	movf	?___aldiv+2,w
  1098  00FF  0750               	addwf	??_map+14,w
  1099  0100  01D1               	clrf	??_map+15
  1100  0101  1803               	skipnc
  1101  0102  0AD1               	incf	??_map+15,f
  1102  0103  073C               	addwf	map@out_min+2,w
  1103  0104  00D0               	movwf	??_map+14
  1104  0105  1803               	skipnc
  1105  0106  0AD1               	incf	??_map+15,f
  1106  0107  0823               	movf	?___aldiv+3,w
  1107  0108  0751               	addwf	??_map+15,w
  1108  0109  073D               	addwf	map@out_min+3,w
  1109  010A  00D1               	movwf	??_map+15
  1110  010B  0851               	movf	??_map+15,w
  1111  010C  00B1               	movwf	?_map+3
  1112  010D  0850               	movf	??_map+14,w
  1113  010E  00B0               	movwf	?_map+2
  1114  010F  084F               	movf	??_map+13,w
  1115  0110  00AF               	movwf	?_map+1
  1116  0111  084E               	movf	??_map+12,w
  1117  0112  00AE               	movwf	?_map
  1118  0113                     l35:	
  1119  0113  0008               	return
  1120  0114                     __end_of_map:	
  1121                           
  1122                           	psect	text3
  1123  0026                     __ptext3:	
  1124 ;; *************** function ___lmul *****************
  1125 ;; Defined at:
  1126 ;;		line 15 in file "C:\Program Files (x86)\Microchip\xc8\v2.10\pic\sources\c90\common\Umul32.c"
  1127 ;; Parameters:    Size  Location     Type
  1128 ;;  multiplier      4    0[COMMON] unsigned long 
  1129 ;;  multiplicand    4    4[COMMON] unsigned long 
  1130 ;; Auto vars:     Size  Location     Type
  1131 ;;  product         4    9[COMMON] unsigned long 
  1132 ;; Return value:  Size  Location     Type
  1133 ;;                  4    0[COMMON] unsigned long 
  1134 ;; Registers used:
  1135 ;;		wreg, status,2, status,0
  1136 ;; Tracked objects:
  1137 ;;		On entry : 0/0
  1138 ;;		On exit  : 0/0
  1139 ;;		Unchanged: 0/0
  1140 ;; Data sizes:     COMMON   BANK0   BANK1   BANK3   BANK2
  1141 ;;      Params:         8       0       0       0       0
  1142 ;;      Locals:         4       0       0       0       0
  1143 ;;      Temps:          1       0       0       0       0
  1144 ;;      Totals:        13       0       0       0       0
  1145 ;;Total ram usage:       13 bytes
  1146 ;; Hardware stack levels used:    1
  1147 ;; This function calls:
  1148 ;;		Nothing
  1149 ;; This function is called by:
  1150 ;;		_map
  1151 ;; This function uses a non-reentrant model
  1152 ;;
  1153                           
  1154                           
  1155                           ;psect for function ___lmul
  1156  0026                     ___lmul:	
  1157  0026                     l1179:	
  1158                           ;incstack = 0
  1159                           ; Regs used in ___lmul: [wreg+status,2+status,0]
  1160                           
  1161  0026  3000               	movlw	0
  1162  0027  00FC               	movwf	___lmul@product+3
  1163  0028  3000               	movlw	0
  1164  0029  00FB               	movwf	___lmul@product+2
  1165  002A  3000               	movlw	0
  1166  002B  00FA               	movwf	___lmul@product+1
  1167  002C  3000               	movlw	0
  1168  002D  00F9               	movwf	___lmul@product
  1169  002E                     l1181:	
  1170  002E  1C70               	btfss	___lmul@multiplier,0
  1171  002F  2831               	goto	u1201
  1172  0030  2832               	goto	u1200
  1173  0031                     u1201:	
  1174  0031  2849               	goto	l1185
  1175  0032                     u1200:	
  1176  0032                     l1183:	
  1177  0032  0874               	movf	___lmul@multiplicand,w
  1178  0033  07F9               	addwf	___lmul@product,f
  1179  0034  0875               	movf	___lmul@multiplicand+1,w
  1180  0035  1103               	clrz
  1181  0036  1803               	skipnc
  1182  0037  3E01               	addlw	1
  1183  0038  1903               	skipnz
  1184  0039  283B               	goto	u1211
  1185  003A  07FA               	addwf	___lmul@product+1,f
  1186  003B                     u1211:	
  1187  003B  0876               	movf	___lmul@multiplicand+2,w
  1188  003C  1103               	clrz
  1189  003D  1803               	skipnc
  1190  003E  3E01               	addlw	1
  1191  003F  1903               	skipnz
  1192  0040  2842               	goto	u1212
  1193  0041  07FB               	addwf	___lmul@product+2,f
  1194  0042                     u1212:	
  1195  0042  0877               	movf	___lmul@multiplicand+3,w
  1196  0043  1103               	clrz
  1197  0044  1803               	skipnc
  1198  0045  3E01               	addlw	1
  1199  0046  1903               	skipnz
  1200  0047  2849               	goto	u1213
  1201  0048  07FC               	addwf	___lmul@product+3,f
  1202  0049                     u1213:	
  1203  0049                     l1185:	
  1204  0049  3001               	movlw	1
  1205  004A  00F8               	movwf	??___lmul
  1206  004B                     u1225:	
  1207  004B  1003               	clrc
  1208  004C  0DF4               	rlf	___lmul@multiplicand,f
  1209  004D  0DF5               	rlf	___lmul@multiplicand+1,f
  1210  004E  0DF6               	rlf	___lmul@multiplicand+2,f
  1211  004F  0DF7               	rlf	___lmul@multiplicand+3,f
  1212  0050  0BF8               	decfsz	??___lmul,f
  1213  0051  284B               	goto	u1225
  1214  0052                     l1187:	
  1215  0052  3001               	movlw	1
  1216  0053                     u1235:	
  1217  0053  1003               	clrc
  1218  0054  0CF3               	rrf	___lmul@multiplier+3,f
  1219  0055  0CF2               	rrf	___lmul@multiplier+2,f
  1220  0056  0CF1               	rrf	___lmul@multiplier+1,f
  1221  0057  0CF0               	rrf	___lmul@multiplier,f
  1222  0058  3EFF               	addlw	-1
  1223  0059  1D03               	skipz
  1224  005A  2853               	goto	u1235
  1225  005B  0873               	movf	___lmul@multiplier+3,w
  1226  005C  0472               	iorwf	___lmul@multiplier+2,w
  1227  005D  0471               	iorwf	___lmul@multiplier+1,w
  1228  005E  0470               	iorwf	___lmul@multiplier,w
  1229  005F  1D03               	skipz
  1230  0060  2862               	goto	u1241
  1231  0061  2863               	goto	u1240
  1232  0062                     u1241:	
  1233  0062  282E               	goto	l1181
  1234  0063                     u1240:	
  1235  0063                     l1189:	
  1236  0063  087C               	movf	___lmul@product+3,w
  1237  0064  00F3               	movwf	?___lmul+3
  1238  0065  087B               	movf	___lmul@product+2,w
  1239  0066  00F2               	movwf	?___lmul+2
  1240  0067  087A               	movf	___lmul@product+1,w
  1241  0068  00F1               	movwf	?___lmul+1
  1242  0069  0879               	movf	___lmul@product,w
  1243  006A  00F0               	movwf	?___lmul
  1244  006B                     l165:	
  1245  006B  0008               	return
  1246  006C                     __end_of___lmul:	
  1247                           
  1248                           	psect	text4
  1249  0F63                     __ptext4:	
  1250 ;; *************** function ___aldiv *****************
  1251 ;; Defined at:
  1252 ;;		line 5 in file "C:\Program Files (x86)\Microchip\xc8\v2.10\pic\sources\c90\common\aldiv.c"
  1253 ;; Parameters:    Size  Location     Type
  1254 ;;  divisor         4    0[BANK0 ] long 
  1255 ;;  dividend        4    4[BANK0 ] long 
  1256 ;; Auto vars:     Size  Location     Type
  1257 ;;  quotient        4   10[BANK0 ] long 
  1258 ;;  sign            1    9[BANK0 ] unsigned char 
  1259 ;;  counter         1    8[BANK0 ] unsigned char 
  1260 ;; Return value:  Size  Location     Type
  1261 ;;                  4    0[BANK0 ] long 
  1262 ;; Registers used:
  1263 ;;		wreg, status,2, status,0
  1264 ;; Tracked objects:
  1265 ;;		On entry : 0/0
  1266 ;;		On exit  : 0/0
  1267 ;;		Unchanged: 0/0
  1268 ;; Data sizes:     COMMON   BANK0   BANK1   BANK3   BANK2
  1269 ;;      Params:         0       8       0       0       0
  1270 ;;      Locals:         0       6       0       0       0
  1271 ;;      Temps:          1       0       0       0       0
  1272 ;;      Totals:         1      14       0       0       0
  1273 ;;Total ram usage:       15 bytes
  1274 ;; Hardware stack levels used:    1
  1275 ;; This function calls:
  1276 ;;		Nothing
  1277 ;; This function is called by:
  1278 ;;		_map
  1279 ;; This function uses a non-reentrant model
  1280 ;;
  1281                           
  1282                           
  1283                           ;psect for function ___aldiv
  1284  0F63                     ___aldiv:	
  1285  0F63                     l1193:	
  1286                           ;incstack = 0
  1287                           ; Regs used in ___aldiv: [wreg+status,2+status,0]
  1288                           
  1289  0F63  1283               	bcf	3,5	;RP0=0, select bank0
  1290  0F64  1303               	bcf	3,6	;RP1=0, select bank0
  1291  0F65  01A9               	clrf	___aldiv@sign
  1292  0F66                     l1195:	
  1293  0F66  1FA3               	btfss	___aldiv@divisor+3,7
  1294  0F67  2F69               	goto	u1251
  1295  0F68  2F6A               	goto	u1250
  1296  0F69                     u1251:	
  1297  0F69  2F77               	goto	l216
  1298  0F6A                     u1250:	
  1299  0F6A                     l1197:	
  1300  0F6A  09A0               	comf	___aldiv@divisor,f
  1301  0F6B  09A1               	comf	___aldiv@divisor+1,f
  1302  0F6C  09A2               	comf	___aldiv@divisor+2,f
  1303  0F6D  09A3               	comf	___aldiv@divisor+3,f
  1304  0F6E  0AA0               	incf	___aldiv@divisor,f
  1305  0F6F  1903               	skipnz
  1306  0F70  0AA1               	incf	___aldiv@divisor+1,f
  1307  0F71  1903               	skipnz
  1308  0F72  0AA2               	incf	___aldiv@divisor+2,f
  1309  0F73  1903               	skipnz
  1310  0F74  0AA3               	incf	___aldiv@divisor+3,f
  1311  0F75  01A9               	clrf	___aldiv@sign
  1312  0F76  0AA9               	incf	___aldiv@sign,f
  1313  0F77                     l216:	
  1314  0F77  1FA7               	btfss	___aldiv@dividend+3,7
  1315  0F78  2F7A               	goto	u1261
  1316  0F79  2F7B               	goto	u1260
  1317  0F7A                     u1261:	
  1318  0F7A  2F8A               	goto	l1203
  1319  0F7B                     u1260:	
  1320  0F7B                     l1199:	
  1321  0F7B  09A4               	comf	___aldiv@dividend,f
  1322  0F7C  09A5               	comf	___aldiv@dividend+1,f
  1323  0F7D  09A6               	comf	___aldiv@dividend+2,f
  1324  0F7E  09A7               	comf	___aldiv@dividend+3,f
  1325  0F7F  0AA4               	incf	___aldiv@dividend,f
  1326  0F80  1903               	skipnz
  1327  0F81  0AA5               	incf	___aldiv@dividend+1,f
  1328  0F82  1903               	skipnz
  1329  0F83  0AA6               	incf	___aldiv@dividend+2,f
  1330  0F84  1903               	skipnz
  1331  0F85  0AA7               	incf	___aldiv@dividend+3,f
  1332  0F86                     l1201:	
  1333  0F86  3001               	movlw	1
  1334  0F87  00FD               	movwf	??___aldiv
  1335  0F88  087D               	movf	??___aldiv,w
  1336  0F89  06A9               	xorwf	___aldiv@sign,f
  1337  0F8A                     l1203:	
  1338  0F8A  3000               	movlw	0
  1339  0F8B  00AD               	movwf	___aldiv@quotient+3
  1340  0F8C  3000               	movlw	0
  1341  0F8D  00AC               	movwf	___aldiv@quotient+2
  1342  0F8E  3000               	movlw	0
  1343  0F8F  00AB               	movwf	___aldiv@quotient+1
  1344  0F90  3000               	movlw	0
  1345  0F91  00AA               	movwf	___aldiv@quotient
  1346  0F92                     l1205:	
  1347  0F92  0823               	movf	___aldiv@divisor+3,w
  1348  0F93  0422               	iorwf	___aldiv@divisor+2,w
  1349  0F94  0421               	iorwf	___aldiv@divisor+1,w
  1350  0F95  0420               	iorwf	___aldiv@divisor,w
  1351  0F96  1903               	skipnz
  1352  0F97  2F99               	goto	u1271
  1353  0F98  2F9A               	goto	u1270
  1354  0F99                     u1271:	
  1355  0F99  2FE7               	goto	l1225
  1356  0F9A                     u1270:	
  1357  0F9A                     l1207:	
  1358  0F9A  01A8               	clrf	___aldiv@counter
  1359  0F9B  0AA8               	incf	___aldiv@counter,f
  1360  0F9C  2FAA               	goto	l1211
  1361  0F9D                     l1209:	
  1362  0F9D  3001               	movlw	1
  1363  0F9E  00FD               	movwf	??___aldiv
  1364  0F9F                     u1285:	
  1365  0F9F  1003               	clrc
  1366  0FA0  0DA0               	rlf	___aldiv@divisor,f
  1367  0FA1  0DA1               	rlf	___aldiv@divisor+1,f
  1368  0FA2  0DA2               	rlf	___aldiv@divisor+2,f
  1369  0FA3  0DA3               	rlf	___aldiv@divisor+3,f
  1370  0FA4  0BFD               	decfsz	??___aldiv,f
  1371  0FA5  2F9F               	goto	u1285
  1372  0FA6  3001               	movlw	1
  1373  0FA7  00FD               	movwf	??___aldiv
  1374  0FA8  087D               	movf	??___aldiv,w
  1375  0FA9  07A8               	addwf	___aldiv@counter,f
  1376  0FAA                     l1211:	
  1377  0FAA  1FA3               	btfss	___aldiv@divisor+3,7
  1378  0FAB  2FAD               	goto	u1291
  1379  0FAC  2FAE               	goto	u1290
  1380  0FAD                     u1291:	
  1381  0FAD  2F9D               	goto	l1209
  1382  0FAE                     u1290:	
  1383  0FAE                     l1213:	
  1384  0FAE  3001               	movlw	1
  1385  0FAF  00FD               	movwf	??___aldiv
  1386  0FB0                     u1305:	
  1387  0FB0  1003               	clrc
  1388  0FB1  0DAA               	rlf	___aldiv@quotient,f
  1389  0FB2  0DAB               	rlf	___aldiv@quotient+1,f
  1390  0FB3  0DAC               	rlf	___aldiv@quotient+2,f
  1391  0FB4  0DAD               	rlf	___aldiv@quotient+3,f
  1392  0FB5  0BFD               	decfsz	??___aldiv,f
  1393  0FB6  2FB0               	goto	u1305
  1394  0FB7                     l1215:	
  1395  0FB7  0823               	movf	___aldiv@divisor+3,w
  1396  0FB8  0227               	subwf	___aldiv@dividend+3,w
  1397  0FB9  1D03               	skipz
  1398  0FBA  2FC5               	goto	u1315
  1399  0FBB  0822               	movf	___aldiv@divisor+2,w
  1400  0FBC  0226               	subwf	___aldiv@dividend+2,w
  1401  0FBD  1D03               	skipz
  1402  0FBE  2FC5               	goto	u1315
  1403  0FBF  0821               	movf	___aldiv@divisor+1,w
  1404  0FC0  0225               	subwf	___aldiv@dividend+1,w
  1405  0FC1  1D03               	skipz
  1406  0FC2  2FC5               	goto	u1315
  1407  0FC3  0820               	movf	___aldiv@divisor,w
  1408  0FC4  0224               	subwf	___aldiv@dividend,w
  1409  0FC5                     u1315:	
  1410  0FC5  1C03               	skipc
  1411  0FC6  2FC8               	goto	u1311
  1412  0FC7  2FC9               	goto	u1310
  1413  0FC8                     u1311:	
  1414  0FC8  2FD8               	goto	l1221
  1415  0FC9                     u1310:	
  1416  0FC9                     l1217:	
  1417  0FC9  0820               	movf	___aldiv@divisor,w
  1418  0FCA  02A4               	subwf	___aldiv@dividend,f
  1419  0FCB  0821               	movf	___aldiv@divisor+1,w
  1420  0FCC  1C03               	skipc
  1421  0FCD  0F21               	incfsz	___aldiv@divisor+1,w
  1422  0FCE  02A5               	subwf	___aldiv@dividend+1,f
  1423  0FCF  0822               	movf	___aldiv@divisor+2,w
  1424  0FD0  1C03               	skipc
  1425  0FD1  0F22               	incfsz	___aldiv@divisor+2,w
  1426  0FD2  02A6               	subwf	___aldiv@dividend+2,f
  1427  0FD3  0823               	movf	___aldiv@divisor+3,w
  1428  0FD4  1C03               	skipc
  1429  0FD5  0F23               	incfsz	___aldiv@divisor+3,w
  1430  0FD6  02A7               	subwf	___aldiv@dividend+3,f
  1431  0FD7                     l1219:	
  1432  0FD7  142A               	bsf	___aldiv@quotient,0
  1433  0FD8                     l1221:	
  1434  0FD8  3001               	movlw	1
  1435  0FD9                     u1325:	
  1436  0FD9  1003               	clrc
  1437  0FDA  0CA3               	rrf	___aldiv@divisor+3,f
  1438  0FDB  0CA2               	rrf	___aldiv@divisor+2,f
  1439  0FDC  0CA1               	rrf	___aldiv@divisor+1,f
  1440  0FDD  0CA0               	rrf	___aldiv@divisor,f
  1441  0FDE  3EFF               	addlw	-1
  1442  0FDF  1D03               	skipz
  1443  0FE0  2FD9               	goto	u1325
  1444  0FE1                     l1223:	
  1445  0FE1  3001               	movlw	1
  1446  0FE2  02A8               	subwf	___aldiv@counter,f
  1447  0FE3  1D03               	btfss	3,2
  1448  0FE4  2FE6               	goto	u1331
  1449  0FE5  2FE7               	goto	u1330
  1450  0FE6                     u1331:	
  1451  0FE6  2FAE               	goto	l1213
  1452  0FE7                     u1330:	
  1453  0FE7                     l1225:	
  1454  0FE7  0829               	movf	___aldiv@sign,w
  1455  0FE8  1903               	btfsc	3,2
  1456  0FE9  2FEB               	goto	u1341
  1457  0FEA  2FEC               	goto	u1340
  1458  0FEB                     u1341:	
  1459  0FEB  2FF7               	goto	l1229
  1460  0FEC                     u1340:	
  1461  0FEC                     l1227:	
  1462  0FEC  09AA               	comf	___aldiv@quotient,f
  1463  0FED  09AB               	comf	___aldiv@quotient+1,f
  1464  0FEE  09AC               	comf	___aldiv@quotient+2,f
  1465  0FEF  09AD               	comf	___aldiv@quotient+3,f
  1466  0FF0  0AAA               	incf	___aldiv@quotient,f
  1467  0FF1  1903               	skipnz
  1468  0FF2  0AAB               	incf	___aldiv@quotient+1,f
  1469  0FF3  1903               	skipnz
  1470  0FF4  0AAC               	incf	___aldiv@quotient+2,f
  1471  0FF5  1903               	skipnz
  1472  0FF6  0AAD               	incf	___aldiv@quotient+3,f
  1473  0FF7                     l1229:	
  1474  0FF7  082D               	movf	___aldiv@quotient+3,w
  1475  0FF8  00A3               	movwf	?___aldiv+3
  1476  0FF9  082C               	movf	___aldiv@quotient+2,w
  1477  0FFA  00A2               	movwf	?___aldiv+2
  1478  0FFB  082B               	movf	___aldiv@quotient+1,w
  1479  0FFC  00A1               	movwf	?___aldiv+1
  1480  0FFD  082A               	movf	___aldiv@quotient,w
  1481  0FFE  00A0               	movwf	?___aldiv
  1482  0FFF                     l226:	
  1483  0FFF  0008               	return
  1484  1000                     __end_of___aldiv:	
  1485                           
  1486                           	psect	text5
  1487  0114                     __ptext5:	
  1488 ;; *************** function ___xxtofl *****************
  1489 ;; Defined at:
  1490 ;;		line 10 in file "C:\Program Files (x86)\Microchip\xc8\v2.10\pic\sources\c90\common\xxtofl.c"
  1491 ;; Parameters:    Size  Location     Type
  1492 ;;  sign            1    wreg     unsigned char 
  1493 ;;  val             4    0[COMMON] long 
  1494 ;; Auto vars:     Size  Location     Type
  1495 ;;  sign            1    8[COMMON] unsigned char 
  1496 ;;  arg             4   10[COMMON] unsigned long 
  1497 ;;  exp             1    9[COMMON] unsigned char 
  1498 ;; Return value:  Size  Location     Type
  1499 ;;                  4    0[COMMON] unsigned char 
  1500 ;; Registers used:
  1501 ;;		wreg, status,2, status,0
  1502 ;; Tracked objects:
  1503 ;;		On entry : 0/0
  1504 ;;		On exit  : 0/0
  1505 ;;		Unchanged: 0/0
  1506 ;; Data sizes:     COMMON   BANK0   BANK1   BANK3   BANK2
  1507 ;;      Params:         4       0       0       0       0
  1508 ;;      Locals:         6       0       0       0       0
  1509 ;;      Temps:          4       0       0       0       0
  1510 ;;      Totals:        14       0       0       0       0
  1511 ;;Total ram usage:       14 bytes
  1512 ;; Hardware stack levels used:    1
  1513 ;; This function calls:
  1514 ;;		Nothing
  1515 ;; This function is called by:
  1516 ;;		_pwmDuty
  1517 ;; This function uses a non-reentrant model
  1518 ;;
  1519                           
  1520                           
  1521                           ;psect for function ___xxtofl
  1522  0114                     ___xxtofl:	
  1523                           
  1524                           ;incstack = 0
  1525                           ; Regs used in ___xxtofl: [wreg+status,2+status,0]
  1526                           ;___xxtofl@sign stored from wreg
  1527  0114  00F8               	movwf	___xxtofl@sign
  1528  0115                     l1569:	
  1529  0115  0878               	movf	___xxtofl@sign,w
  1530  0116  1903               	btfsc	3,2
  1531  0117  2919               	goto	u2171
  1532  0118  291A               	goto	u2170
  1533  0119                     u2171:	
  1534  0119  292E               	goto	l1575
  1535  011A                     u2170:	
  1536  011A                     l1571:	
  1537  011A  1FF3               	btfss	___xxtofl@val+3,7
  1538  011B  291D               	goto	u2181
  1539  011C  291E               	goto	u2180
  1540  011D                     u2181:	
  1541  011D  292E               	goto	l1575
  1542  011E                     u2180:	
  1543  011E                     l1573:	
  1544  011E  0970               	comf	___xxtofl@val,w
  1545  011F  00FA               	movwf	___xxtofl@arg
  1546  0120  0971               	comf	___xxtofl@val+1,w
  1547  0121  00FB               	movwf	___xxtofl@arg+1
  1548  0122  0972               	comf	___xxtofl@val+2,w
  1549  0123  00FC               	movwf	___xxtofl@arg+2
  1550  0124  0973               	comf	___xxtofl@val+3,w
  1551  0125  00FD               	movwf	___xxtofl@arg+3
  1552  0126  0AFA               	incf	___xxtofl@arg,f
  1553  0127  1903               	skipnz
  1554  0128  0AFB               	incf	___xxtofl@arg+1,f
  1555  0129  1903               	skipnz
  1556  012A  0AFC               	incf	___xxtofl@arg+2,f
  1557  012B  1903               	skipnz
  1558  012C  0AFD               	incf	___xxtofl@arg+3,f
  1559  012D  2936               	goto	l578
  1560  012E                     l1575:	
  1561  012E  0873               	movf	___xxtofl@val+3,w
  1562  012F  00FD               	movwf	___xxtofl@arg+3
  1563  0130  0872               	movf	___xxtofl@val+2,w
  1564  0131  00FC               	movwf	___xxtofl@arg+2
  1565  0132  0871               	movf	___xxtofl@val+1,w
  1566  0133  00FB               	movwf	___xxtofl@arg+1
  1567  0134  0870               	movf	___xxtofl@val,w
  1568  0135  00FA               	movwf	___xxtofl@arg
  1569  0136                     l578:	
  1570  0136  0873               	movf	___xxtofl@val+3,w
  1571  0137  0472               	iorwf	___xxtofl@val+2,w
  1572  0138  0471               	iorwf	___xxtofl@val+1,w
  1573  0139  0470               	iorwf	___xxtofl@val,w
  1574  013A  1D03               	skipz
  1575  013B  293D               	goto	u2191
  1576  013C  293E               	goto	u2190
  1577  013D                     u2191:	
  1578  013D  2947               	goto	l1581
  1579  013E                     u2190:	
  1580  013E                     l1577:	
  1581  013E  3000               	movlw	0
  1582  013F  00F3               	movwf	?___xxtofl+3
  1583  0140  3000               	movlw	0
  1584  0141  00F2               	movwf	?___xxtofl+2
  1585  0142  3000               	movlw	0
  1586  0143  00F1               	movwf	?___xxtofl+1
  1587  0144  3000               	movlw	0
  1588  0145  00F0               	movwf	?___xxtofl
  1589  0146  29CD               	goto	l580
  1590  0147                     l1581:	
  1591  0147  3096               	movlw	150
  1592  0148  00F4               	movwf	??___xxtofl
  1593  0149  0874               	movf	??___xxtofl,w
  1594  014A  00F9               	movwf	___xxtofl@exp
  1595  014B  2959               	goto	l1585
  1596  014C                     l1583:	
  1597  014C  3001               	movlw	1
  1598  014D  00F4               	movwf	??___xxtofl
  1599  014E  0874               	movf	??___xxtofl,w
  1600  014F  07F9               	addwf	___xxtofl@exp,f
  1601  0150  3001               	movlw	1
  1602  0151                     u2205:	
  1603  0151  1003               	clrc
  1604  0152  0CFD               	rrf	___xxtofl@arg+3,f
  1605  0153  0CFC               	rrf	___xxtofl@arg+2,f
  1606  0154  0CFB               	rrf	___xxtofl@arg+1,f
  1607  0155  0CFA               	rrf	___xxtofl@arg,f
  1608  0156  3EFF               	addlw	-1
  1609  0157  1D03               	skipz
  1610  0158  2951               	goto	u2205
  1611  0159                     l1585:	
  1612  0159  30FE               	movlw	254
  1613  015A  057D               	andwf	___xxtofl@arg+3,w
  1614  015B  1D03               	btfss	3,2
  1615  015C  295E               	goto	u2211
  1616  015D  295F               	goto	u2210
  1617  015E                     u2211:	
  1618  015E  294C               	goto	l1583
  1619  015F                     u2210:	
  1620  015F  297B               	goto	l584
  1621  0160                     l1587:	
  1622  0160  3001               	movlw	1
  1623  0161  00F4               	movwf	??___xxtofl
  1624  0162  0874               	movf	??___xxtofl,w
  1625  0163  07F9               	addwf	___xxtofl@exp,f
  1626  0164                     l1589:	
  1627  0164  3001               	movlw	1
  1628  0165  07FA               	addwf	___xxtofl@arg,f
  1629  0166  3000               	movlw	0
  1630  0167  1803               	skipnc
  1631  0168  3001               	movlw	1
  1632  0169  07FB               	addwf	___xxtofl@arg+1,f
  1633  016A  3000               	movlw	0
  1634  016B  1803               	skipnc
  1635  016C  3001               	movlw	1
  1636  016D  07FC               	addwf	___xxtofl@arg+2,f
  1637  016E  3000               	movlw	0
  1638  016F  1803               	skipnc
  1639  0170  3001               	movlw	1
  1640  0171  07FD               	addwf	___xxtofl@arg+3,f
  1641  0172                     l1591:	
  1642  0172  3001               	movlw	1
  1643  0173                     u2225:	
  1644  0173  1003               	clrc
  1645  0174  0CFD               	rrf	___xxtofl@arg+3,f
  1646  0175  0CFC               	rrf	___xxtofl@arg+2,f
  1647  0176  0CFB               	rrf	___xxtofl@arg+1,f
  1648  0177  0CFA               	rrf	___xxtofl@arg,f
  1649  0178  3EFF               	addlw	-1
  1650  0179  1D03               	skipz
  1651  017A  2973               	goto	u2225
  1652  017B                     l584:	
  1653  017B  30FF               	movlw	255
  1654  017C  057D               	andwf	___xxtofl@arg+3,w
  1655  017D  1D03               	btfss	3,2
  1656  017E  2980               	goto	u2231
  1657  017F  2981               	goto	u2230
  1658  0180                     u2231:	
  1659  0180  2960               	goto	l1587
  1660  0181                     u2230:	
  1661  0181  298D               	goto	l1595
  1662  0182                     l1593:	
  1663  0182  3001               	movlw	1
  1664  0183  02F9               	subwf	___xxtofl@exp,f
  1665  0184  3001               	movlw	1
  1666  0185  00F4               	movwf	??___xxtofl
  1667  0186                     u2245:	
  1668  0186  1003               	clrc
  1669  0187  0DFA               	rlf	___xxtofl@arg,f
  1670  0188  0DFB               	rlf	___xxtofl@arg+1,f
  1671  0189  0DFC               	rlf	___xxtofl@arg+2,f
  1672  018A  0DFD               	rlf	___xxtofl@arg+3,f
  1673  018B  0BF4               	decfsz	??___xxtofl,f
  1674  018C  2986               	goto	u2245
  1675  018D                     l1595:	
  1676  018D  1BFC               	btfsc	___xxtofl@arg+2,7
  1677  018E  2990               	goto	u2251
  1678  018F  2991               	goto	u2250
  1679  0190                     u2251:	
  1680  0190  2997               	goto	l591
  1681  0191                     u2250:	
  1682  0191                     l1597:	
  1683  0191  3002               	movlw	2
  1684  0192  0279               	subwf	___xxtofl@exp,w
  1685  0193  1803               	skipnc
  1686  0194  2996               	goto	u2261
  1687  0195  2997               	goto	u2260
  1688  0196                     u2261:	
  1689  0196  2982               	goto	l1593
  1690  0197                     u2260:	
  1691  0197                     l591:	
  1692  0197  1879               	btfsc	___xxtofl@exp,0
  1693  0198  299A               	goto	u2271
  1694  0199  299B               	goto	u2270
  1695  019A                     u2271:	
  1696  019A  29A3               	goto	l592
  1697  019B                     u2270:	
  1698  019B                     l1599:	
  1699  019B  30FF               	movlw	255
  1700  019C  05FA               	andwf	___xxtofl@arg,f
  1701  019D  30FF               	movlw	255
  1702  019E  05FB               	andwf	___xxtofl@arg+1,f
  1703  019F  307F               	movlw	127
  1704  01A0  05FC               	andwf	___xxtofl@arg+2,f
  1705  01A1  30FF               	movlw	255
  1706  01A2  05FD               	andwf	___xxtofl@arg+3,f
  1707  01A3                     l592:	
  1708  01A3  1003               	clrc
  1709  01A4  0CF9               	rrf	___xxtofl@exp,f
  1710  01A5                     l1601:	
  1711  01A5  0879               	movf	___xxtofl@exp,w
  1712  01A6  00F4               	movwf	??___xxtofl
  1713  01A7  01F5               	clrf	??___xxtofl+1
  1714  01A8  01F6               	clrf	??___xxtofl+2
  1715  01A9  01F7               	clrf	??___xxtofl+3
  1716  01AA  3018               	movlw	24
  1717  01AB                     u2285:	
  1718  01AB  1003               	clrc
  1719  01AC  0DF4               	rlf	??___xxtofl,f
  1720  01AD  0DF5               	rlf	??___xxtofl+1,f
  1721  01AE  0DF6               	rlf	??___xxtofl+2,f
  1722  01AF  0DF7               	rlf	??___xxtofl+3,f
  1723  01B0                     u2280:	
  1724  01B0  3EFF               	addlw	-1
  1725  01B1  1D03               	skipz
  1726  01B2  29AB               	goto	u2285
  1727  01B3  0874               	movf	??___xxtofl,w
  1728  01B4  04FA               	iorwf	___xxtofl@arg,f
  1729  01B5  0875               	movf	??___xxtofl+1,w
  1730  01B6  04FB               	iorwf	___xxtofl@arg+1,f
  1731  01B7  0876               	movf	??___xxtofl+2,w
  1732  01B8  04FC               	iorwf	___xxtofl@arg+2,f
  1733  01B9  0877               	movf	??___xxtofl+3,w
  1734  01BA  04FD               	iorwf	___xxtofl@arg+3,f
  1735  01BB                     l1603:	
  1736  01BB  0878               	movf	___xxtofl@sign,w
  1737  01BC  1903               	btfsc	3,2
  1738  01BD  29BF               	goto	u2291
  1739  01BE  29C0               	goto	u2290
  1740  01BF                     u2291:	
  1741  01BF  29C5               	goto	l1609
  1742  01C0                     u2290:	
  1743  01C0                     l1605:	
  1744  01C0  1FF3               	btfss	___xxtofl@val+3,7
  1745  01C1  29C3               	goto	u2301
  1746  01C2  29C4               	goto	u2300
  1747  01C3                     u2301:	
  1748  01C3  29C5               	goto	l1609
  1749  01C4                     u2300:	
  1750  01C4                     l1607:	
  1751  01C4  17FD               	bsf	___xxtofl@arg+3,7
  1752  01C5                     l1609:	
  1753  01C5  087D               	movf	___xxtofl@arg+3,w
  1754  01C6  00F3               	movwf	?___xxtofl+3
  1755  01C7  087C               	movf	___xxtofl@arg+2,w
  1756  01C8  00F2               	movwf	?___xxtofl+2
  1757  01C9  087B               	movf	___xxtofl@arg+1,w
  1758  01CA  00F1               	movwf	?___xxtofl+1
  1759  01CB  087A               	movf	___xxtofl@arg,w
  1760  01CC  00F0               	movwf	?___xxtofl
  1761  01CD                     l580:	
  1762  01CD  0008               	return
  1763  01CE                     __end_of___xxtofl:	
  1764                           
  1765                           	psect	text6
  1766  0EE7                     __ptext6:	
  1767 ;; *************** function ___fltol *****************
  1768 ;; Defined at:
  1769 ;;		line 43 in file "C:\Program Files (x86)\Microchip\xc8\v2.10\pic\sources\c90\common\fltol.c"
  1770 ;; Parameters:    Size  Location     Type
  1771 ;;  f1              4   52[BANK0 ] unsigned char 
  1772 ;; Auto vars:     Size  Location     Type
  1773 ;;  exp1            1   62[BANK0 ] unsigned char 
  1774 ;;  sign1           1   61[BANK0 ] unsigned char 
  1775 ;; Return value:  Size  Location     Type
  1776 ;;                  4   52[BANK0 ] long 
  1777 ;; Registers used:
  1778 ;;		wreg, status,2, status,0
  1779 ;; Tracked objects:
  1780 ;;		On entry : 0/0
  1781 ;;		On exit  : 0/0
  1782 ;;		Unchanged: 0/0
  1783 ;; Data sizes:     COMMON   BANK0   BANK1   BANK3   BANK2
  1784 ;;      Params:         0       4       0       0       0
  1785 ;;      Locals:         0       2       0       0       0
  1786 ;;      Temps:          0       5       0       0       0
  1787 ;;      Totals:         0      11       0       0       0
  1788 ;;Total ram usage:       11 bytes
  1789 ;; Hardware stack levels used:    1
  1790 ;; This function calls:
  1791 ;;		Nothing
  1792 ;; This function is called by:
  1793 ;;		_pwmDuty
  1794 ;; This function uses a non-reentrant model
  1795 ;;
  1796                           
  1797                           
  1798                           ;psect for function ___fltol
  1799  0EE7                     ___fltol:	
  1800  0EE7                     l1251:	
  1801                           ;incstack = 0
  1802                           ; Regs used in ___fltol: [wreg+status,2+status,0]
  1803                           
  1804  0EE7  1003               	clrc
  1805  0EE8  1283               	bcf	3,5	;RP0=0, select bank0
  1806  0EE9  1303               	bcf	3,6	;RP1=0, select bank0
  1807  0EEA  0D56               	rlf	___fltol@f1+2,w
  1808  0EEB  0D57               	rlf	___fltol@f1+3,w
  1809  0EEC  00D8               	movwf	??___fltol
  1810  0EED  0858               	movf	??___fltol,w
  1811  0EEE  00DE               	movwf	___fltol@exp1
  1812  0EEF  085E               	movf	___fltol@exp1,w
  1813  0EF0  1D03               	btfss	3,2
  1814  0EF1  2EF3               	goto	u1411
  1815  0EF2  2EF4               	goto	u1410
  1816  0EF3                     u1411:	
  1817  0EF3  2EFD               	goto	l1257
  1818  0EF4                     u1410:	
  1819  0EF4                     l1253:	
  1820  0EF4  3000               	movlw	0
  1821  0EF5  00D7               	movwf	?___fltol+3
  1822  0EF6  3000               	movlw	0
  1823  0EF7  00D6               	movwf	?___fltol+2
  1824  0EF8  3000               	movlw	0
  1825  0EF9  00D5               	movwf	?___fltol+1
  1826  0EFA  3000               	movlw	0
  1827  0EFB  00D4               	movwf	?___fltol
  1828  0EFC  2F62               	goto	l337
  1829  0EFD                     l1257:	
  1830  0EFD  0854               	movf	___fltol@f1,w
  1831  0EFE  00D8               	movwf	??___fltol
  1832  0EFF  0855               	movf	___fltol@f1+1,w
  1833  0F00  00D9               	movwf	??___fltol+1
  1834  0F01  0856               	movf	___fltol@f1+2,w
  1835  0F02  00DA               	movwf	??___fltol+2
  1836  0F03  0857               	movf	___fltol@f1+3,w
  1837  0F04  00DB               	movwf	??___fltol+3
  1838  0F05  301F               	movlw	31
  1839  0F06                     u1425:	
  1840  0F06  1003               	clrc
  1841  0F07  0CDB               	rrf	??___fltol+3,f
  1842  0F08  0CDA               	rrf	??___fltol+2,f
  1843  0F09  0CD9               	rrf	??___fltol+1,f
  1844  0F0A  0CD8               	rrf	??___fltol,f
  1845  0F0B                     u1420:	
  1846  0F0B  3EFF               	addlw	-1
  1847  0F0C  1D03               	skipz
  1848  0F0D  2F06               	goto	u1425
  1849  0F0E  0858               	movf	??___fltol,w
  1850  0F0F  00DC               	movwf	??___fltol+4
  1851  0F10  085C               	movf	??___fltol+4,w
  1852  0F11  00DD               	movwf	___fltol@sign1
  1853  0F12                     l1259:	
  1854  0F12  17D6               	bsf	___fltol@f1+2,7
  1855  0F13                     l1261:	
  1856  0F13  30FF               	movlw	255
  1857  0F14  05D4               	andwf	___fltol@f1,f
  1858  0F15  30FF               	movlw	255
  1859  0F16  05D5               	andwf	___fltol@f1+1,f
  1860  0F17  30FF               	movlw	255
  1861  0F18  05D6               	andwf	___fltol@f1+2,f
  1862  0F19  3000               	movlw	0
  1863  0F1A  05D7               	andwf	___fltol@f1+3,f
  1864  0F1B                     l1263:	
  1865  0F1B  3096               	movlw	150
  1866  0F1C  02DE               	subwf	___fltol@exp1,f
  1867  0F1D                     l1265:	
  1868  0F1D  1FDE               	btfss	___fltol@exp1,7
  1869  0F1E  2F20               	goto	u1431
  1870  0F1F  2F21               	goto	u1430
  1871  0F20                     u1431:	
  1872  0F20  2F3B               	goto	l1275
  1873  0F21                     u1430:	
  1874  0F21                     l1267:	
  1875  0F21  085E               	movf	___fltol@exp1,w
  1876  0F22  3A80               	xorlw	128
  1877  0F23  3E97               	addlw	151
  1878  0F24  1803               	skipnc
  1879  0F25  2F27               	goto	u1441
  1880  0F26  2F28               	goto	u1440
  1881  0F27                     u1441:	
  1882  0F27  2F29               	goto	l1273
  1883  0F28                     u1440:	
  1884  0F28  2EF4               	goto	l1253
  1885  0F29                     l1273:	
  1886  0F29  3001               	movlw	1
  1887  0F2A                     u1455:	
  1888  0F2A  1003               	clrc
  1889  0F2B  0CD7               	rrf	___fltol@f1+3,f
  1890  0F2C  0CD6               	rrf	___fltol@f1+2,f
  1891  0F2D  0CD5               	rrf	___fltol@f1+1,f
  1892  0F2E  0CD4               	rrf	___fltol@f1,f
  1893  0F2F  3EFF               	addlw	-1
  1894  0F30  1D03               	skipz
  1895  0F31  2F2A               	goto	u1455
  1896  0F32  3001               	movlw	1
  1897  0F33  00D8               	movwf	??___fltol
  1898  0F34  0858               	movf	??___fltol,w
  1899  0F35  07DE               	addwf	___fltol@exp1,f
  1900  0F36  1D03               	btfss	3,2
  1901  0F37  2F39               	goto	u1461
  1902  0F38  2F3A               	goto	u1460
  1903  0F39                     u1461:	
  1904  0F39  2F29               	goto	l1273
  1905  0F3A                     u1460:	
  1906  0F3A  2F52               	goto	l1283
  1907  0F3B                     l1275:	
  1908  0F3B  3020               	movlw	32
  1909  0F3C  025E               	subwf	___fltol@exp1,w
  1910  0F3D  1C03               	skipc
  1911  0F3E  2F40               	goto	u1471
  1912  0F3F  2F41               	goto	u1470
  1913  0F40                     u1471:	
  1914  0F40  2F4D               	goto	l344
  1915  0F41                     u1470:	
  1916  0F41  2EF4               	goto	l1253
  1917  0F42                     l1281:	
  1918  0F42  3001               	movlw	1
  1919  0F43  00D8               	movwf	??___fltol
  1920  0F44                     u1485:	
  1921  0F44  1003               	clrc
  1922  0F45  0DD4               	rlf	___fltol@f1,f
  1923  0F46  0DD5               	rlf	___fltol@f1+1,f
  1924  0F47  0DD6               	rlf	___fltol@f1+2,f
  1925  0F48  0DD7               	rlf	___fltol@f1+3,f
  1926  0F49  0BD8               	decfsz	??___fltol,f
  1927  0F4A  2F44               	goto	u1485
  1928  0F4B  3001               	movlw	1
  1929  0F4C  02DE               	subwf	___fltol@exp1,f
  1930  0F4D                     l344:	
  1931  0F4D  085E               	movf	___fltol@exp1,w
  1932  0F4E  1D03               	btfss	3,2
  1933  0F4F  2F51               	goto	u1491
  1934  0F50  2F52               	goto	u1490
  1935  0F51                     u1491:	
  1936  0F51  2F42               	goto	l1281
  1937  0F52                     u1490:	
  1938  0F52                     l1283:	
  1939  0F52  085D               	movf	___fltol@sign1,w
  1940  0F53  1903               	btfsc	3,2
  1941  0F54  2F56               	goto	u1501
  1942  0F55  2F57               	goto	u1500
  1943  0F56                     u1501:	
  1944  0F56  2F62               	goto	l347
  1945  0F57                     u1500:	
  1946  0F57                     l1285:	
  1947  0F57  09D4               	comf	___fltol@f1,f
  1948  0F58  09D5               	comf	___fltol@f1+1,f
  1949  0F59  09D6               	comf	___fltol@f1+2,f
  1950  0F5A  09D7               	comf	___fltol@f1+3,f
  1951  0F5B  0AD4               	incf	___fltol@f1,f
  1952  0F5C  1903               	skipnz
  1953  0F5D  0AD5               	incf	___fltol@f1+1,f
  1954  0F5E  1903               	skipnz
  1955  0F5F  0AD6               	incf	___fltol@f1+2,f
  1956  0F60  1903               	skipnz
  1957  0F61  0AD7               	incf	___fltol@f1+3,f
  1958  0F62                     l347:	
  1959  0F62                     l337:	
  1960  0F62  0008               	return
  1961  0F63                     __end_of___fltol:	
  1962                           
  1963                           	psect	text7
  1964  049B                     __ptext7:	
  1965 ;; *************** function ___flmul *****************
  1966 ;; Defined at:
  1967 ;;		line 8 in file "C:\Program Files (x86)\Microchip\xc8\v2.10\pic\sources\c90\common\sprcmul.c"
  1968 ;; Parameters:    Size  Location     Type
  1969 ;;  b               4   26[BANK0 ] long 
  1970 ;;  a               4   30[BANK0 ] long 
  1971 ;; Auto vars:     Size  Location     Type
  1972 ;;  prod            4   46[BANK0 ] struct .
  1973 ;;  grs             4   40[BANK0 ] unsigned long 
  1974 ;;  temp            2   50[BANK0 ] struct .
  1975 ;;  bexp            1   45[BANK0 ] unsigned char 
  1976 ;;  aexp            1   44[BANK0 ] unsigned char 
  1977 ;;  sign            1   39[BANK0 ] unsigned char 
  1978 ;; Return value:  Size  Location     Type
  1979 ;;                  4   26[BANK0 ] unsigned char 
  1980 ;; Registers used:
  1981 ;;		wreg, status,2, status,0, btemp+1, pclath, cstack
  1982 ;; Tracked objects:
  1983 ;;		On entry : 0/0
  1984 ;;		On exit  : 0/0
  1985 ;;		Unchanged: 0/0
  1986 ;; Data sizes:     COMMON   BANK0   BANK1   BANK3   BANK2
  1987 ;;      Params:         0       8       0       0       0
  1988 ;;      Locals:         0      13       0       0       0
  1989 ;;      Temps:          0       5       0       0       0
  1990 ;;      Totals:         0      26       0       0       0
  1991 ;;Total ram usage:       26 bytes
  1992 ;; Hardware stack levels used:    1
  1993 ;; Hardware stack levels required when called:    1
  1994 ;; This function calls:
  1995 ;;		__Umul8_16
  1996 ;; This function is called by:
  1997 ;;		_pwmDuty
  1998 ;; This function uses a non-reentrant model
  1999 ;;
  2000                           
  2001                           
  2002                           ;psect for function ___flmul
  2003  049B                     ___flmul:	
  2004  049B                     l1429:	
  2005                           ;incstack = 0
  2006                           ; Regs used in ___flmul: [wreg+status,2+status,0+btemp+1+pclath+cstack]
  2007                           
  2008  049B  1283               	bcf	3,5	;RP0=0, select bank0
  2009  049C  1303               	bcf	3,6	;RP1=0, select bank0
  2010  049D  083D               	movf	___flmul@b+3,w
  2011  049E  3980               	andlw	128
  2012  049F  00C2               	movwf	??___flmul
  2013  04A0  0842               	movf	??___flmul,w
  2014  04A1  00C7               	movwf	___flmul@sign
  2015  04A2                     l1431:	
  2016  04A2  083D               	movf	___flmul@b+3,w
  2017  04A3  00C2               	movwf	??___flmul
  2018  04A4  0742               	addwf	??___flmul,w
  2019  04A5  00C3               	movwf	??___flmul+1
  2020  04A6  0843               	movf	??___flmul+1,w
  2021  04A7  00CD               	movwf	___flmul@bexp
  2022  04A8                     l1433:	
  2023  04A8  1FBC               	btfss	___flmul@b+2,7
  2024  04A9  2CAB               	goto	u1801
  2025  04AA  2CAC               	goto	u1800
  2026  04AB                     u1801:	
  2027  04AB  2CAD               	goto	l1437
  2028  04AC                     u1800:	
  2029  04AC                     l1435:	
  2030  04AC  144D               	bsf	___flmul@bexp,0
  2031  04AD                     l1437:	
  2032  04AD  084D               	movf	___flmul@bexp,w
  2033  04AE  1903               	btfsc	3,2
  2034  04AF  2CB1               	goto	u1811
  2035  04B0  2CB2               	goto	u1810
  2036  04B1                     u1811:	
  2037  04B1  2CC1               	goto	l1445
  2038  04B2                     u1810:	
  2039  04B2                     l1439:	
  2040  04B2  0A4D               	incf	___flmul@bexp,w
  2041  04B3  1D03               	btfss	3,2
  2042  04B4  2CB6               	goto	u1821
  2043  04B5  2CB7               	goto	u1820
  2044  04B6                     u1821:	
  2045  04B6  2CBF               	goto	l1443
  2046  04B7                     u1820:	
  2047  04B7                     l1441:	
  2048  04B7  3000               	movlw	0
  2049  04B8  00BD               	movwf	___flmul@b+3
  2050  04B9  3000               	movlw	0
  2051  04BA  00BC               	movwf	___flmul@b+2
  2052  04BB  3000               	movlw	0
  2053  04BC  00BB               	movwf	___flmul@b+1
  2054  04BD  3000               	movlw	0
  2055  04BE  00BA               	movwf	___flmul@b
  2056  04BF                     l1443:	
  2057  04BF  17BC               	bsf	___flmul@b+2,7
  2058  04C0  2CC9               	goto	l1447
  2059  04C1                     l1445:	
  2060  04C1  3000               	movlw	0
  2061  04C2  00BD               	movwf	___flmul@b+3
  2062  04C3  3000               	movlw	0
  2063  04C4  00BC               	movwf	___flmul@b+2
  2064  04C5  3000               	movlw	0
  2065  04C6  00BB               	movwf	___flmul@b+1
  2066  04C7  3000               	movlw	0
  2067  04C8  00BA               	movwf	___flmul@b
  2068  04C9                     l1447:	
  2069  04C9  0841               	movf	___flmul@a+3,w
  2070  04CA  3980               	andlw	128
  2071  04CB  00C2               	movwf	??___flmul
  2072  04CC  0842               	movf	??___flmul,w
  2073  04CD  06C7               	xorwf	___flmul@sign,f
  2074  04CE                     l1449:	
  2075  04CE  0841               	movf	___flmul@a+3,w
  2076  04CF  00C2               	movwf	??___flmul
  2077  04D0  0742               	addwf	??___flmul,w
  2078  04D1  00C3               	movwf	??___flmul+1
  2079  04D2  0843               	movf	??___flmul+1,w
  2080  04D3  00CC               	movwf	___flmul@aexp
  2081  04D4                     l1451:	
  2082  04D4  1FC0               	btfss	___flmul@a+2,7
  2083  04D5  2CD7               	goto	u1831
  2084  04D6  2CD8               	goto	u1830
  2085  04D7                     u1831:	
  2086  04D7  2CD9               	goto	l1455
  2087  04D8                     u1830:	
  2088  04D8                     l1453:	
  2089  04D8  144C               	bsf	___flmul@aexp,0
  2090  04D9                     l1455:	
  2091  04D9  084C               	movf	___flmul@aexp,w
  2092  04DA  1903               	btfsc	3,2
  2093  04DB  2CDD               	goto	u1841
  2094  04DC  2CDE               	goto	u1840
  2095  04DD                     u1841:	
  2096  04DD  2CED               	goto	l1463
  2097  04DE                     u1840:	
  2098  04DE                     l1457:	
  2099  04DE  0A4C               	incf	___flmul@aexp,w
  2100  04DF  1D03               	btfss	3,2
  2101  04E0  2CE2               	goto	u1851
  2102  04E1  2CE3               	goto	u1850
  2103  04E2                     u1851:	
  2104  04E2  2CEB               	goto	l1461
  2105  04E3                     u1850:	
  2106  04E3                     l1459:	
  2107  04E3  3000               	movlw	0
  2108  04E4  00C1               	movwf	___flmul@a+3
  2109  04E5  3000               	movlw	0
  2110  04E6  00C0               	movwf	___flmul@a+2
  2111  04E7  3000               	movlw	0
  2112  04E8  00BF               	movwf	___flmul@a+1
  2113  04E9  3000               	movlw	0
  2114  04EA  00BE               	movwf	___flmul@a
  2115  04EB                     l1461:	
  2116  04EB  17C0               	bsf	___flmul@a+2,7
  2117  04EC  2CF5               	goto	l1465
  2118  04ED                     l1463:	
  2119  04ED  3000               	movlw	0
  2120  04EE  00C1               	movwf	___flmul@a+3
  2121  04EF  3000               	movlw	0
  2122  04F0  00C0               	movwf	___flmul@a+2
  2123  04F1  3000               	movlw	0
  2124  04F2  00BF               	movwf	___flmul@a+1
  2125  04F3  3000               	movlw	0
  2126  04F4  00BE               	movwf	___flmul@a
  2127  04F5                     l1465:	
  2128  04F5  084C               	movf	___flmul@aexp,w
  2129  04F6  1903               	btfsc	3,2
  2130  04F7  2CF9               	goto	u1861
  2131  04F8  2CFA               	goto	u1860
  2132  04F9                     u1861:	
  2133  04F9  2CFF               	goto	l1469
  2134  04FA                     u1860:	
  2135  04FA                     l1467:	
  2136  04FA  084D               	movf	___flmul@bexp,w
  2137  04FB  1D03               	btfss	3,2
  2138  04FC  2CFE               	goto	u1871
  2139  04FD  2CFF               	goto	u1870
  2140  04FE                     u1871:	
  2141  04FE  2D08               	goto	l1473
  2142  04FF                     u1870:	
  2143  04FF                     l1469:	
  2144  04FF  3000               	movlw	0
  2145  0500  00BD               	movwf	?___flmul+3
  2146  0501  3000               	movlw	0
  2147  0502  00BC               	movwf	?___flmul+2
  2148  0503  3000               	movlw	0
  2149  0504  00BB               	movwf	?___flmul+1
  2150  0505  3000               	movlw	0
  2151  0506  00BA               	movwf	?___flmul
  2152  0507  2FFB               	goto	l540
  2153  0508                     l1473:	
  2154  0508  083A               	movf	___flmul@b,w
  2155  0509  00C2               	movwf	??___flmul
  2156  050A  0842               	movf	??___flmul,w
  2157  050B  00F0               	movwf	__Umul8_16@multiplicand
  2158  050C  0840               	movf	___flmul@a+2,w
  2159  050D  120A  158A  2652  120A  118A  	fcall	__Umul8_16
  2160  0512  0871               	movf	?__Umul8_16+1,w
  2161  0513  1283               	bcf	3,5	;RP0=0, select bank0
  2162  0514  1303               	bcf	3,6	;RP1=0, select bank0
  2163  0515  00D3               	movwf	___flmul@temp+1
  2164  0516  0870               	movf	?__Umul8_16,w
  2165  0517  00D2               	movwf	___flmul@temp
  2166  0518                     l1475:	
  2167  0518  0852               	movf	___flmul@temp,w
  2168  0519  00C2               	movwf	??___flmul
  2169  051A  01C3               	clrf	??___flmul+1
  2170  051B  01C4               	clrf	??___flmul+2
  2171  051C  01C5               	clrf	??___flmul+3
  2172  051D  0845               	movf	??___flmul+3,w
  2173  051E  00CB               	movwf	___flmul@grs+3
  2174  051F  0844               	movf	??___flmul+2,w
  2175  0520  00CA               	movwf	___flmul@grs+2
  2176  0521  0843               	movf	??___flmul+1,w
  2177  0522  00C9               	movwf	___flmul@grs+1
  2178  0523  0842               	movf	??___flmul,w
  2179  0524  00C8               	movwf	___flmul@grs
  2180  0525                     l1477:	
  2181  0525  0853               	movf	___flmul@temp+1,w
  2182  0526  00C2               	movwf	??___flmul
  2183  0527  01C3               	clrf	??___flmul+1
  2184  0528  01C4               	clrf	??___flmul+2
  2185  0529  01C5               	clrf	??___flmul+3
  2186  052A  0845               	movf	??___flmul+3,w
  2187  052B  00D1               	movwf	___flmul@prod+3
  2188  052C  0844               	movf	??___flmul+2,w
  2189  052D  00D0               	movwf	___flmul@prod+2
  2190  052E  0843               	movf	??___flmul+1,w
  2191  052F  00CF               	movwf	___flmul@prod+1
  2192  0530  0842               	movf	??___flmul,w
  2193  0531  00CE               	movwf	___flmul@prod
  2194  0532  083B               	movf	___flmul@b+1,w
  2195  0533  00C2               	movwf	??___flmul
  2196  0534  0842               	movf	??___flmul,w
  2197  0535  00F0               	movwf	__Umul8_16@multiplicand
  2198  0536  083F               	movf	___flmul@a+1,w
  2199  0537  120A  158A  2652  120A  118A  	fcall	__Umul8_16
  2200  053C  0871               	movf	?__Umul8_16+1,w
  2201  053D  1283               	bcf	3,5	;RP0=0, select bank0
  2202  053E  1303               	bcf	3,6	;RP1=0, select bank0
  2203  053F  00D3               	movwf	___flmul@temp+1
  2204  0540  0870               	movf	?__Umul8_16,w
  2205  0541  00D2               	movwf	___flmul@temp
  2206  0542                     l1479:	
  2207  0542  0852               	movf	___flmul@temp,w
  2208  0543  00C2               	movwf	??___flmul
  2209  0544  01C3               	clrf	??___flmul+1
  2210  0545  01C4               	clrf	??___flmul+2
  2211  0546  01C5               	clrf	??___flmul+3
  2212  0547  0842               	movf	??___flmul,w
  2213  0548  07C8               	addwf	___flmul@grs,f
  2214  0549  0843               	movf	??___flmul+1,w
  2215  054A  1103               	clrz
  2216  054B  1803               	skipnc
  2217  054C  3E01               	addlw	1
  2218  054D  1903               	skipnz
  2219  054E  2D50               	goto	u1881
  2220  054F  07C9               	addwf	___flmul@grs+1,f
  2221  0550                     u1881:	
  2222  0550  0844               	movf	??___flmul+2,w
  2223  0551  1103               	clrz
  2224  0552  1803               	skipnc
  2225  0553  3E01               	addlw	1
  2226  0554  1903               	skipnz
  2227  0555  2D57               	goto	u1882
  2228  0556  07CA               	addwf	___flmul@grs+2,f
  2229  0557                     u1882:	
  2230  0557  0845               	movf	??___flmul+3,w
  2231  0558  1103               	clrz
  2232  0559  1803               	skipnc
  2233  055A  3E01               	addlw	1
  2234  055B  1903               	skipnz
  2235  055C  2D5E               	goto	u1883
  2236  055D  07CB               	addwf	___flmul@grs+3,f
  2237  055E                     u1883:	
  2238  055E                     l1481:	
  2239  055E  0853               	movf	___flmul@temp+1,w
  2240  055F  00C2               	movwf	??___flmul
  2241  0560  01C3               	clrf	??___flmul+1
  2242  0561  01C4               	clrf	??___flmul+2
  2243  0562  01C5               	clrf	??___flmul+3
  2244  0563  0842               	movf	??___flmul,w
  2245  0564  07CE               	addwf	___flmul@prod,f
  2246  0565  0843               	movf	??___flmul+1,w
  2247  0566  1103               	clrz
  2248  0567  1803               	skipnc
  2249  0568  3E01               	addlw	1
  2250  0569  1903               	skipnz
  2251  056A  2D6C               	goto	u1891
  2252  056B  07CF               	addwf	___flmul@prod+1,f
  2253  056C                     u1891:	
  2254  056C  0844               	movf	??___flmul+2,w
  2255  056D  1103               	clrz
  2256  056E  1803               	skipnc
  2257  056F  3E01               	addlw	1
  2258  0570  1903               	skipnz
  2259  0571  2D73               	goto	u1892
  2260  0572  07D0               	addwf	___flmul@prod+2,f
  2261  0573                     u1892:	
  2262  0573  0845               	movf	??___flmul+3,w
  2263  0574  1103               	clrz
  2264  0575  1803               	skipnc
  2265  0576  3E01               	addlw	1
  2266  0577  1903               	skipnz
  2267  0578  2D7A               	goto	u1893
  2268  0579  07D1               	addwf	___flmul@prod+3,f
  2269  057A                     u1893:	
  2270  057A  083C               	movf	___flmul@b+2,w
  2271  057B  00C2               	movwf	??___flmul
  2272  057C  0842               	movf	??___flmul,w
  2273  057D  00F0               	movwf	__Umul8_16@multiplicand
  2274  057E  083E               	movf	___flmul@a,w
  2275  057F  120A  158A  2652  120A  118A  	fcall	__Umul8_16
  2276  0584  0871               	movf	?__Umul8_16+1,w
  2277  0585  1283               	bcf	3,5	;RP0=0, select bank0
  2278  0586  1303               	bcf	3,6	;RP1=0, select bank0
  2279  0587  00D3               	movwf	___flmul@temp+1
  2280  0588  0870               	movf	?__Umul8_16,w
  2281  0589  00D2               	movwf	___flmul@temp
  2282  058A                     l1483:	
  2283  058A  0852               	movf	___flmul@temp,w
  2284  058B  00C2               	movwf	??___flmul
  2285  058C  01C3               	clrf	??___flmul+1
  2286  058D  01C4               	clrf	??___flmul+2
  2287  058E  01C5               	clrf	??___flmul+3
  2288  058F  0842               	movf	??___flmul,w
  2289  0590  07C8               	addwf	___flmul@grs,f
  2290  0591  0843               	movf	??___flmul+1,w
  2291  0592  1103               	clrz
  2292  0593  1803               	skipnc
  2293  0594  3E01               	addlw	1
  2294  0595  1903               	skipnz
  2295  0596  2D98               	goto	u1901
  2296  0597  07C9               	addwf	___flmul@grs+1,f
  2297  0598                     u1901:	
  2298  0598  0844               	movf	??___flmul+2,w
  2299  0599  1103               	clrz
  2300  059A  1803               	skipnc
  2301  059B  3E01               	addlw	1
  2302  059C  1903               	skipnz
  2303  059D  2D9F               	goto	u1902
  2304  059E  07CA               	addwf	___flmul@grs+2,f
  2305  059F                     u1902:	
  2306  059F  0845               	movf	??___flmul+3,w
  2307  05A0  1103               	clrz
  2308  05A1  1803               	skipnc
  2309  05A2  3E01               	addlw	1
  2310  05A3  1903               	skipnz
  2311  05A4  2DA6               	goto	u1903
  2312  05A5  07CB               	addwf	___flmul@grs+3,f
  2313  05A6                     u1903:	
  2314  05A6                     l1485:	
  2315  05A6  0853               	movf	___flmul@temp+1,w
  2316  05A7  00C2               	movwf	??___flmul
  2317  05A8  01C3               	clrf	??___flmul+1
  2318  05A9  01C4               	clrf	??___flmul+2
  2319  05AA  01C5               	clrf	??___flmul+3
  2320  05AB  0842               	movf	??___flmul,w
  2321  05AC  07CE               	addwf	___flmul@prod,f
  2322  05AD  0843               	movf	??___flmul+1,w
  2323  05AE  1103               	clrz
  2324  05AF  1803               	skipnc
  2325  05B0  3E01               	addlw	1
  2326  05B1  1903               	skipnz
  2327  05B2  2DB4               	goto	u1911
  2328  05B3  07CF               	addwf	___flmul@prod+1,f
  2329  05B4                     u1911:	
  2330  05B4  0844               	movf	??___flmul+2,w
  2331  05B5  1103               	clrz
  2332  05B6  1803               	skipnc
  2333  05B7  3E01               	addlw	1
  2334  05B8  1903               	skipnz
  2335  05B9  2DBB               	goto	u1912
  2336  05BA  07D0               	addwf	___flmul@prod+2,f
  2337  05BB                     u1912:	
  2338  05BB  0845               	movf	??___flmul+3,w
  2339  05BC  1103               	clrz
  2340  05BD  1803               	skipnc
  2341  05BE  3E01               	addlw	1
  2342  05BF  1903               	skipnz
  2343  05C0  2DC2               	goto	u1913
  2344  05C1  07D1               	addwf	___flmul@prod+3,f
  2345  05C2                     u1913:	
  2346  05C2                     l1487:	
  2347  05C2  3008               	movlw	8
  2348  05C3  00C2               	movwf	??___flmul
  2349  05C4                     u1925:	
  2350  05C4  1003               	clrc
  2351  05C5  0DC8               	rlf	___flmul@grs,f
  2352  05C6  0DC9               	rlf	___flmul@grs+1,f
  2353  05C7  0DCA               	rlf	___flmul@grs+2,f
  2354  05C8  0DCB               	rlf	___flmul@grs+3,f
  2355  05C9  0BC2               	decfsz	??___flmul,f
  2356  05CA  2DC4               	goto	u1925
  2357  05CB                     l1489:	
  2358  05CB  083B               	movf	___flmul@b+1,w
  2359  05CC  00C2               	movwf	??___flmul
  2360  05CD  0842               	movf	??___flmul,w
  2361  05CE  00F0               	movwf	__Umul8_16@multiplicand
  2362  05CF  083E               	movf	___flmul@a,w
  2363  05D0  120A  158A  2652  120A  118A  	fcall	__Umul8_16
  2364  05D5  0871               	movf	?__Umul8_16+1,w
  2365  05D6  1283               	bcf	3,5	;RP0=0, select bank0
  2366  05D7  1303               	bcf	3,6	;RP1=0, select bank0
  2367  05D8  00D3               	movwf	___flmul@temp+1
  2368  05D9  0870               	movf	?__Umul8_16,w
  2369  05DA  00D2               	movwf	___flmul@temp
  2370  05DB                     l1491:	
  2371  05DB  0852               	movf	___flmul@temp,w
  2372  05DC  00C2               	movwf	??___flmul
  2373  05DD  0853               	movf	___flmul@temp+1,w
  2374  05DE  00C3               	movwf	??___flmul+1
  2375  05DF  01C4               	clrf	??___flmul+2
  2376  05E0  01C5               	clrf	??___flmul+3
  2377  05E1  0842               	movf	??___flmul,w
  2378  05E2  07C8               	addwf	___flmul@grs,f
  2379  05E3  0843               	movf	??___flmul+1,w
  2380  05E4  1103               	clrz
  2381  05E5  1803               	skipnc
  2382  05E6  3E01               	addlw	1
  2383  05E7  1903               	skipnz
  2384  05E8  2DEA               	goto	u1931
  2385  05E9  07C9               	addwf	___flmul@grs+1,f
  2386  05EA                     u1931:	
  2387  05EA  0844               	movf	??___flmul+2,w
  2388  05EB  1103               	clrz
  2389  05EC  1803               	skipnc
  2390  05ED  3E01               	addlw	1
  2391  05EE  1903               	skipnz
  2392  05EF  2DF1               	goto	u1932
  2393  05F0  07CA               	addwf	___flmul@grs+2,f
  2394  05F1                     u1932:	
  2395  05F1  0845               	movf	??___flmul+3,w
  2396  05F2  1103               	clrz
  2397  05F3  1803               	skipnc
  2398  05F4  3E01               	addlw	1
  2399  05F5  1903               	skipnz
  2400  05F6  2DF8               	goto	u1933
  2401  05F7  07CB               	addwf	___flmul@grs+3,f
  2402  05F8                     u1933:	
  2403  05F8                     l1493:	
  2404  05F8  083A               	movf	___flmul@b,w
  2405  05F9  00C2               	movwf	??___flmul
  2406  05FA  0842               	movf	??___flmul,w
  2407  05FB  00F0               	movwf	__Umul8_16@multiplicand
  2408  05FC  083F               	movf	___flmul@a+1,w
  2409  05FD  120A  158A  2652  120A  118A  	fcall	__Umul8_16
  2410  0602  0871               	movf	?__Umul8_16+1,w
  2411  0603  1283               	bcf	3,5	;RP0=0, select bank0
  2412  0604  1303               	bcf	3,6	;RP1=0, select bank0
  2413  0605  00D3               	movwf	___flmul@temp+1
  2414  0606  0870               	movf	?__Umul8_16,w
  2415  0607  00D2               	movwf	___flmul@temp
  2416  0608                     l1495:	
  2417  0608  0852               	movf	___flmul@temp,w
  2418  0609  00C2               	movwf	??___flmul
  2419  060A  0853               	movf	___flmul@temp+1,w
  2420  060B  00C3               	movwf	??___flmul+1
  2421  060C  01C4               	clrf	??___flmul+2
  2422  060D  01C5               	clrf	??___flmul+3
  2423  060E  0842               	movf	??___flmul,w
  2424  060F  07C8               	addwf	___flmul@grs,f
  2425  0610  0843               	movf	??___flmul+1,w
  2426  0611  1103               	clrz
  2427  0612  1803               	skipnc
  2428  0613  3E01               	addlw	1
  2429  0614  1903               	skipnz
  2430  0615  2E17               	goto	u1941
  2431  0616  07C9               	addwf	___flmul@grs+1,f
  2432  0617                     u1941:	
  2433  0617  0844               	movf	??___flmul+2,w
  2434  0618  1103               	clrz
  2435  0619  1803               	skipnc
  2436  061A  3E01               	addlw	1
  2437  061B  1903               	skipnz
  2438  061C  2E1E               	goto	u1942
  2439  061D  07CA               	addwf	___flmul@grs+2,f
  2440  061E                     u1942:	
  2441  061E  0845               	movf	??___flmul+3,w
  2442  061F  1103               	clrz
  2443  0620  1803               	skipnc
  2444  0621  3E01               	addlw	1
  2445  0622  1903               	skipnz
  2446  0623  2E25               	goto	u1943
  2447  0624  07CB               	addwf	___flmul@grs+3,f
  2448  0625                     u1943:	
  2449  0625                     l1497:	
  2450  0625  3008               	movlw	8
  2451  0626  00C2               	movwf	??___flmul
  2452  0627                     u1955:	
  2453  0627  1003               	clrc
  2454  0628  0DC8               	rlf	___flmul@grs,f
  2455  0629  0DC9               	rlf	___flmul@grs+1,f
  2456  062A  0DCA               	rlf	___flmul@grs+2,f
  2457  062B  0DCB               	rlf	___flmul@grs+3,f
  2458  062C  0BC2               	decfsz	??___flmul,f
  2459  062D  2E27               	goto	u1955
  2460  062E  083A               	movf	___flmul@b,w
  2461  062F  00C2               	movwf	??___flmul
  2462  0630  0842               	movf	??___flmul,w
  2463  0631  00F0               	movwf	__Umul8_16@multiplicand
  2464  0632  083E               	movf	___flmul@a,w
  2465  0633  120A  158A  2652  120A  118A  	fcall	__Umul8_16
  2466  0638  0871               	movf	?__Umul8_16+1,w
  2467  0639  1283               	bcf	3,5	;RP0=0, select bank0
  2468  063A  1303               	bcf	3,6	;RP1=0, select bank0
  2469  063B  00D3               	movwf	___flmul@temp+1
  2470  063C  0870               	movf	?__Umul8_16,w
  2471  063D  00D2               	movwf	___flmul@temp
  2472  063E                     l1499:	
  2473  063E  0852               	movf	___flmul@temp,w
  2474  063F  00C2               	movwf	??___flmul
  2475  0640  0853               	movf	___flmul@temp+1,w
  2476  0641  00C3               	movwf	??___flmul+1
  2477  0642  01C4               	clrf	??___flmul+2
  2478  0643  01C5               	clrf	??___flmul+3
  2479  0644  0842               	movf	??___flmul,w
  2480  0645  07C8               	addwf	___flmul@grs,f
  2481  0646  0843               	movf	??___flmul+1,w
  2482  0647  1103               	clrz
  2483  0648  1803               	skipnc
  2484  0649  3E01               	addlw	1
  2485  064A  1903               	skipnz
  2486  064B  2E4D               	goto	u1961
  2487  064C  07C9               	addwf	___flmul@grs+1,f
  2488  064D                     u1961:	
  2489  064D  0844               	movf	??___flmul+2,w
  2490  064E  1103               	clrz
  2491  064F  1803               	skipnc
  2492  0650  3E01               	addlw	1
  2493  0651  1903               	skipnz
  2494  0652  2E54               	goto	u1962
  2495  0653  07CA               	addwf	___flmul@grs+2,f
  2496  0654                     u1962:	
  2497  0654  0845               	movf	??___flmul+3,w
  2498  0655  1103               	clrz
  2499  0656  1803               	skipnc
  2500  0657  3E01               	addlw	1
  2501  0658  1903               	skipnz
  2502  0659  2E5B               	goto	u1963
  2503  065A  07CB               	addwf	___flmul@grs+3,f
  2504  065B                     u1963:	
  2505  065B                     l1501:	
  2506  065B  083B               	movf	___flmul@b+1,w
  2507  065C  00C2               	movwf	??___flmul
  2508  065D  0842               	movf	??___flmul,w
  2509  065E  00F0               	movwf	__Umul8_16@multiplicand
  2510  065F  0840               	movf	___flmul@a+2,w
  2511  0660  120A  158A  2652  120A  118A  	fcall	__Umul8_16
  2512  0665  0871               	movf	?__Umul8_16+1,w
  2513  0666  1283               	bcf	3,5	;RP0=0, select bank0
  2514  0667  1303               	bcf	3,6	;RP1=0, select bank0
  2515  0668  00D3               	movwf	___flmul@temp+1
  2516  0669  0870               	movf	?__Umul8_16,w
  2517  066A  00D2               	movwf	___flmul@temp
  2518  066B  0852               	movf	___flmul@temp,w
  2519  066C  00C2               	movwf	??___flmul
  2520  066D  0853               	movf	___flmul@temp+1,w
  2521  066E  00C3               	movwf	??___flmul+1
  2522  066F  01C4               	clrf	??___flmul+2
  2523  0670  01C5               	clrf	??___flmul+3
  2524  0671  0842               	movf	??___flmul,w
  2525  0672  07CE               	addwf	___flmul@prod,f
  2526  0673  0843               	movf	??___flmul+1,w
  2527  0674  1103               	clrz
  2528  0675  1803               	skipnc
  2529  0676  3E01               	addlw	1
  2530  0677  1903               	skipnz
  2531  0678  2E7A               	goto	u1971
  2532  0679  07CF               	addwf	___flmul@prod+1,f
  2533  067A                     u1971:	
  2534  067A  0844               	movf	??___flmul+2,w
  2535  067B  1103               	clrz
  2536  067C  1803               	skipnc
  2537  067D  3E01               	addlw	1
  2538  067E  1903               	skipnz
  2539  067F  2E81               	goto	u1972
  2540  0680  07D0               	addwf	___flmul@prod+2,f
  2541  0681                     u1972:	
  2542  0681  0845               	movf	??___flmul+3,w
  2543  0682  1103               	clrz
  2544  0683  1803               	skipnc
  2545  0684  3E01               	addlw	1
  2546  0685  1903               	skipnz
  2547  0686  2E88               	goto	u1973
  2548  0687  07D1               	addwf	___flmul@prod+3,f
  2549  0688                     u1973:	
  2550  0688                     l1503:	
  2551  0688  083C               	movf	___flmul@b+2,w
  2552  0689  00C2               	movwf	??___flmul
  2553  068A  0842               	movf	??___flmul,w
  2554  068B  00F0               	movwf	__Umul8_16@multiplicand
  2555  068C  083F               	movf	___flmul@a+1,w
  2556  068D  120A  158A  2652  120A  118A  	fcall	__Umul8_16
  2557  0692  0871               	movf	?__Umul8_16+1,w
  2558  0693  1283               	bcf	3,5	;RP0=0, select bank0
  2559  0694  1303               	bcf	3,6	;RP1=0, select bank0
  2560  0695  00D3               	movwf	___flmul@temp+1
  2561  0696  0870               	movf	?__Umul8_16,w
  2562  0697  00D2               	movwf	___flmul@temp
  2563  0698                     l1505:	
  2564  0698  0852               	movf	___flmul@temp,w
  2565  0699  00C2               	movwf	??___flmul
  2566  069A  0853               	movf	___flmul@temp+1,w
  2567  069B  00C3               	movwf	??___flmul+1
  2568  069C  01C4               	clrf	??___flmul+2
  2569  069D  01C5               	clrf	??___flmul+3
  2570  069E  0842               	movf	??___flmul,w
  2571  069F  07CE               	addwf	___flmul@prod,f
  2572  06A0  0843               	movf	??___flmul+1,w
  2573  06A1  1103               	clrz
  2574  06A2  1803               	skipnc
  2575  06A3  3E01               	addlw	1
  2576  06A4  1903               	skipnz
  2577  06A5  2EA7               	goto	u1981
  2578  06A6  07CF               	addwf	___flmul@prod+1,f
  2579  06A7                     u1981:	
  2580  06A7  0844               	movf	??___flmul+2,w
  2581  06A8  1103               	clrz
  2582  06A9  1803               	skipnc
  2583  06AA  3E01               	addlw	1
  2584  06AB  1903               	skipnz
  2585  06AC  2EAE               	goto	u1982
  2586  06AD  07D0               	addwf	___flmul@prod+2,f
  2587  06AE                     u1982:	
  2588  06AE  0845               	movf	??___flmul+3,w
  2589  06AF  1103               	clrz
  2590  06B0  1803               	skipnc
  2591  06B1  3E01               	addlw	1
  2592  06B2  1903               	skipnz
  2593  06B3  2EB5               	goto	u1983
  2594  06B4  07D1               	addwf	___flmul@prod+3,f
  2595  06B5                     u1983:	
  2596  06B5  083C               	movf	___flmul@b+2,w
  2597  06B6  00C2               	movwf	??___flmul
  2598  06B7  0842               	movf	??___flmul,w
  2599  06B8  00F0               	movwf	__Umul8_16@multiplicand
  2600  06B9  0840               	movf	___flmul@a+2,w
  2601  06BA  120A  158A  2652  120A  118A  	fcall	__Umul8_16
  2602  06BF  0871               	movf	?__Umul8_16+1,w
  2603  06C0  1283               	bcf	3,5	;RP0=0, select bank0
  2604  06C1  1303               	bcf	3,6	;RP1=0, select bank0
  2605  06C2  00D3               	movwf	___flmul@temp+1
  2606  06C3  0870               	movf	?__Umul8_16,w
  2607  06C4  00D2               	movwf	___flmul@temp
  2608  06C5                     l1507:	
  2609  06C5  0852               	movf	___flmul@temp,w
  2610  06C6  00C2               	movwf	??___flmul
  2611  06C7  0853               	movf	___flmul@temp+1,w
  2612  06C8  00C3               	movwf	??___flmul+1
  2613  06C9  01C4               	clrf	??___flmul+2
  2614  06CA  01C5               	clrf	??___flmul+3
  2615  06CB  3008               	movlw	8
  2616  06CC                     u1995:	
  2617  06CC  1003               	clrc
  2618  06CD  0DC2               	rlf	??___flmul,f
  2619  06CE  0DC3               	rlf	??___flmul+1,f
  2620  06CF  0DC4               	rlf	??___flmul+2,f
  2621  06D0  0DC5               	rlf	??___flmul+3,f
  2622  06D1                     u1990:	
  2623  06D1  3EFF               	addlw	-1
  2624  06D2  1D03               	skipz
  2625  06D3  2ECC               	goto	u1995
  2626  06D4  0842               	movf	??___flmul,w
  2627  06D5  07CE               	addwf	___flmul@prod,f
  2628  06D6  0843               	movf	??___flmul+1,w
  2629  06D7  1103               	clrz
  2630  06D8  1803               	skipnc
  2631  06D9  3E01               	addlw	1
  2632  06DA  1903               	skipnz
  2633  06DB  2EDD               	goto	u2001
  2634  06DC  07CF               	addwf	___flmul@prod+1,f
  2635  06DD                     u2001:	
  2636  06DD  0844               	movf	??___flmul+2,w
  2637  06DE  1103               	clrz
  2638  06DF  1803               	skipnc
  2639  06E0  3E01               	addlw	1
  2640  06E1  1903               	skipnz
  2641  06E2  2EE4               	goto	u2002
  2642  06E3  07D0               	addwf	___flmul@prod+2,f
  2643  06E4                     u2002:	
  2644  06E4  0845               	movf	??___flmul+3,w
  2645  06E5  1103               	clrz
  2646  06E6  1803               	skipnc
  2647  06E7  3E01               	addlw	1
  2648  06E8  1903               	skipnz
  2649  06E9  2EEB               	goto	u2003
  2650  06EA  07D1               	addwf	___flmul@prod+3,f
  2651  06EB                     u2003:	
  2652  06EB                     l1509:	
  2653  06EB  0848               	movf	___flmul@grs,w
  2654  06EC  00C2               	movwf	??___flmul
  2655  06ED  0849               	movf	___flmul@grs+1,w
  2656  06EE  00C3               	movwf	??___flmul+1
  2657  06EF  084A               	movf	___flmul@grs+2,w
  2658  06F0  00C4               	movwf	??___flmul+2
  2659  06F1  084B               	movf	___flmul@grs+3,w
  2660  06F2  00C5               	movwf	??___flmul+3
  2661  06F3  3018               	movlw	24
  2662  06F4                     u2015:	
  2663  06F4  1003               	clrc
  2664  06F5  0CC5               	rrf	??___flmul+3,f
  2665  06F6  0CC4               	rrf	??___flmul+2,f
  2666  06F7  0CC3               	rrf	??___flmul+1,f
  2667  06F8  0CC2               	rrf	??___flmul,f
  2668  06F9                     u2010:	
  2669  06F9  3EFF               	addlw	-1
  2670  06FA  1D03               	skipz
  2671  06FB  2EF4               	goto	u2015
  2672  06FC  0842               	movf	??___flmul,w
  2673  06FD  07CE               	addwf	___flmul@prod,f
  2674  06FE  0843               	movf	??___flmul+1,w
  2675  06FF  1103               	clrz
  2676  0700  1803               	skipnc
  2677  0701  3E01               	addlw	1
  2678  0702  1903               	skipnz
  2679  0703  2F05               	goto	u2021
  2680  0704  07CF               	addwf	___flmul@prod+1,f
  2681  0705                     u2021:	
  2682  0705  0844               	movf	??___flmul+2,w
  2683  0706  1103               	clrz
  2684  0707  1803               	skipnc
  2685  0708  3E01               	addlw	1
  2686  0709  1903               	skipnz
  2687  070A  2F0C               	goto	u2022
  2688  070B  07D0               	addwf	___flmul@prod+2,f
  2689  070C                     u2022:	
  2690  070C  0845               	movf	??___flmul+3,w
  2691  070D  1103               	clrz
  2692  070E  1803               	skipnc
  2693  070F  3E01               	addlw	1
  2694  0710  1903               	skipnz
  2695  0711  2F13               	goto	u2023
  2696  0712  07D1               	addwf	___flmul@prod+3,f
  2697  0713                     u2023:	
  2698  0713                     l1511:	
  2699  0713  3008               	movlw	8
  2700  0714  00C2               	movwf	??___flmul
  2701  0715                     u2035:	
  2702  0715  1003               	clrc
  2703  0716  0DC8               	rlf	___flmul@grs,f
  2704  0717  0DC9               	rlf	___flmul@grs+1,f
  2705  0718  0DCA               	rlf	___flmul@grs+2,f
  2706  0719  0DCB               	rlf	___flmul@grs+3,f
  2707  071A  0BC2               	decfsz	??___flmul,f
  2708  071B  2F15               	goto	u2035
  2709  071C                     l1513:	
  2710  071C  084D               	movf	___flmul@bexp,w
  2711  071D  074C               	addwf	___flmul@aexp,w
  2712  071E  00C2               	movwf	??___flmul
  2713  071F  01C3               	clrf	??___flmul+1
  2714  0720  0DC3               	rlf	??___flmul+1,f
  2715  0721  0842               	movf	??___flmul,w
  2716  0722  3E82               	addlw	130
  2717  0723  00D2               	movwf	___flmul@temp
  2718  0724  0843               	movf	??___flmul+1,w
  2719  0725  1803               	skipnc
  2720  0726  3E01               	addlw	1
  2721  0727  3EFF               	addlw	255
  2722  0728  00D3               	movwf	___flmul@temp+1
  2723  0729  2F47               	goto	l1525
  2724  072A                     l1515:	
  2725  072A  3001               	movlw	1
  2726  072B  00C2               	movwf	??___flmul
  2727  072C                     u2045:	
  2728  072C  1003               	clrc
  2729  072D  0DCE               	rlf	___flmul@prod,f
  2730  072E  0DCF               	rlf	___flmul@prod+1,f
  2731  072F  0DD0               	rlf	___flmul@prod+2,f
  2732  0730  0DD1               	rlf	___flmul@prod+3,f
  2733  0731  0BC2               	decfsz	??___flmul,f
  2734  0732  2F2C               	goto	u2045
  2735  0733                     l1517:	
  2736  0733  1FCB               	btfss	___flmul@grs+3,7
  2737  0734  2F36               	goto	u2051
  2738  0735  2F37               	goto	u2050
  2739  0736                     u2051:	
  2740  0736  2F38               	goto	l1521
  2741  0737                     u2050:	
  2742  0737                     l1519:	
  2743  0737  144E               	bsf	___flmul@prod,0
  2744  0738                     l1521:	
  2745  0738  3001               	movlw	1
  2746  0739  00C2               	movwf	??___flmul
  2747  073A                     u2065:	
  2748  073A  1003               	clrc
  2749  073B  0DC8               	rlf	___flmul@grs,f
  2750  073C  0DC9               	rlf	___flmul@grs+1,f
  2751  073D  0DCA               	rlf	___flmul@grs+2,f
  2752  073E  0DCB               	rlf	___flmul@grs+3,f
  2753  073F  0BC2               	decfsz	??___flmul,f
  2754  0740  2F3A               	goto	u2065
  2755  0741                     l1523:	
  2756  0741  30FF               	movlw	255
  2757  0742  07D2               	addwf	___flmul@temp,f
  2758  0743  1803               	skipnc
  2759  0744  0AD3               	incf	___flmul@temp+1,f
  2760  0745  30FF               	movlw	255
  2761  0746  07D3               	addwf	___flmul@temp+1,f
  2762  0747                     l1525:	
  2763  0747  1FD0               	btfss	___flmul@prod+2,7
  2764  0748  2F4A               	goto	u2071
  2765  0749  2F4B               	goto	u2070
  2766  074A                     u2071:	
  2767  074A  2F2A               	goto	l1515
  2768  074B                     u2070:	
  2769  074B                     l1527:	
  2770  074B  01CC               	clrf	___flmul@aexp
  2771  074C                     l1529:	
  2772  074C  1FCB               	btfss	___flmul@grs+3,7
  2773  074D  2F4F               	goto	u2081
  2774  074E  2F50               	goto	u2080
  2775  074F                     u2081:	
  2776  074F  2F6C               	goto	l1537
  2777  0750                     u2080:	
  2778  0750                     l1531:	
  2779  0750  30FF               	movlw	255
  2780  0751  0548               	andwf	___flmul@grs,w
  2781  0752  00C2               	movwf	??___flmul
  2782  0753  30FF               	movlw	255
  2783  0754  0549               	andwf	___flmul@grs+1,w
  2784  0755  00C3               	movwf	??___flmul+1
  2785  0756  30FF               	movlw	255
  2786  0757  054A               	andwf	___flmul@grs+2,w
  2787  0758  00C4               	movwf	??___flmul+2
  2788  0759  307F               	movlw	127
  2789  075A  054B               	andwf	___flmul@grs+3,w
  2790  075B  00C5               	movwf	??___flmul+3
  2791  075C  0845               	movf	??___flmul+3,w
  2792  075D  0444               	iorwf	??___flmul+2,w
  2793  075E  0443               	iorwf	??___flmul+1,w
  2794  075F  0442               	iorwf	??___flmul,w
  2795  0760  1903               	skipnz
  2796  0761  2F63               	goto	u2091
  2797  0762  2F64               	goto	u2090
  2798  0763                     u2091:	
  2799  0763  2F67               	goto	l546
  2800  0764                     u2090:	
  2801  0764                     l1533:	
  2802  0764  01CC               	clrf	___flmul@aexp
  2803  0765  0ACC               	incf	___flmul@aexp,f
  2804  0766  2F6C               	goto	l1537
  2805  0767                     l546:	
  2806  0767  1C4E               	btfss	___flmul@prod,0
  2807  0768  2F6A               	goto	u2101
  2808  0769  2F6B               	goto	u2100
  2809  076A                     u2101:	
  2810  076A  2F6C               	goto	l1537
  2811  076B                     u2100:	
  2812  076B  2F64               	goto	l1533
  2813  076C                     l1537:	
  2814  076C  084C               	movf	___flmul@aexp,w
  2815  076D  1903               	btfsc	3,2
  2816  076E  2F70               	goto	u2111
  2817  076F  2F71               	goto	u2110
  2818  0770                     u2111:	
  2819  0770  2FA2               	goto	l1547
  2820  0771                     u2110:	
  2821  0771                     l1539:	
  2822  0771  3001               	movlw	1
  2823  0772  07CE               	addwf	___flmul@prod,f
  2824  0773  3000               	movlw	0
  2825  0774  1803               	skipnc
  2826  0775  3001               	movlw	1
  2827  0776  07CF               	addwf	___flmul@prod+1,f
  2828  0777  3000               	movlw	0
  2829  0778  1803               	skipnc
  2830  0779  3001               	movlw	1
  2831  077A  07D0               	addwf	___flmul@prod+2,f
  2832  077B  3000               	movlw	0
  2833  077C  1803               	skipnc
  2834  077D  3001               	movlw	1
  2835  077E  07D1               	addwf	___flmul@prod+3,f
  2836  077F                     l1541:	
  2837  077F  1C51               	btfss	___flmul@prod+3,0
  2838  0780  2F82               	goto	u2121
  2839  0781  2F83               	goto	u2120
  2840  0782                     u2121:	
  2841  0782  2FA2               	goto	l1547
  2842  0783                     u2120:	
  2843  0783                     l1543:	
  2844  0783  084E               	movf	___flmul@prod,w
  2845  0784  00C2               	movwf	??___flmul
  2846  0785  084F               	movf	___flmul@prod+1,w
  2847  0786  00C3               	movwf	??___flmul+1
  2848  0787  0850               	movf	___flmul@prod+2,w
  2849  0788  00C4               	movwf	??___flmul+2
  2850  0789  0851               	movf	___flmul@prod+3,w
  2851  078A  00C5               	movwf	??___flmul+3
  2852  078B  3001               	movlw	1
  2853  078C  00C6               	movwf	??___flmul+4
  2854  078D                     u2135:	
  2855  078D  0D45               	rlf	??___flmul+3,w
  2856  078E  0CC5               	rrf	??___flmul+3,f
  2857  078F  0CC4               	rrf	??___flmul+2,f
  2858  0790  0CC3               	rrf	??___flmul+1,f
  2859  0791  0CC2               	rrf	??___flmul,f
  2860  0792                     u2130:	
  2861  0792  0BC6               	decfsz	??___flmul+4,f
  2862  0793  2F8D               	goto	u2135
  2863  0794  0845               	movf	??___flmul+3,w
  2864  0795  00D1               	movwf	___flmul@prod+3
  2865  0796  0844               	movf	??___flmul+2,w
  2866  0797  00D0               	movwf	___flmul@prod+2
  2867  0798  0843               	movf	??___flmul+1,w
  2868  0799  00CF               	movwf	___flmul@prod+1
  2869  079A  0842               	movf	??___flmul,w
  2870  079B  00CE               	movwf	___flmul@prod
  2871  079C                     l1545:	
  2872  079C  3001               	movlw	1
  2873  079D  07D2               	addwf	___flmul@temp,f
  2874  079E  1803               	skipnc
  2875  079F  0AD3               	incf	___flmul@temp+1,f
  2876  07A0  3000               	movlw	0
  2877  07A1  07D3               	addwf	___flmul@temp+1,f
  2878  07A2                     l1547:	
  2879  07A2  0853               	movf	___flmul@temp+1,w
  2880  07A3  3A80               	xorlw	128
  2881  07A4  00FF               	movwf	btemp+1
  2882  07A5  3080               	movlw	128
  2883  07A6  027F               	subwf	btemp+1,w
  2884  07A7  1D03               	skipz
  2885  07A8  2FAB               	goto	u2145
  2886  07A9  30FF               	movlw	255
  2887  07AA  0252               	subwf	___flmul@temp,w
  2888  07AB                     u2145:	
  2889  07AB  1C03               	skipc
  2890  07AC  2FAE               	goto	u2141
  2891  07AD  2FAF               	goto	u2140
  2892  07AE                     u2141:	
  2893  07AE  2FBA               	goto	l1551
  2894  07AF                     u2140:	
  2895  07AF                     l1549:	
  2896  07AF  307F               	movlw	127
  2897  07B0  1283               	bcf	3,5	;RP0=0, select bank0
  2898  07B1  1303               	bcf	3,6	;RP1=0, select bank0
  2899  07B2  00D1               	movwf	___flmul@prod+3
  2900  07B3  3080               	movlw	128
  2901  07B4  00D0               	movwf	___flmul@prod+2
  2902  07B5  3000               	movlw	0
  2903  07B6  00CF               	movwf	___flmul@prod+1
  2904  07B7  3000               	movlw	0
  2905  07B8  00CE               	movwf	___flmul@prod
  2906  07B9  2FEF               	goto	l552
  2907  07BA                     l1551:	
  2908  07BA  1283               	bcf	3,5	;RP0=0, select bank0
  2909  07BB  1303               	bcf	3,6	;RP1=0, select bank0
  2910  07BC  0853               	movf	___flmul@temp+1,w
  2911  07BD  3A80               	xorlw	128
  2912  07BE  00FF               	movwf	btemp+1
  2913  07BF  3080               	movlw	128
  2914  07C0  027F               	subwf	btemp+1,w
  2915  07C1  1D03               	skipz
  2916  07C2  2FC5               	goto	u2155
  2917  07C3  3001               	movlw	1
  2918  07C4  0252               	subwf	___flmul@temp,w
  2919  07C5                     u2155:	
  2920  07C5  1803               	skipnc
  2921  07C6  2FC8               	goto	u2151
  2922  07C7  2FC9               	goto	u2150
  2923  07C8                     u2151:	
  2924  07C8  2FD5               	goto	l1557
  2925  07C9                     u2150:	
  2926  07C9                     l1553:	
  2927  07C9  3000               	movlw	0
  2928  07CA  1283               	bcf	3,5	;RP0=0, select bank0
  2929  07CB  1303               	bcf	3,6	;RP1=0, select bank0
  2930  07CC  00D1               	movwf	___flmul@prod+3
  2931  07CD  3000               	movlw	0
  2932  07CE  00D0               	movwf	___flmul@prod+2
  2933  07CF  3000               	movlw	0
  2934  07D0  00CF               	movwf	___flmul@prod+1
  2935  07D1  3000               	movlw	0
  2936  07D2  00CE               	movwf	___flmul@prod
  2937  07D3                     l1555:	
  2938  07D3  01C7               	clrf	___flmul@sign
  2939  07D4  2FEF               	goto	l552
  2940  07D5                     l1557:	
  2941  07D5  1283               	bcf	3,5	;RP0=0, select bank0
  2942  07D6  1303               	bcf	3,6	;RP1=0, select bank0
  2943  07D7  0852               	movf	___flmul@temp,w
  2944  07D8  00C2               	movwf	??___flmul
  2945  07D9  0842               	movf	??___flmul,w
  2946  07DA  00CD               	movwf	___flmul@bexp
  2947  07DB  30FF               	movlw	255
  2948  07DC  05CE               	andwf	___flmul@prod,f
  2949  07DD  30FF               	movlw	255
  2950  07DE  05CF               	andwf	___flmul@prod+1,f
  2951  07DF  307F               	movlw	127
  2952  07E0  05D0               	andwf	___flmul@prod+2,f
  2953  07E1  3000               	movlw	0
  2954  07E2  05D1               	andwf	___flmul@prod+3,f
  2955  07E3                     l1559:	
  2956  07E3  1C4D               	btfss	___flmul@bexp,0
  2957  07E4  2FE6               	goto	u2161
  2958  07E5  2FE7               	goto	u2160
  2959  07E6                     u2161:	
  2960  07E6  2FE8               	goto	l1563
  2961  07E7                     u2160:	
  2962  07E7                     l1561:	
  2963  07E7  17D0               	bsf	___flmul@prod+2,7
  2964  07E8                     l1563:	
  2965  07E8  084D               	movf	___flmul@bexp,w
  2966  07E9  00C2               	movwf	??___flmul
  2967  07EA  1003               	clrc
  2968  07EB  0C42               	rrf	??___flmul,w
  2969  07EC  00C3               	movwf	??___flmul+1
  2970  07ED  0843               	movf	??___flmul+1,w
  2971  07EE  00D1               	movwf	___flmul@prod+3
  2972  07EF                     l552:	
  2973  07EF  0847               	movf	___flmul@sign,w
  2974  07F0  00C2               	movwf	??___flmul
  2975  07F1  0842               	movf	??___flmul,w
  2976  07F2  04D1               	iorwf	___flmul@prod+3,f
  2977  07F3                     l1565:	
  2978  07F3  0851               	movf	___flmul@prod+3,w
  2979  07F4  00BD               	movwf	?___flmul+3
  2980  07F5  0850               	movf	___flmul@prod+2,w
  2981  07F6  00BC               	movwf	?___flmul+2
  2982  07F7  084F               	movf	___flmul@prod+1,w
  2983  07F8  00BB               	movwf	?___flmul+1
  2984  07F9  084E               	movf	___flmul@prod,w
  2985  07FA  00BA               	movwf	?___flmul
  2986  07FB                     l540:	
  2987  07FB  0008               	return
  2988  07FC                     __end_of___flmul:	
  2989                           
  2990                           	psect	text8
  2991  0E52                     __ptext8:	
  2992 ;; *************** function __Umul8_16 *****************
  2993 ;; Defined at:
  2994 ;;		line 4 in file "C:\Program Files (x86)\Microchip\xc8\v2.10\pic\sources\c90\common\Umul8_16.c"
  2995 ;; Parameters:    Size  Location     Type
  2996 ;;  multiplier      1    wreg     unsigned char 
  2997 ;;  multiplicand    1    0[COMMON] unsigned char 
  2998 ;; Auto vars:     Size  Location     Type
  2999 ;;  multiplier      1    8[COMMON] unsigned char 
  3000 ;;  word_mpld       2    6[COMMON] unsigned int 
  3001 ;;  product         2    4[COMMON] unsigned int 
  3002 ;; Return value:  Size  Location     Type
  3003 ;;                  2    0[COMMON] unsigned int 
  3004 ;; Registers used:
  3005 ;;		wreg, status,2, status,0
  3006 ;; Tracked objects:
  3007 ;;		On entry : 0/0
  3008 ;;		On exit  : 0/0
  3009 ;;		Unchanged: 0/0
  3010 ;; Data sizes:     COMMON   BANK0   BANK1   BANK3   BANK2
  3011 ;;      Params:         2       0       0       0       0
  3012 ;;      Locals:         5       0       0       0       0
  3013 ;;      Temps:          2       0       0       0       0
  3014 ;;      Totals:         9       0       0       0       0
  3015 ;;Total ram usage:        9 bytes
  3016 ;; Hardware stack levels used:    1
  3017 ;; This function calls:
  3018 ;;		Nothing
  3019 ;; This function is called by:
  3020 ;;		___flmul
  3021 ;; This function uses a non-reentrant model
  3022 ;;
  3023                           
  3024                           
  3025                           ;psect for function __Umul8_16
  3026  0E52                     __Umul8_16:	
  3027                           
  3028                           ;incstack = 0
  3029                           ; Regs used in __Umul8_16: [wreg+status,2+status,0]
  3030                           ;__Umul8_16@multiplier stored from wreg
  3031  0E52  00F8               	movwf	__Umul8_16@multiplier
  3032  0E53                     l1233:	
  3033  0E53  01F4               	clrf	__Umul8_16@product
  3034  0E54  01F5               	clrf	__Umul8_16@product+1
  3035  0E55                     l1235:	
  3036  0E55  0870               	movf	__Umul8_16@multiplicand,w
  3037  0E56  00F2               	movwf	??__Umul8_16
  3038  0E57  01F3               	clrf	??__Umul8_16+1
  3039  0E58  0872               	movf	??__Umul8_16,w
  3040  0E59  00F6               	movwf	__Umul8_16@word_mpld
  3041  0E5A  0873               	movf	??__Umul8_16+1,w
  3042  0E5B  00F7               	movwf	__Umul8_16@word_mpld+1
  3043  0E5C                     l1237:	
  3044  0E5C  1C78               	btfss	__Umul8_16@multiplier,0
  3045  0E5D  2E5F               	goto	u1351
  3046  0E5E  2E60               	goto	u1350
  3047  0E5F                     u1351:	
  3048  0E5F  2E66               	goto	l597
  3049  0E60                     u1350:	
  3050  0E60                     l1239:	
  3051  0E60  0876               	movf	__Umul8_16@word_mpld,w
  3052  0E61  07F4               	addwf	__Umul8_16@product,f
  3053  0E62  1803               	skipnc
  3054  0E63  0AF5               	incf	__Umul8_16@product+1,f
  3055  0E64  0877               	movf	__Umul8_16@word_mpld+1,w
  3056  0E65  07F5               	addwf	__Umul8_16@product+1,f
  3057  0E66                     l597:	
  3058  0E66  3001               	movlw	1
  3059  0E67                     u1365:	
  3060  0E67  1003               	clrc
  3061  0E68  0DF6               	rlf	__Umul8_16@word_mpld,f
  3062  0E69  0DF7               	rlf	__Umul8_16@word_mpld+1,f
  3063  0E6A  3EFF               	addlw	-1
  3064  0E6B  1D03               	skipz
  3065  0E6C  2E67               	goto	u1365
  3066  0E6D  1003               	clrc
  3067  0E6E  0CF8               	rrf	__Umul8_16@multiplier,f
  3068  0E6F                     l1241:	
  3069  0E6F  0878               	movf	__Umul8_16@multiplier,w
  3070  0E70  1D03               	btfss	3,2
  3071  0E71  2E73               	goto	u1371
  3072  0E72  2E74               	goto	u1370
  3073  0E73                     u1371:	
  3074  0E73  2E5C               	goto	l1237
  3075  0E74                     u1370:	
  3076  0E74                     l1243:	
  3077  0E74  0875               	movf	__Umul8_16@product+1,w
  3078  0E75  00F1               	movwf	?__Umul8_16+1
  3079  0E76  0874               	movf	__Umul8_16@product,w
  3080  0E77  00F0               	movwf	?__Umul8_16
  3081  0E78                     l599:	
  3082  0E78  0008               	return
  3083  0E79                     __end_of__Umul8_16:	
  3084                           
  3085                           	psect	text9
  3086  02BE                     __ptext9:	
  3087 ;; *************** function ___fldiv *****************
  3088 ;; Defined at:
  3089 ;;		line 8 in file "C:\Program Files (x86)\Microchip\xc8\v2.10\pic\sources\c90\common\sprcdiv.c"
  3090 ;; Parameters:    Size  Location     Type
  3091 ;;  a               4    0[BANK0 ] unsigned int 
  3092 ;;  b               4    4[BANK0 ] unsigned int 
  3093 ;; Auto vars:     Size  Location     Type
  3094 ;;  grs             4   20[BANK0 ] unsigned long 
  3095 ;;  rem             4   13[BANK0 ] unsigned long 
  3096 ;;  new_exp         2   18[BANK0 ] int 
  3097 ;;  aexp            1   25[BANK0 ] unsigned char 
  3098 ;;  bexp            1   24[BANK0 ] unsigned char 
  3099 ;;  sign            1   17[BANK0 ] unsigned char 
  3100 ;; Return value:  Size  Location     Type
  3101 ;;                  4    0[BANK0 ] unsigned char 
  3102 ;; Registers used:
  3103 ;;		wreg, status,2, status,0, btemp+1
  3104 ;; Tracked objects:
  3105 ;;		On entry : 0/0
  3106 ;;		On exit  : 0/0
  3107 ;;		Unchanged: 0/0
  3108 ;; Data sizes:     COMMON   BANK0   BANK1   BANK3   BANK2
  3109 ;;      Params:         0       8       0       0       0
  3110 ;;      Locals:         0      13       0       0       0
  3111 ;;      Temps:          0       5       0       0       0
  3112 ;;      Totals:         0      26       0       0       0
  3113 ;;Total ram usage:       26 bytes
  3114 ;; Hardware stack levels used:    1
  3115 ;; This function calls:
  3116 ;;		Nothing
  3117 ;; This function is called by:
  3118 ;;		_pwmDuty
  3119 ;; This function uses a non-reentrant model
  3120 ;;
  3121                           
  3122                           
  3123                           ;psect for function ___fldiv
  3124  02BE                     ___fldiv:	
  3125  02BE                     l1287:	
  3126                           ;incstack = 0
  3127                           ; Regs used in ___fldiv: [wreg+status,2+status,0+btemp+1]
  3128                           
  3129  02BE  1283               	bcf	3,5	;RP0=0, select bank0
  3130  02BF  1303               	bcf	3,6	;RP1=0, select bank0
  3131  02C0  0827               	movf	___fldiv@b+3,w
  3132  02C1  3980               	andlw	128
  3133  02C2  00A8               	movwf	??___fldiv
  3134  02C3  0828               	movf	??___fldiv,w
  3135  02C4  00B1               	movwf	___fldiv@sign
  3136  02C5                     l1289:	
  3137  02C5  0827               	movf	___fldiv@b+3,w
  3138  02C6  00A8               	movwf	??___fldiv
  3139  02C7  0728               	addwf	??___fldiv,w
  3140  02C8  00A9               	movwf	??___fldiv+1
  3141  02C9  0829               	movf	??___fldiv+1,w
  3142  02CA  00B8               	movwf	___fldiv@bexp
  3143  02CB                     l1291:	
  3144  02CB  1FA6               	btfss	___fldiv@b+2,7
  3145  02CC  2ACE               	goto	u1511
  3146  02CD  2ACF               	goto	u1510
  3147  02CE                     u1511:	
  3148  02CE  2AD0               	goto	l1295
  3149  02CF                     u1510:	
  3150  02CF                     l1293:	
  3151  02CF  1438               	bsf	___fldiv@bexp,0
  3152  02D0                     l1295:	
  3153  02D0  0838               	movf	___fldiv@bexp,w
  3154  02D1  1903               	btfsc	3,2
  3155  02D2  2AD4               	goto	u1521
  3156  02D3  2AD5               	goto	u1520
  3157  02D4                     u1521:	
  3158  02D4  2AE5               	goto	l1305
  3159  02D5                     u1520:	
  3160  02D5                     l1297:	
  3161  02D5  0A38               	incf	___fldiv@bexp,w
  3162  02D6  1D03               	btfss	3,2
  3163  02D7  2AD9               	goto	u1531
  3164  02D8  2ADA               	goto	u1530
  3165  02D9                     u1531:	
  3166  02D9  2AE2               	goto	l1301
  3167  02DA                     u1530:	
  3168  02DA                     l1299:	
  3169  02DA  3000               	movlw	0
  3170  02DB  00A7               	movwf	___fldiv@b+3
  3171  02DC  3000               	movlw	0
  3172  02DD  00A6               	movwf	___fldiv@b+2
  3173  02DE  3000               	movlw	0
  3174  02DF  00A5               	movwf	___fldiv@b+1
  3175  02E0  3000               	movlw	0
  3176  02E1  00A4               	movwf	___fldiv@b
  3177  02E2                     l1301:	
  3178  02E2  17A6               	bsf	___fldiv@b+2,7
  3179  02E3                     l1303:	
  3180  02E3  01A7               	clrf	___fldiv@b+3
  3181  02E4  2AED               	goto	l1307
  3182  02E5                     l1305:	
  3183  02E5  3000               	movlw	0
  3184  02E6  00A7               	movwf	___fldiv@b+3
  3185  02E7  3000               	movlw	0
  3186  02E8  00A6               	movwf	___fldiv@b+2
  3187  02E9  3000               	movlw	0
  3188  02EA  00A5               	movwf	___fldiv@b+1
  3189  02EB  3000               	movlw	0
  3190  02EC  00A4               	movwf	___fldiv@b
  3191  02ED                     l1307:	
  3192  02ED  0823               	movf	___fldiv@a+3,w
  3193  02EE  3980               	andlw	128
  3194  02EF  00A8               	movwf	??___fldiv
  3195  02F0  0828               	movf	??___fldiv,w
  3196  02F1  06B1               	xorwf	___fldiv@sign,f
  3197  02F2                     l1309:	
  3198  02F2  0823               	movf	___fldiv@a+3,w
  3199  02F3  00A8               	movwf	??___fldiv
  3200  02F4  0728               	addwf	??___fldiv,w
  3201  02F5  00A9               	movwf	??___fldiv+1
  3202  02F6  0829               	movf	??___fldiv+1,w
  3203  02F7  00B9               	movwf	___fldiv@aexp
  3204  02F8                     l1311:	
  3205  02F8  1FA2               	btfss	___fldiv@a+2,7
  3206  02F9  2AFB               	goto	u1541
  3207  02FA  2AFC               	goto	u1540
  3208  02FB                     u1541:	
  3209  02FB  2AFD               	goto	l1315
  3210  02FC                     u1540:	
  3211  02FC                     l1313:	
  3212  02FC  1439               	bsf	___fldiv@aexp,0
  3213  02FD                     l1315:	
  3214  02FD  0839               	movf	___fldiv@aexp,w
  3215  02FE  1903               	btfsc	3,2
  3216  02FF  2B01               	goto	u1551
  3217  0300  2B02               	goto	u1550
  3218  0301                     u1551:	
  3219  0301  2B12               	goto	l1325
  3220  0302                     u1550:	
  3221  0302                     l1317:	
  3222  0302  0A39               	incf	___fldiv@aexp,w
  3223  0303  1D03               	btfss	3,2
  3224  0304  2B06               	goto	u1561
  3225  0305  2B07               	goto	u1560
  3226  0306                     u1561:	
  3227  0306  2B0F               	goto	l1321
  3228  0307                     u1560:	
  3229  0307                     l1319:	
  3230  0307  3000               	movlw	0
  3231  0308  00A3               	movwf	___fldiv@a+3
  3232  0309  3000               	movlw	0
  3233  030A  00A2               	movwf	___fldiv@a+2
  3234  030B  3000               	movlw	0
  3235  030C  00A1               	movwf	___fldiv@a+1
  3236  030D  3000               	movlw	0
  3237  030E  00A0               	movwf	___fldiv@a
  3238  030F                     l1321:	
  3239  030F  17A2               	bsf	___fldiv@a+2,7
  3240  0310                     l1323:	
  3241  0310  01A3               	clrf	___fldiv@a+3
  3242  0311  2B1A               	goto	l500
  3243  0312                     l1325:	
  3244  0312  3000               	movlw	0
  3245  0313  00A3               	movwf	___fldiv@a+3
  3246  0314  3000               	movlw	0
  3247  0315  00A2               	movwf	___fldiv@a+2
  3248  0316  3000               	movlw	0
  3249  0317  00A1               	movwf	___fldiv@a+1
  3250  0318  3000               	movlw	0
  3251  0319  00A0               	movwf	___fldiv@a
  3252  031A                     l500:	
  3253  031A  0823               	movf	___fldiv@a+3,w
  3254  031B  0422               	iorwf	___fldiv@a+2,w
  3255  031C  0421               	iorwf	___fldiv@a+1,w
  3256  031D  0420               	iorwf	___fldiv@a,w
  3257  031E  1D03               	skipz
  3258  031F  2B21               	goto	u1571
  3259  0320  2B22               	goto	u1570
  3260  0321                     u1571:	
  3261  0321  2B3B               	goto	l1335
  3262  0322                     u1570:	
  3263  0322                     l1327:	
  3264  0322  3000               	movlw	0
  3265  0323  00A7               	movwf	___fldiv@b+3
  3266  0324  3000               	movlw	0
  3267  0325  00A6               	movwf	___fldiv@b+2
  3268  0326  3000               	movlw	0
  3269  0327  00A5               	movwf	___fldiv@b+1
  3270  0328  3000               	movlw	0
  3271  0329  00A4               	movwf	___fldiv@b
  3272  032A  3080               	movlw	128
  3273  032B  04A6               	iorwf	___fldiv@b+2,f
  3274  032C  307F               	movlw	127
  3275  032D  04A7               	iorwf	___fldiv@b+3,f
  3276  032E                     l1329:	
  3277  032E  0831               	movf	___fldiv@sign,w
  3278  032F  00A8               	movwf	??___fldiv
  3279  0330  0828               	movf	??___fldiv,w
  3280  0331  04A7               	iorwf	___fldiv@b+3,f
  3281  0332                     l1331:	
  3282  0332  0827               	movf	___fldiv@b+3,w
  3283  0333  00A3               	movwf	?___fldiv+3
  3284  0334  0826               	movf	___fldiv@b+2,w
  3285  0335  00A2               	movwf	?___fldiv+2
  3286  0336  0825               	movf	___fldiv@b+1,w
  3287  0337  00A1               	movwf	?___fldiv+1
  3288  0338  0824               	movf	___fldiv@b,w
  3289  0339  00A0               	movwf	?___fldiv
  3290  033A  2C9A               	goto	l502
  3291  033B                     l1335:	
  3292  033B  0838               	movf	___fldiv@bexp,w
  3293  033C  1D03               	btfss	3,2
  3294  033D  2B3F               	goto	u1581
  3295  033E  2B40               	goto	u1580
  3296  033F                     u1581:	
  3297  033F  2B49               	goto	l1341
  3298  0340                     u1580:	
  3299  0340                     l1337:	
  3300  0340  3000               	movlw	0
  3301  0341  00A3               	movwf	?___fldiv+3
  3302  0342  3000               	movlw	0
  3303  0343  00A2               	movwf	?___fldiv+2
  3304  0344  3000               	movlw	0
  3305  0345  00A1               	movwf	?___fldiv+1
  3306  0346  3000               	movlw	0
  3307  0347  00A0               	movwf	?___fldiv
  3308  0348  2C9A               	goto	l502
  3309  0349                     l1341:	
  3310  0349  0838               	movf	___fldiv@bexp,w
  3311  034A  00A8               	movwf	??___fldiv
  3312  034B  01A9               	clrf	??___fldiv+1
  3313  034C  0829               	movf	??___fldiv+1,w
  3314  034D  00AB               	movwf	??___fldiv+3
  3315  034E  0839               	movf	___fldiv@aexp,w
  3316  034F  0228               	subwf	??___fldiv,w
  3317  0350  00AA               	movwf	??___fldiv+2
  3318  0351  1C03               	skipc
  3319  0352  03AB               	decf	??___fldiv+3,f
  3320  0353  082A               	movf	??___fldiv+2,w
  3321  0354  3E7F               	addlw	127
  3322  0355  00B2               	movwf	___fldiv@new_exp
  3323  0356  082B               	movf	??___fldiv+3,w
  3324  0357  1803               	skipnc
  3325  0358  3E01               	addlw	1
  3326  0359  3E00               	addlw	0
  3327  035A  00B3               	movwf	___fldiv@new_exp+1
  3328  035B                     l1343:	
  3329  035B  0827               	movf	___fldiv@b+3,w
  3330  035C  00B0               	movwf	___fldiv@rem+3
  3331  035D  0826               	movf	___fldiv@b+2,w
  3332  035E  00AF               	movwf	___fldiv@rem+2
  3333  035F  0825               	movf	___fldiv@b+1,w
  3334  0360  00AE               	movwf	___fldiv@rem+1
  3335  0361  0824               	movf	___fldiv@b,w
  3336  0362  00AD               	movwf	___fldiv@rem
  3337  0363                     l1345:	
  3338  0363  3000               	movlw	0
  3339  0364  00A7               	movwf	___fldiv@b+3
  3340  0365  3000               	movlw	0
  3341  0366  00A6               	movwf	___fldiv@b+2
  3342  0367  3000               	movlw	0
  3343  0368  00A5               	movwf	___fldiv@b+1
  3344  0369  3000               	movlw	0
  3345  036A  00A4               	movwf	___fldiv@b
  3346  036B                     l1347:	
  3347  036B  3000               	movlw	0
  3348  036C  00B7               	movwf	___fldiv@grs+3
  3349  036D  3000               	movlw	0
  3350  036E  00B6               	movwf	___fldiv@grs+2
  3351  036F  3000               	movlw	0
  3352  0370  00B5               	movwf	___fldiv@grs+1
  3353  0371  3000               	movlw	0
  3354  0372  00B4               	movwf	___fldiv@grs
  3355  0373                     l1349:	
  3356  0373  01B9               	clrf	___fldiv@aexp
  3357  0374  2BBF               	goto	l1369
  3358  0375                     l1351:	
  3359  0375  0839               	movf	___fldiv@aexp,w
  3360  0376  1903               	btfsc	3,2
  3361  0377  2B79               	goto	u1591
  3362  0378  2B7A               	goto	u1590
  3363  0379                     u1591:	
  3364  0379  2B9A               	goto	l1361
  3365  037A                     u1590:	
  3366  037A                     l1353:	
  3367  037A  3001               	movlw	1
  3368  037B  00A8               	movwf	??___fldiv
  3369  037C                     u1605:	
  3370  037C  1003               	clrc
  3371  037D  0DAD               	rlf	___fldiv@rem,f
  3372  037E  0DAE               	rlf	___fldiv@rem+1,f
  3373  037F  0DAF               	rlf	___fldiv@rem+2,f
  3374  0380  0DB0               	rlf	___fldiv@rem+3,f
  3375  0381  0BA8               	decfsz	??___fldiv,f
  3376  0382  2B7C               	goto	u1605
  3377  0383  3001               	movlw	1
  3378  0384  00A8               	movwf	??___fldiv
  3379  0385                     u1615:	
  3380  0385  1003               	clrc
  3381  0386  0DA4               	rlf	___fldiv@b,f
  3382  0387  0DA5               	rlf	___fldiv@b+1,f
  3383  0388  0DA6               	rlf	___fldiv@b+2,f
  3384  0389  0DA7               	rlf	___fldiv@b+3,f
  3385  038A  0BA8               	decfsz	??___fldiv,f
  3386  038B  2B85               	goto	u1615
  3387  038C                     l1355:	
  3388  038C  1FB7               	btfss	___fldiv@grs+3,7
  3389  038D  2B8F               	goto	u1621
  3390  038E  2B90               	goto	u1620
  3391  038F                     u1621:	
  3392  038F  2B91               	goto	l1359
  3393  0390                     u1620:	
  3394  0390                     l1357:	
  3395  0390  1424               	bsf	___fldiv@b,0
  3396  0391                     l1359:	
  3397  0391  3001               	movlw	1
  3398  0392  00A8               	movwf	??___fldiv
  3399  0393                     u1635:	
  3400  0393  1003               	clrc
  3401  0394  0DB4               	rlf	___fldiv@grs,f
  3402  0395  0DB5               	rlf	___fldiv@grs+1,f
  3403  0396  0DB6               	rlf	___fldiv@grs+2,f
  3404  0397  0DB7               	rlf	___fldiv@grs+3,f
  3405  0398  0BA8               	decfsz	??___fldiv,f
  3406  0399  2B93               	goto	u1635
  3407  039A                     l1361:	
  3408  039A  0823               	movf	___fldiv@a+3,w
  3409  039B  0230               	subwf	___fldiv@rem+3,w
  3410  039C  1D03               	skipz
  3411  039D  2BA8               	goto	u1645
  3412  039E  0822               	movf	___fldiv@a+2,w
  3413  039F  022F               	subwf	___fldiv@rem+2,w
  3414  03A0  1D03               	skipz
  3415  03A1  2BA8               	goto	u1645
  3416  03A2  0821               	movf	___fldiv@a+1,w
  3417  03A3  022E               	subwf	___fldiv@rem+1,w
  3418  03A4  1D03               	skipz
  3419  03A5  2BA8               	goto	u1645
  3420  03A6  0820               	movf	___fldiv@a,w
  3421  03A7  022D               	subwf	___fldiv@rem,w
  3422  03A8                     u1645:	
  3423  03A8  1C03               	skipc
  3424  03A9  2BAB               	goto	u1641
  3425  03AA  2BAC               	goto	u1640
  3426  03AB                     u1641:	
  3427  03AB  2BBB               	goto	l1367
  3428  03AC                     u1640:	
  3429  03AC                     l1363:	
  3430  03AC  1737               	bsf	___fldiv@grs+3,6
  3431  03AD                     l1365:	
  3432  03AD  0820               	movf	___fldiv@a,w
  3433  03AE  02AD               	subwf	___fldiv@rem,f
  3434  03AF  0821               	movf	___fldiv@a+1,w
  3435  03B0  1C03               	skipc
  3436  03B1  0F21               	incfsz	___fldiv@a+1,w
  3437  03B2  02AE               	subwf	___fldiv@rem+1,f
  3438  03B3  0822               	movf	___fldiv@a+2,w
  3439  03B4  1C03               	skipc
  3440  03B5  0F22               	incfsz	___fldiv@a+2,w
  3441  03B6  02AF               	subwf	___fldiv@rem+2,f
  3442  03B7  0823               	movf	___fldiv@a+3,w
  3443  03B8  1C03               	skipc
  3444  03B9  0F23               	incfsz	___fldiv@a+3,w
  3445  03BA  02B0               	subwf	___fldiv@rem+3,f
  3446  03BB                     l1367:	
  3447  03BB  3001               	movlw	1
  3448  03BC  00A8               	movwf	??___fldiv
  3449  03BD  0828               	movf	??___fldiv,w
  3450  03BE  07B9               	addwf	___fldiv@aexp,f
  3451  03BF                     l1369:	
  3452  03BF  301A               	movlw	26
  3453  03C0  0239               	subwf	___fldiv@aexp,w
  3454  03C1  1C03               	skipc
  3455  03C2  2BC4               	goto	u1651
  3456  03C3  2BC5               	goto	u1650
  3457  03C4                     u1651:	
  3458  03C4  2B75               	goto	l1351
  3459  03C5                     u1650:	
  3460  03C5                     l1371:	
  3461  03C5  0830               	movf	___fldiv@rem+3,w
  3462  03C6  042F               	iorwf	___fldiv@rem+2,w
  3463  03C7  042E               	iorwf	___fldiv@rem+1,w
  3464  03C8  042D               	iorwf	___fldiv@rem,w
  3465  03C9  1903               	skipnz
  3466  03CA  2BCC               	goto	u1661
  3467  03CB  2BCD               	goto	u1660
  3468  03CC                     u1661:	
  3469  03CC  2BEC               	goto	l1385
  3470  03CD                     u1660:	
  3471  03CD                     l1373:	
  3472  03CD  1434               	bsf	___fldiv@grs,0
  3473  03CE  2BEC               	goto	l1385
  3474  03CF                     l1375:	
  3475  03CF  3001               	movlw	1
  3476  03D0  00A8               	movwf	??___fldiv
  3477  03D1                     u1675:	
  3478  03D1  1003               	clrc
  3479  03D2  0DA4               	rlf	___fldiv@b,f
  3480  03D3  0DA5               	rlf	___fldiv@b+1,f
  3481  03D4  0DA6               	rlf	___fldiv@b+2,f
  3482  03D5  0DA7               	rlf	___fldiv@b+3,f
  3483  03D6  0BA8               	decfsz	??___fldiv,f
  3484  03D7  2BD1               	goto	u1675
  3485  03D8                     l1377:	
  3486  03D8  1FB7               	btfss	___fldiv@grs+3,7
  3487  03D9  2BDB               	goto	u1681
  3488  03DA  2BDC               	goto	u1680
  3489  03DB                     u1681:	
  3490  03DB  2BDD               	goto	l1381
  3491  03DC                     u1680:	
  3492  03DC                     l1379:	
  3493  03DC  1424               	bsf	___fldiv@b,0
  3494  03DD                     l1381:	
  3495  03DD  3001               	movlw	1
  3496  03DE  00A8               	movwf	??___fldiv
  3497  03DF                     u1695:	
  3498  03DF  1003               	clrc
  3499  03E0  0DB4               	rlf	___fldiv@grs,f
  3500  03E1  0DB5               	rlf	___fldiv@grs+1,f
  3501  03E2  0DB6               	rlf	___fldiv@grs+2,f
  3502  03E3  0DB7               	rlf	___fldiv@grs+3,f
  3503  03E4  0BA8               	decfsz	??___fldiv,f
  3504  03E5  2BDF               	goto	u1695
  3505  03E6                     l1383:	
  3506  03E6  30FF               	movlw	255
  3507  03E7  07B2               	addwf	___fldiv@new_exp,f
  3508  03E8  1803               	skipnc
  3509  03E9  0AB3               	incf	___fldiv@new_exp+1,f
  3510  03EA  30FF               	movlw	255
  3511  03EB  07B3               	addwf	___fldiv@new_exp+1,f
  3512  03EC                     l1385:	
  3513  03EC  1FA6               	btfss	___fldiv@b+2,7
  3514  03ED  2BEF               	goto	u1701
  3515  03EE  2BF0               	goto	u1700
  3516  03EF                     u1701:	
  3517  03EF  2BCF               	goto	l1375
  3518  03F0                     u1700:	
  3519  03F0                     l1387:	
  3520  03F0  01B9               	clrf	___fldiv@aexp
  3521  03F1                     l1389:	
  3522  03F1  1FB7               	btfss	___fldiv@grs+3,7
  3523  03F2  2BF4               	goto	u1711
  3524  03F3  2BF5               	goto	u1710
  3525  03F4                     u1711:	
  3526  03F4  2C11               	goto	l1397
  3527  03F5                     u1710:	
  3528  03F5                     l1391:	
  3529  03F5  30FF               	movlw	255
  3530  03F6  0534               	andwf	___fldiv@grs,w
  3531  03F7  00A8               	movwf	??___fldiv
  3532  03F8  30FF               	movlw	255
  3533  03F9  0535               	andwf	___fldiv@grs+1,w
  3534  03FA  00A9               	movwf	??___fldiv+1
  3535  03FB  30FF               	movlw	255
  3536  03FC  0536               	andwf	___fldiv@grs+2,w
  3537  03FD  00AA               	movwf	??___fldiv+2
  3538  03FE  307F               	movlw	127
  3539  03FF  0537               	andwf	___fldiv@grs+3,w
  3540  0400  00AB               	movwf	??___fldiv+3
  3541  0401  082B               	movf	??___fldiv+3,w
  3542  0402  042A               	iorwf	??___fldiv+2,w
  3543  0403  0429               	iorwf	??___fldiv+1,w
  3544  0404  0428               	iorwf	??___fldiv,w
  3545  0405  1903               	skipnz
  3546  0406  2C08               	goto	u1721
  3547  0407  2C09               	goto	u1720
  3548  0408                     u1721:	
  3549  0408  2C0C               	goto	l516
  3550  0409                     u1720:	
  3551  0409                     l1393:	
  3552  0409  01B9               	clrf	___fldiv@aexp
  3553  040A  0AB9               	incf	___fldiv@aexp,f
  3554  040B  2C11               	goto	l1397
  3555  040C                     l516:	
  3556  040C  1C24               	btfss	___fldiv@b,0
  3557  040D  2C0F               	goto	u1731
  3558  040E  2C10               	goto	u1730
  3559  040F                     u1731:	
  3560  040F  2C11               	goto	l1397
  3561  0410                     u1730:	
  3562  0410  2C09               	goto	l1393
  3563  0411                     l1397:	
  3564  0411  0839               	movf	___fldiv@aexp,w
  3565  0412  1903               	btfsc	3,2
  3566  0413  2C15               	goto	u1741
  3567  0414  2C16               	goto	u1740
  3568  0415                     u1741:	
  3569  0415  2C47               	goto	l1407
  3570  0416                     u1740:	
  3571  0416                     l1399:	
  3572  0416  3001               	movlw	1
  3573  0417  07A4               	addwf	___fldiv@b,f
  3574  0418  3000               	movlw	0
  3575  0419  1803               	skipnc
  3576  041A  3001               	movlw	1
  3577  041B  07A5               	addwf	___fldiv@b+1,f
  3578  041C  3000               	movlw	0
  3579  041D  1803               	skipnc
  3580  041E  3001               	movlw	1
  3581  041F  07A6               	addwf	___fldiv@b+2,f
  3582  0420  3000               	movlw	0
  3583  0421  1803               	skipnc
  3584  0422  3001               	movlw	1
  3585  0423  07A7               	addwf	___fldiv@b+3,f
  3586  0424                     l1401:	
  3587  0424  1C27               	btfss	___fldiv@b+3,0
  3588  0425  2C27               	goto	u1751
  3589  0426  2C28               	goto	u1750
  3590  0427                     u1751:	
  3591  0427  2C47               	goto	l1407
  3592  0428                     u1750:	
  3593  0428                     l1403:	
  3594  0428  0824               	movf	___fldiv@b,w
  3595  0429  00A8               	movwf	??___fldiv
  3596  042A  0825               	movf	___fldiv@b+1,w
  3597  042B  00A9               	movwf	??___fldiv+1
  3598  042C  0826               	movf	___fldiv@b+2,w
  3599  042D  00AA               	movwf	??___fldiv+2
  3600  042E  0827               	movf	___fldiv@b+3,w
  3601  042F  00AB               	movwf	??___fldiv+3
  3602  0430  3001               	movlw	1
  3603  0431  00AC               	movwf	??___fldiv+4
  3604  0432                     u1765:	
  3605  0432  0D2B               	rlf	??___fldiv+3,w
  3606  0433  0CAB               	rrf	??___fldiv+3,f
  3607  0434  0CAA               	rrf	??___fldiv+2,f
  3608  0435  0CA9               	rrf	??___fldiv+1,f
  3609  0436  0CA8               	rrf	??___fldiv,f
  3610  0437                     u1760:	
  3611  0437  0BAC               	decfsz	??___fldiv+4,f
  3612  0438  2C32               	goto	u1765
  3613  0439  082B               	movf	??___fldiv+3,w
  3614  043A  00A7               	movwf	___fldiv@b+3
  3615  043B  082A               	movf	??___fldiv+2,w
  3616  043C  00A6               	movwf	___fldiv@b+2
  3617  043D  0829               	movf	??___fldiv+1,w
  3618  043E  00A5               	movwf	___fldiv@b+1
  3619  043F  0828               	movf	??___fldiv,w
  3620  0440  00A4               	movwf	___fldiv@b
  3621  0441                     l1405:	
  3622  0441  3001               	movlw	1
  3623  0442  07B2               	addwf	___fldiv@new_exp,f
  3624  0443  1803               	skipnc
  3625  0444  0AB3               	incf	___fldiv@new_exp+1,f
  3626  0445  3000               	movlw	0
  3627  0446  07B3               	addwf	___fldiv@new_exp+1,f
  3628  0447                     l1407:	
  3629  0447  0833               	movf	___fldiv@new_exp+1,w
  3630  0448  3A80               	xorlw	128
  3631  0449  00FF               	movwf	btemp+1
  3632  044A  3080               	movlw	128
  3633  044B  027F               	subwf	btemp+1,w
  3634  044C  1D03               	skipz
  3635  044D  2C50               	goto	u1775
  3636  044E  30FF               	movlw	255
  3637  044F  0232               	subwf	___fldiv@new_exp,w
  3638  0450                     u1775:	
  3639  0450  1C03               	skipc
  3640  0451  2C53               	goto	u1771
  3641  0452  2C54               	goto	u1770
  3642  0453                     u1771:	
  3643  0453  2C62               	goto	l1411
  3644  0454                     u1770:	
  3645  0454                     l1409:	
  3646  0454  30FF               	movlw	255
  3647  0455  1283               	bcf	3,5	;RP0=0, select bank0
  3648  0456  1303               	bcf	3,6	;RP1=0, select bank0
  3649  0457  00B2               	movwf	___fldiv@new_exp
  3650  0458  3000               	movlw	0
  3651  0459  00B3               	movwf	___fldiv@new_exp+1
  3652  045A  3000               	movlw	0
  3653  045B  00A7               	movwf	___fldiv@b+3
  3654  045C  3000               	movlw	0
  3655  045D  00A6               	movwf	___fldiv@b+2
  3656  045E  3000               	movlw	0
  3657  045F  00A5               	movwf	___fldiv@b+1
  3658  0460  3000               	movlw	0
  3659  0461  00A4               	movwf	___fldiv@b
  3660  0462                     l1411:	
  3661  0462  1283               	bcf	3,5	;RP0=0, select bank0
  3662  0463  1303               	bcf	3,6	;RP1=0, select bank0
  3663  0464  0833               	movf	___fldiv@new_exp+1,w
  3664  0465  3A80               	xorlw	128
  3665  0466  00FF               	movwf	btemp+1
  3666  0467  3080               	movlw	128
  3667  0468  027F               	subwf	btemp+1,w
  3668  0469  1D03               	skipz
  3669  046A  2C6D               	goto	u1785
  3670  046B  3001               	movlw	1
  3671  046C  0232               	subwf	___fldiv@new_exp,w
  3672  046D                     u1785:	
  3673  046D  1803               	skipnc
  3674  046E  2C70               	goto	u1781
  3675  046F  2C71               	goto	u1780
  3676  0470                     u1781:	
  3677  0470  2C7E               	goto	l522
  3678  0471                     u1780:	
  3679  0471                     l1413:	
  3680  0471  1283               	bcf	3,5	;RP0=0, select bank0
  3681  0472  1303               	bcf	3,6	;RP1=0, select bank0
  3682  0473  01B2               	clrf	___fldiv@new_exp
  3683  0474  01B3               	clrf	___fldiv@new_exp+1
  3684  0475                     l1415:	
  3685  0475  3000               	movlw	0
  3686  0476  00A7               	movwf	___fldiv@b+3
  3687  0477  3000               	movlw	0
  3688  0478  00A6               	movwf	___fldiv@b+2
  3689  0479  3000               	movlw	0
  3690  047A  00A5               	movwf	___fldiv@b+1
  3691  047B  3000               	movlw	0
  3692  047C  00A4               	movwf	___fldiv@b
  3693  047D                     l1417:	
  3694  047D  01B1               	clrf	___fldiv@sign
  3695  047E                     l522:	
  3696  047E  1283               	bcf	3,5	;RP0=0, select bank0
  3697  047F  1303               	bcf	3,6	;RP1=0, select bank0
  3698  0480  0832               	movf	___fldiv@new_exp,w
  3699  0481  00A8               	movwf	??___fldiv
  3700  0482  0828               	movf	??___fldiv,w
  3701  0483  00B8               	movwf	___fldiv@bexp
  3702  0484                     l1419:	
  3703  0484  1C38               	btfss	___fldiv@bexp,0
  3704  0485  2C87               	goto	u1791
  3705  0486  2C88               	goto	u1790
  3706  0487                     u1791:	
  3707  0487  2C8A               	goto	l1423
  3708  0488                     u1790:	
  3709  0488                     l1421:	
  3710  0488  17A6               	bsf	___fldiv@b+2,7
  3711  0489  2C8E               	goto	l524
  3712  048A                     l1423:	
  3713  048A  307F               	movlw	127
  3714  048B  00A8               	movwf	??___fldiv
  3715  048C  0828               	movf	??___fldiv,w
  3716  048D  05A6               	andwf	___fldiv@b+2,f
  3717  048E                     l524:	
  3718  048E  0838               	movf	___fldiv@bexp,w
  3719  048F  00A8               	movwf	??___fldiv
  3720  0490  1003               	clrc
  3721  0491  0C28               	rrf	??___fldiv,w
  3722  0492  00A9               	movwf	??___fldiv+1
  3723  0493  0829               	movf	??___fldiv+1,w
  3724  0494  00A7               	movwf	___fldiv@b+3
  3725  0495  0831               	movf	___fldiv@sign,w
  3726  0496  00A8               	movwf	??___fldiv
  3727  0497  0828               	movf	??___fldiv,w
  3728  0498  04A7               	iorwf	___fldiv@b+3,f
  3729  0499  2B32               	goto	l1331
  3730  049A                     l502:	
  3731  049A  0008               	return
  3732  049B                     __end_of___fldiv:	
  3733                           
  3734                           	psect	text10
  3735  0E79                     __ptext10:	
  3736 ;; *************** function _configPwm *****************
  3737 ;; Defined at:
  3738 ;;		line 44 in file "./pwm.h"
  3739 ;; Parameters:    Size  Location     Type
  3740 ;;  channel         1    wreg     unsigned char 
  3741 ;; Auto vars:     Size  Location     Type
  3742 ;;  channel         1    2[COMMON] unsigned char 
  3743 ;; Return value:  Size  Location     Type
  3744 ;;                  1    wreg      void 
  3745 ;; Registers used:
  3746 ;;		wreg, fsr0l, fsr0h, status,2, status,0
  3747 ;; Tracked objects:
  3748 ;;		On entry : 0/0
  3749 ;;		On exit  : 0/0
  3750 ;;		Unchanged: 0/0
  3751 ;; Data sizes:     COMMON   BANK0   BANK1   BANK3   BANK2
  3752 ;;      Params:         0       0       0       0       0
  3753 ;;      Locals:         1       0       0       0       0
  3754 ;;      Temps:          2       0       0       0       0
  3755 ;;      Totals:         3       0       0       0       0
  3756 ;;Total ram usage:        3 bytes
  3757 ;; Hardware stack levels used:    1
  3758 ;; This function calls:
  3759 ;;		Nothing
  3760 ;; This function is called by:
  3761 ;;		_main
  3762 ;; This function uses a non-reentrant model
  3763 ;;
  3764                           
  3765                           
  3766                           ;psect for function _configPwm
  3767  0E79                     _configPwm:	
  3768                           
  3769                           ;incstack = 0
  3770                           ; Regs used in _configPwm: [wreg-fsr0h+status,2+status,0]
  3771                           ;configPwm@channel stored from wreg
  3772  0E79  00F2               	movwf	configPwm@channel
  3773  0E7A                     l1631:	
  3774  0E7A                     l48:	
  3775                           ;./pwm.h: 46:     if (16 == 1) {
  3776                           
  3777                           
  3778                           ;./pwm.h: 53:         T2CKPS0 = 1;
  3779  0E7A  1283               	bcf	3,5	;RP0=0, select bank0
  3780  0E7B  1303               	bcf	3,6	;RP1=0, select bank0
  3781  0E7C  1412               	bsf	18,0	;volatile
  3782                           
  3783                           ;./pwm.h: 54:         T2CKPS1 = 1;
  3784  0E7D  1492               	bsf	18,1	;volatile
  3785  0E7E                     l1637:	
  3786                           
  3787                           ;./pwm.h: 58:     PR2 = (4000000 / (300 * 4 * 16)) - 1;
  3788  0E7E  30CF               	movlw	207
  3789  0E7F  1683               	bsf	3,5	;RP0=1, select bank1
  3790  0E80  1303               	bcf	3,6	;RP1=0, select bank1
  3791  0E81  0092               	movwf	18	;volatile
  3792                           
  3793                           ;./pwm.h: 60:     switch (channel) {
  3794  0E82  2E8F               	goto	l1641
  3795  0E83                     l52:	
  3796                           ;./pwm.h: 62:         case 1:
  3797                           
  3798                           
  3799                           ;./pwm.h: 63:             TRISC2 = 0;
  3800  0E83  1107               	bcf	7,2	;volatile
  3801                           
  3802                           ;./pwm.h: 64:             CCP1M3 = 1;
  3803  0E84  1283               	bcf	3,5	;RP0=0, select bank0
  3804  0E85  1303               	bcf	3,6	;RP1=0, select bank0
  3805  0E86  1597               	bsf	23,3	;volatile
  3806                           
  3807                           ;./pwm.h: 65:             CCP1M2 = 1;
  3808  0E87  1517               	bsf	23,2	;volatile
  3809                           
  3810                           ;./pwm.h: 68:             break;
  3811  0E88  2E9F               	goto	l53
  3812  0E89                     l54:	
  3813                           ;./pwm.h: 70:         case 2:
  3814                           
  3815                           
  3816                           ;./pwm.h: 71:             TRISC1 = 0;
  3817  0E89  1087               	bcf	7,1	;volatile
  3818                           
  3819                           ;./pwm.h: 72:             CCP2M3 = 1;
  3820  0E8A  1283               	bcf	3,5	;RP0=0, select bank0
  3821  0E8B  1303               	bcf	3,6	;RP1=0, select bank0
  3822  0E8C  159D               	bsf	29,3	;volatile
  3823                           
  3824                           ;./pwm.h: 73:             CCP2M2 = 1;
  3825  0E8D  151D               	bsf	29,2	;volatile
  3826                           
  3827                           ;./pwm.h: 74:             break;
  3828  0E8E  2E9F               	goto	l53
  3829  0E8F                     l1641:	
  3830  0E8F  0872               	movf	configPwm@channel,w
  3831  0E90  00F0               	movwf	??_configPwm
  3832  0E91  01F1               	clrf	??_configPwm+1
  3833                           
  3834                           ; Switch on 2 bytes has been partitioned into a top level switch of size 1, and 1 sub-sw
      +                          itches
  3835                           ; Switch size 1, requested type "simple"
  3836                           ; Number of cases is 1, Range of values is 0 to 0
  3837                           ; switch strategies available:
  3838                           ; Name         Instructions Cycles
  3839                           ; simple_byte            4     3 (average)
  3840                           ; direct_byte           11     8 (fixed)
  3841                           ; jumptable            260     6 (fixed)
  3842                           ;	Chosen strategy is simple_byte
  3843  0E92  0871               	movf	??_configPwm+1,w
  3844  0E93  3A00               	xorlw	0	; case 0
  3845  0E94  1903               	skipnz
  3846  0E95  2E97               	goto	l1703
  3847  0E96  2E9F               	goto	l53
  3848  0E97                     l1703:	
  3849                           
  3850                           ; Switch size 1, requested type "simple"
  3851                           ; Number of cases is 2, Range of values is 1 to 2
  3852                           ; switch strategies available:
  3853                           ; Name         Instructions Cycles
  3854                           ; simple_byte            7     4 (average)
  3855                           ; direct_byte           17    11 (fixed)
  3856                           ; jumptable            263     9 (fixed)
  3857                           ;	Chosen strategy is simple_byte
  3858  0E97  0870               	movf	??_configPwm,w
  3859  0E98  3A01               	xorlw	1	; case 1
  3860  0E99  1903               	skipnz
  3861  0E9A  2E83               	goto	l52
  3862  0E9B  3A03               	xorlw	3	; case 2
  3863  0E9C  1903               	skipnz
  3864  0E9D  2E89               	goto	l54
  3865  0E9E  2E9F               	goto	l53
  3866  0E9F                     l53:	
  3867                           
  3868                           ;./pwm.h: 78:     TMR2ON = 1;
  3869  0E9F  1283               	bcf	3,5	;RP0=0, select bank0
  3870  0EA0  1512               	bsf	18,2	;volatile
  3871  0EA1                     l55:	
  3872  0EA1  0008               	return
  3873  0EA2                     __end_of_configPwm:	
  3874  007E                     btemp	set	126	;btemp
  3875  007E                     wtemp0	set	126


Data Sizes:
    Strings     0
    Constant    0
    Data        0
    BSS         0
    Persistent  0
    Stack       0

Auto Spaces:
    Space          Size  Autos    Used
    COMMON           14     14      14
    BANK0            80     78      78
    BANK1            80      0       0
    BANK3            96      0       0
    BANK2            96      0       0

Pointer List with Targets:

    None.

Critical Paths under _main in COMMON

    _pwmDuty->___xxtofl
    _map->___aldiv
    ___aldiv->___lmul
    ___fltol->___xxtofl
    ___flmul->___xxtofl
    ___fldiv->___xxtofl

Critical Paths under _main in BANK0

    _main->_pwmDuty
    _pwmDuty->___fltol
    _map->___aldiv
    ___fltol->___flmul
    ___flmul->___fldiv

Critical Paths under _main in BANK1

    None.

Critical Paths under _main in BANK3

    None.

Critical Paths under _main in BANK2

    None.

Call Graph Tables:

 ---------------------------------------------------------------------------------
 (Depth) Function   	        Calls       Base Space   Used Autos Params    Refs
 ---------------------------------------------------------------------------------
 (0) _main                                                 3     3      0    6217
                                             75 BANK0      3     3      0
                          _configPwm
                            _pwmDuty
 ---------------------------------------------------------------------------------
 (1) _pwmDuty                                             12     9      3    6105
                                             63 BANK0     12     9      3
                            ___fldiv
                            ___flmul
                            ___fltol
                           ___xxtofl
                                _map
 ---------------------------------------------------------------------------------
 (2) _map                                                 36    16     20    1230
                                             14 BANK0     36    16     20
                            ___aldiv
                             ___lmul
 ---------------------------------------------------------------------------------
 (3) ___lmul                                              13     5      8     244
                                              0 COMMON    13     5      8
 ---------------------------------------------------------------------------------
 (3) ___aldiv                                             15     7      8     452
                                             13 COMMON     1     1      0
                                              0 BANK0     14     6      8
                             ___lmul (ARG)
 ---------------------------------------------------------------------------------
 (2) ___xxtofl                                            14    10      4     398
                                              0 COMMON    14    10      4
 ---------------------------------------------------------------------------------
 (2) ___fltol                                             11     7      4     305
                                             52 BANK0     11     7      4
                            ___fldiv (ARG)
                            ___flmul (ARG)
                           ___xxtofl (ARG)
 ---------------------------------------------------------------------------------
 (2) ___flmul                                             26    18      8    2417
                                             26 BANK0     26    18      8
                          __Umul8_16
                            ___fldiv (ARG)
                           ___xxtofl (ARG)
 ---------------------------------------------------------------------------------
 (3) __Umul8_16                                            9     7      2     799
                                              0 COMMON     9     7      2
 ---------------------------------------------------------------------------------
 (2) ___fldiv                                             26    18      8    1273
                                              0 BANK0     26    18      8
                           ___xxtofl (ARG)
 ---------------------------------------------------------------------------------
 (1) _configPwm                                            3     3      0      22
                                              0 COMMON     3     3      0
 ---------------------------------------------------------------------------------
 Estimated maximum stack depth 3
 ---------------------------------------------------------------------------------

 Call Graph Graphs:

 _main (ROOT)
   _configPwm
   _pwmDuty
     ___fldiv
       ___xxtofl (ARG)
     ___flmul
       __Umul8_16
       ___fldiv (ARG)
         ___xxtofl (ARG)
       ___xxtofl (ARG)
     ___fltol
       ___fldiv (ARG)
         ___xxtofl (ARG)
       ___flmul (ARG)
         __Umul8_16
         ___fldiv (ARG)
           ___xxtofl (ARG)
         ___xxtofl (ARG)
       ___xxtofl (ARG)
     ___xxtofl
     _map
       ___aldiv
         ___lmul (ARG)
       ___lmul

 Address spaces:
Name               Size   Autos  Total    Cost      Usage
BITCOMMON            E      0       0       0        0.0%
EEDATA             100      0       0       0        0.0%
NULL                 0      0       0       0        0.0%
CODE                 0      0       0       0        0.0%
COMMON               E      E       E       1      100.0%
BITSFR0              0      0       0       1        0.0%
SFR0                 0      0       0       1        0.0%
BITSFR1              0      0       0       2        0.0%
SFR1                 0      0       0       2        0.0%
STACK                0      0       0       2        0.0%
ABS                  0      0       0       3        0.0%
BITBANK0            50      0       0       4        0.0%
BITSFR3              0      0       0       4        0.0%
SFR3                 0      0       0       4        0.0%
BANK0               50     4E      4E       5       97.5%
BITSFR2              0      0       0       5        0.0%
SFR2                 0      0       0       5        0.0%
BITBANK1            50      0       0       6        0.0%
BANK1               50      0       0       7        0.0%
BITBANK3            60      0       0       8        0.0%
BANK3               60      0       0       9        0.0%
BITBANK2            60      0       0      10        0.0%
BANK2               60      0       0      11        0.0%
DATA                 0      0       0      12        0.0%


Microchip Technology PIC Macro Assembler V2.10 build 88905656 
Symbol Table                                                                                   Fri Jul 10 14:16:51 2020

           ___fldiv@aexp 0039             ___fldiv@bexp 0038             ___fldiv@sign 0031  
            __CFG_CP$OFF 0000                       l40 026F                       l42 028E  
                     l35 0113                       l43 02BD                       l52 0E83  
                     l53 0E9F                       l54 0E89                       l55 0EA1  
                     l48 0E7A      __Umul8_16@word_mpld 0076                      l216 0F77  
                    l226 0FFF                      l500 031A                      l165 006B  
                    l502 049A                      l344 0F4D                      l337 0F62  
                    l522 047E                      l347 0F62                      l524 048E  
                    l516 040C                      l540 07FB                      l552 07EF  
                    l546 0767                      l580 01CD                      l591 0197  
                    l592 01A3                      l584 017B                      l578 0136  
                    l597 0E66                      l599 0E78                      _PR2 0092  
           __CFG_CPD$OFF 0000                      _map 006C             __CFG_FOSC$XT 0000  
           ___flmul@aexp 004C             ___flmul@bexp 004D             ___flmul@sign 0047  
           ___flmul@temp 0052             ___flmul@prod 004E             __CFG_LVP$OFF 0000  
           ___fltol@exp1 005E                     l1201 0F86                     l1211 0FAA  
                   l1203 0F8A                     l1301 02E2                     l1221 0FD8  
                   l1213 0FAE                     l1205 0F92                     l1311 02F8  
                   l1303 02E3                     l1223 0FE1                     l1215 0FB7  
                   l1207 0F9A                     l1401 0424                     l1321 030F  
                   l1313 02FC                     l1305 02E5                     l1241 0E6F  
                   l1233 0E53                     l1217 0FC9                     l1209 0F9D  
                   l1225 0FE7                     l1411 0462                     l1403 0428  
                   l1331 0332                     l1323 0310                     l1315 02FD  
                   l1307 02ED                     l1243 0E74                     l1235 0E55  
                   l1251 0EE7                     l1227 0FEC                     l1219 0FD7  
                   l1421 0488                     l1413 0471                     l1405 0441  
                   l1341 0349                     l1317 0302                     l1325 0312  
                   l1309 02F2                     l1237 0E5C                     l1501 065B  
                   l1261 0F13                     l1253 0EF4                     l1229 0FF7  
                   l1181 002E                     l1423 048A                     l1415 0475  
                   l1407 0447                     l1351 0375                     l1343 035B  
                   l1327 0322                     l1335 033B                     l1319 0307  
                   l1239 0E60                     l1511 0713                     l1503 0688  
                   l1431 04A2                     l1263 0F1B                     l1183 0032  
                   l1247 006C                     l1417 047D                     l1409 0454  
                   l1353 037A                     l1361 039A                     l1345 0363  
                   l1337 0340                     l1329 032E                     l1521 0738  
                   l1513 071C                     l1505 0698                     l1441 04B7  
                   l1433 04A8                     l1281 0F42                     l1273 0F29  
                   l1265 0F1D                     l1257 0EFD                     l1601 01A5  
                   l1193 0F63                     l1185 0049                     l1419 0484  
                   l1371 03C5                     l1363 03AC                     l1355 038C  
                   l1347 036B                     l1291 02CB                     l1531 0750  
                   l1523 0741                     l1515 072A                     l1507 06C5  
                   l1451 04D4                     l1443 04BF                     l1435 04AC  
                   l1283 0F52                     l1267 0F21                     l1275 0F3B  
                   l1259 0F12                     l1603 01BB                     l1195 0F66  
                   l1187 0052                     l1179 0026                     l1381 03DD  
                   l1373 03CD                     l1365 03AD                     l1357 0390  
                   l1349 0373                     l1293 02CF                     l1541 077F  
                   l1533 0764                     l1517 0733                     l1525 0747  
                   l1509 06EB                     l1461 04EB                     l1453 04D8  
                   l1445 04C1                     l1437 04AD                     l1429 049B  
                   l1285 0F57                     l1605 01C0                     l1197 0F6A  
                   l1189 0063                     l1701 02B5                     l1621 0299  
                   l1613 01CE                     l1703 0E97                     l1631 0E7A  
                   l1391 03F5                     l1383 03E6                     l1375 03CF  
                   l1367 03BB                     l1359 0391                     l1295 02D0  
                   l1287 02BE                     l1551 07BA                     l1543 0783  
                   l1527 074B                     l1519 0737                     l1463 04ED  
                   l1455 04D9                     l1447 04C9                     l1439 04B2  
                   l1607 01C4                     l1199 0F7B                     l1615 0205  
                   l1641 0E8F                     l1393 0409                     l1377 03D8  
                   l1385 03EC                     l1369 03BF                     l1297 02D5  
                   l1289 02C5                     l1561 07E7                     l1553 07C9  
                   l1545 079C                     l1537 076C                     l1529 074C  
                   l1481 055E                     l1473 0508                     l1465 04F5  
                   l1457 04DE                     l1449 04CE                     l1609 01C5  
                   l1625 02AD                     l1617 0219                     l1387 03F0  
                   l1379 03DC                     l1299 02DA                     l1563 07E8  
                   l1555 07D3                     l1539 0771                     l1547 07A2  
                   l1491 05DB                     l1483 058A                     l1475 0518  
                   l1467 04FA                     l1459 04E3                     l1571 011A  
                   l1619 027A                     l1637 0E7E                     l1397 0411  
                   l1389 03F1                     l1565 07F3                     l1557 07D5  
                   l1549 07AF                     l1493 05F8                     l1485 05A6  
                   l1477 0525                     l1469 04FF                     l1581 0147  
                   l1573 011E                     l1399 0416                     l1559 07E3  
                   l1495 0608                     l1487 05C2                     l1479 0542  
                   l1591 0172                     l1583 014C                     l1575 012E  
                   l1655 0EB2                     l1647 0EA2                     l1497 0625  
                   l1489 05CB                     l1593 0182                     l1585 0159  
                   l1577 013E                     l1569 0115                     l1657 0ECE  
                   l1649 0EAE                     l1499 063E                     l1595 018D  
                   l1587 0160                     l1659 0ED6                     l1597 0191  
                   l1589 0164                     l1599 019B                     ?_map 002E  
                   u1200 0032                     u2001 06DD                     u1201 0031  
                   u2010 06F9                     u2002 06E4                     u2003 06EB  
                   u1211 003B                     u2100 076B                     u1212 0042  
                   u2101 076A                     u2021 0705                     u1213 0049  
                   u2110 0771                     u2022 070C                     u1310 0FC9  
                   u2111 0770                     u2023 0713                     u2015 06F4  
                   u1311 0FC8                     u2120 0783                     u1240 0063  
                   u2121 0782                     u1305 0FB0                     u1241 0062  
                   u1225 004B                     u1401 00C5                     u2130 0792  
                   u2050 0737                     u1410 0EF4                     u2210 015F  
                   u1330 0FE7                     u1250 0F6A                     u1402 00C6  
                   u2051 0736                     u2035 0715                     u1411 0EF3  
                   u2211 015E                     u1331 0FE6                     u1315 0FC5  
                   u1251 0F69                     u1235 0053                     u1403 00CB  
                   u2140 07AF                     u1500 0F57                     u1420 0F0B  
                   u2300 01C4                     u1340 0FEC                     u1260 0F7B  
                   u1404 00CC                     u2141 07AE                     u2045 072C  
                   u1501 0F56                     u2301 01C3                     u2205 0151  
                   u1341 0FEB                     u1325 0FD9                     u1261 0F7A  
                   u1405 00D1                     u1510 02CF                     u1350 0E60  
                   u2150 07C9                     u2070 074B                     u1430 0F21  
                   u2230 0181                     u1270 0F9A                     u1406 00D2  
                   u2310 0219                     u1511 02CE                     u1351 0E5F  
                   u2151 07C8                     u2135 078D                     u2071 074A  
                   u1431 0F20                     u2231 0180                     u1271 0F99  
                   u2311 0218                     u1520 02D5                     u2160 07E7  
                   u2080 0750                     u1440 0F28                     u2320 0276  
                   u1521 02D4                     u2161 07E6                     u2145 07AB  
                   u2081 074F                     u2065 073A                     u1441 0F27  
                   u1425 0F06                     u2225 0173                     u2321 0272  
                   u2313 0215                     u1530 02DA                     u1370 0E74  
                   u2090 0764                     u2250 0191                     u2170 011A  
                   u1290 0FAE                     u1531 02D9                     u1371 0E73  
                   u2155 07C5                     u2091 0763                     u2251 0190  
                   u2171 0119                     u1291 0FAD                     u1700 03F0  
                   u1620 0390                     u1540 02FC                     u1460 0F3A  
                   u2260 0197                     u2180 011E                     u2340 0289  
                   u1701 03EF                     u1621 038F                     u1605 037C  
                   u1541 02FB                     u1365 0E67                     u1461 0F39  
                   u2261 0196                     u2245 0186                     u2181 011D  
                   u1285 0F9F                     u1381 007D                     u1710 03F5  
                   u1550 0302                     u1470 0F41                     u2270 019B  
                   u2190 013E                     u1382 007E                     u2350 0295  
                   u2334 0279                     u1711 03F4                     u1615 0385  
                   u1551 0301                     u1471 0F40                     u1455 0F2A  
                   u2271 019A                     u2191 013D                     u1391 00A1  
                   u1383 0083                     u2351 0291                     u1720 0409  
                   u1640 03AC                     u1560 0307                     u1800 04AC  
                   u2280 01B0                     u1392 00A2                     u1384 0084  
                   u1721 0408                     u1641 03AB                     u1561 0306  
                   u1801 04AB                     u1393 00A7                     u1385 0089  
                   u2345 0284                     u1730 0410                     u1650 03C5  
                   u1570 0322                     u1810 04B2                     u1490 0F52  
                   u2290 01C0                     u1394 00A8                     u1386 008A  
                   u2370 02A8                     u1731 040F                     u1651 03C4  
                   u1635 0393                     u1571 0321                     u1811 04B1  
                   u1491 0F51                     u2291 01BF                     u1395 00AD  
                   u1740 0416                     u1660 03CD                     u1580 0340  
                   u1820 04B7                     u1396 00AE                     u2364 0298  
                   u2380 0EE3                     u1741 0415                     u1661 03CC  
                   u1645 03A8                     u1581 033F                     u1901 0598  
                   u1821 04B6                     u1485 0F44                     u2285 01AB  
                   u2381 0EE2                     u1750 0428                     u1590 037A  
                   u1902 059F                     u1830 04D8                     u1751 0427  
                   u1591 0379                     u1911 05B4                     u1903 05A6  
                   u1831 04D7                     u2375 02A3                     u1760 0437  
                   u1680 03DC                     u1912 05BB                     u1840 04DE  
                   u1681 03DB                     u1913 05C2                     u1841 04DD  
                   u2385 0EDF                     u1770 0454                     u1850 04E3  
                   u1771 0453                     u1675 03D1                     u1931 05EA  
                   u1851 04E2                     u1780 0471                     u1932 05F1  
                   u1860 04FA                     u1781 0470                     u1765 0432  
                   u1941 0617                     u1933 05F8                     u1925 05C4  
                   u1861 04F9                     u1790 0488                     u1942 061E  
                   u1870 04FF                     u1791 0487                     u1775 0450  
                   u1695 03DF                     u1943 0625                     u1871 04FE  
                   u1785 046D                     u1961 064D                     u1881 0550  
                   u1962 0654                     u1882 0557                     u1971 067A  
                   u1963 065B                     u1955 0627                     u1891 056C  
                   u1883 055E                     u1972 0681                     u1892 0573  
                   u1981 06A7                     u1973 0688                     u1893 057A  
                   u1990 06D1                     u1982 06AE                     u1983 06B5  
                   u1995 06CC             __CFG_WRT$OFF 0000                     _main 0EA2  
                   map@x 002E                     btemp 007E                     start 0000  
        ___fldiv@new_exp 0032                    ??_map 0042            ___fltol@sign1 005D  
        __end_of___aldiv 1000                    ?_main 0070                    _CCP1X 00BD  
        __end_of___fldiv 049B                    _CCP1Y 00BC                    _CCP2X 00ED  
                  _CCP2Y 00EC            __CFG_WDTE$OFF 0000          __end_of___flmul 07FC  
        __end_of___fltol 0F63      ___lmul@multiplicand 0074                    main@i 006C  
         __CFG_BOREN$OFF 0000          __end_of_pwmDuty 02BE                    status 0003  
                  wtemp0 007E          __initialization 07FC             __end_of_main 0EE7  
                 ??_main 006B                   _CCP1M2 00BA                   _CCP1M3 00BB  
                 _CCP2M2 00EA                   _CCP2M3 00EB                   _CCPR1L 0015  
                 _CCPR2L 001B                   _TMR2ON 0092                   _TRISC1 0439  
                 _TRISC2 043A         __end_of___xxtofl 01CE           __CFG_PWRTE$OFF 0000  
                 ___lmul 0026                ??___aldiv 007D                ??___fldiv 0028  
              ??___flmul 0042                ??___fltol 0058       __size_of__Umul8_16 0027  
              ??_pwmDuty 0062             ___xxtofl@arg 007A             ___xxtofl@exp 0079  
           ___xxtofl@val 0070  __end_of__initialization 07FC               ___fltol@f1 0054  
         __pcstackCOMMON 0070       __size_of_configPwm 0029        __end_of__Umul8_16 0E79  
             __pmaintext 0EA2                  ?___lmul 0070           ___lmul@product 0079  
                _T2CKPS0 0090                  _T2CKPS1 0091                ?___xxtofl 0070  
      __end_of_configPwm 0EA2                  ___aldiv 0F63                  ___fldiv 02BE  
        __size_of___lmul 0046                  ___flmul 049B                  ___fltol 0EE7  
                __ptext1 01CE                  __ptext2 006C                  __ptext3 0026  
                __ptext4 0F63                  __ptext5 0114                  __ptext6 0EE7  
                __ptext7 049B                  __ptext8 0E52                  __ptext9 02BE  
           __size_of_map 00A8               ??___xxtofl 0074         ___aldiv@dividend 0024  
                _pwmDuty 01CE     end_of_initialization 07FC         ___aldiv@quotient 002A  
            pwmDuty@duty 0067            ___xxtofl@sign 0078              ___fldiv@grs 0034  
            ___fldiv@rem 002D               map@out_max 003E               map@out_min 003A  
            ___flmul@grs 0048           __end_of___lmul 006C      start_initialization 07FC  
            __end_of_map 0114      pwmDuty@cicloTrabajo 005F                 ??___lmul 0078  
              __Umul8_16 0E52                ___fldiv@a 0020                ___fldiv@b 0024  
              ___flmul@a 003E                ___flmul@b 003A                ___latbits 0002  
          __pcstackBANK0 0020        __size_of___xxtofl 00BA                 ?___aldiv 0020  
               ?___fldiv 0020                 ?___flmul 003A                 ?___fltol 0054  
             ?__Umul8_16 0070                _configPwm 0E79                 ?_pwmDuty 005F  
        ___aldiv@divisor 0020          ___aldiv@counter 0028               ?_configPwm 0070  
              map@in_max 0036                map@in_min 0032         configPwm@channel 0072  
      ___lmul@multiplier 0070              ??__Umul8_16 0072         __size_of___aldiv 009D  
       __size_of___fldiv 01DD         __size_of___flmul 0361         __size_of___fltol 007C  
               ___xxtofl 0114                 __ptext10 0E79         __size_of_pwmDuty 00F0  
          __size_of_main 0045              ??_configPwm 0070   __Umul8_16@multiplicand 0070  
         pwmDuty@channel 0061             ___aldiv@sign 0029     __Umul8_16@multiplier 0078  
      __Umul8_16@product 0074  
