

Microchip MPLAB XC8 Assembler V2.10 build 88905656 
                                                                                               Sat Jul 11 22:03:48 2020

Microchip MPLAB XC8 C Compiler v2.10 (Free license) build 20190730164152 Og1 
     1                           	processor	16F877A
     2                           	opt	pw 120
     3                           	opt	flic
     4                           	psect	strings,global,class=STRING,delta=2
     5                           	psect	cinit,global,class=CODE,merge=1,delta=2
     6                           	psect	bssBANK1,global,class=BANK1,space=1,delta=1
     7                           	psect	clrtext,global,class=CODE,delta=2
     8                           	psect	cstackCOMMON,global,class=COMMON,space=1,delta=1
     9                           	psect	cstackBANK0,global,class=BANK0,space=1,delta=1
    10                           	psect	maintext,global,class=CODE,split=1,delta=2
    11                           	psect	text1,local,class=CODE,merge=1,delta=2
    12                           	psect	text2,local,class=CODE,merge=1,delta=2,group=1
    13                           	psect	text3,local,class=CODE,merge=1,delta=2
    14                           	psect	text4,local,class=CODE,merge=1,delta=2
    15                           	psect	text5,local,class=CODE,merge=1,delta=2,group=1
    16                           	psect	text6,local,class=CODE,merge=1,delta=2,group=1
    17                           	psect	text7,local,class=CODE,merge=1,delta=2,group=1
    18                           	psect	text8,local,class=CODE,merge=1,delta=2,group=1
    19                           	psect	text9,local,class=CODE,merge=1,delta=2,group=1
    20                           	psect	text10,local,class=CODE,merge=1,delta=2,group=1
    21                           	psect	text11,local,class=CODE,merge=1,delta=2
    22                           	psect	text12,local,class=CODE,merge=1,delta=2,group=1
    23                           	psect	text13,local,class=CODE,merge=1,delta=2
    24                           	psect	text14,local,class=CODE,merge=1,delta=2
    25                           	psect	text15,local,class=CODE,merge=1,delta=2
    26                           	psect	text16,local,class=CODE,merge=1,delta=2
    27                           	psect	text17,local,class=CODE,merge=1,delta=2,group=1
    28                           	dabs	1,0x7E,2
    29  0000                     
    30                           ; Version 2.10
    31                           ; Generated 31/07/2019 GMT
    32                           ; 
    33                           ; Copyright © 2019, Microchip Technology Inc. and its subsidiaries ("Microchip")
    34                           ; All rights reserved.
    35                           ; 
    36                           ; This software is developed by Microchip Technology Inc. and its subsidiaries ("Microch
      +                          ip").
    37                           ; 
    38                           ; Redistribution and use in source and binary forms, with or without modification, are
    39                           ; permitted provided that the following conditions are met:
    40                           ; 
    41                           ;     1. Redistributions of source code must retain the above copyright notice, this lis
      +                          t of
    42                           ;        conditions and the following disclaimer.
    43                           ; 
    44                           ;     2. Redistributions in binary form must reproduce the above copyright notice, this 
      +                          list
    45                           ;        of conditions and the following disclaimer in the documentation and/or other
    46                           ;        materials provided with the distribution.
    47                           ; 
    48                           ;     3. Microchip's name may not be used to endorse or promote products derived from th
      +                          is
    49                           ;        software without specific prior written permission.
    50                           ; 
    51                           ; THIS SOFTWARE IS PROVIDED BY MICROCHIP "AS IS" AND ANY EXPRESS OR IMPLIED WARRANTIES,
    52                           ; INCLUDING, BUT NOT LIMITED TO, THE IMPLIED WARRANTIES OF MERCHANTABILITY AND FITNESS F
      +                          OR
    53                           ; PURPOSE ARE DISCLAIMED.  IN NO EVENT SHALL MICROCHIP BE LIABLE FOR ANY DIRECT, INDIREC
      +                          T,
    54                           ; INCIDENTAL, SPECIAL, EXEMPLARY, OR CONSEQUENTIAL DAMAGES (INCLUDING BUT NOT LIMITED TO
    55                           ; PROCUREMENT OF SUBSTITUTE GOODS OR SERVICES; LOSS OF USE, DATA OR PROFITS; OR BUSINESS
    56                           ; INTERRUPTION) HOWSOEVER CAUSED AND ON ANY THEORY OF LIABILITY, WHETHER IN CONTRACT, ST
      +                          RICT
    57                           ; LIABILITY, OR TORT (INCLUDING NEGLIGENCE OR OTHERWISE) ARISING IN ANY WAY OUT OF THE U
      +                          SE OF
    58                           ; THIS SOFTWARE, EVEN IF ADVISED OF THE POSSIBILITY OF SUCH DAMAGE.
    59                           ; 
    60                           ; 
    61                           ; Code-generator required, PIC16F877A Definitions
    62                           ; 
    63                           ; SFR Addresses
    64  0000                     	;# 
    65  0001                     	;# 
    66  0002                     	;# 
    67  0003                     	;# 
    68  0004                     	;# 
    69  0005                     	;# 
    70  0006                     	;# 
    71  0007                     	;# 
    72  0008                     	;# 
    73  0009                     	;# 
    74  000A                     	;# 
    75  000B                     	;# 
    76  000C                     	;# 
    77  000D                     	;# 
    78  000E                     	;# 
    79  000E                     	;# 
    80  000F                     	;# 
    81  0010                     	;# 
    82  0011                     	;# 
    83  0012                     	;# 
    84  0013                     	;# 
    85  0014                     	;# 
    86  0015                     	;# 
    87  0015                     	;# 
    88  0016                     	;# 
    89  0017                     	;# 
    90  0018                     	;# 
    91  0019                     	;# 
    92  001A                     	;# 
    93  001B                     	;# 
    94  001B                     	;# 
    95  001C                     	;# 
    96  001D                     	;# 
    97  001E                     	;# 
    98  001F                     	;# 
    99  0081                     	;# 
   100  0085                     	;# 
   101  0086                     	;# 
   102  0087                     	;# 
   103  0088                     	;# 
   104  0089                     	;# 
   105  008C                     	;# 
   106  008D                     	;# 
   107  008E                     	;# 
   108  0091                     	;# 
   109  0092                     	;# 
   110  0093                     	;# 
   111  0094                     	;# 
   112  0098                     	;# 
   113  0099                     	;# 
   114  009C                     	;# 
   115  009D                     	;# 
   116  009E                     	;# 
   117  009F                     	;# 
   118  010C                     	;# 
   119  010D                     	;# 
   120  010E                     	;# 
   121  010F                     	;# 
   122  018C                     	;# 
   123  018D                     	;# 
   124  0000                     	;# 
   125  0001                     	;# 
   126  0002                     	;# 
   127  0003                     	;# 
   128  0004                     	;# 
   129  0005                     	;# 
   130  0006                     	;# 
   131  0007                     	;# 
   132  0008                     	;# 
   133  0009                     	;# 
   134  000A                     	;# 
   135  000B                     	;# 
   136  000C                     	;# 
   137  000D                     	;# 
   138  000E                     	;# 
   139  000E                     	;# 
   140  000F                     	;# 
   141  0010                     	;# 
   142  0011                     	;# 
   143  0012                     	;# 
   144  0013                     	;# 
   145  0014                     	;# 
   146  0015                     	;# 
   147  0015                     	;# 
   148  0016                     	;# 
   149  0017                     	;# 
   150  0018                     	;# 
   151  0019                     	;# 
   152  001A                     	;# 
   153  001B                     	;# 
   154  001B                     	;# 
   155  001C                     	;# 
   156  001D                     	;# 
   157  001E                     	;# 
   158  001F                     	;# 
   159  0081                     	;# 
   160  0085                     	;# 
   161  0086                     	;# 
   162  0087                     	;# 
   163  0088                     	;# 
   164  0089                     	;# 
   165  008C                     	;# 
   166  008D                     	;# 
   167  008E                     	;# 
   168  0091                     	;# 
   169  0092                     	;# 
   170  0093                     	;# 
   171  0094                     	;# 
   172  0098                     	;# 
   173  0099                     	;# 
   174  009C                     	;# 
   175  009D                     	;# 
   176  009E                     	;# 
   177  009F                     	;# 
   178  010C                     	;# 
   179  010D                     	;# 
   180  010E                     	;# 
   181  010F                     	;# 
   182  018C                     	;# 
   183  018D                     	;# 
   184                           
   185                           	psect	strings
   186  0800                     __pstrings:	
   187  0800                     stringtab:	
   188  0800                     __stringtab:	
   189  0800                     stringcode:	
   190                           ;	String table - string pointers are 1 byte each
   191                           
   192  0800                     stringdir:	
   193  0800  3008               	movlw	high stringdir
   194  0801  008A               	movwf	10
   195  0802  0804               	movf	4,w
   196  0803  0A84               	incf	4,f
   197  0804  0782               	addwf	2,f
   198  0805                     __stringbase:	
   199  0805  3400               	retlw	0
   200  0806                     __end_of__stringtab:	
   201  0806                     _dpowers:	
   202  0806  3401               	retlw	1
   203  0807  3400               	retlw	0
   204  0808  340A               	retlw	10
   205  0809  3400               	retlw	0
   206  080A  3464               	retlw	100
   207  080B  3400               	retlw	0
   208  080C  34E8               	retlw	232
   209  080D  3403               	retlw	3
   210  080E  3410               	retlw	16
   211  080F  3427               	retlw	39
   212  0810                     __end_of_dpowers:	
   213  0010                     _T1CON	set	16
   214  0019                     _TXREG	set	25
   215  001A                     _RCREG	set	26
   216  0018                     _RCSTAbits	set	24
   217  000E                     _TMR1L	set	14
   218  000F                     _TMR1H	set	15
   219  001B                     _CCPR2L	set	27
   220  0015                     _CCPR1L	set	21
   221  0065                     _RCIF	set	101
   222  0033                     _RB3	set	51
   223  0032                     _RB2	set	50
   224  0060                     _TMR1IF	set	96
   225  0080                     _TMR1ON	set	128
   226  0031                     _RB1	set	49
   227  0030                     _RB0	set	48
   228  0092                     _TMR2ON	set	146
   229  00EA                     _CCP2M2	set	234
   230  00EB                     _CCP2M3	set	235
   231  00BA                     _CCP1M2	set	186
   232  00BB                     _CCP1M3	set	187
   233  0091                     _T2CKPS1	set	145
   234  0090                     _T2CKPS0	set	144
   235  00EC                     _CCP2Y	set	236
   236  00ED                     _CCP2X	set	237
   237  00BC                     _CCP1Y	set	188
   238  00BD                     _CCP1X	set	189
   239  0098                     _TXSTAbits	set	152
   240  0099                     _SPBRG	set	153
   241  0092                     _PR2	set	146
   242  0433                     _TRISB3	set	1075
   243  0432                     _TRISB2	set	1074
   244  0431                     _TRISB1	set	1073
   245  0430                     _TRISB0	set	1072
   246  043F                     _TRISC7	set	1087
   247  043E                     _TRISC6	set	1086
   248  0439                     _TRISC1	set	1081
   249  043A                     _TRISC2	set	1082
   250  0810                     STR_1:	
   251  0810  340D               	retlw	13
   252  0811  3444               	retlw	68	;'D'
   253  0812  3469               	retlw	105	;'i'
   254  0813  3473               	retlw	115	;'s'
   255  0814  3474               	retlw	116	;'t'
   256  0815  3461               	retlw	97	;'a'
   257  0816  346E               	retlw	110	;'n'
   258  0817  3463               	retlw	99	;'c'
   259  0818  3469               	retlw	105	;'i'
   260  0819  3461               	retlw	97	;'a'
   261  081A  343A               	retlw	58	;':'
   262  081B  3420               	retlw	32	;' '
   263  081C  3425               	retlw	37	;'%'
   264  081D  3464               	retlw	100	;'d'
   265  081E  3420               	retlw	32	;' '
   266  081F  3463               	retlw	99	;'c'
   267  0820  346D               	retlw	109	;'m'
   268  0821  340D               	retlw	13
   269  0822  340A               	retlw	10
   270  0823  3400               	retlw	0
   271                           
   272                           ; #config settings
   273  0000                     
   274                           	psect	cinit
   275  07F3                     start_initialization:	
   276  07F3                     __initialization:	
   277                           
   278                           ; Clear objects allocated to BANK1
   279  07F3  1383               	bcf	3,7	;select IRP bank0
   280  07F4  30A0               	movlw	low __pbssBANK1
   281  07F5  0084               	movwf	4
   282  07F6  30D2               	movlw	low (__pbssBANK1+50)
   283  07F7  120A  118A  2004  120A  118A  	fcall	clear_ram0
   284  07FC                     end_of_initialization:	
   285                           ;End of C runtime variable initialization code
   286                           
   287  07FC                     __end_of__initialization:	
   288  07FC  0183               	clrf	3
   289  07FD  120A  158A  2D4E   	ljmp	_main	;jump to C main() function
   290                           
   291                           	psect	bssBANK1
   292  00A0                     __pbssBANK1:	
   293  00A0                     _buffer:	
   294  00A0                     	ds	50
   295                           
   296                           	psect	clrtext
   297  0004                     clear_ram0:	
   298                           ;	Called with FSR containing the base address, and
   299                           ;	W with the last address+1
   300                           
   301  0004  0064               	clrwdt	;clear the watchdog before getting into this loop
   302  0005                     clrloop0:	
   303  0005  0180               	clrf	0	;clear RAM location pointed to by FSR
   304  0006  0A84               	incf	4,f	;increment pointer
   305  0007  0604               	xorwf	4,w	;XOR with final address
   306  0008  1903               	btfsc	3,2	;have we reached the end yet?
   307  0009  3400               	retlw	0	;all done for this memory range, return
   308  000A  0604               	xorwf	4,w	;XOR again to restore value
   309  000B  2805               	goto	clrloop0	;do the next byte
   310                           
   311                           	psect	cstackCOMMON
   312  0070                     __pcstackCOMMON:	
   313  0070                     ?_configPwm:	
   314  0070                     ??_configPwm:	
   315                           ; 1 bytes @ 0x0
   316                           
   317  0070                     ?_UART_write:	
   318                           ; 1 bytes @ 0x0
   319                           
   320  0070                     ??_UART_write:	
   321                           ; 1 bytes @ 0x0
   322                           
   323  0070                     ?_UART_printf:	
   324                           ; 1 bytes @ 0x0
   325                           
   326  0070                     ?_main:	
   327                           ; 1 bytes @ 0x0
   328                           
   329  0070                     ?__Umul8_16:	
   330                           ; 1 bytes @ 0x0
   331                           
   332  0070                     ?___lwdiv:	
   333                           ; 2 bytes @ 0x0
   334                           
   335  0070                     ?___lmul:	
   336                           ; 2 bytes @ 0x0
   337                           
   338  0070                     ?___xxtofl:	
   339                           ; 4 bytes @ 0x0
   340                           
   341  0070                     UART_write@dato:	
   342                           ; 4 bytes @ 0x0
   343                           
   344  0070                     __Umul8_16@multiplicand:	
   345                           ; 1 bytes @ 0x0
   346                           
   347  0070                     ___lwdiv@divisor:	
   348                           ; 1 bytes @ 0x0
   349                           
   350  0070                     ___lmul@multiplier:	
   351                           ; 2 bytes @ 0x0
   352                           
   353  0070                     ___xxtofl@val:	
   354                           ; 4 bytes @ 0x0
   355                           
   356                           
   357                           ; 4 bytes @ 0x0
   358  0070                     	ds	1
   359  0071                     ??_UART_printf:	
   360                           
   361                           ; 1 bytes @ 0x1
   362  0071                     	ds	1
   363  0072                     ??__Umul8_16:	
   364  0072                     configPwm@channel:	
   365                           ; 1 bytes @ 0x2
   366                           
   367  0072                     UART_printf@cadena:	
   368                           ; 1 bytes @ 0x2
   369                           
   370  0072                     ___lwdiv@dividend:	
   371                           ; 1 bytes @ 0x2
   372                           
   373                           
   374                           ; 2 bytes @ 0x2
   375  0072                     	ds	2
   376  0074                     ??___lwdiv:	
   377  0074                     ??___xxtofl:	
   378                           ; 1 bytes @ 0x4
   379                           
   380  0074                     __Umul8_16@product:	
   381                           ; 1 bytes @ 0x4
   382                           
   383  0074                     ___lmul@multiplicand:	
   384                           ; 2 bytes @ 0x4
   385                           
   386                           
   387                           ; 4 bytes @ 0x4
   388  0074                     	ds	1
   389  0075                     ___lwdiv@quotient:	
   390                           
   391                           ; 2 bytes @ 0x5
   392  0075                     	ds	1
   393  0076                     __Umul8_16@word_mpld:	
   394                           
   395                           ; 2 bytes @ 0x6
   396  0076                     	ds	1
   397  0077                     ___lwdiv@counter:	
   398                           
   399                           ; 1 bytes @ 0x7
   400  0077                     	ds	1
   401  0078                     ??___lmul:	
   402  0078                     ?_dameDistancia:	
   403                           ; 1 bytes @ 0x8
   404                           
   405  0078                     ?___lwmod:	
   406                           ; 2 bytes @ 0x8
   407                           
   408  0078                     ___xxtofl@sign:	
   409                           ; 2 bytes @ 0x8
   410                           
   411  0078                     __Umul8_16@multiplier:	
   412                           ; 1 bytes @ 0x8
   413                           
   414  0078                     ___lwmod@divisor:	
   415                           ; 1 bytes @ 0x8
   416                           
   417                           
   418                           ; 2 bytes @ 0x8
   419  0078                     	ds	1
   420  0079                     ___xxtofl@exp:	
   421  0079                     ___lmul@product:	
   422                           ; 1 bytes @ 0x9
   423                           
   424                           
   425                           ; 4 bytes @ 0x9
   426  0079                     	ds	1
   427  007A                     ??_dameDistancia:	
   428  007A                     ___lwmod@dividend:	
   429                           ; 1 bytes @ 0xA
   430                           
   431  007A                     ___xxtofl@arg:	
   432                           ; 2 bytes @ 0xA
   433                           
   434                           
   435                           ; 4 bytes @ 0xA
   436  007A                     	ds	2
   437  007C                     ??___lwmod:	
   438                           
   439                           ; 1 bytes @ 0xC
   440  007C                     	ds	1
   441  007D                     ??___aldiv:	
   442  007D                     ___lwmod@counter:	
   443                           ; 1 bytes @ 0xD
   444                           
   445                           
   446                           ; 1 bytes @ 0xD
   447  007D                     	ds	1
   448  007E                     ??_UART_init:	
   449                           
   450                           	psect	cstackBANK0
   451  0020                     __pcstackBANK0:	
   452                           ; 1 bytes @ 0xE
   453                           
   454  0020                     ?___aldiv:	
   455  0020                     ?___fldiv:	
   456                           ; 4 bytes @ 0x0
   457                           
   458  0020                     dameDistancia@numeroSensor:	
   459                           ; 4 bytes @ 0x0
   460                           
   461  0020                     ___aldiv@divisor:	
   462                           ; 1 bytes @ 0x0
   463                           
   464  0020                     ___fldiv@a:	
   465                           ; 4 bytes @ 0x0
   466                           
   467                           
   468                           ; 4 bytes @ 0x0
   469  0020                     	ds	1
   470  0021                     dameDistancia@distancia:	
   471                           
   472                           ; 2 bytes @ 0x1
   473  0021                     	ds	2
   474  0023                     dameDistancia@conteo:	
   475                           
   476                           ; 2 bytes @ 0x3
   477  0023                     	ds	1
   478  0024                     ___aldiv@dividend:	
   479  0024                     ___fldiv@b:	
   480                           ; 4 bytes @ 0x4
   481                           
   482                           
   483                           ; 4 bytes @ 0x4
   484  0024                     	ds	1
   485  0025                     ?_sprintf:	
   486  0025                     sprintf@f:	
   487                           ; 2 bytes @ 0x5
   488                           
   489                           
   490                           ; 1 bytes @ 0x5
   491  0025                     	ds	3
   492  0028                     ??_sprintf:	
   493  0028                     ??___fldiv:	
   494                           ; 1 bytes @ 0x8
   495                           
   496  0028                     ___aldiv@counter:	
   497                           ; 1 bytes @ 0x8
   498                           
   499                           
   500                           ; 1 bytes @ 0x8
   501  0028                     	ds	1
   502  0029                     ___aldiv@sign:	
   503                           
   504                           ; 1 bytes @ 0x9
   505  0029                     	ds	1
   506  002A                     ___aldiv@quotient:	
   507                           
   508                           ; 4 bytes @ 0xA
   509  002A                     	ds	1
   510  002B                     sprintf@ap:	
   511                           
   512                           ; 1 bytes @ 0xB
   513  002B                     	ds	1
   514  002C                     sprintf@flag:	
   515                           
   516                           ; 1 bytes @ 0xC
   517  002C                     	ds	1
   518  002D                     sprintf@prec:	
   519  002D                     ___fldiv@rem:	
   520                           ; 1 bytes @ 0xD
   521                           
   522                           
   523                           ; 4 bytes @ 0xD
   524  002D                     	ds	1
   525  002E                     ?_UART_init:	
   526  002E                     ?_map:	
   527                           ; 1 bytes @ 0xE
   528                           
   529  002E                     sprintf@val:	
   530                           ; 4 bytes @ 0xE
   531                           
   532  002E                     map@x:	
   533                           ; 2 bytes @ 0xE
   534                           
   535  002E                     UART_init@BAUD:	
   536                           ; 4 bytes @ 0xE
   537                           
   538                           
   539                           ; 4 bytes @ 0xE
   540  002E                     	ds	2
   541  0030                     sprintf@sp:	
   542                           
   543                           ; 1 bytes @ 0x10
   544  0030                     	ds	1
   545  0031                     sprintf@c:	
   546  0031                     ___fldiv@sign:	
   547                           ; 1 bytes @ 0x11
   548                           
   549                           
   550                           ; 1 bytes @ 0x11
   551  0031                     	ds	1
   552  0032                     ___fldiv@new_exp:	
   553  0032                     map@in_min:	
   554                           ; 2 bytes @ 0x12
   555                           
   556                           
   557                           ; 4 bytes @ 0x12
   558  0032                     	ds	2
   559  0034                     ___fldiv@grs:	
   560                           
   561                           ; 4 bytes @ 0x14
   562  0034                     	ds	2
   563  0036                     map@in_max:	
   564  0036                     _UART_init$850:	
   565                           ; 4 bytes @ 0x16
   566                           
   567                           
   568                           ; 4 bytes @ 0x16
   569  0036                     	ds	2
   570  0038                     ___fldiv@bexp:	
   571                           
   572                           ; 1 bytes @ 0x18
   573  0038                     	ds	1
   574  0039                     ___fldiv@aexp:	
   575                           
   576                           ; 1 bytes @ 0x19
   577  0039                     	ds	1
   578  003A                     ?___flmul:	
   579  003A                     map@out_min:	
   580                           ; 4 bytes @ 0x1A
   581                           
   582  003A                     ___flmul@b:	
   583                           ; 4 bytes @ 0x1A
   584                           
   585                           
   586                           ; 4 bytes @ 0x1A
   587  003A                     	ds	4
   588  003E                     map@out_max:	
   589  003E                     ___flmul@a:	
   590                           ; 4 bytes @ 0x1E
   591                           
   592                           
   593                           ; 4 bytes @ 0x1E
   594  003E                     	ds	4
   595  0042                     ??_map:	
   596  0042                     ??___flmul:	
   597                           ; 1 bytes @ 0x22
   598                           
   599                           
   600                           ; 1 bytes @ 0x22
   601  0042                     	ds	5
   602  0047                     ___flmul@sign:	
   603                           
   604                           ; 1 bytes @ 0x27
   605  0047                     	ds	1
   606  0048                     ___flmul@grs:	
   607                           
   608                           ; 4 bytes @ 0x28
   609  0048                     	ds	4
   610  004C                     ___flmul@aexp:	
   611                           
   612                           ; 1 bytes @ 0x2C
   613  004C                     	ds	1
   614  004D                     ___flmul@bexp:	
   615                           
   616                           ; 1 bytes @ 0x2D
   617  004D                     	ds	1
   618  004E                     ___flmul@prod:	
   619                           
   620                           ; 4 bytes @ 0x2E
   621  004E                     	ds	4
   622  0052                     ___flmul@temp:	
   623                           
   624                           ; 2 bytes @ 0x32
   625  0052                     	ds	2
   626  0054                     ?___fltol:	
   627  0054                     ___fltol@f1:	
   628                           ; 4 bytes @ 0x34
   629                           
   630                           
   631                           ; 4 bytes @ 0x34
   632  0054                     	ds	4
   633  0058                     ??___fltol:	
   634                           
   635                           ; 1 bytes @ 0x38
   636  0058                     	ds	5
   637  005D                     ___fltol@sign1:	
   638                           
   639                           ; 1 bytes @ 0x3D
   640  005D                     	ds	1
   641  005E                     ___fltol@exp1:	
   642                           
   643                           ; 1 bytes @ 0x3E
   644  005E                     	ds	1
   645  005F                     ?_pwmDuty:	
   646  005F                     pwmDuty@cicloTrabajo:	
   647                           ; 1 bytes @ 0x3F
   648                           
   649                           
   650                           ; 2 bytes @ 0x3F
   651  005F                     	ds	2
   652  0061                     pwmDuty@channel:	
   653                           
   654                           ; 1 bytes @ 0x41
   655  0061                     	ds	1
   656  0062                     ??_pwmDuty:	
   657                           
   658                           ; 1 bytes @ 0x42
   659  0062                     	ds	5
   660  0067                     pwmDuty@duty:	
   661                           
   662                           ; 4 bytes @ 0x47
   663  0067                     	ds	4
   664  006B                     ??_main:	
   665                           
   666                           ; 1 bytes @ 0x4B
   667  006B                     	ds	3
   668                           
   669                           	psect	maintext
   670  0D4E                     __pmaintext:	
   671 ;;
   672 ;;Main: autosize = 0, tempsize = 3, incstack = 0, save=0
   673 ;;
   674 ;; *************** function _main *****************
   675 ;; Defined at:
   676 ;;		line 11 in file "main.c"
   677 ;; Parameters:    Size  Location     Type
   678 ;;		None
   679 ;; Auto vars:     Size  Location     Type
   680 ;;		None
   681 ;; Return value:  Size  Location     Type
   682 ;;                  1    wreg      void 
   683 ;; Registers used:
   684 ;;		wreg, fsr0l, fsr0h, status,2, status,0, btemp+1, pclath, cstack
   685 ;; Tracked objects:
   686 ;;		On entry : B00/0
   687 ;;		On exit  : 0/0
   688 ;;		Unchanged: 0/0
   689 ;; Data sizes:     COMMON   BANK0   BANK1   BANK3   BANK2
   690 ;;      Params:         0       0       0       0       0
   691 ;;      Locals:         0       0       0       0       0
   692 ;;      Temps:          0       3       0       0       0
   693 ;;      Totals:         0       3       0       0       0
   694 ;;Total ram usage:        3 bytes
   695 ;; Hardware stack levels required when called:    3
   696 ;; This function calls:
   697 ;;		_UART_init
   698 ;;		_UART_printf
   699 ;;		_configPwm
   700 ;;		_dameDistancia
   701 ;;		_pwmDuty
   702 ;;		_sprintf
   703 ;; This function is called by:
   704 ;;		Startup code after reset
   705 ;; This function uses a non-reentrant model
   706 ;;
   707                           
   708                           
   709                           ;psect for function _main
   710  0D4E                     _main:	
   711  0D4E                     l2188:	
   712                           ;incstack = 0
   713                           ; Regs used in _main: [wreg-fsr0h+status,2+status,0+btemp+1+pclath+cstack]
   714                           
   715                           
   716                           ;main.c: 13:     TRISB0 = 0;
   717  0D4E  1683               	bsf	3,5	;RP0=1, select bank1
   718  0D4F  1303               	bcf	3,6	;RP1=0, select bank1
   719  0D50  1006               	bcf	6,0	;volatile
   720                           
   721                           ;main.c: 14:     TRISB1 = 1;
   722  0D51  1486               	bsf	6,1	;volatile
   723                           
   724                           ;main.c: 15:     TRISB2 = 1;
   725  0D52  1506               	bsf	6,2	;volatile
   726                           
   727                           ;main.c: 16:     TRISB3 = 1;
   728  0D53  1586               	bsf	6,3	;volatile
   729                           
   730                           ;main.c: 18:     RB0 = 0;
   731  0D54  1283               	bcf	3,5	;RP0=0, select bank0
   732  0D55  1303               	bcf	3,6	;RP1=0, select bank0
   733  0D56  1006               	bcf	6,0	;volatile
   734  0D57                     l2190:	
   735                           
   736                           ;main.c: 19:     T1CON = 0b00000000;
   737  0D57  0190               	clrf	16	;volatile
   738  0D58                     l2192:	
   739                           
   740                           ;main.c: 21:     configPwm(1);
   741  0D58  3001               	movlw	1
   742  0D59  120A  158A  2412  120A  158A  	fcall	_configPwm
   743  0D5E                     l2194:	
   744                           
   745                           ;main.c: 22:     configPwm(2);
   746  0D5E  3002               	movlw	2
   747  0D5F  120A  158A  2412  120A  158A  	fcall	_configPwm
   748  0D64                     l2196:	
   749                           
   750                           ;main.c: 24:     UART_init(9600);
   751  0D64  3000               	movlw	0
   752  0D65  1283               	bcf	3,5	;RP0=0, select bank0
   753  0D66  1303               	bcf	3,6	;RP1=0, select bank0
   754  0D67  00B1               	movwf	UART_init@BAUD+3
   755  0D68  3000               	movlw	0
   756  0D69  00B0               	movwf	UART_init@BAUD+2
   757  0D6A  3025               	movlw	37
   758  0D6B  00AF               	movwf	UART_init@BAUD+1
   759  0D6C  3080               	movlw	128
   760  0D6D  00AE               	movwf	UART_init@BAUD
   761  0D6E  120A  158A  24FF  120A  158A  	fcall	_UART_init
   762  0D73                     l2198:	
   763                           
   764                           ;main.c: 26:     pwmDuty(50, 1);
   765  0D73  3032               	movlw	50
   766  0D74  1283               	bcf	3,5	;RP0=0, select bank0
   767  0D75  1303               	bcf	3,6	;RP1=0, select bank0
   768  0D76  00DF               	movwf	pwmDuty@cicloTrabajo
   769  0D77  3000               	movlw	0
   770  0D78  00E0               	movwf	pwmDuty@cicloTrabajo+1
   771  0D79  01E1               	clrf	pwmDuty@channel
   772  0D7A  0AE1               	incf	pwmDuty@channel,f
   773  0D7B  120A  118A  21C5  120A  158A  	fcall	_pwmDuty
   774  0D80                     l2200:	
   775                           
   776                           ;main.c: 27:     pwmDuty(50, 2);
   777  0D80  3032               	movlw	50
   778  0D81  1283               	bcf	3,5	;RP0=0, select bank0
   779  0D82  1303               	bcf	3,6	;RP1=0, select bank0
   780  0D83  00DF               	movwf	pwmDuty@cicloTrabajo
   781  0D84  3000               	movlw	0
   782  0D85  00E0               	movwf	pwmDuty@cicloTrabajo+1
   783  0D86  3002               	movlw	2
   784  0D87  00EB               	movwf	??_main
   785  0D88  086B               	movf	??_main,w
   786  0D89  00E1               	movwf	pwmDuty@channel
   787  0D8A  120A  118A  21C5  120A  158A  	fcall	_pwmDuty
   788  0D8F                     l2202:	
   789                           
   790                           ;main.c: 31:         sprintf(buffer, "\rDistancia: %d cm\r\n", dameDistancia(1));
   791  0D8F  300B               	movlw	(low ((STR_1-__stringbase)| (0+32768)))& (0+255)
   792  0D90  1283               	bcf	3,5	;RP0=0, select bank0
   793  0D91  1303               	bcf	3,6	;RP1=0, select bank0
   794  0D92  00EB               	movwf	??_main
   795  0D93  086B               	movf	??_main,w
   796  0D94  00A5               	movwf	sprintf@f
   797  0D95  3001               	movlw	1
   798  0D96  120A  158A  263B  120A  158A  	fcall	_dameDistancia
   799  0D9B  0879               	movf	?_dameDistancia+1,w
   800  0D9C  1283               	bcf	3,5	;RP0=0, select bank0
   801  0D9D  1303               	bcf	3,6	;RP1=0, select bank0
   802  0D9E  00A7               	movwf	?_sprintf+2
   803  0D9F  0878               	movf	?_dameDistancia,w
   804  0DA0  00A6               	movwf	?_sprintf+1
   805  0DA1  30A0               	movlw	(low (_buffer| 0))& (0+255)
   806  0DA2  120A  118A  20DD  120A  158A  	fcall	_sprintf
   807  0DA7                     l2204:	
   808                           
   809                           ;main.c: 32:         UART_printf(buffer);
   810  0DA7  30A0               	movlw	(low (_buffer| 0))& (0+255)
   811  0DA8  120A  118A  200C  120A  158A  	fcall	_UART_printf
   812  0DAD                     l2206:	
   813                           
   814                           ;main.c: 33:         _delay((unsigned long)((1000)*(4000000/4000.0)));
   815  0DAD  3006               	movlw	6
   816  0DAE  1283               	bcf	3,5	;RP0=0, select bank0
   817  0DAF  1303               	bcf	3,6	;RP1=0, select bank0
   818  0DB0  00ED               	movwf	??_main+2
   819  0DB1  3013               	movlw	19
   820  0DB2  00EC               	movwf	??_main+1
   821  0DB3  30AD               	movlw	173
   822  0DB4  00EB               	movwf	??_main
   823  0DB5                     u3027:	
   824  0DB5  0BEB               	decfsz	??_main,f
   825  0DB6  2DB5               	goto	u3027
   826  0DB7  0BEC               	decfsz	??_main+1,f
   827  0DB8  2DB5               	goto	u3027
   828  0DB9  0BED               	decfsz	??_main+2,f
   829  0DBA  2DB5               	goto	u3027
   830  0DBB  2D8F               	goto	l2202
   831  0DBC  120A  118A  2800   	ljmp	start
   832  0DBF                     __end_of_main:	
   833                           
   834                           	psect	text1
   835  00DD                     __ptext1:	
   836 ;; *************** function _sprintf *****************
   837 ;; Defined at:
   838 ;;		line 505 in file "C:\Program Files (x86)\Microchip\xc8\v2.10\pic\sources\c90\common\doprnt.c"
   839 ;; Parameters:    Size  Location     Type
   840 ;;  sp              1    wreg     PTR unsigned char 
   841 ;;		 -> buffer(50), 
   842 ;;  f               1    5[BANK0 ] PTR const unsigned char 
   843 ;;		 -> STR_1(20), 
   844 ;; Auto vars:     Size  Location     Type
   845 ;;  sp              1   16[BANK0 ] PTR unsigned char 
   846 ;;		 -> buffer(50), 
   847 ;;  tmpval          4    0        struct .
   848 ;;  val             2   14[BANK0 ] unsigned int 
   849 ;;  cp              2    0        PTR const unsigned char 
   850 ;;  len             2    0        unsigned int 
   851 ;;  c               1   17[BANK0 ] unsigned char 
   852 ;;  prec            1   13[BANK0 ] char 
   853 ;;  flag            1   12[BANK0 ] unsigned char 
   854 ;;  ap              1   11[BANK0 ] PTR void [1]
   855 ;;		 -> ?_sprintf(2), 
   856 ;; Return value:  Size  Location     Type
   857 ;;                  2    5[BANK0 ] int 
   858 ;; Registers used:
   859 ;;		wreg, fsr0l, fsr0h, status,2, status,0, btemp+1, pclath, cstack
   860 ;; Tracked objects:
   861 ;;		On entry : 0/0
   862 ;;		On exit  : 0/0
   863 ;;		Unchanged: 0/0
   864 ;; Data sizes:     COMMON   BANK0   BANK1   BANK3   BANK2
   865 ;;      Params:         0       3       0       0       0
   866 ;;      Locals:         0       7       0       0       0
   867 ;;      Temps:          0       3       0       0       0
   868 ;;      Totals:         0      13       0       0       0
   869 ;;Total ram usage:       13 bytes
   870 ;; Hardware stack levels used:    1
   871 ;; Hardware stack levels required when called:    1
   872 ;; This function calls:
   873 ;;		___lwdiv
   874 ;;		___lwmod
   875 ;; This function is called by:
   876 ;;		_main
   877 ;; This function uses a non-reentrant model
   878 ;;
   879                           
   880                           
   881                           ;psect for function _sprintf
   882  00DD                     _sprintf:	
   883                           
   884                           ;incstack = 0
   885                           ; Regs used in _sprintf: [wreg-fsr0h+status,2+status,0+btemp+1+pclath+cstack]
   886                           ;sprintf@sp stored from wreg
   887  00DD  1283               	bcf	3,5	;RP0=0, select bank0
   888  00DE  1303               	bcf	3,6	;RP1=0, select bank0
   889  00DF  00B0               	movwf	sprintf@sp
   890  00E0                     l2126:	
   891                           
   892                           ;C:\Program Files (x86)\Microchip\xc8\v2.10\pic\sources\c90\common\doprnt.c: 505: sprint
      +                          f(char * sp, const char * f, ...);C:\Program Files (x86)\Microchip\xc8\v2.10\pic\sources
      +                          \c90\common\doprnt.c: 506: {;C:\Program Files (x86)\Microchip\xc8\v2.10\pic\sources\c90\
      +                          common\doprnt.c: 507:  va_list ap;;C:\Program Files (x86)\Microchip\xc8\v2.10\pic\source
      +                          s\c90\common\doprnt.c: 512:  char c;;C:\Program Files (x86)\Microchip\xc8\v2.10\pic\sour
      +                          ces\c90\common\doprnt.c: 521:  signed char prec;;C:\Program Files (x86)\Microchip\xc8\v2
      +                          .10\pic\sources\c90\common\doprnt.c: 525:  unsigned char flag;
   893  00E0  3026               	movlw	(low ((?_sprintf| 0+1)))& (0+255)
   894  00E1  00A8               	movwf	??_sprintf
   895  00E2  0828               	movf	??_sprintf,w
   896  00E3  00AB               	movwf	sprintf@ap
   897                           
   898                           ;C:\Program Files (x86)\Microchip\xc8\v2.10\pic\sources\c90\common\doprnt.c: 553:  while
      +                          ((c = *f++)) {
   899  00E4  29AE               	goto	l2178
   900  00E5                     l2128:	
   901                           
   902                           ;C:\Program Files (x86)\Microchip\xc8\v2.10\pic\sources\c90\common\doprnt.c: 555:   if(c
      +                           != '%')
   903  00E5  3025               	movlw	37
   904  00E6  0631               	xorwf	sprintf@c,w
   905  00E7  1903               	btfsc	3,2
   906  00E8  28EA               	goto	u2951
   907  00E9  28EB               	goto	u2950
   908  00EA                     u2951:	
   909  00EA  28F7               	goto	l2134
   910  00EB                     u2950:	
   911  00EB                     l2130:	
   912                           
   913                           ;C:\Program Files (x86)\Microchip\xc8\v2.10\pic\sources\c90\common\doprnt.c: 557:   {;C:
      +                          \Program Files (x86)\Microchip\xc8\v2.10\pic\sources\c90\common\doprnt.c: 558:    ((*sp+
      +                          + = (c)));
   914  00EB  0831               	movf	sprintf@c,w
   915  00EC  00A8               	movwf	??_sprintf
   916  00ED  0830               	movf	sprintf@sp,w
   917  00EE  0084               	movwf	4
   918  00EF  0828               	movf	??_sprintf,w
   919  00F0  1383               	bcf	3,7	;select IRP bank0
   920  00F1  0080               	movwf	0
   921  00F2                     l2132:	
   922  00F2  3001               	movlw	1
   923  00F3  00A8               	movwf	??_sprintf
   924  00F4  0828               	movf	??_sprintf,w
   925  00F5  07B0               	addwf	sprintf@sp,f
   926                           
   927                           ;C:\Program Files (x86)\Microchip\xc8\v2.10\pic\sources\c90\common\doprnt.c: 559:    con
      +                          tinue;
   928  00F6  29AE               	goto	l2178
   929  00F7                     l2134:	
   930                           
   931                           ;C:\Program Files (x86)\Microchip\xc8\v2.10\pic\sources\c90\common\doprnt.c: 565:   flag
      +                           = 0;
   932  00F7  01AC               	clrf	sprintf@flag
   933  00F8                     l2138:	
   934                           ;C:\Program Files (x86)\Microchip\xc8\v2.10\pic\sources\c90\common\doprnt.c: 661:   swit
      +                          ch(c = *f++) {
   935                           
   936  00F8  3001               	movlw	1
   937  00F9  07A5               	addwf	sprintf@f,f
   938  00FA  30FF               	movlw	-1
   939  00FB  0725               	addwf	sprintf@f,w
   940  00FC  0084               	movwf	4
   941  00FD  120A  158A  2000  120A  118A  	fcall	stringdir
   942  0102  00B1               	movwf	sprintf@c
   943  0103  00A8               	movwf	??_sprintf
   944  0104  01A9               	clrf	??_sprintf+1
   945                           
   946                           ; Switch on 2 bytes has been partitioned into a top level switch of size 1, and 1 sub-sw
      +                          itches
   947                           ; Switch size 1, requested type "simple"
   948                           ; Number of cases is 1, Range of values is 0 to 0
   949                           ; switch strategies available:
   950                           ; Name         Instructions Cycles
   951                           ; simple_byte            4     3 (average)
   952                           ; direct_byte           11     8 (fixed)
   953                           ; jumptable            260     6 (fixed)
   954                           ;	Chosen strategy is simple_byte
   955  0105  0829               	movf	??_sprintf+1,w
   956  0106  3A00               	xorlw	0	; case 0
   957  0107  1903               	skipnz
   958  0108  290A               	goto	l2288
   959  0109  29AE               	goto	l2178
   960  010A                     l2288:	
   961                           
   962                           ; Switch size 1, requested type "simple"
   963                           ; Number of cases is 3, Range of values is 0 to 105
   964                           ; switch strategies available:
   965                           ; Name         Instructions Cycles
   966                           ; simple_byte           10     6 (average)
   967                           ; jumptable            260     6 (fixed)
   968                           ;	Chosen strategy is simple_byte
   969  010A  0828               	movf	??_sprintf,w
   970  010B  3A00               	xorlw	0	; case 0
   971  010C  1903               	skipnz
   972  010D  29C0               	goto	l2180
   973  010E  3A64               	xorlw	100	; case 100
   974  010F  1903               	skipnz
   975  0110  2915               	goto	l2140
   976  0111  3A0D               	xorlw	13	; case 105
   977  0112  1903               	skipnz
   978  0113  2915               	goto	l2140
   979  0114  29AE               	goto	l2178
   980  0115                     l2140:	
   981                           
   982                           ;C:\Program Files (x86)\Microchip\xc8\v2.10\pic\sources\c90\common\doprnt.c: 1279:   {;C
      +                          :\Program Files (x86)\Microchip\xc8\v2.10\pic\sources\c90\common\doprnt.c: 1285:     val
      +                           = (unsigned int)(*(int *)__va_arg((*(int **)ap), (int)0));
   983  0115  082B               	movf	sprintf@ap,w
   984  0116  0084               	movwf	4
   985  0117  1383               	bcf	3,7	;select IRP bank0
   986  0118  0800               	movf	0,w
   987  0119  00AE               	movwf	sprintf@val
   988  011A  0A84               	incf	4,f
   989  011B  0800               	movf	0,w
   990  011C  00AF               	movwf	sprintf@val+1
   991  011D                     l2142:	
   992  011D  3002               	movlw	2
   993  011E  00A8               	movwf	??_sprintf
   994  011F  0828               	movf	??_sprintf,w
   995  0120  07AB               	addwf	sprintf@ap,f
   996  0121                     l2144:	
   997                           
   998                           ;C:\Program Files (x86)\Microchip\xc8\v2.10\pic\sources\c90\common\doprnt.c: 1287:    if
      +                          ((int)val < 0) {
   999  0121  1FAF               	btfss	sprintf@val+1,7
  1000  0122  2924               	goto	u2961
  1001  0123  2925               	goto	u2960
  1002  0124                     u2961:	
  1003  0124  292E               	goto	l2150
  1004  0125                     u2960:	
  1005  0125                     l2146:	
  1006                           
  1007                           ;C:\Program Files (x86)\Microchip\xc8\v2.10\pic\sources\c90\common\doprnt.c: 1288:     f
      +                          lag |= 0x03;
  1008  0125  3003               	movlw	3
  1009  0126  00A8               	movwf	??_sprintf
  1010  0127  0828               	movf	??_sprintf,w
  1011  0128  04AC               	iorwf	sprintf@flag,f
  1012  0129                     l2148:	
  1013                           
  1014                           ;C:\Program Files (x86)\Microchip\xc8\v2.10\pic\sources\c90\common\doprnt.c: 1289:     v
      +                          al = -val;
  1015  0129  09AE               	comf	sprintf@val,f
  1016  012A  09AF               	comf	sprintf@val+1,f
  1017  012B  0AAE               	incf	sprintf@val,f
  1018  012C  1903               	skipnz
  1019  012D  0AAF               	incf	sprintf@val+1,f
  1020  012E                     l2150:	
  1021                           
  1022                           ;C:\Program Files (x86)\Microchip\xc8\v2.10\pic\sources\c90\common\doprnt.c: 1292:   };C
      +                          :\Program Files (x86)\Microchip\xc8\v2.10\pic\sources\c90\common\doprnt.c: 1331:    for(
      +                          c = 1 ; c != sizeof dpowers/sizeof dpowers[0] ; c++)
  1023  012E  01B1               	clrf	sprintf@c
  1024  012F  0AB1               	incf	sprintf@c,f
  1025  0130                     l2156:	
  1026                           
  1027                           ;C:\Program Files (x86)\Microchip\xc8\v2.10\pic\sources\c90\common\doprnt.c: 1332:     i
      +                          f(val < dpowers[c])
  1028  0130  0831               	movf	sprintf@c,w
  1029  0131  00A8               	movwf	??_sprintf
  1030  0132  0728               	addwf	??_sprintf,w
  1031  0133  3E01               	addlw	low ((_dpowers-__stringbase)| (0+32768))
  1032  0134  0084               	movwf	4
  1033  0135  120A  158A  2000  120A  118A  	fcall	stringdir
  1034  013A  00A9               	movwf	??_sprintf+1
  1035  013B  120A  158A  2000  120A  118A  	fcall	stringdir
  1036  0140  00AA               	movwf	??_sprintf+2
  1037  0141  082A               	movf	??_sprintf+2,w
  1038  0142  022F               	subwf	sprintf@val+1,w
  1039  0143  1D03               	skipz
  1040  0144  2947               	goto	u2975
  1041  0145  0829               	movf	??_sprintf+1,w
  1042  0146  022E               	subwf	sprintf@val,w
  1043  0147                     u2975:	
  1044  0147  1803               	skipnc
  1045  0148  294A               	goto	u2971
  1046  0149  294B               	goto	u2970
  1047  014A                     u2971:	
  1048  014A  294C               	goto	l2160
  1049  014B                     u2970:	
  1050  014B  2956               	goto	l2162
  1051  014C                     l2160:	
  1052  014C  3001               	movlw	1
  1053  014D  00A8               	movwf	??_sprintf
  1054  014E  0828               	movf	??_sprintf,w
  1055  014F  07B1               	addwf	sprintf@c,f
  1056  0150  3005               	movlw	5
  1057  0151  0631               	xorwf	sprintf@c,w
  1058  0152  1D03               	btfss	3,2
  1059  0153  2955               	goto	u2981
  1060  0154  2956               	goto	u2980
  1061  0155                     u2981:	
  1062  0155  2930               	goto	l2156
  1063  0156                     u2980:	
  1064  0156                     l2162:	
  1065                           
  1066                           ;C:\Program Files (x86)\Microchip\xc8\v2.10\pic\sources\c90\common\doprnt.c: 1448:   {;C
      +                          :\Program Files (x86)\Microchip\xc8\v2.10\pic\sources\c90\common\doprnt.c: 1464:    if(f
      +                          lag & 0x03)
  1067  0156  082C               	movf	sprintf@flag,w
  1068  0157  3903               	andlw	3
  1069  0158  1903               	btfsc	3,2
  1070  0159  295B               	goto	u2991
  1071  015A  295C               	goto	u2990
  1072  015B                     u2991:	
  1073  015B  2967               	goto	l2168
  1074  015C                     u2990:	
  1075  015C                     l2164:	
  1076                           
  1077                           ;C:\Program Files (x86)\Microchip\xc8\v2.10\pic\sources\c90\common\doprnt.c: 1465:     (
      +                          (*sp++ = ('-')));
  1078  015C  302D               	movlw	45
  1079  015D  00A8               	movwf	??_sprintf
  1080  015E  0830               	movf	sprintf@sp,w
  1081  015F  0084               	movwf	4
  1082  0160  0828               	movf	??_sprintf,w
  1083  0161  1383               	bcf	3,7	;select IRP bank0
  1084  0162  0080               	movwf	0
  1085  0163                     l2166:	
  1086  0163  3001               	movlw	1
  1087  0164  00A8               	movwf	??_sprintf
  1088  0165  0828               	movf	??_sprintf,w
  1089  0166  07B0               	addwf	sprintf@sp,f
  1090  0167                     l2168:	
  1091                           
  1092                           ;C:\Program Files (x86)\Microchip\xc8\v2.10\pic\sources\c90\common\doprnt.c: 1495:   };C
      +                          :\Program Files (x86)\Microchip\xc8\v2.10\pic\sources\c90\common\doprnt.c: 1498:   prec 
      +                          = c;
  1093  0167  0831               	movf	sprintf@c,w
  1094  0168  00A8               	movwf	??_sprintf
  1095  0169  0828               	movf	??_sprintf,w
  1096  016A  00AD               	movwf	sprintf@prec
  1097                           
  1098                           ;C:\Program Files (x86)\Microchip\xc8\v2.10\pic\sources\c90\common\doprnt.c: 1500:   whi
      +                          le(prec--) {
  1099  016B  29A5               	goto	l2176
  1100  016C                     l2170:	
  1101                           
  1102                           ;C:\Program Files (x86)\Microchip\xc8\v2.10\pic\sources\c90\common\doprnt.c: 1504:    {;
      +                          C:\Program Files (x86)\Microchip\xc8\v2.10\pic\sources\c90\common\doprnt.c: 1515:     c 
      +                          = (val / dpowers[(unsigned char)prec]) % 10 + '0';
  1103  016C  300A               	movlw	10
  1104  016D  00F8               	movwf	___lwmod@divisor
  1105  016E  3000               	movlw	0
  1106  016F  00F9               	movwf	___lwmod@divisor+1
  1107  0170  082D               	movf	sprintf@prec,w
  1108  0171  00A8               	movwf	??_sprintf
  1109  0172  0728               	addwf	??_sprintf,w
  1110  0173  3E01               	addlw	low ((_dpowers-__stringbase)| (0+32768))
  1111  0174  0084               	movwf	4
  1112  0175  120A  158A  2000  120A  118A  	fcall	stringdir
  1113  017A  00F0               	movwf	___lwdiv@divisor
  1114  017B  120A  158A  2000  120A  118A  	fcall	stringdir
  1115  0180  00F1               	movwf	___lwdiv@divisor+1
  1116  0181  082F               	movf	sprintf@val+1,w
  1117  0182  00F3               	movwf	___lwdiv@dividend+1
  1118  0183  082E               	movf	sprintf@val,w
  1119  0184  00F2               	movwf	___lwdiv@dividend
  1120  0185  120A  158A  2475  120A  118A  	fcall	___lwdiv
  1121  018A  0871               	movf	?___lwdiv+1,w
  1122  018B  00FB               	movwf	___lwmod@dividend+1
  1123  018C  0870               	movf	?___lwdiv,w
  1124  018D  00FA               	movwf	___lwmod@dividend
  1125  018E  120A  158A  243B  120A  118A  	fcall	___lwmod
  1126  0193  0878               	movf	?___lwmod,w
  1127  0194  3E30               	addlw	48
  1128  0195  1283               	bcf	3,5	;RP0=0, select bank0
  1129  0196  1303               	bcf	3,6	;RP1=0, select bank0
  1130  0197  00A9               	movwf	??_sprintf+1
  1131  0198  0829               	movf	??_sprintf+1,w
  1132  0199  00B1               	movwf	sprintf@c
  1133  019A                     l2172:	
  1134                           
  1135                           ;C:\Program Files (x86)\Microchip\xc8\v2.10\pic\sources\c90\common\doprnt.c: 1549:    };
      +                          C:\Program Files (x86)\Microchip\xc8\v2.10\pic\sources\c90\common\doprnt.c: 1550:    ((*
      +                          sp++ = (c)));
  1136  019A  0831               	movf	sprintf@c,w
  1137  019B  00A8               	movwf	??_sprintf
  1138  019C  0830               	movf	sprintf@sp,w
  1139  019D  0084               	movwf	4
  1140  019E  0828               	movf	??_sprintf,w
  1141  019F  1383               	bcf	3,7	;select IRP bank0
  1142  01A0  0080               	movwf	0
  1143  01A1                     l2174:	
  1144  01A1  3001               	movlw	1
  1145  01A2  00A8               	movwf	??_sprintf
  1146  01A3  0828               	movf	??_sprintf,w
  1147  01A4  07B0               	addwf	sprintf@sp,f
  1148  01A5                     l2176:	
  1149                           
  1150                           ;C:\Program Files (x86)\Microchip\xc8\v2.10\pic\sources\c90\common\doprnt.c: 1500:   whi
      +                          le(prec--) {
  1151  01A5  30FF               	movlw	255
  1152  01A6  00A8               	movwf	??_sprintf
  1153  01A7  0828               	movf	??_sprintf,w
  1154  01A8  07AD               	addwf	sprintf@prec,f
  1155  01A9  0A2D               	incf	sprintf@prec,w
  1156  01AA  1D03               	btfss	3,2
  1157  01AB  29AD               	goto	u3001
  1158  01AC  29AE               	goto	u3000
  1159  01AD                     u3001:	
  1160  01AD  296C               	goto	l2170
  1161  01AE                     u3000:	
  1162  01AE                     l2178:	
  1163                           
  1164                           ;C:\Program Files (x86)\Microchip\xc8\v2.10\pic\sources\c90\common\doprnt.c: 553:  while
      +                          ((c = *f++)) {
  1165  01AE  3001               	movlw	1
  1166  01AF  07A5               	addwf	sprintf@f,f
  1167  01B0  30FF               	movlw	-1
  1168  01B1  0725               	addwf	sprintf@f,w
  1169  01B2  0084               	movwf	4
  1170  01B3  120A  158A  2000  120A  118A  	fcall	stringdir
  1171  01B8  00A8               	movwf	??_sprintf
  1172  01B9  0828               	movf	??_sprintf,w
  1173  01BA  00B1               	movwf	sprintf@c
  1174  01BB  0831               	movf	sprintf@c,w
  1175  01BC  1D03               	btfss	3,2
  1176  01BD  29BF               	goto	u3011
  1177  01BE  29C0               	goto	u3010
  1178  01BF                     u3011:	
  1179  01BF  28E5               	goto	l2128
  1180  01C0                     u3010:	
  1181  01C0                     l2180:	
  1182                           
  1183                           ;C:\Program Files (x86)\Microchip\xc8\v2.10\pic\sources\c90\common\doprnt.c: 1564:  *sp 
      +                          = 0;
  1184  01C0  0830               	movf	sprintf@sp,w
  1185  01C1  0084               	movwf	4
  1186  01C2  1383               	bcf	3,7	;select IRP bank0
  1187  01C3  0180               	clrf	0
  1188  01C4                     l276:	
  1189  01C4  0008               	return
  1190  01C5                     __end_of_sprintf:	
  1191                           
  1192                           	psect	text2
  1193  0C3B                     __ptext2:	
  1194 ;; *************** function ___lwmod *****************
  1195 ;; Defined at:
  1196 ;;		line 5 in file "C:\Program Files (x86)\Microchip\xc8\v2.10\pic\sources\c90\common\lwmod.c"
  1197 ;; Parameters:    Size  Location     Type
  1198 ;;  divisor         2    8[COMMON] unsigned int 
  1199 ;;  dividend        2   10[COMMON] unsigned int 
  1200 ;; Auto vars:     Size  Location     Type
  1201 ;;  counter         1   13[COMMON] unsigned char 
  1202 ;; Return value:  Size  Location     Type
  1203 ;;                  2    8[COMMON] unsigned int 
  1204 ;; Registers used:
  1205 ;;		wreg, status,2, status,0
  1206 ;; Tracked objects:
  1207 ;;		On entry : 0/0
  1208 ;;		On exit  : 0/0
  1209 ;;		Unchanged: 0/0
  1210 ;; Data sizes:     COMMON   BANK0   BANK1   BANK3   BANK2
  1211 ;;      Params:         4       0       0       0       0
  1212 ;;      Locals:         1       0       0       0       0
  1213 ;;      Temps:          1       0       0       0       0
  1214 ;;      Totals:         6       0       0       0       0
  1215 ;;Total ram usage:        6 bytes
  1216 ;; Hardware stack levels used:    1
  1217 ;; This function calls:
  1218 ;;		Nothing
  1219 ;; This function is called by:
  1220 ;;		_sprintf
  1221 ;; This function uses a non-reentrant model
  1222 ;;
  1223                           
  1224                           
  1225                           ;psect for function ___lwmod
  1226  0C3B                     ___lwmod:	
  1227  0C3B                     l1676:	
  1228                           ;incstack = 0
  1229                           ; Regs used in ___lwmod: [wreg+status,2+status,0]
  1230                           
  1231  0C3B  0878               	movf	___lwmod@divisor,w
  1232  0C3C  0479               	iorwf	___lwmod@divisor+1,w
  1233  0C3D  1903               	btfsc	3,2
  1234  0C3E  2C40               	goto	u1911
  1235  0C3F  2C41               	goto	u1910
  1236  0C40                     u1911:	
  1237  0C40  2C70               	goto	l1694
  1238  0C41                     u1910:	
  1239  0C41                     l1678:	
  1240  0C41  01FD               	clrf	___lwmod@counter
  1241  0C42  0AFD               	incf	___lwmod@counter,f
  1242  0C43  2C4F               	goto	l1684
  1243  0C44                     l1680:	
  1244  0C44  3001               	movlw	1
  1245  0C45                     u1925:	
  1246  0C45  1003               	clrc
  1247  0C46  0DF8               	rlf	___lwmod@divisor,f
  1248  0C47  0DF9               	rlf	___lwmod@divisor+1,f
  1249  0C48  3EFF               	addlw	-1
  1250  0C49  1D03               	skipz
  1251  0C4A  2C45               	goto	u1925
  1252  0C4B                     l1682:	
  1253  0C4B  3001               	movlw	1
  1254  0C4C  00FC               	movwf	??___lwmod
  1255  0C4D  087C               	movf	??___lwmod,w
  1256  0C4E  07FD               	addwf	___lwmod@counter,f
  1257  0C4F                     l1684:	
  1258  0C4F  1FF9               	btfss	___lwmod@divisor+1,7
  1259  0C50  2C52               	goto	u1931
  1260  0C51  2C53               	goto	u1930
  1261  0C52                     u1931:	
  1262  0C52  2C44               	goto	l1680
  1263  0C53                     u1930:	
  1264  0C53                     l1686:	
  1265  0C53  0879               	movf	___lwmod@divisor+1,w
  1266  0C54  027B               	subwf	___lwmod@dividend+1,w
  1267  0C55  1D03               	skipz
  1268  0C56  2C59               	goto	u1945
  1269  0C57  0878               	movf	___lwmod@divisor,w
  1270  0C58  027A               	subwf	___lwmod@dividend,w
  1271  0C59                     u1945:	
  1272  0C59  1C03               	skipc
  1273  0C5A  2C5C               	goto	u1941
  1274  0C5B  2C5D               	goto	u1940
  1275  0C5C                     u1941:	
  1276  0C5C  2C63               	goto	l1690
  1277  0C5D                     u1940:	
  1278  0C5D                     l1688:	
  1279  0C5D  0878               	movf	___lwmod@divisor,w
  1280  0C5E  02FA               	subwf	___lwmod@dividend,f
  1281  0C5F  0879               	movf	___lwmod@divisor+1,w
  1282  0C60  1C03               	skipc
  1283  0C61  03FB               	decf	___lwmod@dividend+1,f
  1284  0C62  02FB               	subwf	___lwmod@dividend+1,f
  1285  0C63                     l1690:	
  1286  0C63  3001               	movlw	1
  1287  0C64                     u1955:	
  1288  0C64  1003               	clrc
  1289  0C65  0CF9               	rrf	___lwmod@divisor+1,f
  1290  0C66  0CF8               	rrf	___lwmod@divisor,f
  1291  0C67  3EFF               	addlw	-1
  1292  0C68  1D03               	skipz
  1293  0C69  2C64               	goto	u1955
  1294  0C6A                     l1692:	
  1295  0C6A  3001               	movlw	1
  1296  0C6B  02FD               	subwf	___lwmod@counter,f
  1297  0C6C  1D03               	btfss	3,2
  1298  0C6D  2C6F               	goto	u1961
  1299  0C6E  2C70               	goto	u1960
  1300  0C6F                     u1961:	
  1301  0C6F  2C53               	goto	l1686
  1302  0C70                     u1960:	
  1303  0C70                     l1694:	
  1304  0C70  087B               	movf	___lwmod@dividend+1,w
  1305  0C71  00F9               	movwf	?___lwmod+1
  1306  0C72  087A               	movf	___lwmod@dividend,w
  1307  0C73  00F8               	movwf	?___lwmod
  1308  0C74                     l562:	
  1309  0C74  0008               	return
  1310  0C75                     __end_of___lwmod:	
  1311                           
  1312                           	psect	text3
  1313  01C5                     __ptext3:	
  1314 ;; *************** function _pwmDuty *****************
  1315 ;; Defined at:
  1316 ;;		line 20 in file "./pwm.h"
  1317 ;; Parameters:    Size  Location     Type
  1318 ;;  cicloTrabajo    2   63[BANK0 ] unsigned int 
  1319 ;;  channel         1   65[BANK0 ] unsigned char 
  1320 ;; Auto vars:     Size  Location     Type
  1321 ;;  duty            4   71[BANK0 ] long 
  1322 ;; Return value:  Size  Location     Type
  1323 ;;                  1    wreg      void 
  1324 ;; Registers used:
  1325 ;;		wreg, fsr0l, fsr0h, status,2, status,0, btemp+1, pclath, cstack
  1326 ;; Tracked objects:
  1327 ;;		On entry : 0/0
  1328 ;;		On exit  : 0/0
  1329 ;;		Unchanged: 0/0
  1330 ;; Data sizes:     COMMON   BANK0   BANK1   BANK3   BANK2
  1331 ;;      Params:         0       3       0       0       0
  1332 ;;      Locals:         0       4       0       0       0
  1333 ;;      Temps:          0       5       0       0       0
  1334 ;;      Totals:         0      12       0       0       0
  1335 ;;Total ram usage:       12 bytes
  1336 ;; Hardware stack levels used:    1
  1337 ;; Hardware stack levels required when called:    2
  1338 ;; This function calls:
  1339 ;;		___fldiv
  1340 ;;		___flmul
  1341 ;;		___fltol
  1342 ;;		___xxtofl
  1343 ;;		_map
  1344 ;; This function is called by:
  1345 ;;		_main
  1346 ;; This function uses a non-reentrant model
  1347 ;;
  1348                           
  1349                           
  1350                           ;psect for function _pwmDuty
  1351  01C5                     _pwmDuty:	
  1352  01C5                     l2024:	
  1353                           ;incstack = 0
  1354                           ; Regs used in _pwmDuty: [wreg-fsr0h+status,2+status,0+btemp+1+pclath+cstack]
  1355                           
  1356                           
  1357                           ;./pwm.h: 22:     long duty = map(cicloTrabajo, 0, 100, 0, 1023);
  1358  01C5  1283               	bcf	3,5	;RP0=0, select bank0
  1359  01C6  1303               	bcf	3,6	;RP1=0, select bank0
  1360  01C7  085F               	movf	pwmDuty@cicloTrabajo,w
  1361  01C8  00AE               	movwf	map@x
  1362  01C9  0860               	movf	pwmDuty@cicloTrabajo+1,w
  1363  01CA  00AF               	movwf	map@x+1
  1364  01CB  01B0               	clrf	map@x+2
  1365  01CC  01B1               	clrf	map@x+3
  1366  01CD  3000               	movlw	0
  1367  01CE  00B5               	movwf	map@in_min+3
  1368  01CF  3000               	movlw	0
  1369  01D0  00B4               	movwf	map@in_min+2
  1370  01D1  3000               	movlw	0
  1371  01D2  00B3               	movwf	map@in_min+1
  1372  01D3  3000               	movlw	0
  1373  01D4  00B2               	movwf	map@in_min
  1374  01D5  3000               	movlw	0
  1375  01D6  00B9               	movwf	map@in_max+3
  1376  01D7  3000               	movlw	0
  1377  01D8  00B8               	movwf	map@in_max+2
  1378  01D9  3000               	movlw	0
  1379  01DA  00B7               	movwf	map@in_max+1
  1380  01DB  3064               	movlw	100
  1381  01DC  00B6               	movwf	map@in_max
  1382  01DD  3000               	movlw	0
  1383  01DE  00BD               	movwf	map@out_min+3
  1384  01DF  3000               	movlw	0
  1385  01E0  00BC               	movwf	map@out_min+2
  1386  01E1  3000               	movlw	0
  1387  01E2  00BB               	movwf	map@out_min+1
  1388  01E3  3000               	movlw	0
  1389  01E4  00BA               	movwf	map@out_min
  1390  01E5  3000               	movlw	0
  1391  01E6  00C1               	movwf	map@out_max+3
  1392  01E7  3000               	movlw	0
  1393  01E8  00C0               	movwf	map@out_max+2
  1394  01E9  3003               	movlw	3
  1395  01EA  00BF               	movwf	map@out_max+1
  1396  01EB  30FF               	movlw	255
  1397  01EC  00BE               	movwf	map@out_max
  1398  01ED  120A  158A  2758  120A  118A  	fcall	_map
  1399  01F2  1283               	bcf	3,5	;RP0=0, select bank0
  1400  01F3  1303               	bcf	3,6	;RP1=0, select bank0
  1401  01F4  0831               	movf	?_map+3,w
  1402  01F5  00EA               	movwf	pwmDuty@duty+3
  1403  01F6  0830               	movf	?_map+2,w
  1404  01F7  00E9               	movwf	pwmDuty@duty+2
  1405  01F8  082F               	movf	?_map+1,w
  1406  01F9  00E8               	movwf	pwmDuty@duty+1
  1407  01FA  082E               	movf	?_map,w
  1408  01FB  00E7               	movwf	pwmDuty@duty
  1409  01FC                     l2026:	
  1410                           
  1411                           ;./pwm.h: 24:     if (duty < 1024) {
  1412  01FC  1BEA               	btfsc	pwmDuty@duty+3,7
  1413  01FD  2A10               	goto	u2770
  1414  01FE  086A               	movf	pwmDuty@duty+3,w
  1415  01FF  1D03               	btfss	3,2
  1416  0200  2A0F               	goto	u2771
  1417  0201  0869               	movf	pwmDuty@duty+2,w
  1418  0202  1D03               	btfss	3,2
  1419  0203  2A0F               	goto	u2771
  1420  0204  3004               	movlw	4
  1421  0205  0268               	subwf	pwmDuty@duty+1,w
  1422  0206  1D03               	skipz
  1423  0207  2A0C               	goto	u2773
  1424  0208  3000               	movlw	0
  1425  0209  0267               	subwf	pwmDuty@duty,w
  1426  020A  1D03               	skipz
  1427  020B  2A0C               	goto	u2773
  1428  020C                     u2773:	
  1429  020C  1803               	btfsc	3,0
  1430  020D  2A0F               	goto	u2771
  1431  020E  2A10               	goto	u2770
  1432  020F                     u2771:	
  1433  020F  2AB4               	goto	l89
  1434  0210                     u2770:	
  1435  0210                     l2028:	
  1436                           
  1437                           ;./pwm.h: 26:         duty = ((float) duty / 1023)*(4000000 / (500 * 16));
  1438  0210  086A               	movf	pwmDuty@duty+3,w
  1439  0211  00F3               	movwf	___xxtofl@val+3
  1440  0212  0869               	movf	pwmDuty@duty+2,w
  1441  0213  00F2               	movwf	___xxtofl@val+2
  1442  0214  0868               	movf	pwmDuty@duty+1,w
  1443  0215  00F1               	movwf	___xxtofl@val+1
  1444  0216  0867               	movf	pwmDuty@duty,w
  1445  0217  00F0               	movwf	___xxtofl@val
  1446  0218  3001               	movlw	1
  1447  0219  120A  118A  2023  120A  118A  	fcall	___xxtofl
  1448  021E  0873               	movf	?___xxtofl+3,w
  1449  021F  1283               	bcf	3,5	;RP0=0, select bank0
  1450  0220  1303               	bcf	3,6	;RP1=0, select bank0
  1451  0221  00A7               	movwf	___fldiv@b+3
  1452  0222  0872               	movf	?___xxtofl+2,w
  1453  0223  00A6               	movwf	___fldiv@b+2
  1454  0224  0871               	movf	?___xxtofl+1,w
  1455  0225  00A5               	movwf	___fldiv@b+1
  1456  0226  0870               	movf	?___xxtofl,w
  1457  0227  00A4               	movwf	___fldiv@b
  1458  0228  3044               	movlw	68
  1459  0229  00A3               	movwf	___fldiv@a+3
  1460  022A  307F               	movlw	127
  1461  022B  00A2               	movwf	___fldiv@a+2
  1462  022C  30C0               	movlw	192
  1463  022D  00A1               	movwf	___fldiv@a+1
  1464  022E  3000               	movlw	0
  1465  022F  00A0               	movwf	___fldiv@a
  1466  0230  120A  118A  22B5  120A  118A  	fcall	___fldiv
  1467  0235  1283               	bcf	3,5	;RP0=0, select bank0
  1468  0236  1303               	bcf	3,6	;RP1=0, select bank0
  1469  0237  0823               	movf	?___fldiv+3,w
  1470  0238  00C1               	movwf	___flmul@a+3
  1471  0239  0822               	movf	?___fldiv+2,w
  1472  023A  00C0               	movwf	___flmul@a+2
  1473  023B  0821               	movf	?___fldiv+1,w
  1474  023C  00BF               	movwf	___flmul@a+1
  1475  023D  0820               	movf	?___fldiv,w
  1476  023E  00BE               	movwf	___flmul@a
  1477  023F  3043               	movlw	67
  1478  0240  00BD               	movwf	___flmul@b+3
  1479  0241  30FA               	movlw	250
  1480  0242  00BC               	movwf	___flmul@b+2
  1481  0243  3000               	movlw	0
  1482  0244  00BB               	movwf	___flmul@b+1
  1483  0245  3000               	movlw	0
  1484  0246  00BA               	movwf	___flmul@b
  1485  0247  120A  118A  2492  120A  118A  	fcall	___flmul
  1486  024C  1283               	bcf	3,5	;RP0=0, select bank0
  1487  024D  1303               	bcf	3,6	;RP1=0, select bank0
  1488  024E  083D               	movf	?___flmul+3,w
  1489  024F  00D7               	movwf	___fltol@f1+3
  1490  0250  083C               	movf	?___flmul+2,w
  1491  0251  00D6               	movwf	___fltol@f1+2
  1492  0252  083B               	movf	?___flmul+1,w
  1493  0253  00D5               	movwf	___fltol@f1+1
  1494  0254  083A               	movf	?___flmul,w
  1495  0255  00D4               	movwf	___fltol@f1
  1496  0256  120A  158A  25BF  120A  118A  	fcall	___fltol
  1497  025B  1283               	bcf	3,5	;RP0=0, select bank0
  1498  025C  1303               	bcf	3,6	;RP1=0, select bank0
  1499  025D  0857               	movf	?___fltol+3,w
  1500  025E  00EA               	movwf	pwmDuty@duty+3
  1501  025F  0856               	movf	?___fltol+2,w
  1502  0260  00E9               	movwf	pwmDuty@duty+2
  1503  0261  0855               	movf	?___fltol+1,w
  1504  0262  00E8               	movwf	pwmDuty@duty+1
  1505  0263  0854               	movf	?___fltol,w
  1506  0264  00E7               	movwf	pwmDuty@duty
  1507                           
  1508                           ;./pwm.h: 28:         switch (channel) {
  1509  0265  2AA4               	goto	l2036
  1510  0266                     l86:	
  1511                           ;./pwm.h: 30:             case 1:
  1512                           
  1513                           
  1514                           ;./pwm.h: 31:                 CCP1X = duty & 1;
  1515  0266  1867               	btfsc	pwmDuty@duty,0
  1516  0267  2A69               	goto	u2781
  1517  0268  2A6D               	goto	u2780
  1518  0269                     u2781:	
  1519  0269  1283               	bcf	3,5	;RP0=0, select bank0
  1520  026A  1303               	bcf	3,6	;RP1=0, select bank0
  1521  026B  1697               	bsf	23,5	;volatile
  1522  026C  2A70               	goto	u2794
  1523  026D                     u2780:	
  1524  026D  1283               	bcf	3,5	;RP0=0, select bank0
  1525  026E  1303               	bcf	3,6	;RP1=0, select bank0
  1526  026F  1297               	bcf	23,5	;volatile
  1527  0270                     u2794:	
  1528                           
  1529                           ;./pwm.h: 32:                 CCP1Y = duty & 2;
  1530  0270  1217               	bcf	23,4	;volatile
  1531  0271                     l2030:	
  1532                           
  1533                           ;./pwm.h: 33:                 CCPR1L = duty >> 2;
  1534  0271  0867               	movf	pwmDuty@duty,w
  1535  0272  00E2               	movwf	??_pwmDuty
  1536  0273  0868               	movf	pwmDuty@duty+1,w
  1537  0274  00E3               	movwf	??_pwmDuty+1
  1538  0275  0869               	movf	pwmDuty@duty+2,w
  1539  0276  00E4               	movwf	??_pwmDuty+2
  1540  0277  086A               	movf	pwmDuty@duty+3,w
  1541  0278  00E5               	movwf	??_pwmDuty+3
  1542  0279  3002               	movlw	2
  1543  027A  00E6               	movwf	??_pwmDuty+4
  1544  027B                     u2805:	
  1545  027B  0D65               	rlf	??_pwmDuty+3,w
  1546  027C  0CE5               	rrf	??_pwmDuty+3,f
  1547  027D  0CE4               	rrf	??_pwmDuty+2,f
  1548  027E  0CE3               	rrf	??_pwmDuty+1,f
  1549  027F  0CE2               	rrf	??_pwmDuty,f
  1550  0280                     u2800:	
  1551  0280  0BE6               	decfsz	??_pwmDuty+4,f
  1552  0281  2A7B               	goto	u2805
  1553  0282  0862               	movf	??_pwmDuty,w
  1554  0283  0095               	movwf	21	;volatile
  1555                           
  1556                           ;./pwm.h: 34:                 break;
  1557  0284  2AB4               	goto	l89
  1558  0285                     l88:	
  1559                           ;./pwm.h: 36:             case 2:
  1560                           
  1561                           
  1562                           ;./pwm.h: 37:                 CCP2X = duty & 1;
  1563  0285  1867               	btfsc	pwmDuty@duty,0
  1564  0286  2A88               	goto	u2811
  1565  0287  2A8C               	goto	u2810
  1566  0288                     u2811:	
  1567  0288  1283               	bcf	3,5	;RP0=0, select bank0
  1568  0289  1303               	bcf	3,6	;RP1=0, select bank0
  1569  028A  169D               	bsf	29,5	;volatile
  1570  028B  2A8F               	goto	u2824
  1571  028C                     u2810:	
  1572  028C  1283               	bcf	3,5	;RP0=0, select bank0
  1573  028D  1303               	bcf	3,6	;RP1=0, select bank0
  1574  028E  129D               	bcf	29,5	;volatile
  1575  028F                     u2824:	
  1576                           
  1577                           ;./pwm.h: 38:                 CCP2Y = duty & 2;
  1578  028F  121D               	bcf	29,4	;volatile
  1579  0290                     l2032:	
  1580                           
  1581                           ;./pwm.h: 39:                 CCPR2L = duty >> 2;
  1582  0290  0867               	movf	pwmDuty@duty,w
  1583  0291  00E2               	movwf	??_pwmDuty
  1584  0292  0868               	movf	pwmDuty@duty+1,w
  1585  0293  00E3               	movwf	??_pwmDuty+1
  1586  0294  0869               	movf	pwmDuty@duty+2,w
  1587  0295  00E4               	movwf	??_pwmDuty+2
  1588  0296  086A               	movf	pwmDuty@duty+3,w
  1589  0297  00E5               	movwf	??_pwmDuty+3
  1590  0298  3002               	movlw	2
  1591  0299  00E6               	movwf	??_pwmDuty+4
  1592  029A                     u2835:	
  1593  029A  0D65               	rlf	??_pwmDuty+3,w
  1594  029B  0CE5               	rrf	??_pwmDuty+3,f
  1595  029C  0CE4               	rrf	??_pwmDuty+2,f
  1596  029D  0CE3               	rrf	??_pwmDuty+1,f
  1597  029E  0CE2               	rrf	??_pwmDuty,f
  1598  029F                     u2830:	
  1599  029F  0BE6               	decfsz	??_pwmDuty+4,f
  1600  02A0  2A9A               	goto	u2835
  1601  02A1  0862               	movf	??_pwmDuty,w
  1602  02A2  009B               	movwf	27	;volatile
  1603                           
  1604                           ;./pwm.h: 40:                 break;
  1605  02A3  2AB4               	goto	l89
  1606  02A4                     l2036:	
  1607  02A4  0861               	movf	pwmDuty@channel,w
  1608  02A5  00E2               	movwf	??_pwmDuty
  1609  02A6  01E3               	clrf	??_pwmDuty+1
  1610                           
  1611                           ; Switch on 2 bytes has been partitioned into a top level switch of size 1, and 1 sub-sw
      +                          itches
  1612                           ; Switch size 1, requested type "simple"
  1613                           ; Number of cases is 1, Range of values is 0 to 0
  1614                           ; switch strategies available:
  1615                           ; Name         Instructions Cycles
  1616                           ; simple_byte            4     3 (average)
  1617                           ; direct_byte           11     8 (fixed)
  1618                           ; jumptable            260     6 (fixed)
  1619                           ;	Chosen strategy is simple_byte
  1620  02A7  0863               	movf	??_pwmDuty+1,w
  1621  02A8  3A00               	xorlw	0	; case 0
  1622  02A9  1903               	skipnz
  1623  02AA  2AAC               	goto	l2290
  1624  02AB  2AB4               	goto	l89
  1625  02AC                     l2290:	
  1626                           
  1627                           ; Switch size 1, requested type "simple"
  1628                           ; Number of cases is 2, Range of values is 1 to 2
  1629                           ; switch strategies available:
  1630                           ; Name         Instructions Cycles
  1631                           ; simple_byte            7     4 (average)
  1632                           ; direct_byte           17    11 (fixed)
  1633                           ; jumptable            263     9 (fixed)
  1634                           ;	Chosen strategy is simple_byte
  1635  02AC  0862               	movf	??_pwmDuty,w
  1636  02AD  3A01               	xorlw	1	; case 1
  1637  02AE  1903               	skipnz
  1638  02AF  2A66               	goto	l86
  1639  02B0  3A03               	xorlw	3	; case 2
  1640  02B1  1903               	skipnz
  1641  02B2  2A85               	goto	l88
  1642  02B3  2AB4               	goto	l89
  1643  02B4                     l89:	
  1644  02B4  0008               	return
  1645  02B5                     __end_of_pwmDuty:	
  1646                           
  1647                           	psect	text4
  1648  0F58                     __ptext4:	
  1649 ;; *************** function _map *****************
  1650 ;; Defined at:
  1651 ;;		line 16 in file "./pwm.h"
  1652 ;; Parameters:    Size  Location     Type
  1653 ;;  x               4   14[BANK0 ] long 
  1654 ;;  in_min          4   18[BANK0 ] long 
  1655 ;;  in_max          4   22[BANK0 ] long 
  1656 ;;  out_min         4   26[BANK0 ] long 
  1657 ;;  out_max         4   30[BANK0 ] long 
  1658 ;; Auto vars:     Size  Location     Type
  1659 ;;		None
  1660 ;; Return value:  Size  Location     Type
  1661 ;;                  4   14[BANK0 ] long 
  1662 ;; Registers used:
  1663 ;;		wreg, status,2, status,0, pclath, cstack
  1664 ;; Tracked objects:
  1665 ;;		On entry : 0/0
  1666 ;;		On exit  : 0/0
  1667 ;;		Unchanged: 0/0
  1668 ;; Data sizes:     COMMON   BANK0   BANK1   BANK3   BANK2
  1669 ;;      Params:         0      20       0       0       0
  1670 ;;      Locals:         0       0       0       0       0
  1671 ;;      Temps:          0      16       0       0       0
  1672 ;;      Totals:         0      36       0       0       0
  1673 ;;Total ram usage:       36 bytes
  1674 ;; Hardware stack levels used:    1
  1675 ;; Hardware stack levels required when called:    1
  1676 ;; This function calls:
  1677 ;;		___aldiv
  1678 ;;		___lmul
  1679 ;; This function is called by:
  1680 ;;		_pwmDuty
  1681 ;; This function uses a non-reentrant model
  1682 ;;
  1683                           
  1684                           
  1685                           ;psect for function _map
  1686  0F58                     _map:	
  1687  0F58                     l1608:	
  1688                           ;incstack = 0
  1689                           ; Regs used in _map: [wreg+status,2+status,0+pclath+cstack]
  1690                           
  1691                           
  1692                           ;./pwm.h: 17:     return (x - in_min) * (out_max - out_min) / (in_max - in_min) + out_mi
      +                          n;
  1693  0F58  1283               	bcf	3,5	;RP0=0, select bank0
  1694  0F59  1303               	bcf	3,6	;RP1=0, select bank0
  1695  0F5A  0836               	movf	map@in_max,w
  1696  0F5B  00C2               	movwf	??_map
  1697  0F5C  0837               	movf	map@in_max+1,w
  1698  0F5D  00C3               	movwf	??_map+1
  1699  0F5E  0838               	movf	map@in_max+2,w
  1700  0F5F  00C4               	movwf	??_map+2
  1701  0F60  0839               	movf	map@in_max+3,w
  1702  0F61  00C5               	movwf	??_map+3
  1703  0F62  0832               	movf	map@in_min,w
  1704  0F63  02C2               	subwf	??_map,f
  1705  0F64  0833               	movf	map@in_min+1,w
  1706  0F65  1C03               	skipc
  1707  0F66  0F33               	incfsz	map@in_min+1,w
  1708  0F67  2F69               	goto	u1701
  1709  0F68  2F6A               	goto	u1702
  1710  0F69                     u1701:	
  1711  0F69  02C3               	subwf	??_map+1,f
  1712  0F6A                     u1702:	
  1713  0F6A  0834               	movf	map@in_min+2,w
  1714  0F6B  1C03               	skipc
  1715  0F6C  0F34               	incfsz	map@in_min+2,w
  1716  0F6D  2F6F               	goto	u1703
  1717  0F6E  2F70               	goto	u1704
  1718  0F6F                     u1703:	
  1719  0F6F  02C4               	subwf	??_map+2,f
  1720  0F70                     u1704:	
  1721  0F70  0835               	movf	map@in_min+3,w
  1722  0F71  1C03               	skipc
  1723  0F72  0F35               	incfsz	map@in_min+3,w
  1724  0F73  2F75               	goto	u1705
  1725  0F74  2F76               	goto	u1706
  1726  0F75                     u1705:	
  1727  0F75  02C5               	subwf	??_map+3,f
  1728  0F76                     u1706:	
  1729  0F76  0845               	movf	??_map+3,w
  1730  0F77  00A3               	movwf	___aldiv@divisor+3
  1731  0F78  0844               	movf	??_map+2,w
  1732  0F79  00A2               	movwf	___aldiv@divisor+2
  1733  0F7A  0843               	movf	??_map+1,w
  1734  0F7B  00A1               	movwf	___aldiv@divisor+1
  1735  0F7C  0842               	movf	??_map,w
  1736  0F7D  00A0               	movwf	___aldiv@divisor
  1737  0F7E  082E               	movf	map@x,w
  1738  0F7F  00C6               	movwf	??_map+4
  1739  0F80  082F               	movf	map@x+1,w
  1740  0F81  00C7               	movwf	??_map+5
  1741  0F82  0830               	movf	map@x+2,w
  1742  0F83  00C8               	movwf	??_map+6
  1743  0F84  0831               	movf	map@x+3,w
  1744  0F85  00C9               	movwf	??_map+7
  1745  0F86  0832               	movf	map@in_min,w
  1746  0F87  02C6               	subwf	??_map+4,f
  1747  0F88  0833               	movf	map@in_min+1,w
  1748  0F89  1C03               	skipc
  1749  0F8A  0F33               	incfsz	map@in_min+1,w
  1750  0F8B  2F8D               	goto	u1711
  1751  0F8C  2F8E               	goto	u1712
  1752  0F8D                     u1711:	
  1753  0F8D  02C7               	subwf	??_map+5,f
  1754  0F8E                     u1712:	
  1755  0F8E  0834               	movf	map@in_min+2,w
  1756  0F8F  1C03               	skipc
  1757  0F90  0F34               	incfsz	map@in_min+2,w
  1758  0F91  2F93               	goto	u1713
  1759  0F92  2F94               	goto	u1714
  1760  0F93                     u1713:	
  1761  0F93  02C8               	subwf	??_map+6,f
  1762  0F94                     u1714:	
  1763  0F94  0835               	movf	map@in_min+3,w
  1764  0F95  1C03               	skipc
  1765  0F96  0F35               	incfsz	map@in_min+3,w
  1766  0F97  2F99               	goto	u1715
  1767  0F98  2F9A               	goto	u1716
  1768  0F99                     u1715:	
  1769  0F99  02C9               	subwf	??_map+7,f
  1770  0F9A                     u1716:	
  1771  0F9A  0849               	movf	??_map+7,w
  1772  0F9B  00F3               	movwf	___lmul@multiplier+3
  1773  0F9C  0848               	movf	??_map+6,w
  1774  0F9D  00F2               	movwf	___lmul@multiplier+2
  1775  0F9E  0847               	movf	??_map+5,w
  1776  0F9F  00F1               	movwf	___lmul@multiplier+1
  1777  0FA0  0846               	movf	??_map+4,w
  1778  0FA1  00F0               	movwf	___lmul@multiplier
  1779  0FA2  083E               	movf	map@out_max,w
  1780  0FA3  00CA               	movwf	??_map+8
  1781  0FA4  083F               	movf	map@out_max+1,w
  1782  0FA5  00CB               	movwf	??_map+9
  1783  0FA6  0840               	movf	map@out_max+2,w
  1784  0FA7  00CC               	movwf	??_map+10
  1785  0FA8  0841               	movf	map@out_max+3,w
  1786  0FA9  00CD               	movwf	??_map+11
  1787  0FAA  083A               	movf	map@out_min,w
  1788  0FAB  02CA               	subwf	??_map+8,f
  1789  0FAC  083B               	movf	map@out_min+1,w
  1790  0FAD  1C03               	skipc
  1791  0FAE  0F3B               	incfsz	map@out_min+1,w
  1792  0FAF  2FB1               	goto	u1721
  1793  0FB0  2FB2               	goto	u1722
  1794  0FB1                     u1721:	
  1795  0FB1  02CB               	subwf	??_map+9,f
  1796  0FB2                     u1722:	
  1797  0FB2  083C               	movf	map@out_min+2,w
  1798  0FB3  1C03               	skipc
  1799  0FB4  0F3C               	incfsz	map@out_min+2,w
  1800  0FB5  2FB7               	goto	u1723
  1801  0FB6  2FB8               	goto	u1724
  1802  0FB7                     u1723:	
  1803  0FB7  02CC               	subwf	??_map+10,f
  1804  0FB8                     u1724:	
  1805  0FB8  083D               	movf	map@out_min+3,w
  1806  0FB9  1C03               	skipc
  1807  0FBA  0F3D               	incfsz	map@out_min+3,w
  1808  0FBB  2FBD               	goto	u1725
  1809  0FBC  2FBE               	goto	u1726
  1810  0FBD                     u1725:	
  1811  0FBD  02CD               	subwf	??_map+11,f
  1812  0FBE                     u1726:	
  1813  0FBE  084D               	movf	??_map+11,w
  1814  0FBF  00F7               	movwf	___lmul@multiplicand+3
  1815  0FC0  084C               	movf	??_map+10,w
  1816  0FC1  00F6               	movwf	___lmul@multiplicand+2
  1817  0FC2  084B               	movf	??_map+9,w
  1818  0FC3  00F5               	movwf	___lmul@multiplicand+1
  1819  0FC4  084A               	movf	??_map+8,w
  1820  0FC5  00F4               	movwf	___lmul@multiplicand
  1821  0FC6  120A  158A  24B9  120A  158A  	fcall	___lmul
  1822  0FCB  0873               	movf	?___lmul+3,w
  1823  0FCC  1283               	bcf	3,5	;RP0=0, select bank0
  1824  0FCD  1303               	bcf	3,6	;RP1=0, select bank0
  1825  0FCE  00A7               	movwf	___aldiv@dividend+3
  1826  0FCF  0872               	movf	?___lmul+2,w
  1827  0FD0  00A6               	movwf	___aldiv@dividend+2
  1828  0FD1  0871               	movf	?___lmul+1,w
  1829  0FD2  00A5               	movwf	___aldiv@dividend+1
  1830  0FD3  0870               	movf	?___lmul,w
  1831  0FD4  00A4               	movwf	___aldiv@dividend
  1832  0FD5  120A  158A  26BB  120A  158A  	fcall	___aldiv
  1833  0FDA  1283               	bcf	3,5	;RP0=0, select bank0
  1834  0FDB  1303               	bcf	3,6	;RP1=0, select bank0
  1835  0FDC  0820               	movf	?___aldiv,w
  1836  0FDD  073A               	addwf	map@out_min,w
  1837  0FDE  00CE               	movwf	??_map+12
  1838  0FDF  3000               	movlw	0
  1839  0FE0  1803               	skipnc
  1840  0FE1  3001               	movlw	1
  1841  0FE2  0721               	addwf	?___aldiv+1,w
  1842  0FE3  01D0               	clrf	??_map+14
  1843  0FE4  1803               	skipnc
  1844  0FE5  0AD0               	incf	??_map+14,f
  1845  0FE6  073B               	addwf	map@out_min+1,w
  1846  0FE7  00CF               	movwf	??_map+13
  1847  0FE8  1803               	skipnc
  1848  0FE9  0AD0               	incf	??_map+14,f
  1849  0FEA  0822               	movf	?___aldiv+2,w
  1850  0FEB  0750               	addwf	??_map+14,w
  1851  0FEC  01D1               	clrf	??_map+15
  1852  0FED  1803               	skipnc
  1853  0FEE  0AD1               	incf	??_map+15,f
  1854  0FEF  073C               	addwf	map@out_min+2,w
  1855  0FF0  00D0               	movwf	??_map+14
  1856  0FF1  1803               	skipnc
  1857  0FF2  0AD1               	incf	??_map+15,f
  1858  0FF3  0823               	movf	?___aldiv+3,w
  1859  0FF4  0751               	addwf	??_map+15,w
  1860  0FF5  073D               	addwf	map@out_min+3,w
  1861  0FF6  00D1               	movwf	??_map+15
  1862  0FF7  0851               	movf	??_map+15,w
  1863  0FF8  00B1               	movwf	?_map+3
  1864  0FF9  0850               	movf	??_map+14,w
  1865  0FFA  00B0               	movwf	?_map+2
  1866  0FFB  084F               	movf	??_map+13,w
  1867  0FFC  00AF               	movwf	?_map+1
  1868  0FFD  084E               	movf	??_map+12,w
  1869  0FFE  00AE               	movwf	?_map
  1870  0FFF                     l81:	
  1871  0FFF  0008               	return
  1872  1000                     __end_of_map:	
  1873                           
  1874                           	psect	text5
  1875  0CB9                     __ptext5:	
  1876 ;; *************** function ___lmul *****************
  1877 ;; Defined at:
  1878 ;;		line 15 in file "C:\Program Files (x86)\Microchip\xc8\v2.10\pic\sources\c90\common\Umul32.c"
  1879 ;; Parameters:    Size  Location     Type
  1880 ;;  multiplier      4    0[COMMON] unsigned long 
  1881 ;;  multiplicand    4    4[COMMON] unsigned long 
  1882 ;; Auto vars:     Size  Location     Type
  1883 ;;  product         4    9[COMMON] unsigned long 
  1884 ;; Return value:  Size  Location     Type
  1885 ;;                  4    0[COMMON] unsigned long 
  1886 ;; Registers used:
  1887 ;;		wreg, status,2, status,0
  1888 ;; Tracked objects:
  1889 ;;		On entry : 0/0
  1890 ;;		On exit  : 0/0
  1891 ;;		Unchanged: 0/0
  1892 ;; Data sizes:     COMMON   BANK0   BANK1   BANK3   BANK2
  1893 ;;      Params:         8       0       0       0       0
  1894 ;;      Locals:         4       0       0       0       0
  1895 ;;      Temps:          1       0       0       0       0
  1896 ;;      Totals:        13       0       0       0       0
  1897 ;;Total ram usage:       13 bytes
  1898 ;; Hardware stack levels used:    1
  1899 ;; This function calls:
  1900 ;;		Nothing
  1901 ;; This function is called by:
  1902 ;;		_map
  1903 ;; This function uses a non-reentrant model
  1904 ;;
  1905                           
  1906                           
  1907                           ;psect for function ___lmul
  1908  0CB9                     ___lmul:	
  1909  0CB9                     l1540:	
  1910                           ;incstack = 0
  1911                           ; Regs used in ___lmul: [wreg+status,2+status,0]
  1912                           
  1913  0CB9  3000               	movlw	0
  1914  0CBA  00FC               	movwf	___lmul@product+3
  1915  0CBB  3000               	movlw	0
  1916  0CBC  00FB               	movwf	___lmul@product+2
  1917  0CBD  3000               	movlw	0
  1918  0CBE  00FA               	movwf	___lmul@product+1
  1919  0CBF  3000               	movlw	0
  1920  0CC0  00F9               	movwf	___lmul@product
  1921  0CC1                     l1542:	
  1922  0CC1  1C70               	btfss	___lmul@multiplier,0
  1923  0CC2  2CC4               	goto	u1521
  1924  0CC3  2CC5               	goto	u1520
  1925  0CC4                     u1521:	
  1926  0CC4  2CDC               	goto	l1546
  1927  0CC5                     u1520:	
  1928  0CC5                     l1544:	
  1929  0CC5  0874               	movf	___lmul@multiplicand,w
  1930  0CC6  07F9               	addwf	___lmul@product,f
  1931  0CC7  0875               	movf	___lmul@multiplicand+1,w
  1932  0CC8  1103               	clrz
  1933  0CC9  1803               	skipnc
  1934  0CCA  3E01               	addlw	1
  1935  0CCB  1903               	skipnz
  1936  0CCC  2CCE               	goto	u1531
  1937  0CCD  07FA               	addwf	___lmul@product+1,f
  1938  0CCE                     u1531:	
  1939  0CCE  0876               	movf	___lmul@multiplicand+2,w
  1940  0CCF  1103               	clrz
  1941  0CD0  1803               	skipnc
  1942  0CD1  3E01               	addlw	1
  1943  0CD2  1903               	skipnz
  1944  0CD3  2CD5               	goto	u1532
  1945  0CD4  07FB               	addwf	___lmul@product+2,f
  1946  0CD5                     u1532:	
  1947  0CD5  0877               	movf	___lmul@multiplicand+3,w
  1948  0CD6  1103               	clrz
  1949  0CD7  1803               	skipnc
  1950  0CD8  3E01               	addlw	1
  1951  0CD9  1903               	skipnz
  1952  0CDA  2CDC               	goto	u1533
  1953  0CDB  07FC               	addwf	___lmul@product+3,f
  1954  0CDC                     u1533:	
  1955  0CDC                     l1546:	
  1956  0CDC  3001               	movlw	1
  1957  0CDD  00F8               	movwf	??___lmul
  1958  0CDE                     u1545:	
  1959  0CDE  1003               	clrc
  1960  0CDF  0DF4               	rlf	___lmul@multiplicand,f
  1961  0CE0  0DF5               	rlf	___lmul@multiplicand+1,f
  1962  0CE1  0DF6               	rlf	___lmul@multiplicand+2,f
  1963  0CE2  0DF7               	rlf	___lmul@multiplicand+3,f
  1964  0CE3  0BF8               	decfsz	??___lmul,f
  1965  0CE4  2CDE               	goto	u1545
  1966  0CE5                     l1548:	
  1967  0CE5  3001               	movlw	1
  1968  0CE6                     u1555:	
  1969  0CE6  1003               	clrc
  1970  0CE7  0CF3               	rrf	___lmul@multiplier+3,f
  1971  0CE8  0CF2               	rrf	___lmul@multiplier+2,f
  1972  0CE9  0CF1               	rrf	___lmul@multiplier+1,f
  1973  0CEA  0CF0               	rrf	___lmul@multiplier,f
  1974  0CEB  3EFF               	addlw	-1
  1975  0CEC  1D03               	skipz
  1976  0CED  2CE6               	goto	u1555
  1977  0CEE  0873               	movf	___lmul@multiplier+3,w
  1978  0CEF  0472               	iorwf	___lmul@multiplier+2,w
  1979  0CF0  0471               	iorwf	___lmul@multiplier+1,w
  1980  0CF1  0470               	iorwf	___lmul@multiplier,w
  1981  0CF2  1D03               	skipz
  1982  0CF3  2CF5               	goto	u1561
  1983  0CF4  2CF6               	goto	u1560
  1984  0CF5                     u1561:	
  1985  0CF5  2CC1               	goto	l1542
  1986  0CF6                     u1560:	
  1987  0CF6                     l1550:	
  1988  0CF6  087C               	movf	___lmul@product+3,w
  1989  0CF7  00F3               	movwf	?___lmul+3
  1990  0CF8  087B               	movf	___lmul@product+2,w
  1991  0CF9  00F2               	movwf	?___lmul+2
  1992  0CFA  087A               	movf	___lmul@product+1,w
  1993  0CFB  00F1               	movwf	?___lmul+1
  1994  0CFC  0879               	movf	___lmul@product,w
  1995  0CFD  00F0               	movwf	?___lmul
  1996  0CFE                     l294:	
  1997  0CFE  0008               	return
  1998  0CFF                     __end_of___lmul:	
  1999                           
  2000                           	psect	text6
  2001  0023                     __ptext6:	
  2002 ;; *************** function ___xxtofl *****************
  2003 ;; Defined at:
  2004 ;;		line 10 in file "C:\Program Files (x86)\Microchip\xc8\v2.10\pic\sources\c90\common\xxtofl.c"
  2005 ;; Parameters:    Size  Location     Type
  2006 ;;  sign            1    wreg     unsigned char 
  2007 ;;  val             4    0[COMMON] long 
  2008 ;; Auto vars:     Size  Location     Type
  2009 ;;  sign            1    8[COMMON] unsigned char 
  2010 ;;  arg             4   10[COMMON] unsigned long 
  2011 ;;  exp             1    9[COMMON] unsigned char 
  2012 ;; Return value:  Size  Location     Type
  2013 ;;                  4    0[COMMON] unsigned char 
  2014 ;; Registers used:
  2015 ;;		wreg, status,2, status,0
  2016 ;; Tracked objects:
  2017 ;;		On entry : 0/0
  2018 ;;		On exit  : 0/0
  2019 ;;		Unchanged: 0/0
  2020 ;; Data sizes:     COMMON   BANK0   BANK1   BANK3   BANK2
  2021 ;;      Params:         4       0       0       0       0
  2022 ;;      Locals:         6       0       0       0       0
  2023 ;;      Temps:          4       0       0       0       0
  2024 ;;      Totals:        14       0       0       0       0
  2025 ;;Total ram usage:       14 bytes
  2026 ;; Hardware stack levels used:    1
  2027 ;; This function calls:
  2028 ;;		Nothing
  2029 ;; This function is called by:
  2030 ;;		_pwmDuty
  2031 ;; This function uses a non-reentrant model
  2032 ;;
  2033                           
  2034                           
  2035                           ;psect for function ___xxtofl
  2036  0023                     ___xxtofl:	
  2037                           
  2038                           ;incstack = 0
  2039                           ; Regs used in ___xxtofl: [wreg+status,2+status,0]
  2040                           ;___xxtofl@sign stored from wreg
  2041  0023  00F8               	movwf	___xxtofl@sign
  2042  0024                     l1980:	
  2043  0024  0878               	movf	___xxtofl@sign,w
  2044  0025  1903               	btfsc	3,2
  2045  0026  2828               	goto	u2631
  2046  0027  2829               	goto	u2630
  2047  0028                     u2631:	
  2048  0028  283D               	goto	l1986
  2049  0029                     u2630:	
  2050  0029                     l1982:	
  2051  0029  1FF3               	btfss	___xxtofl@val+3,7
  2052  002A  282C               	goto	u2641
  2053  002B  282D               	goto	u2640
  2054  002C                     u2641:	
  2055  002C  283D               	goto	l1986
  2056  002D                     u2640:	
  2057  002D                     l1984:	
  2058  002D  0970               	comf	___xxtofl@val,w
  2059  002E  00FA               	movwf	___xxtofl@arg
  2060  002F  0971               	comf	___xxtofl@val+1,w
  2061  0030  00FB               	movwf	___xxtofl@arg+1
  2062  0031  0972               	comf	___xxtofl@val+2,w
  2063  0032  00FC               	movwf	___xxtofl@arg+2
  2064  0033  0973               	comf	___xxtofl@val+3,w
  2065  0034  00FD               	movwf	___xxtofl@arg+3
  2066  0035  0AFA               	incf	___xxtofl@arg,f
  2067  0036  1903               	skipnz
  2068  0037  0AFB               	incf	___xxtofl@arg+1,f
  2069  0038  1903               	skipnz
  2070  0039  0AFC               	incf	___xxtofl@arg+2,f
  2071  003A  1903               	skipnz
  2072  003B  0AFD               	incf	___xxtofl@arg+3,f
  2073  003C  2845               	goto	l707
  2074  003D                     l1986:	
  2075  003D  0873               	movf	___xxtofl@val+3,w
  2076  003E  00FD               	movwf	___xxtofl@arg+3
  2077  003F  0872               	movf	___xxtofl@val+2,w
  2078  0040  00FC               	movwf	___xxtofl@arg+2
  2079  0041  0871               	movf	___xxtofl@val+1,w
  2080  0042  00FB               	movwf	___xxtofl@arg+1
  2081  0043  0870               	movf	___xxtofl@val,w
  2082  0044  00FA               	movwf	___xxtofl@arg
  2083  0045                     l707:	
  2084  0045  0873               	movf	___xxtofl@val+3,w
  2085  0046  0472               	iorwf	___xxtofl@val+2,w
  2086  0047  0471               	iorwf	___xxtofl@val+1,w
  2087  0048  0470               	iorwf	___xxtofl@val,w
  2088  0049  1D03               	skipz
  2089  004A  284C               	goto	u2651
  2090  004B  284D               	goto	u2650
  2091  004C                     u2651:	
  2092  004C  2856               	goto	l1992
  2093  004D                     u2650:	
  2094  004D                     l1988:	
  2095  004D  3000               	movlw	0
  2096  004E  00F3               	movwf	?___xxtofl+3
  2097  004F  3000               	movlw	0
  2098  0050  00F2               	movwf	?___xxtofl+2
  2099  0051  3000               	movlw	0
  2100  0052  00F1               	movwf	?___xxtofl+1
  2101  0053  3000               	movlw	0
  2102  0054  00F0               	movwf	?___xxtofl
  2103  0055  28DC               	goto	l709
  2104  0056                     l1992:	
  2105  0056  3096               	movlw	150
  2106  0057  00F4               	movwf	??___xxtofl
  2107  0058  0874               	movf	??___xxtofl,w
  2108  0059  00F9               	movwf	___xxtofl@exp
  2109  005A  2868               	goto	l1996
  2110  005B                     l1994:	
  2111  005B  3001               	movlw	1
  2112  005C  00F4               	movwf	??___xxtofl
  2113  005D  0874               	movf	??___xxtofl,w
  2114  005E  07F9               	addwf	___xxtofl@exp,f
  2115  005F  3001               	movlw	1
  2116  0060                     u2665:	
  2117  0060  1003               	clrc
  2118  0061  0CFD               	rrf	___xxtofl@arg+3,f
  2119  0062  0CFC               	rrf	___xxtofl@arg+2,f
  2120  0063  0CFB               	rrf	___xxtofl@arg+1,f
  2121  0064  0CFA               	rrf	___xxtofl@arg,f
  2122  0065  3EFF               	addlw	-1
  2123  0066  1D03               	skipz
  2124  0067  2860               	goto	u2665
  2125  0068                     l1996:	
  2126  0068  30FE               	movlw	254
  2127  0069  057D               	andwf	___xxtofl@arg+3,w
  2128  006A  1D03               	btfss	3,2
  2129  006B  286D               	goto	u2671
  2130  006C  286E               	goto	u2670
  2131  006D                     u2671:	
  2132  006D  285B               	goto	l1994
  2133  006E                     u2670:	
  2134  006E  288A               	goto	l713
  2135  006F                     l1998:	
  2136  006F  3001               	movlw	1
  2137  0070  00F4               	movwf	??___xxtofl
  2138  0071  0874               	movf	??___xxtofl,w
  2139  0072  07F9               	addwf	___xxtofl@exp,f
  2140  0073                     l2000:	
  2141  0073  3001               	movlw	1
  2142  0074  07FA               	addwf	___xxtofl@arg,f
  2143  0075  3000               	movlw	0
  2144  0076  1803               	skipnc
  2145  0077  3001               	movlw	1
  2146  0078  07FB               	addwf	___xxtofl@arg+1,f
  2147  0079  3000               	movlw	0
  2148  007A  1803               	skipnc
  2149  007B  3001               	movlw	1
  2150  007C  07FC               	addwf	___xxtofl@arg+2,f
  2151  007D  3000               	movlw	0
  2152  007E  1803               	skipnc
  2153  007F  3001               	movlw	1
  2154  0080  07FD               	addwf	___xxtofl@arg+3,f
  2155  0081                     l2002:	
  2156  0081  3001               	movlw	1
  2157  0082                     u2685:	
  2158  0082  1003               	clrc
  2159  0083  0CFD               	rrf	___xxtofl@arg+3,f
  2160  0084  0CFC               	rrf	___xxtofl@arg+2,f
  2161  0085  0CFB               	rrf	___xxtofl@arg+1,f
  2162  0086  0CFA               	rrf	___xxtofl@arg,f
  2163  0087  3EFF               	addlw	-1
  2164  0088  1D03               	skipz
  2165  0089  2882               	goto	u2685
  2166  008A                     l713:	
  2167  008A  30FF               	movlw	255
  2168  008B  057D               	andwf	___xxtofl@arg+3,w
  2169  008C  1D03               	btfss	3,2
  2170  008D  288F               	goto	u2691
  2171  008E  2890               	goto	u2690
  2172  008F                     u2691:	
  2173  008F  286F               	goto	l1998
  2174  0090                     u2690:	
  2175  0090  289C               	goto	l2006
  2176  0091                     l2004:	
  2177  0091  3001               	movlw	1
  2178  0092  02F9               	subwf	___xxtofl@exp,f
  2179  0093  3001               	movlw	1
  2180  0094  00F4               	movwf	??___xxtofl
  2181  0095                     u2705:	
  2182  0095  1003               	clrc
  2183  0096  0DFA               	rlf	___xxtofl@arg,f
  2184  0097  0DFB               	rlf	___xxtofl@arg+1,f
  2185  0098  0DFC               	rlf	___xxtofl@arg+2,f
  2186  0099  0DFD               	rlf	___xxtofl@arg+3,f
  2187  009A  0BF4               	decfsz	??___xxtofl,f
  2188  009B  2895               	goto	u2705
  2189  009C                     l2006:	
  2190  009C  1BFC               	btfsc	___xxtofl@arg+2,7
  2191  009D  289F               	goto	u2711
  2192  009E  28A0               	goto	u2710
  2193  009F                     u2711:	
  2194  009F  28A6               	goto	l720
  2195  00A0                     u2710:	
  2196  00A0                     l2008:	
  2197  00A0  3002               	movlw	2
  2198  00A1  0279               	subwf	___xxtofl@exp,w
  2199  00A2  1803               	skipnc
  2200  00A3  28A5               	goto	u2721
  2201  00A4  28A6               	goto	u2720
  2202  00A5                     u2721:	
  2203  00A5  2891               	goto	l2004
  2204  00A6                     u2720:	
  2205  00A6                     l720:	
  2206  00A6  1879               	btfsc	___xxtofl@exp,0
  2207  00A7  28A9               	goto	u2731
  2208  00A8  28AA               	goto	u2730
  2209  00A9                     u2731:	
  2210  00A9  28B2               	goto	l721
  2211  00AA                     u2730:	
  2212  00AA                     l2010:	
  2213  00AA  30FF               	movlw	255
  2214  00AB  05FA               	andwf	___xxtofl@arg,f
  2215  00AC  30FF               	movlw	255
  2216  00AD  05FB               	andwf	___xxtofl@arg+1,f
  2217  00AE  307F               	movlw	127
  2218  00AF  05FC               	andwf	___xxtofl@arg+2,f
  2219  00B0  30FF               	movlw	255
  2220  00B1  05FD               	andwf	___xxtofl@arg+3,f
  2221  00B2                     l721:	
  2222  00B2  1003               	clrc
  2223  00B3  0CF9               	rrf	___xxtofl@exp,f
  2224  00B4                     l2012:	
  2225  00B4  0879               	movf	___xxtofl@exp,w
  2226  00B5  00F4               	movwf	??___xxtofl
  2227  00B6  01F5               	clrf	??___xxtofl+1
  2228  00B7  01F6               	clrf	??___xxtofl+2
  2229  00B8  01F7               	clrf	??___xxtofl+3
  2230  00B9  3018               	movlw	24
  2231  00BA                     u2745:	
  2232  00BA  1003               	clrc
  2233  00BB  0DF4               	rlf	??___xxtofl,f
  2234  00BC  0DF5               	rlf	??___xxtofl+1,f
  2235  00BD  0DF6               	rlf	??___xxtofl+2,f
  2236  00BE  0DF7               	rlf	??___xxtofl+3,f
  2237  00BF                     u2740:	
  2238  00BF  3EFF               	addlw	-1
  2239  00C0  1D03               	skipz
  2240  00C1  28BA               	goto	u2745
  2241  00C2  0874               	movf	??___xxtofl,w
  2242  00C3  04FA               	iorwf	___xxtofl@arg,f
  2243  00C4  0875               	movf	??___xxtofl+1,w
  2244  00C5  04FB               	iorwf	___xxtofl@arg+1,f
  2245  00C6  0876               	movf	??___xxtofl+2,w
  2246  00C7  04FC               	iorwf	___xxtofl@arg+2,f
  2247  00C8  0877               	movf	??___xxtofl+3,w
  2248  00C9  04FD               	iorwf	___xxtofl@arg+3,f
  2249  00CA                     l2014:	
  2250  00CA  0878               	movf	___xxtofl@sign,w
  2251  00CB  1903               	btfsc	3,2
  2252  00CC  28CE               	goto	u2751
  2253  00CD  28CF               	goto	u2750
  2254  00CE                     u2751:	
  2255  00CE  28D4               	goto	l2020
  2256  00CF                     u2750:	
  2257  00CF                     l2016:	
  2258  00CF  1FF3               	btfss	___xxtofl@val+3,7
  2259  00D0  28D2               	goto	u2761
  2260  00D1  28D3               	goto	u2760
  2261  00D2                     u2761:	
  2262  00D2  28D4               	goto	l2020
  2263  00D3                     u2760:	
  2264  00D3                     l2018:	
  2265  00D3  17FD               	bsf	___xxtofl@arg+3,7
  2266  00D4                     l2020:	
  2267  00D4  087D               	movf	___xxtofl@arg+3,w
  2268  00D5  00F3               	movwf	?___xxtofl+3
  2269  00D6  087C               	movf	___xxtofl@arg+2,w
  2270  00D7  00F2               	movwf	?___xxtofl+2
  2271  00D8  087B               	movf	___xxtofl@arg+1,w
  2272  00D9  00F1               	movwf	?___xxtofl+1
  2273  00DA  087A               	movf	___xxtofl@arg,w
  2274  00DB  00F0               	movwf	?___xxtofl
  2275  00DC                     l709:	
  2276  00DC  0008               	return
  2277  00DD                     __end_of___xxtofl:	
  2278                           
  2279                           	psect	text7
  2280  0DBF                     __ptext7:	
  2281 ;; *************** function ___fltol *****************
  2282 ;; Defined at:
  2283 ;;		line 43 in file "C:\Program Files (x86)\Microchip\xc8\v2.10\pic\sources\c90\common\fltol.c"
  2284 ;; Parameters:    Size  Location     Type
  2285 ;;  f1              4   52[BANK0 ] unsigned char 
  2286 ;; Auto vars:     Size  Location     Type
  2287 ;;  exp1            1   62[BANK0 ] unsigned char 
  2288 ;;  sign1           1   61[BANK0 ] unsigned char 
  2289 ;; Return value:  Size  Location     Type
  2290 ;;                  4   52[BANK0 ] long 
  2291 ;; Registers used:
  2292 ;;		wreg, status,2, status,0
  2293 ;; Tracked objects:
  2294 ;;		On entry : 0/0
  2295 ;;		On exit  : 0/0
  2296 ;;		Unchanged: 0/0
  2297 ;; Data sizes:     COMMON   BANK0   BANK1   BANK3   BANK2
  2298 ;;      Params:         0       4       0       0       0
  2299 ;;      Locals:         0       2       0       0       0
  2300 ;;      Temps:          0       5       0       0       0
  2301 ;;      Totals:         0      11       0       0       0
  2302 ;;Total ram usage:       11 bytes
  2303 ;; Hardware stack levels used:    1
  2304 ;; This function calls:
  2305 ;;		Nothing
  2306 ;; This function is called by:
  2307 ;;		_pwmDuty
  2308 ;; This function uses a non-reentrant model
  2309 ;;
  2310                           
  2311                           
  2312                           ;psect for function ___fltol
  2313  0DBF                     ___fltol:	
  2314  0DBF                     l1614:	
  2315                           ;incstack = 0
  2316                           ; Regs used in ___fltol: [wreg+status,2+status,0]
  2317                           
  2318  0DBF  1003               	clrc
  2319  0DC0  1283               	bcf	3,5	;RP0=0, select bank0
  2320  0DC1  1303               	bcf	3,6	;RP1=0, select bank0
  2321  0DC2  0D56               	rlf	___fltol@f1+2,w
  2322  0DC3  0D57               	rlf	___fltol@f1+3,w
  2323  0DC4  00D8               	movwf	??___fltol
  2324  0DC5  0858               	movf	??___fltol,w
  2325  0DC6  00DE               	movwf	___fltol@exp1
  2326  0DC7  085E               	movf	___fltol@exp1,w
  2327  0DC8  1D03               	btfss	3,2
  2328  0DC9  2DCB               	goto	u1741
  2329  0DCA  2DCC               	goto	u1740
  2330  0DCB                     u1741:	
  2331  0DCB  2DD5               	goto	l1620
  2332  0DCC                     u1740:	
  2333  0DCC                     l1616:	
  2334  0DCC  3000               	movlw	0
  2335  0DCD  00D7               	movwf	?___fltol+3
  2336  0DCE  3000               	movlw	0
  2337  0DCF  00D6               	movwf	?___fltol+2
  2338  0DD0  3000               	movlw	0
  2339  0DD1  00D5               	movwf	?___fltol+1
  2340  0DD2  3000               	movlw	0
  2341  0DD3  00D4               	movwf	?___fltol
  2342  0DD4  2E3A               	goto	l466
  2343  0DD5                     l1620:	
  2344  0DD5  0854               	movf	___fltol@f1,w
  2345  0DD6  00D8               	movwf	??___fltol
  2346  0DD7  0855               	movf	___fltol@f1+1,w
  2347  0DD8  00D9               	movwf	??___fltol+1
  2348  0DD9  0856               	movf	___fltol@f1+2,w
  2349  0DDA  00DA               	movwf	??___fltol+2
  2350  0DDB  0857               	movf	___fltol@f1+3,w
  2351  0DDC  00DB               	movwf	??___fltol+3
  2352  0DDD  301F               	movlw	31
  2353  0DDE                     u1755:	
  2354  0DDE  1003               	clrc
  2355  0DDF  0CDB               	rrf	??___fltol+3,f
  2356  0DE0  0CDA               	rrf	??___fltol+2,f
  2357  0DE1  0CD9               	rrf	??___fltol+1,f
  2358  0DE2  0CD8               	rrf	??___fltol,f
  2359  0DE3                     u1750:	
  2360  0DE3  3EFF               	addlw	-1
  2361  0DE4  1D03               	skipz
  2362  0DE5  2DDE               	goto	u1755
  2363  0DE6  0858               	movf	??___fltol,w
  2364  0DE7  00DC               	movwf	??___fltol+4
  2365  0DE8  085C               	movf	??___fltol+4,w
  2366  0DE9  00DD               	movwf	___fltol@sign1
  2367  0DEA                     l1622:	
  2368  0DEA  17D6               	bsf	___fltol@f1+2,7
  2369  0DEB                     l1624:	
  2370  0DEB  30FF               	movlw	255
  2371  0DEC  05D4               	andwf	___fltol@f1,f
  2372  0DED  30FF               	movlw	255
  2373  0DEE  05D5               	andwf	___fltol@f1+1,f
  2374  0DEF  30FF               	movlw	255
  2375  0DF0  05D6               	andwf	___fltol@f1+2,f
  2376  0DF1  3000               	movlw	0
  2377  0DF2  05D7               	andwf	___fltol@f1+3,f
  2378  0DF3                     l1626:	
  2379  0DF3  3096               	movlw	150
  2380  0DF4  02DE               	subwf	___fltol@exp1,f
  2381  0DF5                     l1628:	
  2382  0DF5  1FDE               	btfss	___fltol@exp1,7
  2383  0DF6  2DF8               	goto	u1761
  2384  0DF7  2DF9               	goto	u1760
  2385  0DF8                     u1761:	
  2386  0DF8  2E13               	goto	l1638
  2387  0DF9                     u1760:	
  2388  0DF9                     l1630:	
  2389  0DF9  085E               	movf	___fltol@exp1,w
  2390  0DFA  3A80               	xorlw	128
  2391  0DFB  3E97               	addlw	151
  2392  0DFC  1803               	skipnc
  2393  0DFD  2DFF               	goto	u1771
  2394  0DFE  2E00               	goto	u1770
  2395  0DFF                     u1771:	
  2396  0DFF  2E01               	goto	l1636
  2397  0E00                     u1770:	
  2398  0E00  2DCC               	goto	l1616
  2399  0E01                     l1636:	
  2400  0E01  3001               	movlw	1
  2401  0E02                     u1785:	
  2402  0E02  1003               	clrc
  2403  0E03  0CD7               	rrf	___fltol@f1+3,f
  2404  0E04  0CD6               	rrf	___fltol@f1+2,f
  2405  0E05  0CD5               	rrf	___fltol@f1+1,f
  2406  0E06  0CD4               	rrf	___fltol@f1,f
  2407  0E07  3EFF               	addlw	-1
  2408  0E08  1D03               	skipz
  2409  0E09  2E02               	goto	u1785
  2410  0E0A  3001               	movlw	1
  2411  0E0B  00D8               	movwf	??___fltol
  2412  0E0C  0858               	movf	??___fltol,w
  2413  0E0D  07DE               	addwf	___fltol@exp1,f
  2414  0E0E  1D03               	btfss	3,2
  2415  0E0F  2E11               	goto	u1791
  2416  0E10  2E12               	goto	u1790
  2417  0E11                     u1791:	
  2418  0E11  2E01               	goto	l1636
  2419  0E12                     u1790:	
  2420  0E12  2E2A               	goto	l1646
  2421  0E13                     l1638:	
  2422  0E13  3020               	movlw	32
  2423  0E14  025E               	subwf	___fltol@exp1,w
  2424  0E15  1C03               	skipc
  2425  0E16  2E18               	goto	u1801
  2426  0E17  2E19               	goto	u1800
  2427  0E18                     u1801:	
  2428  0E18  2E25               	goto	l473
  2429  0E19                     u1800:	
  2430  0E19  2DCC               	goto	l1616
  2431  0E1A                     l1644:	
  2432  0E1A  3001               	movlw	1
  2433  0E1B  00D8               	movwf	??___fltol
  2434  0E1C                     u1815:	
  2435  0E1C  1003               	clrc
  2436  0E1D  0DD4               	rlf	___fltol@f1,f
  2437  0E1E  0DD5               	rlf	___fltol@f1+1,f
  2438  0E1F  0DD6               	rlf	___fltol@f1+2,f
  2439  0E20  0DD7               	rlf	___fltol@f1+3,f
  2440  0E21  0BD8               	decfsz	??___fltol,f
  2441  0E22  2E1C               	goto	u1815
  2442  0E23  3001               	movlw	1
  2443  0E24  02DE               	subwf	___fltol@exp1,f
  2444  0E25                     l473:	
  2445  0E25  085E               	movf	___fltol@exp1,w
  2446  0E26  1D03               	btfss	3,2
  2447  0E27  2E29               	goto	u1821
  2448  0E28  2E2A               	goto	u1820
  2449  0E29                     u1821:	
  2450  0E29  2E1A               	goto	l1644
  2451  0E2A                     u1820:	
  2452  0E2A                     l1646:	
  2453  0E2A  085D               	movf	___fltol@sign1,w
  2454  0E2B  1903               	btfsc	3,2
  2455  0E2C  2E2E               	goto	u1831
  2456  0E2D  2E2F               	goto	u1830
  2457  0E2E                     u1831:	
  2458  0E2E  2E3A               	goto	l476
  2459  0E2F                     u1830:	
  2460  0E2F                     l1648:	
  2461  0E2F  09D4               	comf	___fltol@f1,f
  2462  0E30  09D5               	comf	___fltol@f1+1,f
  2463  0E31  09D6               	comf	___fltol@f1+2,f
  2464  0E32  09D7               	comf	___fltol@f1+3,f
  2465  0E33  0AD4               	incf	___fltol@f1,f
  2466  0E34  1903               	skipnz
  2467  0E35  0AD5               	incf	___fltol@f1+1,f
  2468  0E36  1903               	skipnz
  2469  0E37  0AD6               	incf	___fltol@f1+2,f
  2470  0E38  1903               	skipnz
  2471  0E39  0AD7               	incf	___fltol@f1+3,f
  2472  0E3A                     l476:	
  2473  0E3A                     l466:	
  2474  0E3A  0008               	return
  2475  0E3B                     __end_of___fltol:	
  2476                           
  2477                           	psect	text8
  2478  0492                     __ptext8:	
  2479 ;; *************** function ___flmul *****************
  2480 ;; Defined at:
  2481 ;;		line 8 in file "C:\Program Files (x86)\Microchip\xc8\v2.10\pic\sources\c90\common\sprcmul.c"
  2482 ;; Parameters:    Size  Location     Type
  2483 ;;  b               4   26[BANK0 ] long 
  2484 ;;  a               4   30[BANK0 ] long 
  2485 ;; Auto vars:     Size  Location     Type
  2486 ;;  prod            4   46[BANK0 ] struct .
  2487 ;;  grs             4   40[BANK0 ] unsigned long 
  2488 ;;  temp            2   50[BANK0 ] struct .
  2489 ;;  bexp            1   45[BANK0 ] unsigned char 
  2490 ;;  aexp            1   44[BANK0 ] unsigned char 
  2491 ;;  sign            1   39[BANK0 ] unsigned char 
  2492 ;; Return value:  Size  Location     Type
  2493 ;;                  4   26[BANK0 ] unsigned char 
  2494 ;; Registers used:
  2495 ;;		wreg, status,2, status,0, btemp+1, pclath, cstack
  2496 ;; Tracked objects:
  2497 ;;		On entry : 0/0
  2498 ;;		On exit  : 0/0
  2499 ;;		Unchanged: 0/0
  2500 ;; Data sizes:     COMMON   BANK0   BANK1   BANK3   BANK2
  2501 ;;      Params:         0       8       0       0       0
  2502 ;;      Locals:         0      13       0       0       0
  2503 ;;      Temps:          0       5       0       0       0
  2504 ;;      Totals:         0      26       0       0       0
  2505 ;;Total ram usage:       26 bytes
  2506 ;; Hardware stack levels used:    1
  2507 ;; Hardware stack levels required when called:    1
  2508 ;; This function calls:
  2509 ;;		__Umul8_16
  2510 ;; This function is called by:
  2511 ;;		_pwmDuty
  2512 ;; This function uses a non-reentrant model
  2513 ;;
  2514                           
  2515                           
  2516                           ;psect for function ___flmul
  2517  0492                     ___flmul:	
  2518  0492                     l1840:	
  2519                           ;incstack = 0
  2520                           ; Regs used in ___flmul: [wreg+status,2+status,0+btemp+1+pclath+cstack]
  2521                           
  2522  0492  1283               	bcf	3,5	;RP0=0, select bank0
  2523  0493  1303               	bcf	3,6	;RP1=0, select bank0
  2524  0494  083D               	movf	___flmul@b+3,w
  2525  0495  3980               	andlw	128
  2526  0496  00C2               	movwf	??___flmul
  2527  0497  0842               	movf	??___flmul,w
  2528  0498  00C7               	movwf	___flmul@sign
  2529  0499                     l1842:	
  2530  0499  083D               	movf	___flmul@b+3,w
  2531  049A  00C2               	movwf	??___flmul
  2532  049B  0742               	addwf	??___flmul,w
  2533  049C  00C3               	movwf	??___flmul+1
  2534  049D  0843               	movf	??___flmul+1,w
  2535  049E  00CD               	movwf	___flmul@bexp
  2536  049F                     l1844:	
  2537  049F  1FBC               	btfss	___flmul@b+2,7
  2538  04A0  2CA2               	goto	u2261
  2539  04A1  2CA3               	goto	u2260
  2540  04A2                     u2261:	
  2541  04A2  2CA4               	goto	l1848
  2542  04A3                     u2260:	
  2543  04A3                     l1846:	
  2544  04A3  144D               	bsf	___flmul@bexp,0
  2545  04A4                     l1848:	
  2546  04A4  084D               	movf	___flmul@bexp,w
  2547  04A5  1903               	btfsc	3,2
  2548  04A6  2CA8               	goto	u2271
  2549  04A7  2CA9               	goto	u2270
  2550  04A8                     u2271:	
  2551  04A8  2CB8               	goto	l1856
  2552  04A9                     u2270:	
  2553  04A9                     l1850:	
  2554  04A9  0A4D               	incf	___flmul@bexp,w
  2555  04AA  1D03               	btfss	3,2
  2556  04AB  2CAD               	goto	u2281
  2557  04AC  2CAE               	goto	u2280
  2558  04AD                     u2281:	
  2559  04AD  2CB6               	goto	l1854
  2560  04AE                     u2280:	
  2561  04AE                     l1852:	
  2562  04AE  3000               	movlw	0
  2563  04AF  00BD               	movwf	___flmul@b+3
  2564  04B0  3000               	movlw	0
  2565  04B1  00BC               	movwf	___flmul@b+2
  2566  04B2  3000               	movlw	0
  2567  04B3  00BB               	movwf	___flmul@b+1
  2568  04B4  3000               	movlw	0
  2569  04B5  00BA               	movwf	___flmul@b
  2570  04B6                     l1854:	
  2571  04B6  17BC               	bsf	___flmul@b+2,7
  2572  04B7  2CC0               	goto	l1858
  2573  04B8                     l1856:	
  2574  04B8  3000               	movlw	0
  2575  04B9  00BD               	movwf	___flmul@b+3
  2576  04BA  3000               	movlw	0
  2577  04BB  00BC               	movwf	___flmul@b+2
  2578  04BC  3000               	movlw	0
  2579  04BD  00BB               	movwf	___flmul@b+1
  2580  04BE  3000               	movlw	0
  2581  04BF  00BA               	movwf	___flmul@b
  2582  04C0                     l1858:	
  2583  04C0  0841               	movf	___flmul@a+3,w
  2584  04C1  3980               	andlw	128
  2585  04C2  00C2               	movwf	??___flmul
  2586  04C3  0842               	movf	??___flmul,w
  2587  04C4  06C7               	xorwf	___flmul@sign,f
  2588  04C5                     l1860:	
  2589  04C5  0841               	movf	___flmul@a+3,w
  2590  04C6  00C2               	movwf	??___flmul
  2591  04C7  0742               	addwf	??___flmul,w
  2592  04C8  00C3               	movwf	??___flmul+1
  2593  04C9  0843               	movf	??___flmul+1,w
  2594  04CA  00CC               	movwf	___flmul@aexp
  2595  04CB                     l1862:	
  2596  04CB  1FC0               	btfss	___flmul@a+2,7
  2597  04CC  2CCE               	goto	u2291
  2598  04CD  2CCF               	goto	u2290
  2599  04CE                     u2291:	
  2600  04CE  2CD0               	goto	l1866
  2601  04CF                     u2290:	
  2602  04CF                     l1864:	
  2603  04CF  144C               	bsf	___flmul@aexp,0
  2604  04D0                     l1866:	
  2605  04D0  084C               	movf	___flmul@aexp,w
  2606  04D1  1903               	btfsc	3,2
  2607  04D2  2CD4               	goto	u2301
  2608  04D3  2CD5               	goto	u2300
  2609  04D4                     u2301:	
  2610  04D4  2CE4               	goto	l1874
  2611  04D5                     u2300:	
  2612  04D5                     l1868:	
  2613  04D5  0A4C               	incf	___flmul@aexp,w
  2614  04D6  1D03               	btfss	3,2
  2615  04D7  2CD9               	goto	u2311
  2616  04D8  2CDA               	goto	u2310
  2617  04D9                     u2311:	
  2618  04D9  2CE2               	goto	l1872
  2619  04DA                     u2310:	
  2620  04DA                     l1870:	
  2621  04DA  3000               	movlw	0
  2622  04DB  00C1               	movwf	___flmul@a+3
  2623  04DC  3000               	movlw	0
  2624  04DD  00C0               	movwf	___flmul@a+2
  2625  04DE  3000               	movlw	0
  2626  04DF  00BF               	movwf	___flmul@a+1
  2627  04E0  3000               	movlw	0
  2628  04E1  00BE               	movwf	___flmul@a
  2629  04E2                     l1872:	
  2630  04E2  17C0               	bsf	___flmul@a+2,7
  2631  04E3  2CEC               	goto	l1876
  2632  04E4                     l1874:	
  2633  04E4  3000               	movlw	0
  2634  04E5  00C1               	movwf	___flmul@a+3
  2635  04E6  3000               	movlw	0
  2636  04E7  00C0               	movwf	___flmul@a+2
  2637  04E8  3000               	movlw	0
  2638  04E9  00BF               	movwf	___flmul@a+1
  2639  04EA  3000               	movlw	0
  2640  04EB  00BE               	movwf	___flmul@a
  2641  04EC                     l1876:	
  2642  04EC  084C               	movf	___flmul@aexp,w
  2643  04ED  1903               	btfsc	3,2
  2644  04EE  2CF0               	goto	u2321
  2645  04EF  2CF1               	goto	u2320
  2646  04F0                     u2321:	
  2647  04F0  2CF6               	goto	l1880
  2648  04F1                     u2320:	
  2649  04F1                     l1878:	
  2650  04F1  084D               	movf	___flmul@bexp,w
  2651  04F2  1D03               	btfss	3,2
  2652  04F3  2CF5               	goto	u2331
  2653  04F4  2CF6               	goto	u2330
  2654  04F5                     u2331:	
  2655  04F5  2CFF               	goto	l1884
  2656  04F6                     u2330:	
  2657  04F6                     l1880:	
  2658  04F6  3000               	movlw	0
  2659  04F7  00BD               	movwf	?___flmul+3
  2660  04F8  3000               	movlw	0
  2661  04F9  00BC               	movwf	?___flmul+2
  2662  04FA  3000               	movlw	0
  2663  04FB  00BB               	movwf	?___flmul+1
  2664  04FC  3000               	movlw	0
  2665  04FD  00BA               	movwf	?___flmul
  2666  04FE  2FF2               	goto	l669
  2667  04FF                     l1884:	
  2668  04FF  083A               	movf	___flmul@b,w
  2669  0500  00C2               	movwf	??___flmul
  2670  0501  0842               	movf	??___flmul,w
  2671  0502  00F0               	movwf	__Umul8_16@multiplicand
  2672  0503  0840               	movf	___flmul@a+2,w
  2673  0504  120A  158A  23EB  120A  118A  	fcall	__Umul8_16
  2674  0509  0871               	movf	?__Umul8_16+1,w
  2675  050A  1283               	bcf	3,5	;RP0=0, select bank0
  2676  050B  1303               	bcf	3,6	;RP1=0, select bank0
  2677  050C  00D3               	movwf	___flmul@temp+1
  2678  050D  0870               	movf	?__Umul8_16,w
  2679  050E  00D2               	movwf	___flmul@temp
  2680  050F                     l1886:	
  2681  050F  0852               	movf	___flmul@temp,w
  2682  0510  00C2               	movwf	??___flmul
  2683  0511  01C3               	clrf	??___flmul+1
  2684  0512  01C4               	clrf	??___flmul+2
  2685  0513  01C5               	clrf	??___flmul+3
  2686  0514  0845               	movf	??___flmul+3,w
  2687  0515  00CB               	movwf	___flmul@grs+3
  2688  0516  0844               	movf	??___flmul+2,w
  2689  0517  00CA               	movwf	___flmul@grs+2
  2690  0518  0843               	movf	??___flmul+1,w
  2691  0519  00C9               	movwf	___flmul@grs+1
  2692  051A  0842               	movf	??___flmul,w
  2693  051B  00C8               	movwf	___flmul@grs
  2694  051C                     l1888:	
  2695  051C  0853               	movf	___flmul@temp+1,w
  2696  051D  00C2               	movwf	??___flmul
  2697  051E  01C3               	clrf	??___flmul+1
  2698  051F  01C4               	clrf	??___flmul+2
  2699  0520  01C5               	clrf	??___flmul+3
  2700  0521  0845               	movf	??___flmul+3,w
  2701  0522  00D1               	movwf	___flmul@prod+3
  2702  0523  0844               	movf	??___flmul+2,w
  2703  0524  00D0               	movwf	___flmul@prod+2
  2704  0525  0843               	movf	??___flmul+1,w
  2705  0526  00CF               	movwf	___flmul@prod+1
  2706  0527  0842               	movf	??___flmul,w
  2707  0528  00CE               	movwf	___flmul@prod
  2708  0529  083B               	movf	___flmul@b+1,w
  2709  052A  00C2               	movwf	??___flmul
  2710  052B  0842               	movf	??___flmul,w
  2711  052C  00F0               	movwf	__Umul8_16@multiplicand
  2712  052D  083F               	movf	___flmul@a+1,w
  2713  052E  120A  158A  23EB  120A  118A  	fcall	__Umul8_16
  2714  0533  0871               	movf	?__Umul8_16+1,w
  2715  0534  1283               	bcf	3,5	;RP0=0, select bank0
  2716  0535  1303               	bcf	3,6	;RP1=0, select bank0
  2717  0536  00D3               	movwf	___flmul@temp+1
  2718  0537  0870               	movf	?__Umul8_16,w
  2719  0538  00D2               	movwf	___flmul@temp
  2720  0539                     l1890:	
  2721  0539  0852               	movf	___flmul@temp,w
  2722  053A  00C2               	movwf	??___flmul
  2723  053B  01C3               	clrf	??___flmul+1
  2724  053C  01C4               	clrf	??___flmul+2
  2725  053D  01C5               	clrf	??___flmul+3
  2726  053E  0842               	movf	??___flmul,w
  2727  053F  07C8               	addwf	___flmul@grs,f
  2728  0540  0843               	movf	??___flmul+1,w
  2729  0541  1103               	clrz
  2730  0542  1803               	skipnc
  2731  0543  3E01               	addlw	1
  2732  0544  1903               	skipnz
  2733  0545  2D47               	goto	u2341
  2734  0546  07C9               	addwf	___flmul@grs+1,f
  2735  0547                     u2341:	
  2736  0547  0844               	movf	??___flmul+2,w
  2737  0548  1103               	clrz
  2738  0549  1803               	skipnc
  2739  054A  3E01               	addlw	1
  2740  054B  1903               	skipnz
  2741  054C  2D4E               	goto	u2342
  2742  054D  07CA               	addwf	___flmul@grs+2,f
  2743  054E                     u2342:	
  2744  054E  0845               	movf	??___flmul+3,w
  2745  054F  1103               	clrz
  2746  0550  1803               	skipnc
  2747  0551  3E01               	addlw	1
  2748  0552  1903               	skipnz
  2749  0553  2D55               	goto	u2343
  2750  0554  07CB               	addwf	___flmul@grs+3,f
  2751  0555                     u2343:	
  2752  0555                     l1892:	
  2753  0555  0853               	movf	___flmul@temp+1,w
  2754  0556  00C2               	movwf	??___flmul
  2755  0557  01C3               	clrf	??___flmul+1
  2756  0558  01C4               	clrf	??___flmul+2
  2757  0559  01C5               	clrf	??___flmul+3
  2758  055A  0842               	movf	??___flmul,w
  2759  055B  07CE               	addwf	___flmul@prod,f
  2760  055C  0843               	movf	??___flmul+1,w
  2761  055D  1103               	clrz
  2762  055E  1803               	skipnc
  2763  055F  3E01               	addlw	1
  2764  0560  1903               	skipnz
  2765  0561  2D63               	goto	u2351
  2766  0562  07CF               	addwf	___flmul@prod+1,f
  2767  0563                     u2351:	
  2768  0563  0844               	movf	??___flmul+2,w
  2769  0564  1103               	clrz
  2770  0565  1803               	skipnc
  2771  0566  3E01               	addlw	1
  2772  0567  1903               	skipnz
  2773  0568  2D6A               	goto	u2352
  2774  0569  07D0               	addwf	___flmul@prod+2,f
  2775  056A                     u2352:	
  2776  056A  0845               	movf	??___flmul+3,w
  2777  056B  1103               	clrz
  2778  056C  1803               	skipnc
  2779  056D  3E01               	addlw	1
  2780  056E  1903               	skipnz
  2781  056F  2D71               	goto	u2353
  2782  0570  07D1               	addwf	___flmul@prod+3,f
  2783  0571                     u2353:	
  2784  0571  083C               	movf	___flmul@b+2,w
  2785  0572  00C2               	movwf	??___flmul
  2786  0573  0842               	movf	??___flmul,w
  2787  0574  00F0               	movwf	__Umul8_16@multiplicand
  2788  0575  083E               	movf	___flmul@a,w
  2789  0576  120A  158A  23EB  120A  118A  	fcall	__Umul8_16
  2790  057B  0871               	movf	?__Umul8_16+1,w
  2791  057C  1283               	bcf	3,5	;RP0=0, select bank0
  2792  057D  1303               	bcf	3,6	;RP1=0, select bank0
  2793  057E  00D3               	movwf	___flmul@temp+1
  2794  057F  0870               	movf	?__Umul8_16,w
  2795  0580  00D2               	movwf	___flmul@temp
  2796  0581                     l1894:	
  2797  0581  0852               	movf	___flmul@temp,w
  2798  0582  00C2               	movwf	??___flmul
  2799  0583  01C3               	clrf	??___flmul+1
  2800  0584  01C4               	clrf	??___flmul+2
  2801  0585  01C5               	clrf	??___flmul+3
  2802  0586  0842               	movf	??___flmul,w
  2803  0587  07C8               	addwf	___flmul@grs,f
  2804  0588  0843               	movf	??___flmul+1,w
  2805  0589  1103               	clrz
  2806  058A  1803               	skipnc
  2807  058B  3E01               	addlw	1
  2808  058C  1903               	skipnz
  2809  058D  2D8F               	goto	u2361
  2810  058E  07C9               	addwf	___flmul@grs+1,f
  2811  058F                     u2361:	
  2812  058F  0844               	movf	??___flmul+2,w
  2813  0590  1103               	clrz
  2814  0591  1803               	skipnc
  2815  0592  3E01               	addlw	1
  2816  0593  1903               	skipnz
  2817  0594  2D96               	goto	u2362
  2818  0595  07CA               	addwf	___flmul@grs+2,f
  2819  0596                     u2362:	
  2820  0596  0845               	movf	??___flmul+3,w
  2821  0597  1103               	clrz
  2822  0598  1803               	skipnc
  2823  0599  3E01               	addlw	1
  2824  059A  1903               	skipnz
  2825  059B  2D9D               	goto	u2363
  2826  059C  07CB               	addwf	___flmul@grs+3,f
  2827  059D                     u2363:	
  2828  059D                     l1896:	
  2829  059D  0853               	movf	___flmul@temp+1,w
  2830  059E  00C2               	movwf	??___flmul
  2831  059F  01C3               	clrf	??___flmul+1
  2832  05A0  01C4               	clrf	??___flmul+2
  2833  05A1  01C5               	clrf	??___flmul+3
  2834  05A2  0842               	movf	??___flmul,w
  2835  05A3  07CE               	addwf	___flmul@prod,f
  2836  05A4  0843               	movf	??___flmul+1,w
  2837  05A5  1103               	clrz
  2838  05A6  1803               	skipnc
  2839  05A7  3E01               	addlw	1
  2840  05A8  1903               	skipnz
  2841  05A9  2DAB               	goto	u2371
  2842  05AA  07CF               	addwf	___flmul@prod+1,f
  2843  05AB                     u2371:	
  2844  05AB  0844               	movf	??___flmul+2,w
  2845  05AC  1103               	clrz
  2846  05AD  1803               	skipnc
  2847  05AE  3E01               	addlw	1
  2848  05AF  1903               	skipnz
  2849  05B0  2DB2               	goto	u2372
  2850  05B1  07D0               	addwf	___flmul@prod+2,f
  2851  05B2                     u2372:	
  2852  05B2  0845               	movf	??___flmul+3,w
  2853  05B3  1103               	clrz
  2854  05B4  1803               	skipnc
  2855  05B5  3E01               	addlw	1
  2856  05B6  1903               	skipnz
  2857  05B7  2DB9               	goto	u2373
  2858  05B8  07D1               	addwf	___flmul@prod+3,f
  2859  05B9                     u2373:	
  2860  05B9                     l1898:	
  2861  05B9  3008               	movlw	8
  2862  05BA  00C2               	movwf	??___flmul
  2863  05BB                     u2385:	
  2864  05BB  1003               	clrc
  2865  05BC  0DC8               	rlf	___flmul@grs,f
  2866  05BD  0DC9               	rlf	___flmul@grs+1,f
  2867  05BE  0DCA               	rlf	___flmul@grs+2,f
  2868  05BF  0DCB               	rlf	___flmul@grs+3,f
  2869  05C0  0BC2               	decfsz	??___flmul,f
  2870  05C1  2DBB               	goto	u2385
  2871  05C2                     l1900:	
  2872  05C2  083B               	movf	___flmul@b+1,w
  2873  05C3  00C2               	movwf	??___flmul
  2874  05C4  0842               	movf	??___flmul,w
  2875  05C5  00F0               	movwf	__Umul8_16@multiplicand
  2876  05C6  083E               	movf	___flmul@a,w
  2877  05C7  120A  158A  23EB  120A  118A  	fcall	__Umul8_16
  2878  05CC  0871               	movf	?__Umul8_16+1,w
  2879  05CD  1283               	bcf	3,5	;RP0=0, select bank0
  2880  05CE  1303               	bcf	3,6	;RP1=0, select bank0
  2881  05CF  00D3               	movwf	___flmul@temp+1
  2882  05D0  0870               	movf	?__Umul8_16,w
  2883  05D1  00D2               	movwf	___flmul@temp
  2884  05D2                     l1902:	
  2885  05D2  0852               	movf	___flmul@temp,w
  2886  05D3  00C2               	movwf	??___flmul
  2887  05D4  0853               	movf	___flmul@temp+1,w
  2888  05D5  00C3               	movwf	??___flmul+1
  2889  05D6  01C4               	clrf	??___flmul+2
  2890  05D7  01C5               	clrf	??___flmul+3
  2891  05D8  0842               	movf	??___flmul,w
  2892  05D9  07C8               	addwf	___flmul@grs,f
  2893  05DA  0843               	movf	??___flmul+1,w
  2894  05DB  1103               	clrz
  2895  05DC  1803               	skipnc
  2896  05DD  3E01               	addlw	1
  2897  05DE  1903               	skipnz
  2898  05DF  2DE1               	goto	u2391
  2899  05E0  07C9               	addwf	___flmul@grs+1,f
  2900  05E1                     u2391:	
  2901  05E1  0844               	movf	??___flmul+2,w
  2902  05E2  1103               	clrz
  2903  05E3  1803               	skipnc
  2904  05E4  3E01               	addlw	1
  2905  05E5  1903               	skipnz
  2906  05E6  2DE8               	goto	u2392
  2907  05E7  07CA               	addwf	___flmul@grs+2,f
  2908  05E8                     u2392:	
  2909  05E8  0845               	movf	??___flmul+3,w
  2910  05E9  1103               	clrz
  2911  05EA  1803               	skipnc
  2912  05EB  3E01               	addlw	1
  2913  05EC  1903               	skipnz
  2914  05ED  2DEF               	goto	u2393
  2915  05EE  07CB               	addwf	___flmul@grs+3,f
  2916  05EF                     u2393:	
  2917  05EF                     l1904:	
  2918  05EF  083A               	movf	___flmul@b,w
  2919  05F0  00C2               	movwf	??___flmul
  2920  05F1  0842               	movf	??___flmul,w
  2921  05F2  00F0               	movwf	__Umul8_16@multiplicand
  2922  05F3  083F               	movf	___flmul@a+1,w
  2923  05F4  120A  158A  23EB  120A  118A  	fcall	__Umul8_16
  2924  05F9  0871               	movf	?__Umul8_16+1,w
  2925  05FA  1283               	bcf	3,5	;RP0=0, select bank0
  2926  05FB  1303               	bcf	3,6	;RP1=0, select bank0
  2927  05FC  00D3               	movwf	___flmul@temp+1
  2928  05FD  0870               	movf	?__Umul8_16,w
  2929  05FE  00D2               	movwf	___flmul@temp
  2930  05FF                     l1906:	
  2931  05FF  0852               	movf	___flmul@temp,w
  2932  0600  00C2               	movwf	??___flmul
  2933  0601  0853               	movf	___flmul@temp+1,w
  2934  0602  00C3               	movwf	??___flmul+1
  2935  0603  01C4               	clrf	??___flmul+2
  2936  0604  01C5               	clrf	??___flmul+3
  2937  0605  0842               	movf	??___flmul,w
  2938  0606  07C8               	addwf	___flmul@grs,f
  2939  0607  0843               	movf	??___flmul+1,w
  2940  0608  1103               	clrz
  2941  0609  1803               	skipnc
  2942  060A  3E01               	addlw	1
  2943  060B  1903               	skipnz
  2944  060C  2E0E               	goto	u2401
  2945  060D  07C9               	addwf	___flmul@grs+1,f
  2946  060E                     u2401:	
  2947  060E  0844               	movf	??___flmul+2,w
  2948  060F  1103               	clrz
  2949  0610  1803               	skipnc
  2950  0611  3E01               	addlw	1
  2951  0612  1903               	skipnz
  2952  0613  2E15               	goto	u2402
  2953  0614  07CA               	addwf	___flmul@grs+2,f
  2954  0615                     u2402:	
  2955  0615  0845               	movf	??___flmul+3,w
  2956  0616  1103               	clrz
  2957  0617  1803               	skipnc
  2958  0618  3E01               	addlw	1
  2959  0619  1903               	skipnz
  2960  061A  2E1C               	goto	u2403
  2961  061B  07CB               	addwf	___flmul@grs+3,f
  2962  061C                     u2403:	
  2963  061C                     l1908:	
  2964  061C  3008               	movlw	8
  2965  061D  00C2               	movwf	??___flmul
  2966  061E                     u2415:	
  2967  061E  1003               	clrc
  2968  061F  0DC8               	rlf	___flmul@grs,f
  2969  0620  0DC9               	rlf	___flmul@grs+1,f
  2970  0621  0DCA               	rlf	___flmul@grs+2,f
  2971  0622  0DCB               	rlf	___flmul@grs+3,f
  2972  0623  0BC2               	decfsz	??___flmul,f
  2973  0624  2E1E               	goto	u2415
  2974  0625  083A               	movf	___flmul@b,w
  2975  0626  00C2               	movwf	??___flmul
  2976  0627  0842               	movf	??___flmul,w
  2977  0628  00F0               	movwf	__Umul8_16@multiplicand
  2978  0629  083E               	movf	___flmul@a,w
  2979  062A  120A  158A  23EB  120A  118A  	fcall	__Umul8_16
  2980  062F  0871               	movf	?__Umul8_16+1,w
  2981  0630  1283               	bcf	3,5	;RP0=0, select bank0
  2982  0631  1303               	bcf	3,6	;RP1=0, select bank0
  2983  0632  00D3               	movwf	___flmul@temp+1
  2984  0633  0870               	movf	?__Umul8_16,w
  2985  0634  00D2               	movwf	___flmul@temp
  2986  0635                     l1910:	
  2987  0635  0852               	movf	___flmul@temp,w
  2988  0636  00C2               	movwf	??___flmul
  2989  0637  0853               	movf	___flmul@temp+1,w
  2990  0638  00C3               	movwf	??___flmul+1
  2991  0639  01C4               	clrf	??___flmul+2
  2992  063A  01C5               	clrf	??___flmul+3
  2993  063B  0842               	movf	??___flmul,w
  2994  063C  07C8               	addwf	___flmul@grs,f
  2995  063D  0843               	movf	??___flmul+1,w
  2996  063E  1103               	clrz
  2997  063F  1803               	skipnc
  2998  0640  3E01               	addlw	1
  2999  0641  1903               	skipnz
  3000  0642  2E44               	goto	u2421
  3001  0643  07C9               	addwf	___flmul@grs+1,f
  3002  0644                     u2421:	
  3003  0644  0844               	movf	??___flmul+2,w
  3004  0645  1103               	clrz
  3005  0646  1803               	skipnc
  3006  0647  3E01               	addlw	1
  3007  0648  1903               	skipnz
  3008  0649  2E4B               	goto	u2422
  3009  064A  07CA               	addwf	___flmul@grs+2,f
  3010  064B                     u2422:	
  3011  064B  0845               	movf	??___flmul+3,w
  3012  064C  1103               	clrz
  3013  064D  1803               	skipnc
  3014  064E  3E01               	addlw	1
  3015  064F  1903               	skipnz
  3016  0650  2E52               	goto	u2423
  3017  0651  07CB               	addwf	___flmul@grs+3,f
  3018  0652                     u2423:	
  3019  0652                     l1912:	
  3020  0652  083B               	movf	___flmul@b+1,w
  3021  0653  00C2               	movwf	??___flmul
  3022  0654  0842               	movf	??___flmul,w
  3023  0655  00F0               	movwf	__Umul8_16@multiplicand
  3024  0656  0840               	movf	___flmul@a+2,w
  3025  0657  120A  158A  23EB  120A  118A  	fcall	__Umul8_16
  3026  065C  0871               	movf	?__Umul8_16+1,w
  3027  065D  1283               	bcf	3,5	;RP0=0, select bank0
  3028  065E  1303               	bcf	3,6	;RP1=0, select bank0
  3029  065F  00D3               	movwf	___flmul@temp+1
  3030  0660  0870               	movf	?__Umul8_16,w
  3031  0661  00D2               	movwf	___flmul@temp
  3032  0662  0852               	movf	___flmul@temp,w
  3033  0663  00C2               	movwf	??___flmul
  3034  0664  0853               	movf	___flmul@temp+1,w
  3035  0665  00C3               	movwf	??___flmul+1
  3036  0666  01C4               	clrf	??___flmul+2
  3037  0667  01C5               	clrf	??___flmul+3
  3038  0668  0842               	movf	??___flmul,w
  3039  0669  07CE               	addwf	___flmul@prod,f
  3040  066A  0843               	movf	??___flmul+1,w
  3041  066B  1103               	clrz
  3042  066C  1803               	skipnc
  3043  066D  3E01               	addlw	1
  3044  066E  1903               	skipnz
  3045  066F  2E71               	goto	u2431
  3046  0670  07CF               	addwf	___flmul@prod+1,f
  3047  0671                     u2431:	
  3048  0671  0844               	movf	??___flmul+2,w
  3049  0672  1103               	clrz
  3050  0673  1803               	skipnc
  3051  0674  3E01               	addlw	1
  3052  0675  1903               	skipnz
  3053  0676  2E78               	goto	u2432
  3054  0677  07D0               	addwf	___flmul@prod+2,f
  3055  0678                     u2432:	
  3056  0678  0845               	movf	??___flmul+3,w
  3057  0679  1103               	clrz
  3058  067A  1803               	skipnc
  3059  067B  3E01               	addlw	1
  3060  067C  1903               	skipnz
  3061  067D  2E7F               	goto	u2433
  3062  067E  07D1               	addwf	___flmul@prod+3,f
  3063  067F                     u2433:	
  3064  067F                     l1914:	
  3065  067F  083C               	movf	___flmul@b+2,w
  3066  0680  00C2               	movwf	??___flmul
  3067  0681  0842               	movf	??___flmul,w
  3068  0682  00F0               	movwf	__Umul8_16@multiplicand
  3069  0683  083F               	movf	___flmul@a+1,w
  3070  0684  120A  158A  23EB  120A  118A  	fcall	__Umul8_16
  3071  0689  0871               	movf	?__Umul8_16+1,w
  3072  068A  1283               	bcf	3,5	;RP0=0, select bank0
  3073  068B  1303               	bcf	3,6	;RP1=0, select bank0
  3074  068C  00D3               	movwf	___flmul@temp+1
  3075  068D  0870               	movf	?__Umul8_16,w
  3076  068E  00D2               	movwf	___flmul@temp
  3077  068F                     l1916:	
  3078  068F  0852               	movf	___flmul@temp,w
  3079  0690  00C2               	movwf	??___flmul
  3080  0691  0853               	movf	___flmul@temp+1,w
  3081  0692  00C3               	movwf	??___flmul+1
  3082  0693  01C4               	clrf	??___flmul+2
  3083  0694  01C5               	clrf	??___flmul+3
  3084  0695  0842               	movf	??___flmul,w
  3085  0696  07CE               	addwf	___flmul@prod,f
  3086  0697  0843               	movf	??___flmul+1,w
  3087  0698  1103               	clrz
  3088  0699  1803               	skipnc
  3089  069A  3E01               	addlw	1
  3090  069B  1903               	skipnz
  3091  069C  2E9E               	goto	u2441
  3092  069D  07CF               	addwf	___flmul@prod+1,f
  3093  069E                     u2441:	
  3094  069E  0844               	movf	??___flmul+2,w
  3095  069F  1103               	clrz
  3096  06A0  1803               	skipnc
  3097  06A1  3E01               	addlw	1
  3098  06A2  1903               	skipnz
  3099  06A3  2EA5               	goto	u2442
  3100  06A4  07D0               	addwf	___flmul@prod+2,f
  3101  06A5                     u2442:	
  3102  06A5  0845               	movf	??___flmul+3,w
  3103  06A6  1103               	clrz
  3104  06A7  1803               	skipnc
  3105  06A8  3E01               	addlw	1
  3106  06A9  1903               	skipnz
  3107  06AA  2EAC               	goto	u2443
  3108  06AB  07D1               	addwf	___flmul@prod+3,f
  3109  06AC                     u2443:	
  3110  06AC  083C               	movf	___flmul@b+2,w
  3111  06AD  00C2               	movwf	??___flmul
  3112  06AE  0842               	movf	??___flmul,w
  3113  06AF  00F0               	movwf	__Umul8_16@multiplicand
  3114  06B0  0840               	movf	___flmul@a+2,w
  3115  06B1  120A  158A  23EB  120A  118A  	fcall	__Umul8_16
  3116  06B6  0871               	movf	?__Umul8_16+1,w
  3117  06B7  1283               	bcf	3,5	;RP0=0, select bank0
  3118  06B8  1303               	bcf	3,6	;RP1=0, select bank0
  3119  06B9  00D3               	movwf	___flmul@temp+1
  3120  06BA  0870               	movf	?__Umul8_16,w
  3121  06BB  00D2               	movwf	___flmul@temp
  3122  06BC                     l1918:	
  3123  06BC  0852               	movf	___flmul@temp,w
  3124  06BD  00C2               	movwf	??___flmul
  3125  06BE  0853               	movf	___flmul@temp+1,w
  3126  06BF  00C3               	movwf	??___flmul+1
  3127  06C0  01C4               	clrf	??___flmul+2
  3128  06C1  01C5               	clrf	??___flmul+3
  3129  06C2  3008               	movlw	8
  3130  06C3                     u2455:	
  3131  06C3  1003               	clrc
  3132  06C4  0DC2               	rlf	??___flmul,f
  3133  06C5  0DC3               	rlf	??___flmul+1,f
  3134  06C6  0DC4               	rlf	??___flmul+2,f
  3135  06C7  0DC5               	rlf	??___flmul+3,f
  3136  06C8                     u2450:	
  3137  06C8  3EFF               	addlw	-1
  3138  06C9  1D03               	skipz
  3139  06CA  2EC3               	goto	u2455
  3140  06CB  0842               	movf	??___flmul,w
  3141  06CC  07CE               	addwf	___flmul@prod,f
  3142  06CD  0843               	movf	??___flmul+1,w
  3143  06CE  1103               	clrz
  3144  06CF  1803               	skipnc
  3145  06D0  3E01               	addlw	1
  3146  06D1  1903               	skipnz
  3147  06D2  2ED4               	goto	u2461
  3148  06D3  07CF               	addwf	___flmul@prod+1,f
  3149  06D4                     u2461:	
  3150  06D4  0844               	movf	??___flmul+2,w
  3151  06D5  1103               	clrz
  3152  06D6  1803               	skipnc
  3153  06D7  3E01               	addlw	1
  3154  06D8  1903               	skipnz
  3155  06D9  2EDB               	goto	u2462
  3156  06DA  07D0               	addwf	___flmul@prod+2,f
  3157  06DB                     u2462:	
  3158  06DB  0845               	movf	??___flmul+3,w
  3159  06DC  1103               	clrz
  3160  06DD  1803               	skipnc
  3161  06DE  3E01               	addlw	1
  3162  06DF  1903               	skipnz
  3163  06E0  2EE2               	goto	u2463
  3164  06E1  07D1               	addwf	___flmul@prod+3,f
  3165  06E2                     u2463:	
  3166  06E2                     l1920:	
  3167  06E2  0848               	movf	___flmul@grs,w
  3168  06E3  00C2               	movwf	??___flmul
  3169  06E4  0849               	movf	___flmul@grs+1,w
  3170  06E5  00C3               	movwf	??___flmul+1
  3171  06E6  084A               	movf	___flmul@grs+2,w
  3172  06E7  00C4               	movwf	??___flmul+2
  3173  06E8  084B               	movf	___flmul@grs+3,w
  3174  06E9  00C5               	movwf	??___flmul+3
  3175  06EA  3018               	movlw	24
  3176  06EB                     u2475:	
  3177  06EB  1003               	clrc
  3178  06EC  0CC5               	rrf	??___flmul+3,f
  3179  06ED  0CC4               	rrf	??___flmul+2,f
  3180  06EE  0CC3               	rrf	??___flmul+1,f
  3181  06EF  0CC2               	rrf	??___flmul,f
  3182  06F0                     u2470:	
  3183  06F0  3EFF               	addlw	-1
  3184  06F1  1D03               	skipz
  3185  06F2  2EEB               	goto	u2475
  3186  06F3  0842               	movf	??___flmul,w
  3187  06F4  07CE               	addwf	___flmul@prod,f
  3188  06F5  0843               	movf	??___flmul+1,w
  3189  06F6  1103               	clrz
  3190  06F7  1803               	skipnc
  3191  06F8  3E01               	addlw	1
  3192  06F9  1903               	skipnz
  3193  06FA  2EFC               	goto	u2481
  3194  06FB  07CF               	addwf	___flmul@prod+1,f
  3195  06FC                     u2481:	
  3196  06FC  0844               	movf	??___flmul+2,w
  3197  06FD  1103               	clrz
  3198  06FE  1803               	skipnc
  3199  06FF  3E01               	addlw	1
  3200  0700  1903               	skipnz
  3201  0701  2F03               	goto	u2482
  3202  0702  07D0               	addwf	___flmul@prod+2,f
  3203  0703                     u2482:	
  3204  0703  0845               	movf	??___flmul+3,w
  3205  0704  1103               	clrz
  3206  0705  1803               	skipnc
  3207  0706  3E01               	addlw	1
  3208  0707  1903               	skipnz
  3209  0708  2F0A               	goto	u2483
  3210  0709  07D1               	addwf	___flmul@prod+3,f
  3211  070A                     u2483:	
  3212  070A                     l1922:	
  3213  070A  3008               	movlw	8
  3214  070B  00C2               	movwf	??___flmul
  3215  070C                     u2495:	
  3216  070C  1003               	clrc
  3217  070D  0DC8               	rlf	___flmul@grs,f
  3218  070E  0DC9               	rlf	___flmul@grs+1,f
  3219  070F  0DCA               	rlf	___flmul@grs+2,f
  3220  0710  0DCB               	rlf	___flmul@grs+3,f
  3221  0711  0BC2               	decfsz	??___flmul,f
  3222  0712  2F0C               	goto	u2495
  3223  0713                     l1924:	
  3224  0713  084D               	movf	___flmul@bexp,w
  3225  0714  074C               	addwf	___flmul@aexp,w
  3226  0715  00C2               	movwf	??___flmul
  3227  0716  01C3               	clrf	??___flmul+1
  3228  0717  0DC3               	rlf	??___flmul+1,f
  3229  0718  0842               	movf	??___flmul,w
  3230  0719  3E82               	addlw	130
  3231  071A  00D2               	movwf	___flmul@temp
  3232  071B  0843               	movf	??___flmul+1,w
  3233  071C  1803               	skipnc
  3234  071D  3E01               	addlw	1
  3235  071E  3EFF               	addlw	255
  3236  071F  00D3               	movwf	___flmul@temp+1
  3237  0720  2F3E               	goto	l1936
  3238  0721                     l1926:	
  3239  0721  3001               	movlw	1
  3240  0722  00C2               	movwf	??___flmul
  3241  0723                     u2505:	
  3242  0723  1003               	clrc
  3243  0724  0DCE               	rlf	___flmul@prod,f
  3244  0725  0DCF               	rlf	___flmul@prod+1,f
  3245  0726  0DD0               	rlf	___flmul@prod+2,f
  3246  0727  0DD1               	rlf	___flmul@prod+3,f
  3247  0728  0BC2               	decfsz	??___flmul,f
  3248  0729  2F23               	goto	u2505
  3249  072A                     l1928:	
  3250  072A  1FCB               	btfss	___flmul@grs+3,7
  3251  072B  2F2D               	goto	u2511
  3252  072C  2F2E               	goto	u2510
  3253  072D                     u2511:	
  3254  072D  2F2F               	goto	l1932
  3255  072E                     u2510:	
  3256  072E                     l1930:	
  3257  072E  144E               	bsf	___flmul@prod,0
  3258  072F                     l1932:	
  3259  072F  3001               	movlw	1
  3260  0730  00C2               	movwf	??___flmul
  3261  0731                     u2525:	
  3262  0731  1003               	clrc
  3263  0732  0DC8               	rlf	___flmul@grs,f
  3264  0733  0DC9               	rlf	___flmul@grs+1,f
  3265  0734  0DCA               	rlf	___flmul@grs+2,f
  3266  0735  0DCB               	rlf	___flmul@grs+3,f
  3267  0736  0BC2               	decfsz	??___flmul,f
  3268  0737  2F31               	goto	u2525
  3269  0738                     l1934:	
  3270  0738  30FF               	movlw	255
  3271  0739  07D2               	addwf	___flmul@temp,f
  3272  073A  1803               	skipnc
  3273  073B  0AD3               	incf	___flmul@temp+1,f
  3274  073C  30FF               	movlw	255
  3275  073D  07D3               	addwf	___flmul@temp+1,f
  3276  073E                     l1936:	
  3277  073E  1FD0               	btfss	___flmul@prod+2,7
  3278  073F  2F41               	goto	u2531
  3279  0740  2F42               	goto	u2530
  3280  0741                     u2531:	
  3281  0741  2F21               	goto	l1926
  3282  0742                     u2530:	
  3283  0742                     l1938:	
  3284  0742  01CC               	clrf	___flmul@aexp
  3285  0743                     l1940:	
  3286  0743  1FCB               	btfss	___flmul@grs+3,7
  3287  0744  2F46               	goto	u2541
  3288  0745  2F47               	goto	u2540
  3289  0746                     u2541:	
  3290  0746  2F63               	goto	l1948
  3291  0747                     u2540:	
  3292  0747                     l1942:	
  3293  0747  30FF               	movlw	255
  3294  0748  0548               	andwf	___flmul@grs,w
  3295  0749  00C2               	movwf	??___flmul
  3296  074A  30FF               	movlw	255
  3297  074B  0549               	andwf	___flmul@grs+1,w
  3298  074C  00C3               	movwf	??___flmul+1
  3299  074D  30FF               	movlw	255
  3300  074E  054A               	andwf	___flmul@grs+2,w
  3301  074F  00C4               	movwf	??___flmul+2
  3302  0750  307F               	movlw	127
  3303  0751  054B               	andwf	___flmul@grs+3,w
  3304  0752  00C5               	movwf	??___flmul+3
  3305  0753  0845               	movf	??___flmul+3,w
  3306  0754  0444               	iorwf	??___flmul+2,w
  3307  0755  0443               	iorwf	??___flmul+1,w
  3308  0756  0442               	iorwf	??___flmul,w
  3309  0757  1903               	skipnz
  3310  0758  2F5A               	goto	u2551
  3311  0759  2F5B               	goto	u2550
  3312  075A                     u2551:	
  3313  075A  2F5E               	goto	l675
  3314  075B                     u2550:	
  3315  075B                     l1944:	
  3316  075B  01CC               	clrf	___flmul@aexp
  3317  075C  0ACC               	incf	___flmul@aexp,f
  3318  075D  2F63               	goto	l1948
  3319  075E                     l675:	
  3320  075E  1C4E               	btfss	___flmul@prod,0
  3321  075F  2F61               	goto	u2561
  3322  0760  2F62               	goto	u2560
  3323  0761                     u2561:	
  3324  0761  2F63               	goto	l1948
  3325  0762                     u2560:	
  3326  0762  2F5B               	goto	l1944
  3327  0763                     l1948:	
  3328  0763  084C               	movf	___flmul@aexp,w
  3329  0764  1903               	btfsc	3,2
  3330  0765  2F67               	goto	u2571
  3331  0766  2F68               	goto	u2570
  3332  0767                     u2571:	
  3333  0767  2F99               	goto	l1958
  3334  0768                     u2570:	
  3335  0768                     l1950:	
  3336  0768  3001               	movlw	1
  3337  0769  07CE               	addwf	___flmul@prod,f
  3338  076A  3000               	movlw	0
  3339  076B  1803               	skipnc
  3340  076C  3001               	movlw	1
  3341  076D  07CF               	addwf	___flmul@prod+1,f
  3342  076E  3000               	movlw	0
  3343  076F  1803               	skipnc
  3344  0770  3001               	movlw	1
  3345  0771  07D0               	addwf	___flmul@prod+2,f
  3346  0772  3000               	movlw	0
  3347  0773  1803               	skipnc
  3348  0774  3001               	movlw	1
  3349  0775  07D1               	addwf	___flmul@prod+3,f
  3350  0776                     l1952:	
  3351  0776  1C51               	btfss	___flmul@prod+3,0
  3352  0777  2F79               	goto	u2581
  3353  0778  2F7A               	goto	u2580
  3354  0779                     u2581:	
  3355  0779  2F99               	goto	l1958
  3356  077A                     u2580:	
  3357  077A                     l1954:	
  3358  077A  084E               	movf	___flmul@prod,w
  3359  077B  00C2               	movwf	??___flmul
  3360  077C  084F               	movf	___flmul@prod+1,w
  3361  077D  00C3               	movwf	??___flmul+1
  3362  077E  0850               	movf	___flmul@prod+2,w
  3363  077F  00C4               	movwf	??___flmul+2
  3364  0780  0851               	movf	___flmul@prod+3,w
  3365  0781  00C5               	movwf	??___flmul+3
  3366  0782  3001               	movlw	1
  3367  0783  00C6               	movwf	??___flmul+4
  3368  0784                     u2595:	
  3369  0784  0D45               	rlf	??___flmul+3,w
  3370  0785  0CC5               	rrf	??___flmul+3,f
  3371  0786  0CC4               	rrf	??___flmul+2,f
  3372  0787  0CC3               	rrf	??___flmul+1,f
  3373  0788  0CC2               	rrf	??___flmul,f
  3374  0789                     u2590:	
  3375  0789  0BC6               	decfsz	??___flmul+4,f
  3376  078A  2F84               	goto	u2595
  3377  078B  0845               	movf	??___flmul+3,w
  3378  078C  00D1               	movwf	___flmul@prod+3
  3379  078D  0844               	movf	??___flmul+2,w
  3380  078E  00D0               	movwf	___flmul@prod+2
  3381  078F  0843               	movf	??___flmul+1,w
  3382  0790  00CF               	movwf	___flmul@prod+1
  3383  0791  0842               	movf	??___flmul,w
  3384  0792  00CE               	movwf	___flmul@prod
  3385  0793                     l1956:	
  3386  0793  3001               	movlw	1
  3387  0794  07D2               	addwf	___flmul@temp,f
  3388  0795  1803               	skipnc
  3389  0796  0AD3               	incf	___flmul@temp+1,f
  3390  0797  3000               	movlw	0
  3391  0798  07D3               	addwf	___flmul@temp+1,f
  3392  0799                     l1958:	
  3393  0799  0853               	movf	___flmul@temp+1,w
  3394  079A  3A80               	xorlw	128
  3395  079B  00FF               	movwf	btemp+1
  3396  079C  3080               	movlw	128
  3397  079D  027F               	subwf	btemp+1,w
  3398  079E  1D03               	skipz
  3399  079F  2FA2               	goto	u2605
  3400  07A0  30FF               	movlw	255
  3401  07A1  0252               	subwf	___flmul@temp,w
  3402  07A2                     u2605:	
  3403  07A2  1C03               	skipc
  3404  07A3  2FA5               	goto	u2601
  3405  07A4  2FA6               	goto	u2600
  3406  07A5                     u2601:	
  3407  07A5  2FB1               	goto	l1962
  3408  07A6                     u2600:	
  3409  07A6                     l1960:	
  3410  07A6  307F               	movlw	127
  3411  07A7  1283               	bcf	3,5	;RP0=0, select bank0
  3412  07A8  1303               	bcf	3,6	;RP1=0, select bank0
  3413  07A9  00D1               	movwf	___flmul@prod+3
  3414  07AA  3080               	movlw	128
  3415  07AB  00D0               	movwf	___flmul@prod+2
  3416  07AC  3000               	movlw	0
  3417  07AD  00CF               	movwf	___flmul@prod+1
  3418  07AE  3000               	movlw	0
  3419  07AF  00CE               	movwf	___flmul@prod
  3420  07B0  2FE6               	goto	l681
  3421  07B1                     l1962:	
  3422  07B1  1283               	bcf	3,5	;RP0=0, select bank0
  3423  07B2  1303               	bcf	3,6	;RP1=0, select bank0
  3424  07B3  0853               	movf	___flmul@temp+1,w
  3425  07B4  3A80               	xorlw	128
  3426  07B5  00FF               	movwf	btemp+1
  3427  07B6  3080               	movlw	128
  3428  07B7  027F               	subwf	btemp+1,w
  3429  07B8  1D03               	skipz
  3430  07B9  2FBC               	goto	u2615
  3431  07BA  3001               	movlw	1
  3432  07BB  0252               	subwf	___flmul@temp,w
  3433  07BC                     u2615:	
  3434  07BC  1803               	skipnc
  3435  07BD  2FBF               	goto	u2611
  3436  07BE  2FC0               	goto	u2610
  3437  07BF                     u2611:	
  3438  07BF  2FCC               	goto	l1968
  3439  07C0                     u2610:	
  3440  07C0                     l1964:	
  3441  07C0  3000               	movlw	0
  3442  07C1  1283               	bcf	3,5	;RP0=0, select bank0
  3443  07C2  1303               	bcf	3,6	;RP1=0, select bank0
  3444  07C3  00D1               	movwf	___flmul@prod+3
  3445  07C4  3000               	movlw	0
  3446  07C5  00D0               	movwf	___flmul@prod+2
  3447  07C6  3000               	movlw	0
  3448  07C7  00CF               	movwf	___flmul@prod+1
  3449  07C8  3000               	movlw	0
  3450  07C9  00CE               	movwf	___flmul@prod
  3451  07CA                     l1966:	
  3452  07CA  01C7               	clrf	___flmul@sign
  3453  07CB  2FE6               	goto	l681
  3454  07CC                     l1968:	
  3455  07CC  1283               	bcf	3,5	;RP0=0, select bank0
  3456  07CD  1303               	bcf	3,6	;RP1=0, select bank0
  3457  07CE  0852               	movf	___flmul@temp,w
  3458  07CF  00C2               	movwf	??___flmul
  3459  07D0  0842               	movf	??___flmul,w
  3460  07D1  00CD               	movwf	___flmul@bexp
  3461  07D2  30FF               	movlw	255
  3462  07D3  05CE               	andwf	___flmul@prod,f
  3463  07D4  30FF               	movlw	255
  3464  07D5  05CF               	andwf	___flmul@prod+1,f
  3465  07D6  307F               	movlw	127
  3466  07D7  05D0               	andwf	___flmul@prod+2,f
  3467  07D8  3000               	movlw	0
  3468  07D9  05D1               	andwf	___flmul@prod+3,f
  3469  07DA                     l1970:	
  3470  07DA  1C4D               	btfss	___flmul@bexp,0
  3471  07DB  2FDD               	goto	u2621
  3472  07DC  2FDE               	goto	u2620
  3473  07DD                     u2621:	
  3474  07DD  2FDF               	goto	l1974
  3475  07DE                     u2620:	
  3476  07DE                     l1972:	
  3477  07DE  17D0               	bsf	___flmul@prod+2,7
  3478  07DF                     l1974:	
  3479  07DF  084D               	movf	___flmul@bexp,w
  3480  07E0  00C2               	movwf	??___flmul
  3481  07E1  1003               	clrc
  3482  07E2  0C42               	rrf	??___flmul,w
  3483  07E3  00C3               	movwf	??___flmul+1
  3484  07E4  0843               	movf	??___flmul+1,w
  3485  07E5  00D1               	movwf	___flmul@prod+3
  3486  07E6                     l681:	
  3487  07E6  0847               	movf	___flmul@sign,w
  3488  07E7  00C2               	movwf	??___flmul
  3489  07E8  0842               	movf	??___flmul,w
  3490  07E9  04D1               	iorwf	___flmul@prod+3,f
  3491  07EA                     l1976:	
  3492  07EA  0851               	movf	___flmul@prod+3,w
  3493  07EB  00BD               	movwf	?___flmul+3
  3494  07EC  0850               	movf	___flmul@prod+2,w
  3495  07ED  00BC               	movwf	?___flmul+2
  3496  07EE  084F               	movf	___flmul@prod+1,w
  3497  07EF  00BB               	movwf	?___flmul+1
  3498  07F0  084E               	movf	___flmul@prod,w
  3499  07F1  00BA               	movwf	?___flmul
  3500  07F2                     l669:	
  3501  07F2  0008               	return
  3502  07F3                     __end_of___flmul:	
  3503                           
  3504                           	psect	text9
  3505  0BEB                     __ptext9:	
  3506 ;; *************** function __Umul8_16 *****************
  3507 ;; Defined at:
  3508 ;;		line 4 in file "C:\Program Files (x86)\Microchip\xc8\v2.10\pic\sources\c90\common\Umul8_16.c"
  3509 ;; Parameters:    Size  Location     Type
  3510 ;;  multiplier      1    wreg     unsigned char 
  3511 ;;  multiplicand    1    0[COMMON] unsigned char 
  3512 ;; Auto vars:     Size  Location     Type
  3513 ;;  multiplier      1    8[COMMON] unsigned char 
  3514 ;;  word_mpld       2    6[COMMON] unsigned int 
  3515 ;;  product         2    4[COMMON] unsigned int 
  3516 ;; Return value:  Size  Location     Type
  3517 ;;                  2    0[COMMON] unsigned int 
  3518 ;; Registers used:
  3519 ;;		wreg, status,2, status,0
  3520 ;; Tracked objects:
  3521 ;;		On entry : 0/0
  3522 ;;		On exit  : 0/0
  3523 ;;		Unchanged: 0/0
  3524 ;; Data sizes:     COMMON   BANK0   BANK1   BANK3   BANK2
  3525 ;;      Params:         2       0       0       0       0
  3526 ;;      Locals:         5       0       0       0       0
  3527 ;;      Temps:          2       0       0       0       0
  3528 ;;      Totals:         9       0       0       0       0
  3529 ;;Total ram usage:        9 bytes
  3530 ;; Hardware stack levels used:    1
  3531 ;; This function calls:
  3532 ;;		Nothing
  3533 ;; This function is called by:
  3534 ;;		___flmul
  3535 ;; This function uses a non-reentrant model
  3536 ;;
  3537                           
  3538                           
  3539                           ;psect for function __Umul8_16
  3540  0BEB                     __Umul8_16:	
  3541                           
  3542                           ;incstack = 0
  3543                           ; Regs used in __Umul8_16: [wreg+status,2+status,0]
  3544                           ;__Umul8_16@multiplier stored from wreg
  3545  0BEB  00F8               	movwf	__Umul8_16@multiplier
  3546  0BEC                     l1594:	
  3547  0BEC  01F4               	clrf	__Umul8_16@product
  3548  0BED  01F5               	clrf	__Umul8_16@product+1
  3549  0BEE                     l1596:	
  3550  0BEE  0870               	movf	__Umul8_16@multiplicand,w
  3551  0BEF  00F2               	movwf	??__Umul8_16
  3552  0BF0  01F3               	clrf	??__Umul8_16+1
  3553  0BF1  0872               	movf	??__Umul8_16,w
  3554  0BF2  00F6               	movwf	__Umul8_16@word_mpld
  3555  0BF3  0873               	movf	??__Umul8_16+1,w
  3556  0BF4  00F7               	movwf	__Umul8_16@word_mpld+1
  3557  0BF5                     l1598:	
  3558  0BF5  1C78               	btfss	__Umul8_16@multiplier,0
  3559  0BF6  2BF8               	goto	u1671
  3560  0BF7  2BF9               	goto	u1670
  3561  0BF8                     u1671:	
  3562  0BF8  2BFF               	goto	l726
  3563  0BF9                     u1670:	
  3564  0BF9                     l1600:	
  3565  0BF9  0876               	movf	__Umul8_16@word_mpld,w
  3566  0BFA  07F4               	addwf	__Umul8_16@product,f
  3567  0BFB  1803               	skipnc
  3568  0BFC  0AF5               	incf	__Umul8_16@product+1,f
  3569  0BFD  0877               	movf	__Umul8_16@word_mpld+1,w
  3570  0BFE  07F5               	addwf	__Umul8_16@product+1,f
  3571  0BFF                     l726:	
  3572  0BFF  3001               	movlw	1
  3573  0C00                     u1685:	
  3574  0C00  1003               	clrc
  3575  0C01  0DF6               	rlf	__Umul8_16@word_mpld,f
  3576  0C02  0DF7               	rlf	__Umul8_16@word_mpld+1,f
  3577  0C03  3EFF               	addlw	-1
  3578  0C04  1D03               	skipz
  3579  0C05  2C00               	goto	u1685
  3580  0C06  1003               	clrc
  3581  0C07  0CF8               	rrf	__Umul8_16@multiplier,f
  3582  0C08                     l1602:	
  3583  0C08  0878               	movf	__Umul8_16@multiplier,w
  3584  0C09  1D03               	btfss	3,2
  3585  0C0A  2C0C               	goto	u1691
  3586  0C0B  2C0D               	goto	u1690
  3587  0C0C                     u1691:	
  3588  0C0C  2BF5               	goto	l1598
  3589  0C0D                     u1690:	
  3590  0C0D                     l1604:	
  3591  0C0D  0875               	movf	__Umul8_16@product+1,w
  3592  0C0E  00F1               	movwf	?__Umul8_16+1
  3593  0C0F  0874               	movf	__Umul8_16@product,w
  3594  0C10  00F0               	movwf	?__Umul8_16
  3595  0C11                     l728:	
  3596  0C11  0008               	return
  3597  0C12                     __end_of__Umul8_16:	
  3598                           
  3599                           	psect	text10
  3600  02B5                     __ptext10:	
  3601 ;; *************** function ___fldiv *****************
  3602 ;; Defined at:
  3603 ;;		line 8 in file "C:\Program Files (x86)\Microchip\xc8\v2.10\pic\sources\c90\common\sprcdiv.c"
  3604 ;; Parameters:    Size  Location     Type
  3605 ;;  a               4    0[BANK0 ] unsigned int 
  3606 ;;  b               4    4[BANK0 ] unsigned int 
  3607 ;; Auto vars:     Size  Location     Type
  3608 ;;  grs             4   20[BANK0 ] unsigned long 
  3609 ;;  rem             4   13[BANK0 ] unsigned long 
  3610 ;;  new_exp         2   18[BANK0 ] int 
  3611 ;;  aexp            1   25[BANK0 ] unsigned char 
  3612 ;;  bexp            1   24[BANK0 ] unsigned char 
  3613 ;;  sign            1   17[BANK0 ] unsigned char 
  3614 ;; Return value:  Size  Location     Type
  3615 ;;                  4    0[BANK0 ] unsigned char 
  3616 ;; Registers used:
  3617 ;;		wreg, status,2, status,0, btemp+1
  3618 ;; Tracked objects:
  3619 ;;		On entry : 0/0
  3620 ;;		On exit  : 0/0
  3621 ;;		Unchanged: 0/0
  3622 ;; Data sizes:     COMMON   BANK0   BANK1   BANK3   BANK2
  3623 ;;      Params:         0       8       0       0       0
  3624 ;;      Locals:         0      13       0       0       0
  3625 ;;      Temps:          0       5       0       0       0
  3626 ;;      Totals:         0      26       0       0       0
  3627 ;;Total ram usage:       26 bytes
  3628 ;; Hardware stack levels used:    1
  3629 ;; This function calls:
  3630 ;;		Nothing
  3631 ;; This function is called by:
  3632 ;;		_pwmDuty
  3633 ;; This function uses a non-reentrant model
  3634 ;;
  3635                           
  3636                           
  3637                           ;psect for function ___fldiv
  3638  02B5                     ___fldiv:	
  3639  02B5                     l1698:	
  3640                           ;incstack = 0
  3641                           ; Regs used in ___fldiv: [wreg+status,2+status,0+btemp+1]
  3642                           
  3643  02B5  1283               	bcf	3,5	;RP0=0, select bank0
  3644  02B6  1303               	bcf	3,6	;RP1=0, select bank0
  3645  02B7  0827               	movf	___fldiv@b+3,w
  3646  02B8  3980               	andlw	128
  3647  02B9  00A8               	movwf	??___fldiv
  3648  02BA  0828               	movf	??___fldiv,w
  3649  02BB  00B1               	movwf	___fldiv@sign
  3650  02BC                     l1700:	
  3651  02BC  0827               	movf	___fldiv@b+3,w
  3652  02BD  00A8               	movwf	??___fldiv
  3653  02BE  0728               	addwf	??___fldiv,w
  3654  02BF  00A9               	movwf	??___fldiv+1
  3655  02C0  0829               	movf	??___fldiv+1,w
  3656  02C1  00B8               	movwf	___fldiv@bexp
  3657  02C2                     l1702:	
  3658  02C2  1FA6               	btfss	___fldiv@b+2,7
  3659  02C3  2AC5               	goto	u1971
  3660  02C4  2AC6               	goto	u1970
  3661  02C5                     u1971:	
  3662  02C5  2AC7               	goto	l1706
  3663  02C6                     u1970:	
  3664  02C6                     l1704:	
  3665  02C6  1438               	bsf	___fldiv@bexp,0
  3666  02C7                     l1706:	
  3667  02C7  0838               	movf	___fldiv@bexp,w
  3668  02C8  1903               	btfsc	3,2
  3669  02C9  2ACB               	goto	u1981
  3670  02CA  2ACC               	goto	u1980
  3671  02CB                     u1981:	
  3672  02CB  2ADC               	goto	l1716
  3673  02CC                     u1980:	
  3674  02CC                     l1708:	
  3675  02CC  0A38               	incf	___fldiv@bexp,w
  3676  02CD  1D03               	btfss	3,2
  3677  02CE  2AD0               	goto	u1991
  3678  02CF  2AD1               	goto	u1990
  3679  02D0                     u1991:	
  3680  02D0  2AD9               	goto	l1712
  3681  02D1                     u1990:	
  3682  02D1                     l1710:	
  3683  02D1  3000               	movlw	0
  3684  02D2  00A7               	movwf	___fldiv@b+3
  3685  02D3  3000               	movlw	0
  3686  02D4  00A6               	movwf	___fldiv@b+2
  3687  02D5  3000               	movlw	0
  3688  02D6  00A5               	movwf	___fldiv@b+1
  3689  02D7  3000               	movlw	0
  3690  02D8  00A4               	movwf	___fldiv@b
  3691  02D9                     l1712:	
  3692  02D9  17A6               	bsf	___fldiv@b+2,7
  3693  02DA                     l1714:	
  3694  02DA  01A7               	clrf	___fldiv@b+3
  3695  02DB  2AE4               	goto	l1718
  3696  02DC                     l1716:	
  3697  02DC  3000               	movlw	0
  3698  02DD  00A7               	movwf	___fldiv@b+3
  3699  02DE  3000               	movlw	0
  3700  02DF  00A6               	movwf	___fldiv@b+2
  3701  02E0  3000               	movlw	0
  3702  02E1  00A5               	movwf	___fldiv@b+1
  3703  02E2  3000               	movlw	0
  3704  02E3  00A4               	movwf	___fldiv@b
  3705  02E4                     l1718:	
  3706  02E4  0823               	movf	___fldiv@a+3,w
  3707  02E5  3980               	andlw	128
  3708  02E6  00A8               	movwf	??___fldiv
  3709  02E7  0828               	movf	??___fldiv,w
  3710  02E8  06B1               	xorwf	___fldiv@sign,f
  3711  02E9                     l1720:	
  3712  02E9  0823               	movf	___fldiv@a+3,w
  3713  02EA  00A8               	movwf	??___fldiv
  3714  02EB  0728               	addwf	??___fldiv,w
  3715  02EC  00A9               	movwf	??___fldiv+1
  3716  02ED  0829               	movf	??___fldiv+1,w
  3717  02EE  00B9               	movwf	___fldiv@aexp
  3718  02EF                     l1722:	
  3719  02EF  1FA2               	btfss	___fldiv@a+2,7
  3720  02F0  2AF2               	goto	u2001
  3721  02F1  2AF3               	goto	u2000
  3722  02F2                     u2001:	
  3723  02F2  2AF4               	goto	l1726
  3724  02F3                     u2000:	
  3725  02F3                     l1724:	
  3726  02F3  1439               	bsf	___fldiv@aexp,0
  3727  02F4                     l1726:	
  3728  02F4  0839               	movf	___fldiv@aexp,w
  3729  02F5  1903               	btfsc	3,2
  3730  02F6  2AF8               	goto	u2011
  3731  02F7  2AF9               	goto	u2010
  3732  02F8                     u2011:	
  3733  02F8  2B09               	goto	l1736
  3734  02F9                     u2010:	
  3735  02F9                     l1728:	
  3736  02F9  0A39               	incf	___fldiv@aexp,w
  3737  02FA  1D03               	btfss	3,2
  3738  02FB  2AFD               	goto	u2021
  3739  02FC  2AFE               	goto	u2020
  3740  02FD                     u2021:	
  3741  02FD  2B06               	goto	l1732
  3742  02FE                     u2020:	
  3743  02FE                     l1730:	
  3744  02FE  3000               	movlw	0
  3745  02FF  00A3               	movwf	___fldiv@a+3
  3746  0300  3000               	movlw	0
  3747  0301  00A2               	movwf	___fldiv@a+2
  3748  0302  3000               	movlw	0
  3749  0303  00A1               	movwf	___fldiv@a+1
  3750  0304  3000               	movlw	0
  3751  0305  00A0               	movwf	___fldiv@a
  3752  0306                     l1732:	
  3753  0306  17A2               	bsf	___fldiv@a+2,7
  3754  0307                     l1734:	
  3755  0307  01A3               	clrf	___fldiv@a+3
  3756  0308  2B11               	goto	l629
  3757  0309                     l1736:	
  3758  0309  3000               	movlw	0
  3759  030A  00A3               	movwf	___fldiv@a+3
  3760  030B  3000               	movlw	0
  3761  030C  00A2               	movwf	___fldiv@a+2
  3762  030D  3000               	movlw	0
  3763  030E  00A1               	movwf	___fldiv@a+1
  3764  030F  3000               	movlw	0
  3765  0310  00A0               	movwf	___fldiv@a
  3766  0311                     l629:	
  3767  0311  0823               	movf	___fldiv@a+3,w
  3768  0312  0422               	iorwf	___fldiv@a+2,w
  3769  0313  0421               	iorwf	___fldiv@a+1,w
  3770  0314  0420               	iorwf	___fldiv@a,w
  3771  0315  1D03               	skipz
  3772  0316  2B18               	goto	u2031
  3773  0317  2B19               	goto	u2030
  3774  0318                     u2031:	
  3775  0318  2B32               	goto	l1746
  3776  0319                     u2030:	
  3777  0319                     l1738:	
  3778  0319  3000               	movlw	0
  3779  031A  00A7               	movwf	___fldiv@b+3
  3780  031B  3000               	movlw	0
  3781  031C  00A6               	movwf	___fldiv@b+2
  3782  031D  3000               	movlw	0
  3783  031E  00A5               	movwf	___fldiv@b+1
  3784  031F  3000               	movlw	0
  3785  0320  00A4               	movwf	___fldiv@b
  3786  0321  3080               	movlw	128
  3787  0322  04A6               	iorwf	___fldiv@b+2,f
  3788  0323  307F               	movlw	127
  3789  0324  04A7               	iorwf	___fldiv@b+3,f
  3790  0325                     l1740:	
  3791  0325  0831               	movf	___fldiv@sign,w
  3792  0326  00A8               	movwf	??___fldiv
  3793  0327  0828               	movf	??___fldiv,w
  3794  0328  04A7               	iorwf	___fldiv@b+3,f
  3795  0329                     l1742:	
  3796  0329  0827               	movf	___fldiv@b+3,w
  3797  032A  00A3               	movwf	?___fldiv+3
  3798  032B  0826               	movf	___fldiv@b+2,w
  3799  032C  00A2               	movwf	?___fldiv+2
  3800  032D  0825               	movf	___fldiv@b+1,w
  3801  032E  00A1               	movwf	?___fldiv+1
  3802  032F  0824               	movf	___fldiv@b,w
  3803  0330  00A0               	movwf	?___fldiv
  3804  0331  2C91               	goto	l631
  3805  0332                     l1746:	
  3806  0332  0838               	movf	___fldiv@bexp,w
  3807  0333  1D03               	btfss	3,2
  3808  0334  2B36               	goto	u2041
  3809  0335  2B37               	goto	u2040
  3810  0336                     u2041:	
  3811  0336  2B40               	goto	l1752
  3812  0337                     u2040:	
  3813  0337                     l1748:	
  3814  0337  3000               	movlw	0
  3815  0338  00A3               	movwf	?___fldiv+3
  3816  0339  3000               	movlw	0
  3817  033A  00A2               	movwf	?___fldiv+2
  3818  033B  3000               	movlw	0
  3819  033C  00A1               	movwf	?___fldiv+1
  3820  033D  3000               	movlw	0
  3821  033E  00A0               	movwf	?___fldiv
  3822  033F  2C91               	goto	l631
  3823  0340                     l1752:	
  3824  0340  0838               	movf	___fldiv@bexp,w
  3825  0341  00A8               	movwf	??___fldiv
  3826  0342  01A9               	clrf	??___fldiv+1
  3827  0343  0829               	movf	??___fldiv+1,w
  3828  0344  00AB               	movwf	??___fldiv+3
  3829  0345  0839               	movf	___fldiv@aexp,w
  3830  0346  0228               	subwf	??___fldiv,w
  3831  0347  00AA               	movwf	??___fldiv+2
  3832  0348  1C03               	skipc
  3833  0349  03AB               	decf	??___fldiv+3,f
  3834  034A  082A               	movf	??___fldiv+2,w
  3835  034B  3E7F               	addlw	127
  3836  034C  00B2               	movwf	___fldiv@new_exp
  3837  034D  082B               	movf	??___fldiv+3,w
  3838  034E  1803               	skipnc
  3839  034F  3E01               	addlw	1
  3840  0350  3E00               	addlw	0
  3841  0351  00B3               	movwf	___fldiv@new_exp+1
  3842  0352                     l1754:	
  3843  0352  0827               	movf	___fldiv@b+3,w
  3844  0353  00B0               	movwf	___fldiv@rem+3
  3845  0354  0826               	movf	___fldiv@b+2,w
  3846  0355  00AF               	movwf	___fldiv@rem+2
  3847  0356  0825               	movf	___fldiv@b+1,w
  3848  0357  00AE               	movwf	___fldiv@rem+1
  3849  0358  0824               	movf	___fldiv@b,w
  3850  0359  00AD               	movwf	___fldiv@rem
  3851  035A                     l1756:	
  3852  035A  3000               	movlw	0
  3853  035B  00A7               	movwf	___fldiv@b+3
  3854  035C  3000               	movlw	0
  3855  035D  00A6               	movwf	___fldiv@b+2
  3856  035E  3000               	movlw	0
  3857  035F  00A5               	movwf	___fldiv@b+1
  3858  0360  3000               	movlw	0
  3859  0361  00A4               	movwf	___fldiv@b
  3860  0362                     l1758:	
  3861  0362  3000               	movlw	0
  3862  0363  00B7               	movwf	___fldiv@grs+3
  3863  0364  3000               	movlw	0
  3864  0365  00B6               	movwf	___fldiv@grs+2
  3865  0366  3000               	movlw	0
  3866  0367  00B5               	movwf	___fldiv@grs+1
  3867  0368  3000               	movlw	0
  3868  0369  00B4               	movwf	___fldiv@grs
  3869  036A                     l1760:	
  3870  036A  01B9               	clrf	___fldiv@aexp
  3871  036B  2BB6               	goto	l1780
  3872  036C                     l1762:	
  3873  036C  0839               	movf	___fldiv@aexp,w
  3874  036D  1903               	btfsc	3,2
  3875  036E  2B70               	goto	u2051
  3876  036F  2B71               	goto	u2050
  3877  0370                     u2051:	
  3878  0370  2B91               	goto	l1772
  3879  0371                     u2050:	
  3880  0371                     l1764:	
  3881  0371  3001               	movlw	1
  3882  0372  00A8               	movwf	??___fldiv
  3883  0373                     u2065:	
  3884  0373  1003               	clrc
  3885  0374  0DAD               	rlf	___fldiv@rem,f
  3886  0375  0DAE               	rlf	___fldiv@rem+1,f
  3887  0376  0DAF               	rlf	___fldiv@rem+2,f
  3888  0377  0DB0               	rlf	___fldiv@rem+3,f
  3889  0378  0BA8               	decfsz	??___fldiv,f
  3890  0379  2B73               	goto	u2065
  3891  037A  3001               	movlw	1
  3892  037B  00A8               	movwf	??___fldiv
  3893  037C                     u2075:	
  3894  037C  1003               	clrc
  3895  037D  0DA4               	rlf	___fldiv@b,f
  3896  037E  0DA5               	rlf	___fldiv@b+1,f
  3897  037F  0DA6               	rlf	___fldiv@b+2,f
  3898  0380  0DA7               	rlf	___fldiv@b+3,f
  3899  0381  0BA8               	decfsz	??___fldiv,f
  3900  0382  2B7C               	goto	u2075
  3901  0383                     l1766:	
  3902  0383  1FB7               	btfss	___fldiv@grs+3,7
  3903  0384  2B86               	goto	u2081
  3904  0385  2B87               	goto	u2080
  3905  0386                     u2081:	
  3906  0386  2B88               	goto	l1770
  3907  0387                     u2080:	
  3908  0387                     l1768:	
  3909  0387  1424               	bsf	___fldiv@b,0
  3910  0388                     l1770:	
  3911  0388  3001               	movlw	1
  3912  0389  00A8               	movwf	??___fldiv
  3913  038A                     u2095:	
  3914  038A  1003               	clrc
  3915  038B  0DB4               	rlf	___fldiv@grs,f
  3916  038C  0DB5               	rlf	___fldiv@grs+1,f
  3917  038D  0DB6               	rlf	___fldiv@grs+2,f
  3918  038E  0DB7               	rlf	___fldiv@grs+3,f
  3919  038F  0BA8               	decfsz	??___fldiv,f
  3920  0390  2B8A               	goto	u2095
  3921  0391                     l1772:	
  3922  0391  0823               	movf	___fldiv@a+3,w
  3923  0392  0230               	subwf	___fldiv@rem+3,w
  3924  0393  1D03               	skipz
  3925  0394  2B9F               	goto	u2105
  3926  0395  0822               	movf	___fldiv@a+2,w
  3927  0396  022F               	subwf	___fldiv@rem+2,w
  3928  0397  1D03               	skipz
  3929  0398  2B9F               	goto	u2105
  3930  0399  0821               	movf	___fldiv@a+1,w
  3931  039A  022E               	subwf	___fldiv@rem+1,w
  3932  039B  1D03               	skipz
  3933  039C  2B9F               	goto	u2105
  3934  039D  0820               	movf	___fldiv@a,w
  3935  039E  022D               	subwf	___fldiv@rem,w
  3936  039F                     u2105:	
  3937  039F  1C03               	skipc
  3938  03A0  2BA2               	goto	u2101
  3939  03A1  2BA3               	goto	u2100
  3940  03A2                     u2101:	
  3941  03A2  2BB2               	goto	l1778
  3942  03A3                     u2100:	
  3943  03A3                     l1774:	
  3944  03A3  1737               	bsf	___fldiv@grs+3,6
  3945  03A4                     l1776:	
  3946  03A4  0820               	movf	___fldiv@a,w
  3947  03A5  02AD               	subwf	___fldiv@rem,f
  3948  03A6  0821               	movf	___fldiv@a+1,w
  3949  03A7  1C03               	skipc
  3950  03A8  0F21               	incfsz	___fldiv@a+1,w
  3951  03A9  02AE               	subwf	___fldiv@rem+1,f
  3952  03AA  0822               	movf	___fldiv@a+2,w
  3953  03AB  1C03               	skipc
  3954  03AC  0F22               	incfsz	___fldiv@a+2,w
  3955  03AD  02AF               	subwf	___fldiv@rem+2,f
  3956  03AE  0823               	movf	___fldiv@a+3,w
  3957  03AF  1C03               	skipc
  3958  03B0  0F23               	incfsz	___fldiv@a+3,w
  3959  03B1  02B0               	subwf	___fldiv@rem+3,f
  3960  03B2                     l1778:	
  3961  03B2  3001               	movlw	1
  3962  03B3  00A8               	movwf	??___fldiv
  3963  03B4  0828               	movf	??___fldiv,w
  3964  03B5  07B9               	addwf	___fldiv@aexp,f
  3965  03B6                     l1780:	
  3966  03B6  301A               	movlw	26
  3967  03B7  0239               	subwf	___fldiv@aexp,w
  3968  03B8  1C03               	skipc
  3969  03B9  2BBB               	goto	u2111
  3970  03BA  2BBC               	goto	u2110
  3971  03BB                     u2111:	
  3972  03BB  2B6C               	goto	l1762
  3973  03BC                     u2110:	
  3974  03BC                     l1782:	
  3975  03BC  0830               	movf	___fldiv@rem+3,w
  3976  03BD  042F               	iorwf	___fldiv@rem+2,w
  3977  03BE  042E               	iorwf	___fldiv@rem+1,w
  3978  03BF  042D               	iorwf	___fldiv@rem,w
  3979  03C0  1903               	skipnz
  3980  03C1  2BC3               	goto	u2121
  3981  03C2  2BC4               	goto	u2120
  3982  03C3                     u2121:	
  3983  03C3  2BE3               	goto	l1796
  3984  03C4                     u2120:	
  3985  03C4                     l1784:	
  3986  03C4  1434               	bsf	___fldiv@grs,0
  3987  03C5  2BE3               	goto	l1796
  3988  03C6                     l1786:	
  3989  03C6  3001               	movlw	1
  3990  03C7  00A8               	movwf	??___fldiv
  3991  03C8                     u2135:	
  3992  03C8  1003               	clrc
  3993  03C9  0DA4               	rlf	___fldiv@b,f
  3994  03CA  0DA5               	rlf	___fldiv@b+1,f
  3995  03CB  0DA6               	rlf	___fldiv@b+2,f
  3996  03CC  0DA7               	rlf	___fldiv@b+3,f
  3997  03CD  0BA8               	decfsz	??___fldiv,f
  3998  03CE  2BC8               	goto	u2135
  3999  03CF                     l1788:	
  4000  03CF  1FB7               	btfss	___fldiv@grs+3,7
  4001  03D0  2BD2               	goto	u2141
  4002  03D1  2BD3               	goto	u2140
  4003  03D2                     u2141:	
  4004  03D2  2BD4               	goto	l1792
  4005  03D3                     u2140:	
  4006  03D3                     l1790:	
  4007  03D3  1424               	bsf	___fldiv@b,0
  4008  03D4                     l1792:	
  4009  03D4  3001               	movlw	1
  4010  03D5  00A8               	movwf	??___fldiv
  4011  03D6                     u2155:	
  4012  03D6  1003               	clrc
  4013  03D7  0DB4               	rlf	___fldiv@grs,f
  4014  03D8  0DB5               	rlf	___fldiv@grs+1,f
  4015  03D9  0DB6               	rlf	___fldiv@grs+2,f
  4016  03DA  0DB7               	rlf	___fldiv@grs+3,f
  4017  03DB  0BA8               	decfsz	??___fldiv,f
  4018  03DC  2BD6               	goto	u2155
  4019  03DD                     l1794:	
  4020  03DD  30FF               	movlw	255
  4021  03DE  07B2               	addwf	___fldiv@new_exp,f
  4022  03DF  1803               	skipnc
  4023  03E0  0AB3               	incf	___fldiv@new_exp+1,f
  4024  03E1  30FF               	movlw	255
  4025  03E2  07B3               	addwf	___fldiv@new_exp+1,f
  4026  03E3                     l1796:	
  4027  03E3  1FA6               	btfss	___fldiv@b+2,7
  4028  03E4  2BE6               	goto	u2161
  4029  03E5  2BE7               	goto	u2160
  4030  03E6                     u2161:	
  4031  03E6  2BC6               	goto	l1786
  4032  03E7                     u2160:	
  4033  03E7                     l1798:	
  4034  03E7  01B9               	clrf	___fldiv@aexp
  4035  03E8                     l1800:	
  4036  03E8  1FB7               	btfss	___fldiv@grs+3,7
  4037  03E9  2BEB               	goto	u2171
  4038  03EA  2BEC               	goto	u2170
  4039  03EB                     u2171:	
  4040  03EB  2C08               	goto	l1808
  4041  03EC                     u2170:	
  4042  03EC                     l1802:	
  4043  03EC  30FF               	movlw	255
  4044  03ED  0534               	andwf	___fldiv@grs,w
  4045  03EE  00A8               	movwf	??___fldiv
  4046  03EF  30FF               	movlw	255
  4047  03F0  0535               	andwf	___fldiv@grs+1,w
  4048  03F1  00A9               	movwf	??___fldiv+1
  4049  03F2  30FF               	movlw	255
  4050  03F3  0536               	andwf	___fldiv@grs+2,w
  4051  03F4  00AA               	movwf	??___fldiv+2
  4052  03F5  307F               	movlw	127
  4053  03F6  0537               	andwf	___fldiv@grs+3,w
  4054  03F7  00AB               	movwf	??___fldiv+3
  4055  03F8  082B               	movf	??___fldiv+3,w
  4056  03F9  042A               	iorwf	??___fldiv+2,w
  4057  03FA  0429               	iorwf	??___fldiv+1,w
  4058  03FB  0428               	iorwf	??___fldiv,w
  4059  03FC  1903               	skipnz
  4060  03FD  2BFF               	goto	u2181
  4061  03FE  2C00               	goto	u2180
  4062  03FF                     u2181:	
  4063  03FF  2C03               	goto	l645
  4064  0400                     u2180:	
  4065  0400                     l1804:	
  4066  0400  01B9               	clrf	___fldiv@aexp
  4067  0401  0AB9               	incf	___fldiv@aexp,f
  4068  0402  2C08               	goto	l1808
  4069  0403                     l645:	
  4070  0403  1C24               	btfss	___fldiv@b,0
  4071  0404  2C06               	goto	u2191
  4072  0405  2C07               	goto	u2190
  4073  0406                     u2191:	
  4074  0406  2C08               	goto	l1808
  4075  0407                     u2190:	
  4076  0407  2C00               	goto	l1804
  4077  0408                     l1808:	
  4078  0408  0839               	movf	___fldiv@aexp,w
  4079  0409  1903               	btfsc	3,2
  4080  040A  2C0C               	goto	u2201
  4081  040B  2C0D               	goto	u2200
  4082  040C                     u2201:	
  4083  040C  2C3E               	goto	l1818
  4084  040D                     u2200:	
  4085  040D                     l1810:	
  4086  040D  3001               	movlw	1
  4087  040E  07A4               	addwf	___fldiv@b,f
  4088  040F  3000               	movlw	0
  4089  0410  1803               	skipnc
  4090  0411  3001               	movlw	1
  4091  0412  07A5               	addwf	___fldiv@b+1,f
  4092  0413  3000               	movlw	0
  4093  0414  1803               	skipnc
  4094  0415  3001               	movlw	1
  4095  0416  07A6               	addwf	___fldiv@b+2,f
  4096  0417  3000               	movlw	0
  4097  0418  1803               	skipnc
  4098  0419  3001               	movlw	1
  4099  041A  07A7               	addwf	___fldiv@b+3,f
  4100  041B                     l1812:	
  4101  041B  1C27               	btfss	___fldiv@b+3,0
  4102  041C  2C1E               	goto	u2211
  4103  041D  2C1F               	goto	u2210
  4104  041E                     u2211:	
  4105  041E  2C3E               	goto	l1818
  4106  041F                     u2210:	
  4107  041F                     l1814:	
  4108  041F  0824               	movf	___fldiv@b,w
  4109  0420  00A8               	movwf	??___fldiv
  4110  0421  0825               	movf	___fldiv@b+1,w
  4111  0422  00A9               	movwf	??___fldiv+1
  4112  0423  0826               	movf	___fldiv@b+2,w
  4113  0424  00AA               	movwf	??___fldiv+2
  4114  0425  0827               	movf	___fldiv@b+3,w
  4115  0426  00AB               	movwf	??___fldiv+3
  4116  0427  3001               	movlw	1
  4117  0428  00AC               	movwf	??___fldiv+4
  4118  0429                     u2225:	
  4119  0429  0D2B               	rlf	??___fldiv+3,w
  4120  042A  0CAB               	rrf	??___fldiv+3,f
  4121  042B  0CAA               	rrf	??___fldiv+2,f
  4122  042C  0CA9               	rrf	??___fldiv+1,f
  4123  042D  0CA8               	rrf	??___fldiv,f
  4124  042E                     u2220:	
  4125  042E  0BAC               	decfsz	??___fldiv+4,f
  4126  042F  2C29               	goto	u2225
  4127  0430  082B               	movf	??___fldiv+3,w
  4128  0431  00A7               	movwf	___fldiv@b+3
  4129  0432  082A               	movf	??___fldiv+2,w
  4130  0433  00A6               	movwf	___fldiv@b+2
  4131  0434  0829               	movf	??___fldiv+1,w
  4132  0435  00A5               	movwf	___fldiv@b+1
  4133  0436  0828               	movf	??___fldiv,w
  4134  0437  00A4               	movwf	___fldiv@b
  4135  0438                     l1816:	
  4136  0438  3001               	movlw	1
  4137  0439  07B2               	addwf	___fldiv@new_exp,f
  4138  043A  1803               	skipnc
  4139  043B  0AB3               	incf	___fldiv@new_exp+1,f
  4140  043C  3000               	movlw	0
  4141  043D  07B3               	addwf	___fldiv@new_exp+1,f
  4142  043E                     l1818:	
  4143  043E  0833               	movf	___fldiv@new_exp+1,w
  4144  043F  3A80               	xorlw	128
  4145  0440  00FF               	movwf	btemp+1
  4146  0441  3080               	movlw	128
  4147  0442  027F               	subwf	btemp+1,w
  4148  0443  1D03               	skipz
  4149  0444  2C47               	goto	u2235
  4150  0445  30FF               	movlw	255
  4151  0446  0232               	subwf	___fldiv@new_exp,w
  4152  0447                     u2235:	
  4153  0447  1C03               	skipc
  4154  0448  2C4A               	goto	u2231
  4155  0449  2C4B               	goto	u2230
  4156  044A                     u2231:	
  4157  044A  2C59               	goto	l1822
  4158  044B                     u2230:	
  4159  044B                     l1820:	
  4160  044B  30FF               	movlw	255
  4161  044C  1283               	bcf	3,5	;RP0=0, select bank0
  4162  044D  1303               	bcf	3,6	;RP1=0, select bank0
  4163  044E  00B2               	movwf	___fldiv@new_exp
  4164  044F  3000               	movlw	0
  4165  0450  00B3               	movwf	___fldiv@new_exp+1
  4166  0451  3000               	movlw	0
  4167  0452  00A7               	movwf	___fldiv@b+3
  4168  0453  3000               	movlw	0
  4169  0454  00A6               	movwf	___fldiv@b+2
  4170  0455  3000               	movlw	0
  4171  0456  00A5               	movwf	___fldiv@b+1
  4172  0457  3000               	movlw	0
  4173  0458  00A4               	movwf	___fldiv@b
  4174  0459                     l1822:	
  4175  0459  1283               	bcf	3,5	;RP0=0, select bank0
  4176  045A  1303               	bcf	3,6	;RP1=0, select bank0
  4177  045B  0833               	movf	___fldiv@new_exp+1,w
  4178  045C  3A80               	xorlw	128
  4179  045D  00FF               	movwf	btemp+1
  4180  045E  3080               	movlw	128
  4181  045F  027F               	subwf	btemp+1,w
  4182  0460  1D03               	skipz
  4183  0461  2C64               	goto	u2245
  4184  0462  3001               	movlw	1
  4185  0463  0232               	subwf	___fldiv@new_exp,w
  4186  0464                     u2245:	
  4187  0464  1803               	skipnc
  4188  0465  2C67               	goto	u2241
  4189  0466  2C68               	goto	u2240
  4190  0467                     u2241:	
  4191  0467  2C75               	goto	l651
  4192  0468                     u2240:	
  4193  0468                     l1824:	
  4194  0468  1283               	bcf	3,5	;RP0=0, select bank0
  4195  0469  1303               	bcf	3,6	;RP1=0, select bank0
  4196  046A  01B2               	clrf	___fldiv@new_exp
  4197  046B  01B3               	clrf	___fldiv@new_exp+1
  4198  046C                     l1826:	
  4199  046C  3000               	movlw	0
  4200  046D  00A7               	movwf	___fldiv@b+3
  4201  046E  3000               	movlw	0
  4202  046F  00A6               	movwf	___fldiv@b+2
  4203  0470  3000               	movlw	0
  4204  0471  00A5               	movwf	___fldiv@b+1
  4205  0472  3000               	movlw	0
  4206  0473  00A4               	movwf	___fldiv@b
  4207  0474                     l1828:	
  4208  0474  01B1               	clrf	___fldiv@sign
  4209  0475                     l651:	
  4210  0475  1283               	bcf	3,5	;RP0=0, select bank0
  4211  0476  1303               	bcf	3,6	;RP1=0, select bank0
  4212  0477  0832               	movf	___fldiv@new_exp,w
  4213  0478  00A8               	movwf	??___fldiv
  4214  0479  0828               	movf	??___fldiv,w
  4215  047A  00B8               	movwf	___fldiv@bexp
  4216  047B                     l1830:	
  4217  047B  1C38               	btfss	___fldiv@bexp,0
  4218  047C  2C7E               	goto	u2251
  4219  047D  2C7F               	goto	u2250
  4220  047E                     u2251:	
  4221  047E  2C81               	goto	l1834
  4222  047F                     u2250:	
  4223  047F                     l1832:	
  4224  047F  17A6               	bsf	___fldiv@b+2,7
  4225  0480  2C85               	goto	l653
  4226  0481                     l1834:	
  4227  0481  307F               	movlw	127
  4228  0482  00A8               	movwf	??___fldiv
  4229  0483  0828               	movf	??___fldiv,w
  4230  0484  05A6               	andwf	___fldiv@b+2,f
  4231  0485                     l653:	
  4232  0485  0838               	movf	___fldiv@bexp,w
  4233  0486  00A8               	movwf	??___fldiv
  4234  0487  1003               	clrc
  4235  0488  0C28               	rrf	??___fldiv,w
  4236  0489  00A9               	movwf	??___fldiv+1
  4237  048A  0829               	movf	??___fldiv+1,w
  4238  048B  00A7               	movwf	___fldiv@b+3
  4239  048C  0831               	movf	___fldiv@sign,w
  4240  048D  00A8               	movwf	??___fldiv
  4241  048E  0828               	movf	??___fldiv,w
  4242  048F  04A7               	iorwf	___fldiv@b+3,f
  4243  0490  2B29               	goto	l1742
  4244  0491                     l631:	
  4245  0491  0008               	return
  4246  0492                     __end_of___fldiv:	
  4247                           
  4248                           	psect	text11
  4249  0E3B                     __ptext11:	
  4250 ;; *************** function _dameDistancia *****************
  4251 ;; Defined at:
  4252 ;;		line 16 in file "./ultrasonico.h"
  4253 ;; Parameters:    Size  Location     Type
  4254 ;;  numeroSensor    1    wreg     unsigned char 
  4255 ;; Auto vars:     Size  Location     Type
  4256 ;;  numeroSensor    1    0[BANK0 ] unsigned char 
  4257 ;;  conteo          2    3[BANK0 ] unsigned int 
  4258 ;;  distancia       2    1[BANK0 ] unsigned short 
  4259 ;; Return value:  Size  Location     Type
  4260 ;;                  2    8[COMMON] unsigned short 
  4261 ;; Registers used:
  4262 ;;		wreg, fsr0l, fsr0h, status,2, status,0, btemp+1, pclath, cstack
  4263 ;; Tracked objects:
  4264 ;;		On entry : 0/0
  4265 ;;		On exit  : 0/0
  4266 ;;		Unchanged: 0/0
  4267 ;; Data sizes:     COMMON   BANK0   BANK1   BANK3   BANK2
  4268 ;;      Params:         2       0       0       0       0
  4269 ;;      Locals:         0       5       0       0       0
  4270 ;;      Temps:          2       0       0       0       0
  4271 ;;      Totals:         4       5       0       0       0
  4272 ;;Total ram usage:        9 bytes
  4273 ;; Hardware stack levels used:    1
  4274 ;; Hardware stack levels required when called:    1
  4275 ;; This function calls:
  4276 ;;		___lwdiv
  4277 ;; This function is called by:
  4278 ;;		_main
  4279 ;; This function uses a non-reentrant model
  4280 ;;
  4281                           
  4282                           
  4283                           ;psect for function _dameDistancia
  4284  0E3B                     _dameDistancia:	
  4285                           
  4286                           ;incstack = 0
  4287                           ; Regs used in _dameDistancia: [wreg-fsr0h+status,2+status,0+btemp+1+pclath+cstack]
  4288                           ;dameDistancia@numeroSensor stored from wreg
  4289  0E3B  1283               	bcf	3,5	;RP0=0, select bank0
  4290  0E3C  1303               	bcf	3,6	;RP1=0, select bank0
  4291  0E3D  00A0               	movwf	dameDistancia@numeroSensor
  4292  0E3E                     l2058:	
  4293                           
  4294                           ;./ultrasonico.h: 18:     unsigned int conteo;;./ultrasonico.h: 19:     unsigned short d
      +                          istancia;;./ultrasonico.h: 21:     TMR1H = 0x00;
  4295  0E3E  018F               	clrf	15	;volatile
  4296                           
  4297                           ;./ultrasonico.h: 22:     TMR1L = 0x00;
  4298  0E3F  018E               	clrf	14	;volatile
  4299                           
  4300                           ;./ultrasonico.h: 23:     conteo = 0;
  4301  0E40  01A3               	clrf	dameDistancia@conteo
  4302  0E41  01A4               	clrf	dameDistancia@conteo+1
  4303  0E42                     l2060:	
  4304                           
  4305                           ;./ultrasonico.h: 24:     RB0 = 1;
  4306  0E42  1406               	bsf	6,0	;volatile
  4307  0E43                     l2062:	
  4308                           
  4309                           ;./ultrasonico.h: 25:     _delay((unsigned long)((12)*(4000000/4000000.0)));
  4310  0E43  3003               	movlw	3
  4311  0E44  00FA               	movwf	??_dameDistancia
  4312  0E45                     u3037:	
  4313  0E45  0BFA               	decfsz	??_dameDistancia,f
  4314  0E46  2E45               	goto	u3037
  4315  0E47  2E48               	nop2
  4316  0E48                     l2064:	
  4317                           
  4318                           ;./ultrasonico.h: 26:     RB0 = 0;
  4319  0E48  1283               	bcf	3,5	;RP0=0, select bank0
  4320  0E49  1303               	bcf	3,6	;RP1=0, select bank0
  4321  0E4A  1006               	bcf	6,0	;volatile
  4322                           
  4323                           ;./ultrasonico.h: 28:     switch (numeroSensor) {
  4324  0E4B  2E76               	goto	l2074
  4325  0E4C                     l106:	
  4326  0E4C  1C86               	btfss	6,1	;volatile
  4327  0E4D  2E4F               	goto	u2841
  4328  0E4E  2E50               	goto	u2840
  4329  0E4F                     u2841:	
  4330  0E4F  2E4C               	goto	l106
  4331  0E50                     u2840:	
  4332  0E50                     l108:	
  4333                           
  4334                           ;./ultrasonico.h: 33:             TMR1ON = 1;
  4335  0E50  1410               	bsf	16,0	;volatile
  4336  0E51                     l109:	
  4337                           ;./ultrasonico.h: 34:             while (RB1 && !TMR1IF);
  4338                           
  4339  0E51  1C86               	btfss	6,1	;volatile
  4340  0E52  2E54               	goto	u2851
  4341  0E53  2E55               	goto	u2850
  4342  0E54                     u2851:	
  4343  0E54  2E89               	goto	l114
  4344  0E55                     u2850:	
  4345  0E55                     l2066:	
  4346  0E55  1C0C               	btfss	12,0	;volatile
  4347  0E56  2E58               	goto	u2861
  4348  0E57  2E59               	goto	u2860
  4349  0E58                     u2861:	
  4350  0E58  2E51               	goto	l109
  4351  0E59                     u2860:	
  4352  0E59  2E89               	goto	l114
  4353  0E5A                     l116:	
  4354  0E5A  1D06               	btfss	6,2	;volatile
  4355  0E5B  2E5D               	goto	u2871
  4356  0E5C  2E5E               	goto	u2870
  4357  0E5D                     u2871:	
  4358  0E5D  2E5A               	goto	l116
  4359  0E5E                     u2870:	
  4360  0E5E                     l118:	
  4361                           
  4362                           ;./ultrasonico.h: 41:             TMR1ON = 1;
  4363  0E5E  1410               	bsf	16,0	;volatile
  4364  0E5F                     l119:	
  4365                           ;./ultrasonico.h: 42:             while (RB2 && !TMR1IF);
  4366                           
  4367  0E5F  1D06               	btfss	6,2	;volatile
  4368  0E60  2E62               	goto	u2881
  4369  0E61  2E63               	goto	u2880
  4370  0E62                     u2881:	
  4371  0E62  2E89               	goto	l114
  4372  0E63                     u2880:	
  4373  0E63                     l2068:	
  4374  0E63  1C0C               	btfss	12,0	;volatile
  4375  0E64  2E66               	goto	u2891
  4376  0E65  2E67               	goto	u2890
  4377  0E66                     u2891:	
  4378  0E66  2E5F               	goto	l119
  4379  0E67                     u2890:	
  4380  0E67  2E89               	goto	l114
  4381  0E68                     l125:	
  4382  0E68  1D86               	btfss	6,3	;volatile
  4383  0E69  2E6B               	goto	u2901
  4384  0E6A  2E6C               	goto	u2900
  4385  0E6B                     u2901:	
  4386  0E6B  2E68               	goto	l125
  4387  0E6C                     u2900:	
  4388  0E6C                     l127:	
  4389                           
  4390                           ;./ultrasonico.h: 49:             TMR1ON = 1;
  4391  0E6C  1410               	bsf	16,0	;volatile
  4392  0E6D                     l128:	
  4393                           ;./ultrasonico.h: 50:             while (RB3 && !TMR1IF);
  4394                           
  4395  0E6D  1D86               	btfss	6,3	;volatile
  4396  0E6E  2E70               	goto	u2911
  4397  0E6F  2E71               	goto	u2910
  4398  0E70                     u2911:	
  4399  0E70  2E89               	goto	l114
  4400  0E71                     u2910:	
  4401  0E71                     l2070:	
  4402  0E71  1C0C               	btfss	12,0	;volatile
  4403  0E72  2E74               	goto	u2921
  4404  0E73  2E75               	goto	u2920
  4405  0E74                     u2921:	
  4406  0E74  2E6D               	goto	l128
  4407  0E75                     u2920:	
  4408  0E75  2E89               	goto	l114
  4409  0E76                     l2074:	
  4410  0E76  0820               	movf	dameDistancia@numeroSensor,w
  4411  0E77  00FA               	movwf	??_dameDistancia
  4412  0E78  01FB               	clrf	??_dameDistancia+1
  4413                           
  4414                           ; Switch on 2 bytes has been partitioned into a top level switch of size 1, and 1 sub-sw
      +                          itches
  4415                           ; Switch size 1, requested type "simple"
  4416                           ; Number of cases is 1, Range of values is 0 to 0
  4417                           ; switch strategies available:
  4418                           ; Name         Instructions Cycles
  4419                           ; simple_byte            4     3 (average)
  4420                           ; direct_byte           11     8 (fixed)
  4421                           ; jumptable            260     6 (fixed)
  4422                           ;	Chosen strategy is simple_byte
  4423  0E79  087B               	movf	??_dameDistancia+1,w
  4424  0E7A  3A00               	xorlw	0	; case 0
  4425  0E7B  1903               	skipnz
  4426  0E7C  2E7E               	goto	l2292
  4427  0E7D  2E89               	goto	l114
  4428  0E7E                     l2292:	
  4429                           
  4430                           ; Switch size 1, requested type "simple"
  4431                           ; Number of cases is 3, Range of values is 1 to 3
  4432                           ; switch strategies available:
  4433                           ; Name         Instructions Cycles
  4434                           ; simple_byte           10     6 (average)
  4435                           ; direct_byte           20    11 (fixed)
  4436                           ; jumptable            263     9 (fixed)
  4437                           ;	Chosen strategy is simple_byte
  4438  0E7E  087A               	movf	??_dameDistancia,w
  4439  0E7F  3A01               	xorlw	1	; case 1
  4440  0E80  1903               	skipnz
  4441  0E81  2E4C               	goto	l106
  4442  0E82  3A03               	xorlw	3	; case 2
  4443  0E83  1903               	skipnz
  4444  0E84  2E5A               	goto	l116
  4445  0E85  3A01               	xorlw	1	; case 3
  4446  0E86  1903               	skipnz
  4447  0E87  2E68               	goto	l125
  4448  0E88  2E89               	goto	l114
  4449  0E89                     l114:	
  4450                           
  4451                           ;./ultrasonico.h: 56:     TMR1ON = 0;
  4452  0E89  1010               	bcf	16,0	;volatile
  4453                           
  4454                           ;./ultrasonico.h: 58:     if (!TMR1IF) {
  4455  0E8A  180C               	btfsc	12,0	;volatile
  4456  0E8B  2E8D               	goto	u2931
  4457  0E8C  2E8E               	goto	u2930
  4458  0E8D                     u2931:	
  4459  0E8D  2EB3               	goto	l2082
  4460  0E8E                     u2930:	
  4461  0E8E                     l2076:	
  4462                           
  4463                           ;./ultrasonico.h: 59:         conteo |= TMR1H << 8;
  4464  0E8E  080F               	movf	15,w	;volatile
  4465  0E8F  00FA               	movwf	??_dameDistancia
  4466  0E90  01FB               	clrf	??_dameDistancia+1
  4467  0E91  087A               	movf	??_dameDistancia,w
  4468  0E92  00FB               	movwf	??_dameDistancia+1
  4469  0E93  01FA               	clrf	??_dameDistancia
  4470  0E94  087A               	movf	??_dameDistancia,w
  4471  0E95  04A3               	iorwf	dameDistancia@conteo,f
  4472  0E96  087B               	movf	??_dameDistancia+1,w
  4473  0E97  04A4               	iorwf	dameDistancia@conteo+1,f
  4474  0E98                     l2078:	
  4475                           
  4476                           ;./ultrasonico.h: 60:         conteo |= TMR1L;
  4477  0E98  080E               	movf	14,w	;volatile
  4478  0E99  00FA               	movwf	??_dameDistancia
  4479  0E9A  01FB               	clrf	??_dameDistancia+1
  4480  0E9B  087A               	movf	??_dameDistancia,w
  4481  0E9C  04A3               	iorwf	dameDistancia@conteo,f
  4482  0E9D  087B               	movf	??_dameDistancia+1,w
  4483  0E9E  04A4               	iorwf	dameDistancia@conteo+1,f
  4484  0E9F                     l2080:	
  4485                           
  4486                           ;./ultrasonico.h: 62:         distancia = conteo / 58;
  4487  0E9F  303A               	movlw	58
  4488  0EA0  00F0               	movwf	___lwdiv@divisor
  4489  0EA1  3000               	movlw	0
  4490  0EA2  00F1               	movwf	___lwdiv@divisor+1
  4491  0EA3  0824               	movf	dameDistancia@conteo+1,w
  4492  0EA4  00F3               	movwf	___lwdiv@dividend+1
  4493  0EA5  0823               	movf	dameDistancia@conteo,w
  4494  0EA6  00F2               	movwf	___lwdiv@dividend
  4495  0EA7  120A  158A  2475  120A  158A  	fcall	___lwdiv
  4496  0EAC  0871               	movf	?___lwdiv+1,w
  4497  0EAD  1283               	bcf	3,5	;RP0=0, select bank0
  4498  0EAE  1303               	bcf	3,6	;RP1=0, select bank0
  4499  0EAF  00A2               	movwf	dameDistancia@distancia+1
  4500  0EB0  0870               	movf	?___lwdiv,w
  4501  0EB1  00A1               	movwf	dameDistancia@distancia
  4502                           
  4503                           ;./ultrasonico.h: 63:     } else {
  4504  0EB2  2EB6               	goto	l2086
  4505  0EB3                     l2082:	
  4506  0EB3                     l2084:	
  4507                           
  4508                           ;./ultrasonico.h: 65:         TMR1IF = 0;
  4509  0EB3  100C               	bcf	12,0	;volatile
  4510                           
  4511                           ;./ultrasonico.h: 66:         distancia = 0;
  4512  0EB4  01A1               	clrf	dameDistancia@distancia
  4513  0EB5  01A2               	clrf	dameDistancia@distancia+1
  4514  0EB6                     l2086:	
  4515                           
  4516                           ;./ultrasonico.h: 70:     return distancia;
  4517  0EB6  0822               	movf	dameDistancia@distancia+1,w
  4518  0EB7  00F9               	movwf	?_dameDistancia+1
  4519  0EB8  0821               	movf	dameDistancia@distancia,w
  4520  0EB9  00F8               	movwf	?_dameDistancia
  4521  0EBA                     l135:	
  4522  0EBA  0008               	return
  4523  0EBB                     __end_of_dameDistancia:	
  4524                           
  4525                           	psect	text12
  4526  0C75                     __ptext12:	
  4527 ;; *************** function ___lwdiv *****************
  4528 ;; Defined at:
  4529 ;;		line 5 in file "C:\Program Files (x86)\Microchip\xc8\v2.10\pic\sources\c90\common\lwdiv.c"
  4530 ;; Parameters:    Size  Location     Type
  4531 ;;  divisor         2    0[COMMON] unsigned int 
  4532 ;;  dividend        2    2[COMMON] unsigned int 
  4533 ;; Auto vars:     Size  Location     Type
  4534 ;;  quotient        2    5[COMMON] unsigned int 
  4535 ;;  counter         1    7[COMMON] unsigned char 
  4536 ;; Return value:  Size  Location     Type
  4537 ;;                  2    0[COMMON] unsigned int 
  4538 ;; Registers used:
  4539 ;;		wreg, status,2, status,0
  4540 ;; Tracked objects:
  4541 ;;		On entry : 0/0
  4542 ;;		On exit  : 0/0
  4543 ;;		Unchanged: 0/0
  4544 ;; Data sizes:     COMMON   BANK0   BANK1   BANK3   BANK2
  4545 ;;      Params:         4       0       0       0       0
  4546 ;;      Locals:         3       0       0       0       0
  4547 ;;      Temps:          1       0       0       0       0
  4548 ;;      Totals:         8       0       0       0       0
  4549 ;;Total ram usage:        8 bytes
  4550 ;; Hardware stack levels used:    1
  4551 ;; This function calls:
  4552 ;;		Nothing
  4553 ;; This function is called by:
  4554 ;;		_dameDistancia
  4555 ;;		_sprintf
  4556 ;; This function uses a non-reentrant model
  4557 ;;
  4558                           
  4559                           
  4560                           ;psect for function ___lwdiv
  4561  0C75                     ___lwdiv:	
  4562  0C75                     l1650:	
  4563                           ;incstack = 0
  4564                           ; Regs used in ___lwdiv: [wreg+status,2+status,0]
  4565                           
  4566  0C75  01F5               	clrf	___lwdiv@quotient
  4567  0C76  01F6               	clrf	___lwdiv@quotient+1
  4568  0C77                     l1652:	
  4569  0C77  0870               	movf	___lwdiv@divisor,w
  4570  0C78  0471               	iorwf	___lwdiv@divisor+1,w
  4571  0C79  1903               	btfsc	3,2
  4572  0C7A  2C7C               	goto	u1841
  4573  0C7B  2C7D               	goto	u1840
  4574  0C7C                     u1841:	
  4575  0C7C  2CB4               	goto	l1672
  4576  0C7D                     u1840:	
  4577  0C7D                     l1654:	
  4578  0C7D  01F7               	clrf	___lwdiv@counter
  4579  0C7E  0AF7               	incf	___lwdiv@counter,f
  4580  0C7F  2C8B               	goto	l1660
  4581  0C80                     l1656:	
  4582  0C80  3001               	movlw	1
  4583  0C81                     u1855:	
  4584  0C81  1003               	clrc
  4585  0C82  0DF0               	rlf	___lwdiv@divisor,f
  4586  0C83  0DF1               	rlf	___lwdiv@divisor+1,f
  4587  0C84  3EFF               	addlw	-1
  4588  0C85  1D03               	skipz
  4589  0C86  2C81               	goto	u1855
  4590  0C87                     l1658:	
  4591  0C87  3001               	movlw	1
  4592  0C88  00F4               	movwf	??___lwdiv
  4593  0C89  0874               	movf	??___lwdiv,w
  4594  0C8A  07F7               	addwf	___lwdiv@counter,f
  4595  0C8B                     l1660:	
  4596  0C8B  1FF1               	btfss	___lwdiv@divisor+1,7
  4597  0C8C  2C8E               	goto	u1861
  4598  0C8D  2C8F               	goto	u1860
  4599  0C8E                     u1861:	
  4600  0C8E  2C80               	goto	l1656
  4601  0C8F                     u1860:	
  4602  0C8F                     l1662:	
  4603  0C8F  3001               	movlw	1
  4604  0C90                     u1875:	
  4605  0C90  1003               	clrc
  4606  0C91  0DF5               	rlf	___lwdiv@quotient,f
  4607  0C92  0DF6               	rlf	___lwdiv@quotient+1,f
  4608  0C93  3EFF               	addlw	-1
  4609  0C94  1D03               	skipz
  4610  0C95  2C90               	goto	u1875
  4611  0C96  0871               	movf	___lwdiv@divisor+1,w
  4612  0C97  0273               	subwf	___lwdiv@dividend+1,w
  4613  0C98  1D03               	skipz
  4614  0C99  2C9C               	goto	u1885
  4615  0C9A  0870               	movf	___lwdiv@divisor,w
  4616  0C9B  0272               	subwf	___lwdiv@dividend,w
  4617  0C9C                     u1885:	
  4618  0C9C  1C03               	skipc
  4619  0C9D  2C9F               	goto	u1881
  4620  0C9E  2CA0               	goto	u1880
  4621  0C9F                     u1881:	
  4622  0C9F  2CA7               	goto	l1668
  4623  0CA0                     u1880:	
  4624  0CA0                     l1664:	
  4625  0CA0  0870               	movf	___lwdiv@divisor,w
  4626  0CA1  02F2               	subwf	___lwdiv@dividend,f
  4627  0CA2  0871               	movf	___lwdiv@divisor+1,w
  4628  0CA3  1C03               	skipc
  4629  0CA4  03F3               	decf	___lwdiv@dividend+1,f
  4630  0CA5  02F3               	subwf	___lwdiv@dividend+1,f
  4631  0CA6                     l1666:	
  4632  0CA6  1475               	bsf	___lwdiv@quotient,0
  4633  0CA7                     l1668:	
  4634  0CA7  3001               	movlw	1
  4635  0CA8                     u1895:	
  4636  0CA8  1003               	clrc
  4637  0CA9  0CF1               	rrf	___lwdiv@divisor+1,f
  4638  0CAA  0CF0               	rrf	___lwdiv@divisor,f
  4639  0CAB  3EFF               	addlw	-1
  4640  0CAC  1D03               	skipz
  4641  0CAD  2CA8               	goto	u1895
  4642  0CAE                     l1670:	
  4643  0CAE  3001               	movlw	1
  4644  0CAF  02F7               	subwf	___lwdiv@counter,f
  4645  0CB0  1D03               	btfss	3,2
  4646  0CB1  2CB3               	goto	u1901
  4647  0CB2  2CB4               	goto	u1900
  4648  0CB3                     u1901:	
  4649  0CB3  2C8F               	goto	l1662
  4650  0CB4                     u1900:	
  4651  0CB4                     l1672:	
  4652  0CB4  0876               	movf	___lwdiv@quotient+1,w
  4653  0CB5  00F1               	movwf	?___lwdiv+1
  4654  0CB6  0875               	movf	___lwdiv@quotient,w
  4655  0CB7  00F0               	movwf	?___lwdiv
  4656  0CB8                     l552:	
  4657  0CB8  0008               	return
  4658  0CB9                     __end_of___lwdiv:	
  4659                           
  4660                           	psect	text13
  4661  0C12                     __ptext13:	
  4662 ;; *************** function _configPwm *****************
  4663 ;; Defined at:
  4664 ;;		line 47 in file "./pwm.h"
  4665 ;; Parameters:    Size  Location     Type
  4666 ;;  channel         1    wreg     unsigned char 
  4667 ;; Auto vars:     Size  Location     Type
  4668 ;;  channel         1    2[COMMON] unsigned char 
  4669 ;; Return value:  Size  Location     Type
  4670 ;;                  1    wreg      void 
  4671 ;; Registers used:
  4672 ;;		wreg, fsr0l, fsr0h, status,2, status,0
  4673 ;; Tracked objects:
  4674 ;;		On entry : 0/0
  4675 ;;		On exit  : 0/0
  4676 ;;		Unchanged: 0/0
  4677 ;; Data sizes:     COMMON   BANK0   BANK1   BANK3   BANK2
  4678 ;;      Params:         0       0       0       0       0
  4679 ;;      Locals:         1       0       0       0       0
  4680 ;;      Temps:          2       0       0       0       0
  4681 ;;      Totals:         3       0       0       0       0
  4682 ;;Total ram usage:        3 bytes
  4683 ;; Hardware stack levels used:    1
  4684 ;; This function calls:
  4685 ;;		Nothing
  4686 ;; This function is called by:
  4687 ;;		_main
  4688 ;; This function uses a non-reentrant model
  4689 ;;
  4690                           
  4691                           
  4692                           ;psect for function _configPwm
  4693  0C12                     _configPwm:	
  4694                           
  4695                           ;incstack = 0
  4696                           ; Regs used in _configPwm: [wreg-fsr0h+status,2+status,0]
  4697                           ;configPwm@channel stored from wreg
  4698  0C12  00F2               	movwf	configPwm@channel
  4699  0C13                     l2042:	
  4700  0C13                     l94:	
  4701                           ;./pwm.h: 49:     if (16 == 1) {
  4702                           
  4703                           
  4704                           ;./pwm.h: 56:         T2CKPS0 = 1;
  4705  0C13  1283               	bcf	3,5	;RP0=0, select bank0
  4706  0C14  1303               	bcf	3,6	;RP1=0, select bank0
  4707  0C15  1412               	bsf	18,0	;volatile
  4708                           
  4709                           ;./pwm.h: 57:         T2CKPS1 = 1;
  4710  0C16  1492               	bsf	18,1	;volatile
  4711  0C17                     l2048:	
  4712                           
  4713                           ;./pwm.h: 61:     PR2 = (4000000 / (500 * 4 * 16)) - 1;
  4714  0C17  307C               	movlw	124
  4715  0C18  1683               	bsf	3,5	;RP0=1, select bank1
  4716  0C19  1303               	bcf	3,6	;RP1=0, select bank1
  4717  0C1A  0092               	movwf	18	;volatile
  4718                           
  4719                           ;./pwm.h: 63:     switch (channel) {
  4720  0C1B  2C28               	goto	l2052
  4721  0C1C                     l98:	
  4722                           ;./pwm.h: 65:         case 1:
  4723                           
  4724                           
  4725                           ;./pwm.h: 66:             TRISC2 = 0;
  4726  0C1C  1107               	bcf	7,2	;volatile
  4727                           
  4728                           ;./pwm.h: 67:             CCP1M3 = 1;
  4729  0C1D  1283               	bcf	3,5	;RP0=0, select bank0
  4730  0C1E  1303               	bcf	3,6	;RP1=0, select bank0
  4731  0C1F  1597               	bsf	23,3	;volatile
  4732                           
  4733                           ;./pwm.h: 68:             CCP1M2 = 1;
  4734  0C20  1517               	bsf	23,2	;volatile
  4735                           
  4736                           ;./pwm.h: 71:             break;
  4737  0C21  2C38               	goto	l99
  4738  0C22                     l100:	
  4739                           ;./pwm.h: 73:         case 2:
  4740                           
  4741                           
  4742                           ;./pwm.h: 74:             TRISC1 = 0;
  4743  0C22  1087               	bcf	7,1	;volatile
  4744                           
  4745                           ;./pwm.h: 75:             CCP2M3 = 1;
  4746  0C23  1283               	bcf	3,5	;RP0=0, select bank0
  4747  0C24  1303               	bcf	3,6	;RP1=0, select bank0
  4748  0C25  159D               	bsf	29,3	;volatile
  4749                           
  4750                           ;./pwm.h: 76:             CCP2M2 = 1;
  4751  0C26  151D               	bsf	29,2	;volatile
  4752                           
  4753                           ;./pwm.h: 77:             break;
  4754  0C27  2C38               	goto	l99
  4755  0C28                     l2052:	
  4756  0C28  0872               	movf	configPwm@channel,w
  4757  0C29  00F0               	movwf	??_configPwm
  4758  0C2A  01F1               	clrf	??_configPwm+1
  4759                           
  4760                           ; Switch on 2 bytes has been partitioned into a top level switch of size 1, and 1 sub-sw
      +                          itches
  4761                           ; Switch size 1, requested type "simple"
  4762                           ; Number of cases is 1, Range of values is 0 to 0
  4763                           ; switch strategies available:
  4764                           ; Name         Instructions Cycles
  4765                           ; simple_byte            4     3 (average)
  4766                           ; direct_byte           11     8 (fixed)
  4767                           ; jumptable            260     6 (fixed)
  4768                           ;	Chosen strategy is simple_byte
  4769  0C2B  0871               	movf	??_configPwm+1,w
  4770  0C2C  3A00               	xorlw	0	; case 0
  4771  0C2D  1903               	skipnz
  4772  0C2E  2C30               	goto	l2294
  4773  0C2F  2C38               	goto	l99
  4774  0C30                     l2294:	
  4775                           
  4776                           ; Switch size 1, requested type "simple"
  4777                           ; Number of cases is 2, Range of values is 1 to 2
  4778                           ; switch strategies available:
  4779                           ; Name         Instructions Cycles
  4780                           ; simple_byte            7     4 (average)
  4781                           ; direct_byte           17    11 (fixed)
  4782                           ; jumptable            263     9 (fixed)
  4783                           ;	Chosen strategy is simple_byte
  4784  0C30  0870               	movf	??_configPwm,w
  4785  0C31  3A01               	xorlw	1	; case 1
  4786  0C32  1903               	skipnz
  4787  0C33  2C1C               	goto	l98
  4788  0C34  3A03               	xorlw	3	; case 2
  4789  0C35  1903               	skipnz
  4790  0C36  2C22               	goto	l100
  4791  0C37  2C38               	goto	l99
  4792  0C38                     l99:	
  4793                           
  4794                           ;./pwm.h: 81:     TMR2ON = 1;
  4795  0C38  1283               	bcf	3,5	;RP0=0, select bank0
  4796  0C39  1512               	bsf	18,2	;volatile
  4797  0C3A                     l101:	
  4798  0C3A  0008               	return
  4799  0C3B                     __end_of_configPwm:	
  4800                           
  4801                           	psect	text14
  4802  000C                     __ptext14:	
  4803 ;; *************** function _UART_printf *****************
  4804 ;; Defined at:
  4805 ;;		line 47 in file "./UART.h"
  4806 ;; Parameters:    Size  Location     Type
  4807 ;;  cadena          1    wreg     PTR unsigned char 
  4808 ;;		 -> buffer(50), 
  4809 ;; Auto vars:     Size  Location     Type
  4810 ;;  cadena          1    2[COMMON] PTR unsigned char 
  4811 ;;		 -> buffer(50), 
  4812 ;; Return value:  Size  Location     Type
  4813 ;;                  1    wreg      void 
  4814 ;; Registers used:
  4815 ;;		wreg, fsr0l, fsr0h, status,2, status,0, pclath, cstack
  4816 ;; Tracked objects:
  4817 ;;		On entry : 0/0
  4818 ;;		On exit  : 0/0
  4819 ;;		Unchanged: 0/0
  4820 ;; Data sizes:     COMMON   BANK0   BANK1   BANK3   BANK2
  4821 ;;      Params:         0       0       0       0       0
  4822 ;;      Locals:         1       0       0       0       0
  4823 ;;      Temps:          1       0       0       0       0
  4824 ;;      Totals:         2       0       0       0       0
  4825 ;;Total ram usage:        2 bytes
  4826 ;; Hardware stack levels used:    1
  4827 ;; Hardware stack levels required when called:    1
  4828 ;; This function calls:
  4829 ;;		_UART_write
  4830 ;; This function is called by:
  4831 ;;		_main
  4832 ;; This function uses a non-reentrant model
  4833 ;;
  4834                           
  4835                           
  4836                           ;psect for function _UART_printf
  4837  000C                     _UART_printf:	
  4838                           
  4839                           ;incstack = 0
  4840                           ; Regs used in _UART_printf: [wreg-fsr0h+status,2+status,0+pclath+cstack]
  4841                           ;UART_printf@cadena stored from wreg
  4842  000C  00F2               	movwf	UART_printf@cadena
  4843  000D                     l2118:	
  4844                           
  4845                           ;./UART.h: 48:     while (*cadena) {
  4846  000D  281A               	goto	l2124
  4847  000E                     l2120:	
  4848                           
  4849                           ;./UART.h: 49:         UART_write(*cadena++);
  4850  000E  0872               	movf	UART_printf@cadena,w
  4851  000F  0084               	movwf	4
  4852  0010  0800               	movf	0,w
  4853  0011  120A  158A  23DF  120A  118A  	fcall	_UART_write
  4854  0016                     l2122:	
  4855  0016  3001               	movlw	1
  4856  0017  00F1               	movwf	??_UART_printf
  4857  0018  0871               	movf	??_UART_printf,w
  4858  0019  07F2               	addwf	UART_printf@cadena,f
  4859  001A                     l2124:	
  4860                           
  4861                           ;./UART.h: 48:     while (*cadena) {
  4862  001A  0872               	movf	UART_printf@cadena,w
  4863  001B  0084               	movwf	4
  4864  001C  1383               	bcf	3,7	;select IRP bank0
  4865  001D  0800               	movf	0,w
  4866  001E  1D03               	btfss	3,2
  4867  001F  2821               	goto	u2941
  4868  0020  2822               	goto	u2940
  4869  0021                     u2941:	
  4870  0021  280E               	goto	l2120
  4871  0022                     u2940:	
  4872  0022                     l156:	
  4873  0022  0008               	return
  4874  0023                     __end_of_UART_printf:	
  4875                           
  4876                           	psect	text15
  4877  0BDF                     __ptext15:	
  4878 ;; *************** function _UART_write *****************
  4879 ;; Defined at:
  4880 ;;		line 42 in file "./UART.h"
  4881 ;; Parameters:    Size  Location     Type
  4882 ;;  dato            1    wreg     unsigned char 
  4883 ;; Auto vars:     Size  Location     Type
  4884 ;;  dato            1    0[COMMON] unsigned char 
  4885 ;; Return value:  Size  Location     Type
  4886 ;;                  1    wreg      void 
  4887 ;; Registers used:
  4888 ;;		wreg
  4889 ;; Tracked objects:
  4890 ;;		On entry : 0/0
  4891 ;;		On exit  : 0/0
  4892 ;;		Unchanged: 0/0
  4893 ;; Data sizes:     COMMON   BANK0   BANK1   BANK3   BANK2
  4894 ;;      Params:         0       0       0       0       0
  4895 ;;      Locals:         1       0       0       0       0
  4896 ;;      Temps:          0       0       0       0       0
  4897 ;;      Totals:         1       0       0       0       0
  4898 ;;Total ram usage:        1 bytes
  4899 ;; Hardware stack levels used:    1
  4900 ;; This function calls:
  4901 ;;		Nothing
  4902 ;; This function is called by:
  4903 ;;		_UART_printf
  4904 ;; This function uses a non-reentrant model
  4905 ;;
  4906                           
  4907                           
  4908                           ;psect for function _UART_write
  4909  0BDF                     _UART_write:	
  4910                           
  4911                           ;incstack = 0
  4912                           ; Regs used in _UART_write: [wreg]
  4913                           ;UART_write@dato stored from wreg
  4914  0BDF  00F0               	movwf	UART_write@dato
  4915  0BE0                     l1612:	
  4916                           
  4917                           ;./UART.h: 43:     TXREG = dato;
  4918  0BE0  0870               	movf	UART_write@dato,w
  4919  0BE1  1283               	bcf	3,5	;RP0=0, select bank0
  4920  0BE2  1303               	bcf	3,6	;RP1=0, select bank0
  4921  0BE3  0099               	movwf	25	;volatile
  4922  0BE4                     l147:	
  4923                           ;./UART.h: 44:     while (!TXSTAbits.TRMT);
  4924                           
  4925  0BE4  1683               	bsf	3,5	;RP0=1, select bank1
  4926  0BE5  1303               	bcf	3,6	;RP1=0, select bank1
  4927  0BE6  1C98               	btfss	24,1	;volatile
  4928  0BE7  2BE9               	goto	u1731
  4929  0BE8  2BEA               	goto	u1730
  4930  0BE9                     u1731:	
  4931  0BE9  2BE4               	goto	l147
  4932  0BEA                     u1730:	
  4933  0BEA                     l150:	
  4934  0BEA  0008               	return
  4935  0BEB                     __end_of_UART_write:	
  4936                           
  4937                           	psect	text16
  4938  0CFF                     __ptext16:	
  4939 ;; *************** function _UART_init *****************
  4940 ;; Defined at:
  4941 ;;		line 13 in file "./UART.h"
  4942 ;; Parameters:    Size  Location     Type
  4943 ;;  BAUD            4   14[BANK0 ] long 
  4944 ;; Auto vars:     Size  Location     Type
  4945 ;;  frecuenciaCr    4    0        long 
  4946 ;; Return value:  Size  Location     Type
  4947 ;;                  1    wreg      void 
  4948 ;; Registers used:
  4949 ;;		wreg, status,2, status,0, pclath, cstack
  4950 ;; Tracked objects:
  4951 ;;		On entry : 0/0
  4952 ;;		On exit  : 0/0
  4953 ;;		Unchanged: 0/0
  4954 ;; Data sizes:     COMMON   BANK0   BANK1   BANK3   BANK2
  4955 ;;      Params:         0       4       0       0       0
  4956 ;;      Locals:         0       8       0       0       0
  4957 ;;      Temps:          0       0       0       0       0
  4958 ;;      Totals:         0      12       0       0       0
  4959 ;;Total ram usage:       12 bytes
  4960 ;; Hardware stack levels used:    1
  4961 ;; Hardware stack levels required when called:    1
  4962 ;; This function calls:
  4963 ;;		___aldiv
  4964 ;; This function is called by:
  4965 ;;		_main
  4966 ;; This function uses a non-reentrant model
  4967 ;;
  4968                           
  4969                           
  4970                           ;psect for function _UART_init
  4971  0CFF                     _UART_init:	
  4972  0CFF                     l2094:	
  4973                           ;incstack = 0
  4974                           ; Regs used in _UART_init: [wreg+status,2+status,0+pclath+cstack]
  4975                           
  4976  0CFF                     l2096:	
  4977                           
  4978                           ;./UART.h: 16:     TRISC6 = 0;
  4979  0CFF  1683               	bsf	3,5	;RP0=1, select bank1
  4980  0D00  1303               	bcf	3,6	;RP1=0, select bank1
  4981  0D01  1307               	bcf	7,6	;volatile
  4982  0D02                     l2098:	
  4983                           
  4984                           ;./UART.h: 17:     TRISC7 = 1;
  4985  0D02  1787               	bsf	7,7	;volatile
  4986  0D03                     l2100:	
  4987                           
  4988                           ;./UART.h: 20:     SPBRG = (frecuenciaCristal / 16 / BAUD) - 1;
  4989  0D03  3000               	movlw	0
  4990  0D04  1283               	bcf	3,5	;RP0=0, select bank0
  4991  0D05  1303               	bcf	3,6	;RP1=0, select bank0
  4992  0D06  00A3               	movwf	___aldiv@divisor+3
  4993  0D07  3000               	movlw	0
  4994  0D08  00A2               	movwf	___aldiv@divisor+2
  4995  0D09  3000               	movlw	0
  4996  0D0A  00A1               	movwf	___aldiv@divisor+1
  4997  0D0B  3010               	movlw	16
  4998  0D0C  00A0               	movwf	___aldiv@divisor
  4999  0D0D  3000               	movlw	0
  5000  0D0E  00A7               	movwf	___aldiv@dividend+3
  5001  0D0F  303D               	movlw	61
  5002  0D10  00A6               	movwf	___aldiv@dividend+2
  5003  0D11  3009               	movlw	9
  5004  0D12  00A5               	movwf	___aldiv@dividend+1
  5005  0D13  3000               	movlw	0
  5006  0D14  00A4               	movwf	___aldiv@dividend
  5007  0D15  120A  158A  26BB  120A  158A  	fcall	___aldiv
  5008  0D1A  1283               	bcf	3,5	;RP0=0, select bank0
  5009  0D1B  1303               	bcf	3,6	;RP1=0, select bank0
  5010  0D1C  0823               	movf	?___aldiv+3,w
  5011  0D1D  00B9               	movwf	_UART_init$850+3
  5012  0D1E  0822               	movf	?___aldiv+2,w
  5013  0D1F  00B8               	movwf	_UART_init$850+2
  5014  0D20  0821               	movf	?___aldiv+1,w
  5015  0D21  00B7               	movwf	_UART_init$850+1
  5016  0D22  0820               	movf	?___aldiv,w
  5017  0D23  00B6               	movwf	_UART_init$850
  5018  0D24                     l2102:	
  5019                           
  5020                           ;./UART.h: 20:     SPBRG = (frecuenciaCristal / 16 / BAUD) - 1;
  5021  0D24  0831               	movf	UART_init@BAUD+3,w
  5022  0D25  00A3               	movwf	___aldiv@divisor+3
  5023  0D26  0830               	movf	UART_init@BAUD+2,w
  5024  0D27  00A2               	movwf	___aldiv@divisor+2
  5025  0D28  082F               	movf	UART_init@BAUD+1,w
  5026  0D29  00A1               	movwf	___aldiv@divisor+1
  5027  0D2A  082E               	movf	UART_init@BAUD,w
  5028  0D2B  00A0               	movwf	___aldiv@divisor
  5029  0D2C  0839               	movf	_UART_init$850+3,w
  5030  0D2D  00A7               	movwf	___aldiv@dividend+3
  5031  0D2E  0838               	movf	_UART_init$850+2,w
  5032  0D2F  00A6               	movwf	___aldiv@dividend+2
  5033  0D30  0837               	movf	_UART_init$850+1,w
  5034  0D31  00A5               	movwf	___aldiv@dividend+1
  5035  0D32  0836               	movf	_UART_init$850,w
  5036  0D33  00A4               	movwf	___aldiv@dividend
  5037  0D34  120A  158A  26BB  120A  158A  	fcall	___aldiv
  5038  0D39  1283               	bcf	3,5	;RP0=0, select bank0
  5039  0D3A  1303               	bcf	3,6	;RP1=0, select bank0
  5040  0D3B  0820               	movf	?___aldiv,w
  5041  0D3C  3EFF               	addlw	255
  5042  0D3D  1683               	bsf	3,5	;RP0=1, select bank1
  5043  0D3E  1303               	bcf	3,6	;RP1=0, select bank1
  5044  0D3F  0099               	movwf	25	;volatile
  5045  0D40                     l2104:	
  5046                           
  5047                           ;./UART.h: 23:     TXSTAbits.BRGH = 1;
  5048  0D40  1518               	bsf	24,2	;volatile
  5049  0D41                     l2106:	
  5050                           
  5051                           ;./UART.h: 24:     TXSTAbits.SYNC = 0;
  5052  0D41  1218               	bcf	24,4	;volatile
  5053  0D42                     l2108:	
  5054                           
  5055                           ;./UART.h: 25:     RCSTAbits.SPEN = 1;
  5056  0D42  1283               	bcf	3,5	;RP0=0, select bank0
  5057  0D43  1303               	bcf	3,6	;RP1=0, select bank0
  5058  0D44  1798               	bsf	24,7	;volatile
  5059  0D45                     l2110:	
  5060                           
  5061                           ;./UART.h: 28:     TXSTAbits.TX9 = 0;
  5062  0D45  1683               	bsf	3,5	;RP0=1, select bank1
  5063  0D46  1303               	bcf	3,6	;RP1=0, select bank1
  5064  0D47  1318               	bcf	24,6	;volatile
  5065  0D48                     l2112:	
  5066                           
  5067                           ;./UART.h: 29:     TXSTAbits.TXEN = 1;
  5068  0D48  1698               	bsf	24,5	;volatile
  5069  0D49                     l2114:	
  5070                           
  5071                           ;./UART.h: 32:     RCSTAbits.RC9 = 0;
  5072  0D49  1283               	bcf	3,5	;RP0=0, select bank0
  5073  0D4A  1303               	bcf	3,6	;RP1=0, select bank0
  5074  0D4B  1318               	bcf	24,6	;volatile
  5075  0D4C                     l2116:	
  5076                           
  5077                           ;./UART.h: 33:     RCSTAbits.CREN = 1;
  5078  0D4C  1618               	bsf	24,4	;volatile
  5079  0D4D                     l138:	
  5080  0D4D  0008               	return
  5081  0D4E                     __end_of_UART_init:	
  5082                           
  5083                           	psect	text17
  5084  0EBB                     __ptext17:	
  5085 ;; *************** function ___aldiv *****************
  5086 ;; Defined at:
  5087 ;;		line 5 in file "C:\Program Files (x86)\Microchip\xc8\v2.10\pic\sources\c90\common\aldiv.c"
  5088 ;; Parameters:    Size  Location     Type
  5089 ;;  divisor         4    0[BANK0 ] long 
  5090 ;;  dividend        4    4[BANK0 ] long 
  5091 ;; Auto vars:     Size  Location     Type
  5092 ;;  quotient        4   10[BANK0 ] long 
  5093 ;;  sign            1    9[BANK0 ] unsigned char 
  5094 ;;  counter         1    8[BANK0 ] unsigned char 
  5095 ;; Return value:  Size  Location     Type
  5096 ;;                  4    0[BANK0 ] long 
  5097 ;; Registers used:
  5098 ;;		wreg, status,2, status,0
  5099 ;; Tracked objects:
  5100 ;;		On entry : 0/0
  5101 ;;		On exit  : 0/0
  5102 ;;		Unchanged: 0/0
  5103 ;; Data sizes:     COMMON   BANK0   BANK1   BANK3   BANK2
  5104 ;;      Params:         0       8       0       0       0
  5105 ;;      Locals:         0       6       0       0       0
  5106 ;;      Temps:          1       0       0       0       0
  5107 ;;      Totals:         1      14       0       0       0
  5108 ;;Total ram usage:       15 bytes
  5109 ;; Hardware stack levels used:    1
  5110 ;; This function calls:
  5111 ;;		Nothing
  5112 ;; This function is called by:
  5113 ;;		_map
  5114 ;;		_UART_init
  5115 ;; This function uses a non-reentrant model
  5116 ;;
  5117                           
  5118                           
  5119                           ;psect for function ___aldiv
  5120  0EBB                     ___aldiv:	
  5121  0EBB                     l1554:	
  5122                           ;incstack = 0
  5123                           ; Regs used in ___aldiv: [wreg+status,2+status,0]
  5124                           
  5125  0EBB  1283               	bcf	3,5	;RP0=0, select bank0
  5126  0EBC  1303               	bcf	3,6	;RP1=0, select bank0
  5127  0EBD  01A9               	clrf	___aldiv@sign
  5128  0EBE                     l1556:	
  5129  0EBE  1FA3               	btfss	___aldiv@divisor+3,7
  5130  0EBF  2EC1               	goto	u1571
  5131  0EC0  2EC2               	goto	u1570
  5132  0EC1                     u1571:	
  5133  0EC1  2ECF               	goto	l345
  5134  0EC2                     u1570:	
  5135  0EC2                     l1558:	
  5136  0EC2  09A0               	comf	___aldiv@divisor,f
  5137  0EC3  09A1               	comf	___aldiv@divisor+1,f
  5138  0EC4  09A2               	comf	___aldiv@divisor+2,f
  5139  0EC5  09A3               	comf	___aldiv@divisor+3,f
  5140  0EC6  0AA0               	incf	___aldiv@divisor,f
  5141  0EC7  1903               	skipnz
  5142  0EC8  0AA1               	incf	___aldiv@divisor+1,f
  5143  0EC9  1903               	skipnz
  5144  0ECA  0AA2               	incf	___aldiv@divisor+2,f
  5145  0ECB  1903               	skipnz
  5146  0ECC  0AA3               	incf	___aldiv@divisor+3,f
  5147  0ECD  01A9               	clrf	___aldiv@sign
  5148  0ECE  0AA9               	incf	___aldiv@sign,f
  5149  0ECF                     l345:	
  5150  0ECF  1FA7               	btfss	___aldiv@dividend+3,7
  5151  0ED0  2ED2               	goto	u1581
  5152  0ED1  2ED3               	goto	u1580
  5153  0ED2                     u1581:	
  5154  0ED2  2EE2               	goto	l1564
  5155  0ED3                     u1580:	
  5156  0ED3                     l1560:	
  5157  0ED3  09A4               	comf	___aldiv@dividend,f
  5158  0ED4  09A5               	comf	___aldiv@dividend+1,f
  5159  0ED5  09A6               	comf	___aldiv@dividend+2,f
  5160  0ED6  09A7               	comf	___aldiv@dividend+3,f
  5161  0ED7  0AA4               	incf	___aldiv@dividend,f
  5162  0ED8  1903               	skipnz
  5163  0ED9  0AA5               	incf	___aldiv@dividend+1,f
  5164  0EDA  1903               	skipnz
  5165  0EDB  0AA6               	incf	___aldiv@dividend+2,f
  5166  0EDC  1903               	skipnz
  5167  0EDD  0AA7               	incf	___aldiv@dividend+3,f
  5168  0EDE                     l1562:	
  5169  0EDE  3001               	movlw	1
  5170  0EDF  00FD               	movwf	??___aldiv
  5171  0EE0  087D               	movf	??___aldiv,w
  5172  0EE1  06A9               	xorwf	___aldiv@sign,f
  5173  0EE2                     l1564:	
  5174  0EE2  3000               	movlw	0
  5175  0EE3  00AD               	movwf	___aldiv@quotient+3
  5176  0EE4  3000               	movlw	0
  5177  0EE5  00AC               	movwf	___aldiv@quotient+2
  5178  0EE6  3000               	movlw	0
  5179  0EE7  00AB               	movwf	___aldiv@quotient+1
  5180  0EE8  3000               	movlw	0
  5181  0EE9  00AA               	movwf	___aldiv@quotient
  5182  0EEA                     l1566:	
  5183  0EEA  0823               	movf	___aldiv@divisor+3,w
  5184  0EEB  0422               	iorwf	___aldiv@divisor+2,w
  5185  0EEC  0421               	iorwf	___aldiv@divisor+1,w
  5186  0EED  0420               	iorwf	___aldiv@divisor,w
  5187  0EEE  1903               	skipnz
  5188  0EEF  2EF1               	goto	u1591
  5189  0EF0  2EF2               	goto	u1590
  5190  0EF1                     u1591:	
  5191  0EF1  2F3F               	goto	l1586
  5192  0EF2                     u1590:	
  5193  0EF2                     l1568:	
  5194  0EF2  01A8               	clrf	___aldiv@counter
  5195  0EF3  0AA8               	incf	___aldiv@counter,f
  5196  0EF4  2F02               	goto	l1572
  5197  0EF5                     l1570:	
  5198  0EF5  3001               	movlw	1
  5199  0EF6  00FD               	movwf	??___aldiv
  5200  0EF7                     u1605:	
  5201  0EF7  1003               	clrc
  5202  0EF8  0DA0               	rlf	___aldiv@divisor,f
  5203  0EF9  0DA1               	rlf	___aldiv@divisor+1,f
  5204  0EFA  0DA2               	rlf	___aldiv@divisor+2,f
  5205  0EFB  0DA3               	rlf	___aldiv@divisor+3,f
  5206  0EFC  0BFD               	decfsz	??___aldiv,f
  5207  0EFD  2EF7               	goto	u1605
  5208  0EFE  3001               	movlw	1
  5209  0EFF  00FD               	movwf	??___aldiv
  5210  0F00  087D               	movf	??___aldiv,w
  5211  0F01  07A8               	addwf	___aldiv@counter,f
  5212  0F02                     l1572:	
  5213  0F02  1FA3               	btfss	___aldiv@divisor+3,7
  5214  0F03  2F05               	goto	u1611
  5215  0F04  2F06               	goto	u1610
  5216  0F05                     u1611:	
  5217  0F05  2EF5               	goto	l1570
  5218  0F06                     u1610:	
  5219  0F06                     l1574:	
  5220  0F06  3001               	movlw	1
  5221  0F07  00FD               	movwf	??___aldiv
  5222  0F08                     u1625:	
  5223  0F08  1003               	clrc
  5224  0F09  0DAA               	rlf	___aldiv@quotient,f
  5225  0F0A  0DAB               	rlf	___aldiv@quotient+1,f
  5226  0F0B  0DAC               	rlf	___aldiv@quotient+2,f
  5227  0F0C  0DAD               	rlf	___aldiv@quotient+3,f
  5228  0F0D  0BFD               	decfsz	??___aldiv,f
  5229  0F0E  2F08               	goto	u1625
  5230  0F0F                     l1576:	
  5231  0F0F  0823               	movf	___aldiv@divisor+3,w
  5232  0F10  0227               	subwf	___aldiv@dividend+3,w
  5233  0F11  1D03               	skipz
  5234  0F12  2F1D               	goto	u1635
  5235  0F13  0822               	movf	___aldiv@divisor+2,w
  5236  0F14  0226               	subwf	___aldiv@dividend+2,w
  5237  0F15  1D03               	skipz
  5238  0F16  2F1D               	goto	u1635
  5239  0F17  0821               	movf	___aldiv@divisor+1,w
  5240  0F18  0225               	subwf	___aldiv@dividend+1,w
  5241  0F19  1D03               	skipz
  5242  0F1A  2F1D               	goto	u1635
  5243  0F1B  0820               	movf	___aldiv@divisor,w
  5244  0F1C  0224               	subwf	___aldiv@dividend,w
  5245  0F1D                     u1635:	
  5246  0F1D  1C03               	skipc
  5247  0F1E  2F20               	goto	u1631
  5248  0F1F  2F21               	goto	u1630
  5249  0F20                     u1631:	
  5250  0F20  2F30               	goto	l1582
  5251  0F21                     u1630:	
  5252  0F21                     l1578:	
  5253  0F21  0820               	movf	___aldiv@divisor,w
  5254  0F22  02A4               	subwf	___aldiv@dividend,f
  5255  0F23  0821               	movf	___aldiv@divisor+1,w
  5256  0F24  1C03               	skipc
  5257  0F25  0F21               	incfsz	___aldiv@divisor+1,w
  5258  0F26  02A5               	subwf	___aldiv@dividend+1,f
  5259  0F27  0822               	movf	___aldiv@divisor+2,w
  5260  0F28  1C03               	skipc
  5261  0F29  0F22               	incfsz	___aldiv@divisor+2,w
  5262  0F2A  02A6               	subwf	___aldiv@dividend+2,f
  5263  0F2B  0823               	movf	___aldiv@divisor+3,w
  5264  0F2C  1C03               	skipc
  5265  0F2D  0F23               	incfsz	___aldiv@divisor+3,w
  5266  0F2E  02A7               	subwf	___aldiv@dividend+3,f
  5267  0F2F                     l1580:	
  5268  0F2F  142A               	bsf	___aldiv@quotient,0
  5269  0F30                     l1582:	
  5270  0F30  3001               	movlw	1
  5271  0F31                     u1645:	
  5272  0F31  1003               	clrc
  5273  0F32  0CA3               	rrf	___aldiv@divisor+3,f
  5274  0F33  0CA2               	rrf	___aldiv@divisor+2,f
  5275  0F34  0CA1               	rrf	___aldiv@divisor+1,f
  5276  0F35  0CA0               	rrf	___aldiv@divisor,f
  5277  0F36  3EFF               	addlw	-1
  5278  0F37  1D03               	skipz
  5279  0F38  2F31               	goto	u1645
  5280  0F39                     l1584:	
  5281  0F39  3001               	movlw	1
  5282  0F3A  02A8               	subwf	___aldiv@counter,f
  5283  0F3B  1D03               	btfss	3,2
  5284  0F3C  2F3E               	goto	u1651
  5285  0F3D  2F3F               	goto	u1650
  5286  0F3E                     u1651:	
  5287  0F3E  2F06               	goto	l1574
  5288  0F3F                     u1650:	
  5289  0F3F                     l1586:	
  5290  0F3F  0829               	movf	___aldiv@sign,w
  5291  0F40  1903               	btfsc	3,2
  5292  0F41  2F43               	goto	u1661
  5293  0F42  2F44               	goto	u1660
  5294  0F43                     u1661:	
  5295  0F43  2F4F               	goto	l1590
  5296  0F44                     u1660:	
  5297  0F44                     l1588:	
  5298  0F44  09AA               	comf	___aldiv@quotient,f
  5299  0F45  09AB               	comf	___aldiv@quotient+1,f
  5300  0F46  09AC               	comf	___aldiv@quotient+2,f
  5301  0F47  09AD               	comf	___aldiv@quotient+3,f
  5302  0F48  0AAA               	incf	___aldiv@quotient,f
  5303  0F49  1903               	skipnz
  5304  0F4A  0AAB               	incf	___aldiv@quotient+1,f
  5305  0F4B  1903               	skipnz
  5306  0F4C  0AAC               	incf	___aldiv@quotient+2,f
  5307  0F4D  1903               	skipnz
  5308  0F4E  0AAD               	incf	___aldiv@quotient+3,f
  5309  0F4F                     l1590:	
  5310  0F4F  082D               	movf	___aldiv@quotient+3,w
  5311  0F50  00A3               	movwf	?___aldiv+3
  5312  0F51  082C               	movf	___aldiv@quotient+2,w
  5313  0F52  00A2               	movwf	?___aldiv+2
  5314  0F53  082B               	movf	___aldiv@quotient+1,w
  5315  0F54  00A1               	movwf	?___aldiv+1
  5316  0F55  082A               	movf	___aldiv@quotient,w
  5317  0F56  00A0               	movwf	?___aldiv
  5318  0F57                     l355:	
  5319  0F57  0008               	return
  5320  0F58                     __end_of___aldiv:	
  5321  007E                     btemp	set	126	;btemp
  5322  007E                     wtemp0	set	126


Data Sizes:
    Strings     20
    Constant    10
    Data        0
    BSS         50
    Persistent  0
    Stack       0

Auto Spaces:
    Space          Size  Autos    Used
    COMMON           14     14      14
    BANK0            80     78      78
    BANK1            80      0      50
    BANK3            96      0       0
    BANK2            96      0       0

Pointer List with Targets:

    sprintf@f	PTR const unsigned char  size(1) Largest target is 20
		 -> STR_1(CODE[20]), 

    sprintf@sp	PTR unsigned char  size(1) Largest target is 50
		 -> buffer(BANK1[50]), 

    sprintf@ap	PTR void [1] size(1) Largest target is 2
		 -> ?_sprintf(BANK0[2]), 

    UART_printf@cadena	PTR unsigned char  size(1) Largest target is 50
		 -> buffer(BANK1[50]), 


Critical Paths under _main in COMMON

    _sprintf->___lwmod
    ___lwmod->___lwdiv
    _pwmDuty->___xxtofl
    _map->___aldiv
    ___fltol->___xxtofl
    ___flmul->___xxtofl
    ___fldiv->___xxtofl
    _dameDistancia->___lwdiv
    _UART_printf->_UART_write
    _UART_init->___aldiv
    ___aldiv->___lmul

Critical Paths under _main in BANK0

    _main->_pwmDuty
    _sprintf->_dameDistancia
    _pwmDuty->___fltol
    _map->___aldiv
    ___fltol->___flmul
    ___flmul->___fldiv
    _UART_init->___aldiv

Critical Paths under _main in BANK1

    None.

Critical Paths under _main in BANK3

    None.

Critical Paths under _main in BANK2

    None.

Call Graph Tables:

 ---------------------------------------------------------------------------------
 (Depth) Function   	        Calls       Base Space   Used Autos Params    Refs
 ---------------------------------------------------------------------------------
 (0) _main                                                 3     3      0    9332
                                             75 BANK0      3     3      0
                          _UART_init
                        _UART_printf
                          _configPwm
                      _dameDistancia
                            _pwmDuty
                            _sprintf
 ---------------------------------------------------------------------------------
 (1) _sprintf                                             21    18      3    1363
                                              5 BANK0     13    10      3
                            ___lwdiv
                            ___lwmod
                      _dameDistancia (ARG)
 ---------------------------------------------------------------------------------
 (2) ___lwmod                                              6     2      4     311
                                              8 COMMON     6     2      4
                            ___lwdiv (ARG)
 ---------------------------------------------------------------------------------
 (1) _pwmDuty                                             12     9      3    6409
                                             63 BANK0     12     9      3
                            ___fldiv
                            ___flmul
                            ___fltol
                           ___xxtofl
                                _map
 ---------------------------------------------------------------------------------
 (2) _map                                                 36    16     20    1534
                                             14 BANK0     36    16     20
                            ___aldiv
                             ___lmul
 ---------------------------------------------------------------------------------
 (3) ___lmul                                              13     5      8     244
                                              0 COMMON    13     5      8
 ---------------------------------------------------------------------------------
 (2) ___xxtofl                                            14    10      4     398
                                              0 COMMON    14    10      4
 ---------------------------------------------------------------------------------
 (2) ___fltol                                             11     7      4     305
                                             52 BANK0     11     7      4
                            ___fldiv (ARG)
                            ___flmul (ARG)
                           ___xxtofl (ARG)
 ---------------------------------------------------------------------------------
 (2) ___flmul                                             26    18      8    2417
                                             26 BANK0     26    18      8
                          __Umul8_16
                            ___fldiv (ARG)
                           ___xxtofl (ARG)
 ---------------------------------------------------------------------------------
 (3) __Umul8_16                                            9     7      2     799
                                              0 COMMON     9     7      2
 ---------------------------------------------------------------------------------
 (2) ___fldiv                                             26    18      8    1273
                                              0 BANK0     26    18      8
                           ___xxtofl (ARG)
 ---------------------------------------------------------------------------------
 (1) _dameDistancia                                        9     7      2     538
                                              8 COMMON     4     2      2
                                              0 BANK0      5     5      0
                            ___lwdiv
 ---------------------------------------------------------------------------------
 (2) ___lwdiv                                              8     4      4     466
                                              0 COMMON     8     4      4
 ---------------------------------------------------------------------------------
 (1) _configPwm                                            3     3      0      22
                                              0 COMMON     3     3      0
 ---------------------------------------------------------------------------------
 (1) _UART_printf                                          2     2      0     100
                                              1 COMMON     2     2      0
                         _UART_write
 ---------------------------------------------------------------------------------
 (2) _UART_write                                           1     1      0      22
                                              0 COMMON     1     1      0
 ---------------------------------------------------------------------------------
 (1) _UART_init                                           12     8      4     900
                                             14 BANK0     12     8      4
                            ___aldiv
 ---------------------------------------------------------------------------------
 (3) ___aldiv                                             15     7      8     756
                                             13 COMMON     1     1      0
                                              0 BANK0     14     6      8
                             ___lmul (ARG)
 ---------------------------------------------------------------------------------
 Estimated maximum stack depth 3
 ---------------------------------------------------------------------------------

 Call Graph Graphs:

 _main (ROOT)
   _UART_init
     ___aldiv
       ___lmul (ARG)
   _UART_printf
     _UART_write
   _configPwm
   _dameDistancia
     ___lwdiv
   _pwmDuty
     ___fldiv
       ___xxtofl (ARG)
     ___flmul
       __Umul8_16
       ___fldiv (ARG)
         ___xxtofl (ARG)
       ___xxtofl (ARG)
     ___fltol
       ___fldiv (ARG)
         ___xxtofl (ARG)
       ___flmul (ARG)
         __Umul8_16
         ___fldiv (ARG)
           ___xxtofl (ARG)
         ___xxtofl (ARG)
       ___xxtofl (ARG)
     ___xxtofl
     _map
       ___aldiv
         ___lmul (ARG)
       ___lmul
   _sprintf
     ___lwdiv
     ___lwmod
       ___lwdiv (ARG)
     _dameDistancia (ARG)
       ___lwdiv

 Address spaces:
Name               Size   Autos  Total    Cost      Usage
BITCOMMON            E      0       0       0        0.0%
EEDATA             100      0       0       0        0.0%
NULL                 0      0       0       0        0.0%
CODE                 0      0       0       0        0.0%
COMMON               E      E       E       1      100.0%
BITSFR0              0      0       0       1        0.0%
SFR0                 0      0       0       1        0.0%
BITSFR1              0      0       0       2        0.0%
SFR1                 0      0       0       2        0.0%
STACK                0      0       0       2        0.0%
ABS                  0      0      8E       3        0.0%
BITBANK0            50      0       0       4        0.0%
BITSFR3              0      0       0       4        0.0%
SFR3                 0      0       0       4        0.0%
BANK0               50     4E      4E       5       97.5%
BITSFR2              0      0       0       5        0.0%
SFR2                 0      0       0       5        0.0%
BITBANK1            50      0       0       6        0.0%
BANK1               50      0      32       7       62.5%
BITBANK3            60      0       0       8        0.0%
BANK3               60      0       0       9        0.0%
BITBANK2            60      0       0      10        0.0%
BANK2               60      0       0      11        0.0%
DATA                 0      0      8E      12        0.0%


Microchip Technology PIC Macro Assembler V2.10 build 88905656 
Symbol Table                                                                                   Sat Jul 11 22:03:48 2020

             ___fldiv@aexp 0039               ___fldiv@bexp 0038                          pc 0002  
             ___fldiv@sign 0031                __CFG_CP$OFF 0000                         l81 0FFF  
                       l94 0C13                         l86 0266                         l88 0285  
                       l89 02B4                         l98 0C1C                         l99 0C38  
                       fsr 0004        __Umul8_16@word_mpld 0076                        l100 0C22  
                      l101 0C3A                        l114 0E89                        l106 0E4C  
                      l116 0E5A                        l108 0E50                        l125 0E68  
                      l109 0E51                        l150 0BEA                        l118 0E5E  
                      l135 0EBA                        l127 0E6C                        l119 0E5F  
                      l128 0E6D                        l138 0D4D                        l147 0BE4  
                      l156 0022                        l345 0ECF                        l355 0F57  
                      l276 01C4                        l294 0CFE                        l631 0491  
                      l552 0CB8                        l720 00A6                        l473 0E25  
                      l721 00B2                        l713 008A                        l466 0E3A  
                      l562 0C74                        l651 0475                        l707 0045  
                      l476 0E3A                        l653 0485                        l645 0403  
                      l629 0311                        l709 00DC                        l726 0BFF  
                      l728 0C11                        l681 07E6                        l675 075E  
                      l669 07F2                        _RB0 0030                        _RB1 0031  
                      _RB2 0032                        _RB3 0033                        _PR2 0092  
             __CFG_CPD$OFF 0000                        _map 0F58                        fsr0 0004  
                      indf 0000               __CFG_FOSC$XT 0000               ___flmul@aexp 004C  
             ___flmul@bexp 004D               ___flmul@sign 0047               ___flmul@temp 0052  
             ___flmul@prod 004E               __CFG_LVP$OFF 0000               ___fltol@exp1 005E  
                     l2000 0073                       l2010 00AA                       l2002 0081  
                     l2100 0D03                       l2020 00D4                       l2012 00B4  
                     l2004 0091                       l2110 0D45                       l2102 0D24  
                     l2014 00CA                       l2006 009C                       l2030 0271  
                     l2112 0D48                       l2104 0D40                       l2120 000E  
                     l2016 00CF                       l2008 00A0                       l2032 0290  
                     l2024 01C5                       l2200 0D80                       l2114 0D49  
                     l2106 0D41                       l2122 0016                       l2042 0C13  
                     l2018 00D3                       l2026 01FC                       l2130 00EB  
                     l2202 0D8F                       l2116 0D4C                       l2108 0D42  
                     l2124 001A                       l2052 0C28                       l2060 0E42  
                     l2036 02A4                       l2028 0210                       l2140 0115  
                     l2132 00F2                       l2204 0DA7                       l2118 000D  
                     l2070 0E71                       l2062 0E43                       l2150 012E  
                     l2142 011D                       l2134 00F7                       l2126 00E0  
                     l2206 0DAD                       l2048 0C17                       l2080 0E9F  
                     l2064 0E48                       l1600 0BF9                       l2160 014C  
                     l2144 0121                       l2128 00E5                       l2082 0EB3  
                     l2066 0E55                       l2074 0E76                       l2058 0E3E  
                     l1602 0C08                       l2170 016C                       l2162 0156  
                     l2146 0125                       l2138 00F8                       l1612 0BE0  
                     l2084 0EB3                       l2076 0E8E                       l2068 0E63  
                     l1700 02BC                       l1604 0C0D                       l1620 0DD5  
                     l1540 0CB9                       l2172 019A                       l2164 015C  
                     l2156 0130                       l2148 0129                       l2180 01C0  
                     l2094 0CFF                       l2086 0EB6                       l2078 0E98  
                     l1710 02D1                       l1702 02C2                       l1630 0DF9  
                     l1622 0DEA                       l1614 0DBF                       l1550 0CF6  
                     l1542 0CC1                       l2174 01A1                       l2166 0163  
                     l2190 0D57                       l1560 0ED3                       l2096 0CFF  
                     l1800 03E8                       l1720 02E9                       l1712 02D9  
                     l1704 02C6                       l1624 0DEB                       l1616 0DCC  
                     l1544 0CC5                       l1608 0F58                       l2176 01A5  
                     l2168 0167                       l2192 0D58                       l1570 0EF5  
                     l1562 0EDE                       l1554 0EBB                       l2098 0D02  
                     l1650 0C75                       l1810 040D                       l1802 03EC  
                     l1730 02FE                       l1722 02EF                       l1714 02DA  
                     l1706 02C7                       l1626 0DF3                       l1546 0CDC  
                     l2290 02AC                       l2178 01AE                       l2194 0D5E  
                     l1580 0F2F                       l1572 0F02                       l1564 0EE2  
                     l1556 0EBE                       l1660 0C8B                       l1652 0C77  
                     l2292 0E7E                       l1820 044B                       l1812 041B  
                     l1804 0400                       l1740 0325                       l1732 0306  
                     l1724 02F3                       l1708 02CC                       l1716 02DC  
                     l1900 05C2                       l1644 0E1A                       l1636 0E01  
                     l1628 0DF5                       l1548 0CE5                       l2196 0D64  
                     l2188 0D4E                       l1590 0F4F                       l1582 0F30  
                     l1574 0F06                       l1566 0EEA                       l1558 0EC2  
                     l2294 0C30                       l1670 0CAE                       l1662 0C8F  
                     l1654 0C7D                       l1830 047B                       l1822 0459  
                     l1814 041F                       l1742 0329                       l1734 0307  
                     l1726 02F4                       l1718 02E4                       l1910 0635  
                     l1902 05D2                       l1646 0E2A                       l1638 0E13  
                     l2198 0D73                       l1584 0F39                       l1576 0F0F  
                     l1568 0EF2                       l1664 0CA0                       l1656 0C80  
                     l1672 0CB4                       l1832 047F                       l1824 0468  
                     l1816 0438                       l1808 0408                       l1760 036A  
                     l1752 0340                       l1728 02F9                       l1736 0309  
                     l1920 06E2                       l1912 0652                       l1904 05EF  
                     l1840 0492                       l1648 0E2F                       l1680 0C44  
                     l2288 010A                       l1578 0F21                       l1586 0F3F  
                     l1666 0CA6                       l1658 0C87                       l1834 0481  
                     l1826 046C                       l1818 043E                       l1770 0388  
                     l1762 036C                       l1754 0352                       l1738 0319  
                     l1746 0332                       l1594 0BEC                       l1930 072E  
                     l1922 070A                       l1914 067F                       l1906 05FF  
                     l1850 04A9                       l1842 0499                       l1690 0C63  
                     l1682 0C4B                       l1588 0F44                       l1668 0CA7  
                     l1828 0474                       l1764 0371                       l1772 0391  
                     l1780 03B6                       l1756 035A                       l1748 0337  
                     l1596 0BEE                       l1940 0743                       l1932 072F  
                     l1924 0713                       l1916 068F                       l1908 061C  
                     l1860 04C5                       l1852 04AE                       l1844 049F  
                     l1692 0C6A                       l1684 0C4F                       l1676 0C3B  
                     l1790 03D3                       l1782 03BC                       l1774 03A3  
                     l1766 0383                       l1758 0362                       l1598 0BF5  
                     l1950 0768                       l1942 0747                       l1934 0738  
                     l1926 0721                       l1918 06BC                       l1870 04DA  
                     l1862 04CB                       l1854 04B6                       l1846 04A3  
                     l1686 0C53                       l1678 0C41                       l1694 0C70  
                     l1792 03D4                       l1784 03C4                       l1776 03A4  
                     l1768 0387                       l1960 07A6                       l1952 0776  
                     l1944 075B                       l1928 072A                       l1936 073E  
                     l1880 04F6                       l1872 04E2                       l1864 04CF  
                     l1856 04B8                       l1848 04A4                       l1688 0C5D  
                     l1794 03DD                       l1786 03C6                       l1778 03B2  
                     l1698 02B5                       l1970 07DA                       l1962 07B1  
                     l1954 077A                       l1938 0742                       l1890 0539  
                     l1874 04E4                       l1866 04D0                       l1858 04C0  
                     l1788 03CF                       l1796 03E3                       l1972 07DE  
                     l1964 07C0                       l1956 0793                       l1948 0763  
                     l1892 0555                       l1884 04FF                       l1876 04EC  
                     l1868 04D5                       l1980 0024                       l1798 03E7  
                     l1974 07DF                       l1966 07CA                       l1958 0799  
                     l1894 0581                       l1886 050F                       l1878 04F1  
                     l1982 0029                       ?_map 002E                       l1976 07EA  
                     l1968 07CC                       l1896 059D                       l1888 051C  
                     l1992 0056                       l1984 002D                       l1898 05B9  
                     l1994 005B                       l1986 003D                       l1996 0068  
                     l1988 004D                       l1998 006F                       STR_1 0810  
                     u2000 02F3                       u2001 02F2                       u2010 02F9  
                     u2011 02F8                       u2100 03A3                       u2020 02FE  
                     u2101 03A2                       u2021 02FD                       u2110 03BC  
                     u2030 0319                       u2111 03BB                       u2031 0318  
                     u2200 040D                       u2120 03C4                       u2040 0337  
                     u3000 01AE                       u2201 040C                       u2121 03C3  
                     u2105 039F                       u2041 0336                       u3001 01AD  
                     u2210 041F                       u2050 0371                       u3010 01C0  
                     u2211 041E                       u2051 0370                       u3011 01BF  
                     u2220 042E                       u2140 03D3                       u2300 04D5  
                     u2141 03D2                       u2301 04D4                       u2230 044B  
                     u2310 04DA                       u2231 044A                       u2135 03C8  
                     u2311 04D9                       u2240 0468                       u2160 03E7  
                     u2080 0387                       u2320 04F1                       u1520 0CC5  
                     u2241 0467                       u2225 0429                       u2161 03E6  
                     u2081 0386                       u2065 0373                       u2401 060E  
                     u2321 04F0                       u1521 0CC4                       u1610 0F06  
                     u2250 047F                       u2170 03EC                       u2402 0615  
                     u2330 04F6                       u1611 0F05                       u2251 047E  
                     u2235 0447                       u2171 03EB                       u2155 03D6  
                     u2075 037C                       u2403 061C                       u2331 04F5  
                     u1531 0CCE                       u3027 0DB5                       u2180 0400  
                     u2260 04A3                       u1532 0CD5                       u1605 0EF7  
                     u3037 0E45                       u2245 0464                       u2181 03FF  
                     u2421 0644                       u2341 0547                       u2261 04A2  
                     u1533 0CDC                       u1701 0F69                       u1630 0F21  
                     u2190 0407                       u2510 072E                       u2422 064B  
                     u2342 054E                       u2270 04A9                       u1702 0F6A  
                     u1631 0F20                       u2191 0406                       u2095 038A  
                     u2511 072D                       u2431 0671                       u2423 0652  
                     u2415 061E                       u2351 0563                       u2343 0555  
                     u2271 04A8                       u1711 0F8D                       u1703 0F6F  
                     u2600 07A6                       u2432 0678                       u2352 056A  
                     u2280 04AE                       u1800 0E19                       u1560 0CF6  
                     u1712 0F8E                       u1704 0F70                       u1625 0F08  
                     u2601 07A5                       u2505 0723                       u2441 069E  
                     u2433 067F                       u2361 058F                       u2353 0571  
                     u2281 04AD                       u1801 0E18                       u1561 0CF5  
                     u1545 0CDE                       u1721 0FB1                       u1713 0F93  
                     u1705 0F75                       u1650 0F3F                       u1570 0EC2  
                     u1730 0BEA                       u2610 07C0                       u2530 0742  
                     u2450 06C8                       u2442 06A5                       u2362 0596  
                     u2290 04CF                       u1722 0FB2                       u1714 0F94  
                     u1706 0F76                       u1651 0F3E                       u1635 0F1D  
                     u1571 0EC1                       u1731 0BE9                       u2611 07BF  
                     u2531 0741                       u2443 06AC                       u2371 05AB  
                     u2363 059D                       u2291 04CE                       u1555 0CE6  
                     u1723 0FB7                       u1715 0F99                       u1660 0F44  
                     u1580 0ED3                       u1900 0CB4                       u2620 07DE  
                     u2540 0747                       u2372 05B2                       u1820 0E2A  
                     u1740 0DCC                       u1724 0FB8                       u1716 0F9A  
                     u1661 0F43                       u1645 0F31                       u1581 0ED2  
                     u1901 0CB3                       u2621 07DD                       u2605 07A2  
                     u2541 0746                       u2525 0731                       u2461 06D4  
                     u2373 05B9                       u1821 0E29                       u1741 0DCB  
                     u1725 0FBD                       u1590 0EF2                       u1670 0BF9  
                     u2550 075B                       u2470 06F0                       u2462 06DB  
                     u1830 0E2F                       u1750 0DE3                       u2710 00A0  
                     u2630 0029                       u1726 0FBE                       u1910 0C41  
                     u1591 0EF1                       u1671 0BF8                       u2615 07BC  
                     u2551 075A                       u2463 06E2                       u2455 06C3  
                     u2391 05E1                       u1831 0E2E                       u1815 0E1C  
                     u2711 009F                       u2631 0028                       u1911 0C40  
                     u1840 0C7D                       u2560 0762                       u2392 05E8  
                     u1760 0DF9                       u2720 00A6                       u2640 002D  
                     u2800 0280                       u1841 0C7C                       u2561 0761  
                     u2481 06FC                       u2393 05EF                       u2385 05BB  
                     u1761 0DF8                       u2721 00A5                       u2705 0095  
                     u2641 002C                       u1690 0C0D                       u2570 0768  
                     u2482 0703                       u1770 0E00                       u2730 00AA  
                     u2650 004D                       u2810 028C                       u1930 0C53  
                     u1691 0C0C                       u2571 0767                       u2483 070A  
                     u2475 06EB                       u1771 0DFF                       u1755 0DDE  
                     u2731 00A9                       u2651 004C                       u2811 0288  
                     u1931 0C52                       u1860 0C8F                       u2900 0E6C  
                     u2580 077A                       u2740 00BF                       u1940 0C5D  
                     u1861 0C8E                       u2901 0E6B                       u1685 0C00  
                     u2581 0779                       u2805 027B                       u1941 0C5C  
                     u1925 0C45                       u2910 0E71                       u2590 0789  
                     u1790 0E12                       u2750 00CF                       u2670 006E  
                     u2830 029F                       u1855 0C81                       u2911 0E70  
                     u2495 070C                       u1791 0E11                       u2751 00CE  
                     u2671 006D                       u1880 0CA0                       u2920 0E75  
                     u2840 0E50                       u2760 00D3                       u2824 028F  
                     u1960 0C70                       u1881 0C9F                       u2921 0E74  
                     u2841 0E4F                       u1785 0E02                       u2761 00D2  
                     u2745 00BA                       u2665 0060                       u1961 0C6F  
                     u1945 0C59                       u2930 0E8E                       u2850 0E55  
                     u1970 02C6                       u2690 0090                       u2770 0210  
                     u1875 0C90                       u2931 0E8D                       u2851 0E54  
                     u1971 02C5                       u2595 0784                       u2691 008F  
                     u2835 029A                       u2771 020F                       u1955 0C64  
                     u2940 0022                       u2860 0E59                       u1980 02CC  
                     u2780 026D                       u2941 0021                       u1885 0C9C  
                     u2861 0E58                       u1981 02CB                       u2685 0082  
                     u2781 0269                       u2773 020C                       u2870 0E5E  
                     u1990 02D1                       u2950 00EB                       u1895 0CA8  
                     u2871 0E5D                       u1991 02D0                       u2951 00EA  
                     u2880 0E63                       u2960 0125                       u2881 0E62  
                     u2961 0124                       u2890 0E67                       u2794 0270  
                     u2970 014B                       u2891 0E66                       u2971 014A  
                     u2980 0156                       _RCIF 0065                       u2981 0155  
                     u2990 015C                       u2991 015B                       u2975 0147  
             __CFG_WRT$OFF 0000                       _main 0D4E                       map@x 002E  
                     btemp 007E                       start 0000            ___fldiv@new_exp 0032  
                    ??_map 0042              ___fltol@sign1 005D            __end_of___aldiv 0F58  
                    ?_main 0070                      _CCP1X 00BD            __end_of___fldiv 0492  
                    _CCP1Y 00BC                      _CCP2X 00ED                      _CCP2Y 00EC  
            __CFG_WDTE$OFF 0000            __end_of___flmul 07F3            __end_of___fltol 0E3B  
                    _T1CON 0010            __end_of___lwdiv 0CB9            __end_of___lwmod 0C75  
                    _RCREG 001A                      _TMR1H 000F                      _TMR1L 000E  
                    _SPBRG 0099                      _TXREG 0019        ___lmul@multiplicand 0074  
       __size_of_UART_init 004F            __end_of_dpowers 0810                ?_UART_write 0070  
           __CFG_BOREN$OFF 0000                      pclath 000A            __end_of_pwmDuty 02B5  
                    status 0003                      wtemp0 007E            __end_of_sprintf 01C5  
          __initialization 07F3               __end_of_main 0DBF        dameDistancia@conteo 0023  
   dameDistancia@distancia 0021                     ??_main 006B                     _CCP1M2 00BA  
                   _CCP1M3 00BB                     _CCP2M2 00EA                     _CCP2M3 00EB  
                   _CCPR1L 0015                     _CCPR2L 001B                     _TMR1IF 0060  
                   _TMR1ON 0080                     _TMR2ON 0092                     _TRISB0 0430  
                   _TRISB1 0431                     _TRISB2 0432                     _TRISC1 0439  
                   _TRISB3 0433                     _TRISC2 043A                     _TRISC6 043E  
                   _TRISC7 043F           __end_of___xxtofl 00DD             __CFG_PWRTE$OFF 0000  
dameDistancia@numeroSensor 0020                     ___lmul 0CB9                  ??___aldiv 007D  
        __end_of_UART_init 0D4E                  ??___fldiv 0028                  ??___flmul 0042  
                ??___fltol 0058                  ??___lwdiv 0074                  ??___lwmod 007C  
                   _buffer 00A0        __size_of_UART_write 000C               ?_UART_printf 0070  
       __size_of__Umul8_16 0027                  ??_pwmDuty 0062                  ??_sprintf 0028  
             ___xxtofl@arg 007A               ___xxtofl@exp 0079               ___xxtofl@val 0070  
  __end_of__initialization 07FC                 ___fltol@f1 0054     __size_of_dameDistancia 0080  
           __pcstackCOMMON 0070         __size_of_configPwm 0029                 __pbssBANK1 00A0  
        __end_of__Umul8_16 0C12                 __pmaintext 0D4E                    ?___lmul 0070  
           ___lmul@product 0079                    _T2CKPS0 0090                    _T2CKPS1 0091  
                ?___xxtofl 0070              _dameDistancia 0E3B               ??_UART_write 0070  
               __stringtab 0800          __end_of_configPwm 0C3B                    ___aldiv 0EBB  
                  ___fldiv 02B5            __size_of___lmul 0046                    ___flmul 0492  
                  ___fltol 0DBF                    ___lwdiv 0C75                    ___lwmod 0C3B  
       __end_of_UART_write 0BEB                    __ptext1 00DD                    __ptext2 0C3B  
                  __ptext3 01C5                    __ptext4 0F58                    __ptext5 0CB9  
                  __ptext6 0023                    __ptext7 0DBF                    __ptext8 0492  
                  __ptext9 0BEB       __size_of_UART_printf 0017                    _dpowers 0806  
             __size_of_map 00A8                 ??___xxtofl 0074             ?_dameDistancia 0078  
         ___aldiv@dividend 0024                    _pwmDuty 01C5                    _sprintf 00DD  
                  clrloop0 0005       end_of_initialization 07FC                  _RCSTAbits 0018  
         ___aldiv@quotient 002A                  _UART_init 0CFF                pwmDuty@duty 0067  
            ___xxtofl@sign 0078                ___fldiv@grs 0034                ___fldiv@rem 002D  
               map@out_max 003E                 map@out_min 003A                ___flmul@grs 0048  
                _TXSTAbits 0098             __end_of___lmul 0CFF                 ?_UART_init 002E  
          ??_dameDistancia 007A        start_initialization 07F3                __end_of_map 1000  
      pwmDuty@cicloTrabajo 005F                   ??___lmul 0078                  __Umul8_16 0BEB  
                ___fldiv@a 0020                  ___fldiv@b 0024                  ___flmul@a 003E  
                ___flmul@b 003A                  ___latbits 0002              __pcstackBANK0 0020  
        __size_of___xxtofl 00BA                sprintf@flag 002C                sprintf@prec 002D  
        UART_printf@cadena 0072           ___lwdiv@dividend 0072                   ?___aldiv 0020  
                 ?___fldiv 0020                   ?___flmul 003A                   ?___fltol 0054  
               ?__Umul8_16 0070                   ?___lwdiv 0070                   ?___lwmod 0078  
                _configPwm 0C12                  __pstrings 0800                ??_UART_init 007E  
                 ?_pwmDuty 005F           ___lwdiv@quotient 0075                   ?_sprintf 0025  
          ___aldiv@divisor 0020            ___aldiv@counter 0028                  clear_ram0 0004  
            ??_UART_printf 0071                 ?_configPwm 0070                  map@in_max 0036  
                map@in_min 0032                __stringbase 0805           configPwm@channel 0072  
            _UART_init$850 0036             UART_write@dato 0070          ___lmul@multiplier 0070  
            UART_init@BAUD 002E                ??__Umul8_16 0072           __size_of___aldiv 009D  
         __size_of___fldiv 01DD           __size_of___flmul 0361           __size_of___fltol 007C  
         __size_of___lwdiv 0044           __size_of___lwmod 003A         __end_of__stringtab 0806  
               sprintf@val 002E                   ___xxtofl 0023        __end_of_UART_printf 0023  
          ___lwdiv@divisor 0070            ___lwdiv@counter 0077                   __ptext10 02B5  
                 __ptext11 0E3B                   __ptext12 0C75                   __ptext13 0C12  
                 __ptext14 000C                   __ptext15 0BDF                   __ptext16 0CFF  
                 __ptext17 0EBB           __size_of_pwmDuty 00F0           __size_of_sprintf 00E8  
            __size_of_main 0071                ??_configPwm 0070      __end_of_dameDistancia 0EBB  
                sprintf@ap 002B                  sprintf@sp 0030           ___lwmod@dividend 007A  
                stringcode 0800                _UART_printf 000C     __Umul8_16@multiplicand 0070  
           pwmDuty@channel 0061                   sprintf@c 0031                   sprintf@f 0025  
          ___lwmod@divisor 0078            ___lwmod@counter 007D                   stringdir 0800  
                 stringtab 0800               ___aldiv@sign 0029                 _UART_write 0BDF  
     __Umul8_16@multiplier 0078          __Umul8_16@product 0074  
