

Microchip MPLAB XC8 Assembler V2.10 build 88905656 
                                                                                               Sat Jul 11 17:11:49 2020

Microchip MPLAB XC8 C Compiler v2.10 (Free license) build 20190730164152 Og1 
     1                           	processor	16F877
     2                           	opt	pw 120
     3                           	opt	flic
     4                           	psect	strings,global,class=STRING,delta=2
     5                           	psect	cinit,global,class=CODE,merge=1,delta=2
     6                           	psect	bssBANK1,global,class=BANK1,space=1,delta=1
     7                           	psect	clrtext,global,class=CODE,delta=2
     8                           	psect	cstackCOMMON,global,class=COMMON,space=1,delta=1
     9                           	psect	cstackBANK0,global,class=BANK0,space=1,delta=1
    10                           	psect	maintext,global,class=CODE,split=1,delta=2
    11                           	psect	text1,local,class=CODE,merge=1,delta=2
    12                           	psect	text2,local,class=CODE,merge=1,delta=2,group=1
    13                           	psect	text3,local,class=CODE,merge=1,delta=2,group=1
    14                           	psect	text4,local,class=CODE,merge=1,delta=2
    15                           	psect	text5,local,class=CODE,merge=1,delta=2
    16                           	psect	text6,local,class=CODE,merge=1,delta=2,group=1
    17                           	psect	text7,local,class=CODE,merge=1,delta=2,group=1
    18                           	psect	text8,local,class=CODE,merge=1,delta=2,group=1
    19                           	psect	text9,local,class=CODE,merge=1,delta=2,group=1
    20                           	psect	text10,local,class=CODE,merge=1,delta=2,group=1
    21                           	psect	text11,local,class=CODE,merge=1,delta=2,group=1
    22                           	psect	text12,local,class=CODE,merge=1,delta=2
    23                           	psect	text13,local,class=CODE,merge=1,delta=2
    24                           	psect	text14,local,class=CODE,merge=1,delta=2
    25                           	psect	text15,local,class=CODE,merge=1,delta=2
    26                           	psect	text16,local,class=CODE,merge=1,delta=2,group=1
    27                           	dabs	1,0x7E,2
    28  0000                     
    29                           ; Version 2.10
    30                           ; Generated 31/07/2019 GMT
    31                           ; 
    32                           ; Copyright © 2019, Microchip Technology Inc. and its subsidiaries ("Microchip")
    33                           ; All rights reserved.
    34                           ; 
    35                           ; This software is developed by Microchip Technology Inc. and its subsidiaries ("Microch
      +                          ip").
    36                           ; 
    37                           ; Redistribution and use in source and binary forms, with or without modification, are
    38                           ; permitted provided that the following conditions are met:
    39                           ; 
    40                           ;     1. Redistributions of source code must retain the above copyright notice, this lis
      +                          t of
    41                           ;        conditions and the following disclaimer.
    42                           ; 
    43                           ;     2. Redistributions in binary form must reproduce the above copyright notice, this 
      +                          list
    44                           ;        of conditions and the following disclaimer in the documentation and/or other
    45                           ;        materials provided with the distribution.
    46                           ; 
    47                           ;     3. Microchip's name may not be used to endorse or promote products derived from th
      +                          is
    48                           ;        software without specific prior written permission.
    49                           ; 
    50                           ; THIS SOFTWARE IS PROVIDED BY MICROCHIP "AS IS" AND ANY EXPRESS OR IMPLIED WARRANTIES,
    51                           ; INCLUDING, BUT NOT LIMITED TO, THE IMPLIED WARRANTIES OF MERCHANTABILITY AND FITNESS F
      +                          OR
    52                           ; PURPOSE ARE DISCLAIMED.  IN NO EVENT SHALL MICROCHIP BE LIABLE FOR ANY DIRECT, INDIREC
      +                          T,
    53                           ; INCIDENTAL, SPECIAL, EXEMPLARY, OR CONSEQUENTIAL DAMAGES (INCLUDING BUT NOT LIMITED TO
    54                           ; PROCUREMENT OF SUBSTITUTE GOODS OR SERVICES; LOSS OF USE, DATA OR PROFITS; OR BUSINESS
    55                           ; INTERRUPTION) HOWSOEVER CAUSED AND ON ANY THEORY OF LIABILITY, WHETHER IN CONTRACT, ST
      +                          RICT
    56                           ; LIABILITY, OR TORT (INCLUDING NEGLIGENCE OR OTHERWISE) ARISING IN ANY WAY OUT OF THE U
      +                          SE OF
    57                           ; THIS SOFTWARE, EVEN IF ADVISED OF THE POSSIBILITY OF SUCH DAMAGE.
    58                           ; 
    59                           ; 
    60                           ; Code-generator required, PIC16F877 Definitions
    61                           ; 
    62                           ; SFR Addresses
    63  0000                     	;# 
    64  0001                     	;# 
    65  0002                     	;# 
    66  0003                     	;# 
    67  0004                     	;# 
    68  0005                     	;# 
    69  0006                     	;# 
    70  0007                     	;# 
    71  0008                     	;# 
    72  0009                     	;# 
    73  000A                     	;# 
    74  000B                     	;# 
    75  000C                     	;# 
    76  000D                     	;# 
    77  000E                     	;# 
    78  000E                     	;# 
    79  000F                     	;# 
    80  0010                     	;# 
    81  0011                     	;# 
    82  0012                     	;# 
    83  0013                     	;# 
    84  0014                     	;# 
    85  0015                     	;# 
    86  0015                     	;# 
    87  0016                     	;# 
    88  0017                     	;# 
    89  0018                     	;# 
    90  0019                     	;# 
    91  001A                     	;# 
    92  001B                     	;# 
    93  001B                     	;# 
    94  001C                     	;# 
    95  001D                     	;# 
    96  001E                     	;# 
    97  001F                     	;# 
    98  0081                     	;# 
    99  0085                     	;# 
   100  0086                     	;# 
   101  0087                     	;# 
   102  0088                     	;# 
   103  0089                     	;# 
   104  008C                     	;# 
   105  008D                     	;# 
   106  008E                     	;# 
   107  0091                     	;# 
   108  0092                     	;# 
   109  0093                     	;# 
   110  0094                     	;# 
   111  0098                     	;# 
   112  0099                     	;# 
   113  009E                     	;# 
   114  009F                     	;# 
   115  010C                     	;# 
   116  010D                     	;# 
   117  010E                     	;# 
   118  010F                     	;# 
   119  018C                     	;# 
   120  018D                     	;# 
   121  0000                     	;# 
   122  0001                     	;# 
   123  0002                     	;# 
   124  0003                     	;# 
   125  0004                     	;# 
   126  0005                     	;# 
   127  0006                     	;# 
   128  0007                     	;# 
   129  0008                     	;# 
   130  0009                     	;# 
   131  000A                     	;# 
   132  000B                     	;# 
   133  000C                     	;# 
   134  000D                     	;# 
   135  000E                     	;# 
   136  000E                     	;# 
   137  000F                     	;# 
   138  0010                     	;# 
   139  0011                     	;# 
   140  0012                     	;# 
   141  0013                     	;# 
   142  0014                     	;# 
   143  0015                     	;# 
   144  0015                     	;# 
   145  0016                     	;# 
   146  0017                     	;# 
   147  0018                     	;# 
   148  0019                     	;# 
   149  001A                     	;# 
   150  001B                     	;# 
   151  001B                     	;# 
   152  001C                     	;# 
   153  001D                     	;# 
   154  001E                     	;# 
   155  001F                     	;# 
   156  0081                     	;# 
   157  0085                     	;# 
   158  0086                     	;# 
   159  0087                     	;# 
   160  0088                     	;# 
   161  0089                     	;# 
   162  008C                     	;# 
   163  008D                     	;# 
   164  008E                     	;# 
   165  0091                     	;# 
   166  0092                     	;# 
   167  0093                     	;# 
   168  0094                     	;# 
   169  0098                     	;# 
   170  0099                     	;# 
   171  009E                     	;# 
   172  009F                     	;# 
   173  010C                     	;# 
   174  010D                     	;# 
   175  010E                     	;# 
   176  010F                     	;# 
   177  018C                     	;# 
   178  018D                     	;# 
   179                           
   180                           	psect	strings
   181  0800                     __pstrings:	
   182  0800                     stringtab:	
   183  0800                     __stringtab:	
   184  0800                     stringcode:	
   185                           ;	String table - string pointers are 1 byte each
   186                           
   187  0800                     stringdir:	
   188  0800  3008               	movlw	high stringdir
   189  0801  008A               	movwf	10
   190  0802  0804               	movf	4,w
   191  0803  0A84               	incf	4,f
   192  0804  0782               	addwf	2,f
   193  0805                     __stringbase:	
   194  0805  3400               	retlw	0
   195  0806                     __end_of__stringtab:	
   196  0806                     _dpowers:	
   197  0806  3401               	retlw	1
   198  0807  3400               	retlw	0
   199  0808  340A               	retlw	10
   200  0809  3400               	retlw	0
   201  080A  3464               	retlw	100
   202  080B  3400               	retlw	0
   203  080C  34E8               	retlw	232
   204  080D  3403               	retlw	3
   205  080E  3410               	retlw	16
   206  080F  3427               	retlw	39
   207  0810                     __end_of_dpowers:	
   208  0010                     _T1CON	set	16
   209  0019                     _TXREG	set	25
   210  001A                     _RCREG	set	26
   211  0018                     _RCSTAbits	set	24
   212  0006                     _PORTBbits	set	6
   213  000E                     _TMR1L	set	14
   214  000F                     _TMR1H	set	15
   215  001B                     _CCPR2L	set	27
   216  0015                     _CCPR1L	set	21
   217  0065                     _RCIF	set	101
   218  0060                     _TMR1IF	set	96
   219  0080                     _TMR1ON	set	128
   220  0092                     _TMR2ON	set	146
   221  00EA                     _CCP2M2	set	234
   222  00EB                     _CCP2M3	set	235
   223  00BA                     _CCP1M2	set	186
   224  00BB                     _CCP1M3	set	187
   225  0091                     _T2CKPS1	set	145
   226  0090                     _T2CKPS0	set	144
   227  00EC                     _CCP2Y	set	236
   228  00ED                     _CCP2X	set	237
   229  00BC                     _CCP1Y	set	188
   230  00BD                     _CCP1X	set	189
   231  0086                     _TRISBbits	set	134
   232  0098                     _TXSTAbits	set	152
   233  0099                     _SPBRG	set	153
   234  0087                     _TRISCbits	set	135
   235  0092                     _PR2	set	146
   236  0439                     _TRISC1	set	1081
   237  043A                     _TRISC2	set	1082
   238  0810                     STR_1:	
   239  0810  3425               	retlw	37	;'%'
   240  0811  3464               	retlw	100	;'d'
   241  0812  340A               	retlw	10
   242  0813  3400               	retlw	0
   243                           
   244                           ; #config settings
   245  0000                     
   246                           	psect	cinit
   247  07F3                     start_initialization:	
   248  07F3                     __initialization:	
   249                           
   250                           ; Clear objects allocated to BANK1
   251  07F3  1383               	bcf	3,7	;select IRP bank0
   252  07F4  30A0               	movlw	low __pbssBANK1
   253  07F5  0084               	movwf	4
   254  07F6  30D2               	movlw	low (__pbssBANK1+50)
   255  07F7  120A  118A  2004  120A  118A  	fcall	clear_ram0
   256  07FC                     end_of_initialization:	
   257                           ;End of C runtime variable initialization code
   258                           
   259  07FC                     __end_of__initialization:	
   260  07FC  0183               	clrf	3
   261  07FD  120A  158A  2E3E   	ljmp	_main	;jump to C main() function
   262                           
   263                           	psect	bssBANK1
   264  00A0                     __pbssBANK1:	
   265  00A0                     _buffer:	
   266  00A0                     	ds	50
   267                           
   268                           	psect	clrtext
   269  0004                     clear_ram0:	
   270                           ;	Called with FSR containing the base address, and
   271                           ;	W with the last address+1
   272                           
   273  0004  0064               	clrwdt	;clear the watchdog before getting into this loop
   274  0005                     clrloop0:	
   275  0005  0180               	clrf	0	;clear RAM location pointed to by FSR
   276  0006  0A84               	incf	4,f	;increment pointer
   277  0007  0604               	xorwf	4,w	;XOR with final address
   278  0008  1903               	btfsc	3,2	;have we reached the end yet?
   279  0009  3400               	retlw	0	;all done for this memory range, return
   280  000A  0604               	xorwf	4,w	;XOR again to restore value
   281  000B  2805               	goto	clrloop0	;do the next byte
   282                           
   283                           	psect	cstackCOMMON
   284  0070                     __pcstackCOMMON:	
   285  0070                     ?_configPwm:	
   286  0070                     ??_configPwm:	
   287                           ; 1 bytes @ 0x0
   288                           
   289  0070                     ?_UART_write:	
   290                           ; 1 bytes @ 0x0
   291                           
   292  0070                     ??_UART_write:	
   293                           ; 1 bytes @ 0x0
   294                           
   295  0070                     ?_UART_printf:	
   296                           ; 1 bytes @ 0x0
   297                           
   298  0070                     ?_main:	
   299                           ; 1 bytes @ 0x0
   300                           
   301  0070                     ?__Umul8_16:	
   302                           ; 1 bytes @ 0x0
   303                           
   304  0070                     ?___lwdiv:	
   305                           ; 2 bytes @ 0x0
   306                           
   307  0070                     ?___lmul:	
   308                           ; 2 bytes @ 0x0
   309                           
   310  0070                     ?___xxtofl:	
   311                           ; 4 bytes @ 0x0
   312                           
   313  0070                     UART_write@dato:	
   314                           ; 4 bytes @ 0x0
   315                           
   316  0070                     __Umul8_16@multiplicand:	
   317                           ; 1 bytes @ 0x0
   318                           
   319  0070                     ___lwdiv@divisor:	
   320                           ; 1 bytes @ 0x0
   321                           
   322  0070                     ___lmul@multiplier:	
   323                           ; 2 bytes @ 0x0
   324                           
   325  0070                     ___xxtofl@val:	
   326                           ; 4 bytes @ 0x0
   327                           
   328                           
   329                           ; 4 bytes @ 0x0
   330  0070                     	ds	1
   331  0071                     ??_UART_printf:	
   332                           
   333                           ; 1 bytes @ 0x1
   334  0071                     	ds	1
   335  0072                     ??__Umul8_16:	
   336  0072                     configPwm@channel:	
   337                           ; 1 bytes @ 0x2
   338                           
   339  0072                     UART_printf@cadena:	
   340                           ; 1 bytes @ 0x2
   341                           
   342  0072                     ___lwdiv@dividend:	
   343                           ; 1 bytes @ 0x2
   344                           
   345                           
   346                           ; 2 bytes @ 0x2
   347  0072                     	ds	2
   348  0074                     ??___lwdiv:	
   349  0074                     ??___xxtofl:	
   350                           ; 1 bytes @ 0x4
   351                           
   352  0074                     __Umul8_16@product:	
   353                           ; 1 bytes @ 0x4
   354                           
   355  0074                     ___lmul@multiplicand:	
   356                           ; 2 bytes @ 0x4
   357                           
   358                           
   359                           ; 4 bytes @ 0x4
   360  0074                     	ds	1
   361  0075                     ___lwdiv@quotient:	
   362                           
   363                           ; 2 bytes @ 0x5
   364  0075                     	ds	1
   365  0076                     __Umul8_16@word_mpld:	
   366                           
   367                           ; 2 bytes @ 0x6
   368  0076                     	ds	1
   369  0077                     ___lwdiv@counter:	
   370                           
   371                           ; 1 bytes @ 0x7
   372  0077                     	ds	1
   373  0078                     ??___lmul:	
   374  0078                     ?___lwmod:	
   375                           ; 1 bytes @ 0x8
   376                           
   377  0078                     ___xxtofl@sign:	
   378                           ; 2 bytes @ 0x8
   379                           
   380  0078                     __Umul8_16@multiplier:	
   381                           ; 1 bytes @ 0x8
   382                           
   383  0078                     ___lwmod@divisor:	
   384                           ; 1 bytes @ 0x8
   385                           
   386                           
   387                           ; 2 bytes @ 0x8
   388  0078                     	ds	1
   389  0079                     ___xxtofl@exp:	
   390  0079                     ___lmul@product:	
   391                           ; 1 bytes @ 0x9
   392                           
   393                           
   394                           ; 4 bytes @ 0x9
   395  0079                     	ds	1
   396  007A                     ___lwmod@dividend:	
   397  007A                     ___xxtofl@arg:	
   398                           ; 2 bytes @ 0xA
   399                           
   400                           
   401                           ; 4 bytes @ 0xA
   402  007A                     	ds	2
   403  007C                     ??___lwmod:	
   404                           
   405                           ; 1 bytes @ 0xC
   406  007C                     	ds	1
   407  007D                     ??___aldiv:	
   408  007D                     ___lwmod@counter:	
   409                           ; 1 bytes @ 0xD
   410                           
   411                           
   412                           ; 1 bytes @ 0xD
   413  007D                     	ds	1
   414  007E                     ??_UART_init:	
   415                           
   416                           	psect	cstackBANK0
   417  0020                     __pcstackBANK0:	
   418                           ; 1 bytes @ 0xE
   419                           
   420  0020                     ?_sprintf:	
   421  0020                     ?___aldiv:	
   422                           ; 2 bytes @ 0x0
   423                           
   424  0020                     ?___fldiv:	
   425                           ; 4 bytes @ 0x0
   426                           
   427  0020                     sprintf@f:	
   428                           ; 4 bytes @ 0x0
   429                           
   430  0020                     ___aldiv@divisor:	
   431                           ; 1 bytes @ 0x0
   432                           
   433  0020                     ___fldiv@a:	
   434                           ; 4 bytes @ 0x0
   435                           
   436                           
   437                           ; 4 bytes @ 0x0
   438  0020                     	ds	3
   439  0023                     ??_sprintf:	
   440                           
   441                           ; 1 bytes @ 0x3
   442  0023                     	ds	1
   443  0024                     ___aldiv@dividend:	
   444  0024                     ___fldiv@b:	
   445                           ; 4 bytes @ 0x4
   446                           
   447                           
   448                           ; 4 bytes @ 0x4
   449  0024                     	ds	2
   450  0026                     sprintf@ap:	
   451                           
   452                           ; 1 bytes @ 0x6
   453  0026                     	ds	1
   454  0027                     sprintf@flag:	
   455                           
   456                           ; 1 bytes @ 0x7
   457  0027                     	ds	1
   458  0028                     ??___fldiv:	
   459  0028                     sprintf@prec:	
   460                           ; 1 bytes @ 0x8
   461                           
   462  0028                     ___aldiv@counter:	
   463                           ; 1 bytes @ 0x8
   464                           
   465                           
   466                           ; 1 bytes @ 0x8
   467  0028                     	ds	1
   468  0029                     ___aldiv@sign:	
   469  0029                     sprintf@val:	
   470                           ; 1 bytes @ 0x9
   471                           
   472                           
   473                           ; 2 bytes @ 0x9
   474  0029                     	ds	1
   475  002A                     ___aldiv@quotient:	
   476                           
   477                           ; 4 bytes @ 0xA
   478  002A                     	ds	1
   479  002B                     sprintf@sp:	
   480                           
   481                           ; 1 bytes @ 0xB
   482  002B                     	ds	1
   483  002C                     sprintf@c:	
   484                           
   485                           ; 1 bytes @ 0xC
   486  002C                     	ds	1
   487  002D                     ___fldiv@rem:	
   488                           
   489                           ; 4 bytes @ 0xD
   490  002D                     	ds	1
   491  002E                     ?_UART_init:	
   492  002E                     ?_map:	
   493                           ; 1 bytes @ 0xE
   494                           
   495  002E                     map@x:	
   496                           ; 4 bytes @ 0xE
   497                           
   498  002E                     UART_init@BAUD:	
   499                           ; 4 bytes @ 0xE
   500                           
   501                           
   502                           ; 4 bytes @ 0xE
   503  002E                     	ds	3
   504  0031                     ___fldiv@sign:	
   505                           
   506                           ; 1 bytes @ 0x11
   507  0031                     	ds	1
   508  0032                     ___fldiv@new_exp:	
   509  0032                     map@in_min:	
   510                           ; 2 bytes @ 0x12
   511                           
   512                           
   513                           ; 4 bytes @ 0x12
   514  0032                     	ds	2
   515  0034                     ___fldiv@grs:	
   516                           
   517                           ; 4 bytes @ 0x14
   518  0034                     	ds	2
   519  0036                     map@in_max:	
   520  0036                     _UART_init$928:	
   521                           ; 4 bytes @ 0x16
   522                           
   523                           
   524                           ; 4 bytes @ 0x16
   525  0036                     	ds	2
   526  0038                     ___fldiv@bexp:	
   527                           
   528                           ; 1 bytes @ 0x18
   529  0038                     	ds	1
   530  0039                     ___fldiv@aexp:	
   531                           
   532                           ; 1 bytes @ 0x19
   533  0039                     	ds	1
   534  003A                     ?___flmul:	
   535  003A                     map@out_min:	
   536                           ; 4 bytes @ 0x1A
   537                           
   538  003A                     ___flmul@b:	
   539                           ; 4 bytes @ 0x1A
   540                           
   541                           
   542                           ; 4 bytes @ 0x1A
   543  003A                     	ds	4
   544  003E                     map@out_max:	
   545  003E                     ___flmul@a:	
   546                           ; 4 bytes @ 0x1E
   547                           
   548                           
   549                           ; 4 bytes @ 0x1E
   550  003E                     	ds	4
   551  0042                     ??_map:	
   552  0042                     ??___flmul:	
   553                           ; 1 bytes @ 0x22
   554                           
   555                           
   556                           ; 1 bytes @ 0x22
   557  0042                     	ds	5
   558  0047                     ___flmul@sign:	
   559                           
   560                           ; 1 bytes @ 0x27
   561  0047                     	ds	1
   562  0048                     ___flmul@grs:	
   563                           
   564                           ; 4 bytes @ 0x28
   565  0048                     	ds	4
   566  004C                     ___flmul@aexp:	
   567                           
   568                           ; 1 bytes @ 0x2C
   569  004C                     	ds	1
   570  004D                     ___flmul@bexp:	
   571                           
   572                           ; 1 bytes @ 0x2D
   573  004D                     	ds	1
   574  004E                     ___flmul@prod:	
   575                           
   576                           ; 4 bytes @ 0x2E
   577  004E                     	ds	4
   578  0052                     ___flmul@temp:	
   579                           
   580                           ; 2 bytes @ 0x32
   581  0052                     	ds	2
   582  0054                     ?___fltol:	
   583  0054                     ___fltol@f1:	
   584                           ; 4 bytes @ 0x34
   585                           
   586                           
   587                           ; 4 bytes @ 0x34
   588  0054                     	ds	4
   589  0058                     ??___fltol:	
   590                           
   591                           ; 1 bytes @ 0x38
   592  0058                     	ds	5
   593  005D                     ___fltol@sign1:	
   594                           
   595                           ; 1 bytes @ 0x3D
   596  005D                     	ds	1
   597  005E                     ___fltol@exp1:	
   598                           
   599                           ; 1 bytes @ 0x3E
   600  005E                     	ds	1
   601  005F                     ?_pwmDuty:	
   602  005F                     pwmDuty@cicloTrabajo:	
   603                           ; 1 bytes @ 0x3F
   604                           
   605                           
   606                           ; 2 bytes @ 0x3F
   607  005F                     	ds	2
   608  0061                     pwmDuty@channel:	
   609                           
   610                           ; 1 bytes @ 0x41
   611  0061                     	ds	1
   612  0062                     ??_pwmDuty:	
   613                           
   614                           ; 1 bytes @ 0x42
   615  0062                     	ds	5
   616  0067                     pwmDuty@duty:	
   617                           
   618                           ; 4 bytes @ 0x47
   619  0067                     	ds	4
   620  006B                     ??_main:	
   621                           
   622                           ; 1 bytes @ 0x4B
   623  006B                     	ds	2
   624  006D                     main@i:	
   625                           
   626                           ; 2 bytes @ 0x4D
   627  006D                     	ds	2
   628                           
   629                           	psect	maintext
   630  0E3E                     __pmaintext:	
   631 ;;
   632 ;;Main: autosize = 0, tempsize = 2, incstack = 0, save=0
   633 ;;
   634 ;; *************** function _main *****************
   635 ;; Defined at:
   636 ;;		line 11 in file "main.c"
   637 ;; Parameters:    Size  Location     Type
   638 ;;		None
   639 ;; Auto vars:     Size  Location     Type
   640 ;;  i               2   77[BANK0 ] int 
   641 ;; Return value:  Size  Location     Type
   642 ;;                  1    wreg      void 
   643 ;; Registers used:
   644 ;;		wreg, fsr0l, fsr0h, status,2, status,0, btemp+1, pclath, cstack
   645 ;; Tracked objects:
   646 ;;		On entry : B00/0
   647 ;;		On exit  : 0/0
   648 ;;		Unchanged: 0/0
   649 ;; Data sizes:     COMMON   BANK0   BANK1   BANK3   BANK2
   650 ;;      Params:         0       0       0       0       0
   651 ;;      Locals:         0       2       0       0       0
   652 ;;      Temps:          0       2       0       0       0
   653 ;;      Totals:         0       4       0       0       0
   654 ;;Total ram usage:        4 bytes
   655 ;; Hardware stack levels required when called:    3
   656 ;; This function calls:
   657 ;;		_UART_init
   658 ;;		_UART_printf
   659 ;;		_configPwm
   660 ;;		_pwmDuty
   661 ;;		_sprintf
   662 ;; This function is called by:
   663 ;;		Startup code after reset
   664 ;; This function uses a non-reentrant model
   665 ;;
   666                           
   667                           
   668                           ;psect for function _main
   669  0E3E                     _main:	
   670  0E3E                     l2162:	
   671                           ;incstack = 0
   672                           ; Regs used in _main: [wreg-fsr0h+status,2+status,0+btemp+1+pclath+cstack]
   673                           
   674                           
   675                           ;main.c: 13:     TRISBbits.TRISB0 = 0;
   676  0E3E  1683               	bsf	3,5	;RP0=1, select bank1
   677  0E3F  1303               	bcf	3,6	;RP1=0, select bank1
   678  0E40  1006               	bcf	6,0	;volatile
   679                           
   680                           ;main.c: 14:     TRISBbits.TRISB1 = 1;
   681  0E41  1486               	bsf	6,1	;volatile
   682                           
   683                           ;main.c: 15:     TRISBbits.TRISB2 = 1;
   684  0E42  1506               	bsf	6,2	;volatile
   685                           
   686                           ;main.c: 16:     TRISBbits.TRISB3 = 1;
   687  0E43  1586               	bsf	6,3	;volatile
   688                           
   689                           ;main.c: 18:     PORTBbits.RB0 = 0;
   690  0E44  1283               	bcf	3,5	;RP0=0, select bank0
   691  0E45  1303               	bcf	3,6	;RP1=0, select bank0
   692  0E46  1006               	bcf	6,0	;volatile
   693  0E47                     l2164:	
   694                           
   695                           ;main.c: 19:     T1CON = 0b00000000;
   696  0E47  0190               	clrf	16	;volatile
   697  0E48                     l2166:	
   698                           
   699                           ;main.c: 21:     configPwm(1);
   700  0E48  3001               	movlw	1
   701  0E49  120A  158A  2486  120A  158A  	fcall	_configPwm
   702  0E4E                     l2168:	
   703                           
   704                           ;main.c: 22:     configPwm(2);
   705  0E4E  3002               	movlw	2
   706  0E4F  120A  158A  2486  120A  158A  	fcall	_configPwm
   707  0E54                     l2170:	
   708                           
   709                           ;main.c: 24:     UART_init(9600);
   710  0E54  3000               	movlw	0
   711  0E55  1283               	bcf	3,5	;RP0=0, select bank0
   712  0E56  1303               	bcf	3,6	;RP1=0, select bank0
   713  0E57  00B1               	movwf	UART_init@BAUD+3
   714  0E58  3000               	movlw	0
   715  0E59  00B0               	movwf	UART_init@BAUD+2
   716  0E5A  3025               	movlw	37
   717  0E5B  00AF               	movwf	UART_init@BAUD+1
   718  0E5C  3080               	movlw	128
   719  0E5D  00AE               	movwf	UART_init@BAUD
   720  0E5E  120A  158A  2573  120A  158A  	fcall	_UART_init
   721  0E63                     l2172:	
   722                           
   723                           ;main.c: 26:     pwmDuty(95, 1);
   724  0E63  305F               	movlw	95
   725  0E64  1283               	bcf	3,5	;RP0=0, select bank0
   726  0E65  1303               	bcf	3,6	;RP1=0, select bank0
   727  0E66  00DF               	movwf	pwmDuty@cicloTrabajo
   728  0E67  3000               	movlw	0
   729  0E68  00E0               	movwf	pwmDuty@cicloTrabajo+1
   730  0E69  01E1               	clrf	pwmDuty@channel
   731  0E6A  0AE1               	incf	pwmDuty@channel,f
   732  0E6B  120A  118A  21C5  120A  158A  	fcall	_pwmDuty
   733  0E70                     l2174:	
   734                           
   735                           ;main.c: 27:     pwmDuty(0, 2);
   736  0E70  3000               	movlw	0
   737  0E71  1283               	bcf	3,5	;RP0=0, select bank0
   738  0E72  1303               	bcf	3,6	;RP1=0, select bank0
   739  0E73  00DF               	movwf	pwmDuty@cicloTrabajo
   740  0E74  00E0               	movwf	pwmDuty@cicloTrabajo+1
   741  0E75  3002               	movlw	2
   742  0E76  00EB               	movwf	??_main
   743  0E77  086B               	movf	??_main,w
   744  0E78  00E1               	movwf	pwmDuty@channel
   745  0E79  120A  118A  21C5  120A  158A  	fcall	_pwmDuty
   746  0E7E                     l2176:	
   747                           
   748                           ;main.c: 31:         for (int i = 0; i < 10; i++) {
   749  0E7E  1283               	bcf	3,5	;RP0=0, select bank0
   750  0E7F  1303               	bcf	3,6	;RP1=0, select bank0
   751  0E80  01ED               	clrf	main@i
   752  0E81  01EE               	clrf	main@i+1
   753  0E82                     l2182:	
   754                           
   755                           ;main.c: 32:             sprintf(buffer, "%d\n", i);
   756  0E82  300B               	movlw	(low ((STR_1-__stringbase)| (0+32768)))& (0+255)
   757  0E83  1283               	bcf	3,5	;RP0=0, select bank0
   758  0E84  1303               	bcf	3,6	;RP1=0, select bank0
   759  0E85  00EB               	movwf	??_main
   760  0E86  086B               	movf	??_main,w
   761  0E87  00A0               	movwf	sprintf@f
   762  0E88  086E               	movf	main@i+1,w
   763  0E89  00A2               	movwf	?_sprintf+2
   764  0E8A  086D               	movf	main@i,w
   765  0E8B  00A1               	movwf	?_sprintf+1
   766  0E8C  30A0               	movlw	(low (_buffer| 0))& (0+255)
   767  0E8D  120A  118A  20DD  120A  158A  	fcall	_sprintf
   768  0E92                     l2184:	
   769                           
   770                           ;main.c: 33:             UART_printf(buffer);
   771  0E92  30A0               	movlw	(low (_buffer| 0))& (0+255)
   772  0E93  120A  118A  200C  120A  158A  	fcall	_UART_printf
   773  0E98                     l2186:	
   774                           
   775                           ;main.c: 34:             _delay((unsigned long)((100)*(4000000/4000.0)));
   776  0E98  3082               	movlw	130
   777  0E99  1283               	bcf	3,5	;RP0=0, select bank0
   778  0E9A  1303               	bcf	3,6	;RP1=0, select bank0
   779  0E9B  00EC               	movwf	??_main+1
   780  0E9C  30DD               	movlw	221
   781  0E9D  00EB               	movwf	??_main
   782  0E9E                     u3047:	
   783  0E9E  0BEB               	decfsz	??_main,f
   784  0E9F  2E9E               	goto	u3047
   785  0EA0  0BEC               	decfsz	??_main+1,f
   786  0EA1  2E9E               	goto	u3047
   787  0EA2                     l2188:	
   788                           
   789                           ;main.c: 35:         }
   790  0EA2  3001               	movlw	1
   791  0EA3  1283               	bcf	3,5	;RP0=0, select bank0
   792  0EA4  1303               	bcf	3,6	;RP1=0, select bank0
   793  0EA5  07ED               	addwf	main@i,f
   794  0EA6  1803               	skipnc
   795  0EA7  0AEE               	incf	main@i+1,f
   796  0EA8  3000               	movlw	0
   797  0EA9  07EE               	addwf	main@i+1,f
   798  0EAA                     l2190:	
   799  0EAA  086E               	movf	main@i+1,w
   800  0EAB  3A80               	xorlw	128
   801  0EAC  00FF               	movwf	btemp+1
   802  0EAD  3080               	movlw	128
   803  0EAE  027F               	subwf	btemp+1,w
   804  0EAF  1D03               	skipz
   805  0EB0  2EB3               	goto	u3035
   806  0EB1  300A               	movlw	10
   807  0EB2  026D               	subwf	main@i,w
   808  0EB3                     u3035:	
   809  0EB3  1C03               	skipc
   810  0EB4  2EB6               	goto	u3031
   811  0EB5  2EB7               	goto	u3030
   812  0EB6                     u3031:	
   813  0EB6  2E82               	goto	l2182
   814  0EB7                     u3030:	
   815  0EB7  2E7E               	goto	l2176
   816  0EB8  120A  118A  2800   	ljmp	start
   817  0EBB                     __end_of_main:	
   818                           
   819                           	psect	text1
   820  00DD                     __ptext1:	
   821 ;; *************** function _sprintf *****************
   822 ;; Defined at:
   823 ;;		line 505 in file "C:\Program Files (x86)\Microchip\xc8\v2.10\pic\sources\c90\common\doprnt.c"
   824 ;; Parameters:    Size  Location     Type
   825 ;;  sp              1    wreg     PTR unsigned char 
   826 ;;		 -> buffer(50), 
   827 ;;  f               1    0[BANK0 ] PTR const unsigned char 
   828 ;;		 -> STR_1(4), 
   829 ;; Auto vars:     Size  Location     Type
   830 ;;  sp              1   11[BANK0 ] PTR unsigned char 
   831 ;;		 -> buffer(50), 
   832 ;;  tmpval          4    0        struct .
   833 ;;  val             2    9[BANK0 ] unsigned int 
   834 ;;  cp              2    0        PTR const unsigned char 
   835 ;;  len             2    0        unsigned int 
   836 ;;  c               1   12[BANK0 ] unsigned char 
   837 ;;  prec            1    8[BANK0 ] char 
   838 ;;  flag            1    7[BANK0 ] unsigned char 
   839 ;;  ap              1    6[BANK0 ] PTR void [1]
   840 ;;		 -> ?_sprintf(2), 
   841 ;; Return value:  Size  Location     Type
   842 ;;                  2    0[BANK0 ] int 
   843 ;; Registers used:
   844 ;;		wreg, fsr0l, fsr0h, status,2, status,0, btemp+1, pclath, cstack
   845 ;; Tracked objects:
   846 ;;		On entry : 0/0
   847 ;;		On exit  : 0/0
   848 ;;		Unchanged: 0/0
   849 ;; Data sizes:     COMMON   BANK0   BANK1   BANK3   BANK2
   850 ;;      Params:         0       3       0       0       0
   851 ;;      Locals:         0       7       0       0       0
   852 ;;      Temps:          0       3       0       0       0
   853 ;;      Totals:         0      13       0       0       0
   854 ;;Total ram usage:       13 bytes
   855 ;; Hardware stack levels used:    1
   856 ;; Hardware stack levels required when called:    1
   857 ;; This function calls:
   858 ;;		___lwdiv
   859 ;;		___lwmod
   860 ;; This function is called by:
   861 ;;		_main
   862 ;; This function uses a non-reentrant model
   863 ;;
   864                           
   865                           
   866                           ;psect for function _sprintf
   867  00DD                     _sprintf:	
   868                           
   869                           ;incstack = 0
   870                           ; Regs used in _sprintf: [wreg-fsr0h+status,2+status,0+btemp+1+pclath+cstack]
   871                           ;sprintf@sp stored from wreg
   872  00DD  1283               	bcf	3,5	;RP0=0, select bank0
   873  00DE  1303               	bcf	3,6	;RP1=0, select bank0
   874  00DF  00AB               	movwf	sprintf@sp
   875  00E0                     l2066:	
   876                           
   877                           ;C:\Program Files (x86)\Microchip\xc8\v2.10\pic\sources\c90\common\doprnt.c: 505: sprint
      +                          f(char * sp, const char * f, ...);C:\Program Files (x86)\Microchip\xc8\v2.10\pic\sources
      +                          \c90\common\doprnt.c: 506: {;C:\Program Files (x86)\Microchip\xc8\v2.10\pic\sources\c90\
      +                          common\doprnt.c: 507:  va_list ap;;C:\Program Files (x86)\Microchip\xc8\v2.10\pic\source
      +                          s\c90\common\doprnt.c: 512:  char c;;C:\Program Files (x86)\Microchip\xc8\v2.10\pic\sour
      +                          ces\c90\common\doprnt.c: 521:  signed char prec;;C:\Program Files (x86)\Microchip\xc8\v2
      +                          .10\pic\sources\c90\common\doprnt.c: 525:  unsigned char flag;
   878  00E0  3021               	movlw	(low ((?_sprintf| 0+1)))& (0+255)
   879  00E1  00A3               	movwf	??_sprintf
   880  00E2  0823               	movf	??_sprintf,w
   881  00E3  00A6               	movwf	sprintf@ap
   882                           
   883                           ;C:\Program Files (x86)\Microchip\xc8\v2.10\pic\sources\c90\common\doprnt.c: 553:  while
      +                          ((c = *f++)) {
   884  00E4  29AE               	goto	l2118
   885  00E5                     l2068:	
   886                           
   887                           ;C:\Program Files (x86)\Microchip\xc8\v2.10\pic\sources\c90\common\doprnt.c: 555:   if(c
      +                           != '%')
   888  00E5  3025               	movlw	37
   889  00E6  062C               	xorwf	sprintf@c,w
   890  00E7  1903               	btfsc	3,2
   891  00E8  28EA               	goto	u2861
   892  00E9  28EB               	goto	u2860
   893  00EA                     u2861:	
   894  00EA  28F7               	goto	l2074
   895  00EB                     u2860:	
   896  00EB                     l2070:	
   897                           
   898                           ;C:\Program Files (x86)\Microchip\xc8\v2.10\pic\sources\c90\common\doprnt.c: 557:   {;C:
      +                          \Program Files (x86)\Microchip\xc8\v2.10\pic\sources\c90\common\doprnt.c: 558:    ((*sp+
      +                          + = (c)));
   899  00EB  082C               	movf	sprintf@c,w
   900  00EC  00A3               	movwf	??_sprintf
   901  00ED  082B               	movf	sprintf@sp,w
   902  00EE  0084               	movwf	4
   903  00EF  0823               	movf	??_sprintf,w
   904  00F0  1383               	bcf	3,7	;select IRP bank0
   905  00F1  0080               	movwf	0
   906  00F2                     l2072:	
   907  00F2  3001               	movlw	1
   908  00F3  00A3               	movwf	??_sprintf
   909  00F4  0823               	movf	??_sprintf,w
   910  00F5  07AB               	addwf	sprintf@sp,f
   911                           
   912                           ;C:\Program Files (x86)\Microchip\xc8\v2.10\pic\sources\c90\common\doprnt.c: 559:    con
      +                          tinue;
   913  00F6  29AE               	goto	l2118
   914  00F7                     l2074:	
   915                           
   916                           ;C:\Program Files (x86)\Microchip\xc8\v2.10\pic\sources\c90\common\doprnt.c: 565:   flag
      +                           = 0;
   917  00F7  01A7               	clrf	sprintf@flag
   918  00F8                     l2078:	
   919                           ;C:\Program Files (x86)\Microchip\xc8\v2.10\pic\sources\c90\common\doprnt.c: 661:   swit
      +                          ch(c = *f++) {
   920                           
   921  00F8  3001               	movlw	1
   922  00F9  07A0               	addwf	sprintf@f,f
   923  00FA  30FF               	movlw	-1
   924  00FB  0720               	addwf	sprintf@f,w
   925  00FC  0084               	movwf	4
   926  00FD  120A  158A  2000  120A  118A  	fcall	stringdir
   927  0102  00AC               	movwf	sprintf@c
   928  0103  00A3               	movwf	??_sprintf
   929  0104  01A4               	clrf	??_sprintf+1
   930                           
   931                           ; Switch on 2 bytes has been partitioned into a top level switch of size 1, and 1 sub-sw
      +                          itches
   932                           ; Switch size 1, requested type "simple"
   933                           ; Number of cases is 1, Range of values is 0 to 0
   934                           ; switch strategies available:
   935                           ; Name         Instructions Cycles
   936                           ; simple_byte            4     3 (average)
   937                           ; direct_byte           11     8 (fixed)
   938                           ; jumptable            260     6 (fixed)
   939                           ;	Chosen strategy is simple_byte
   940  0105  0824               	movf	??_sprintf+1,w
   941  0106  3A00               	xorlw	0	; case 0
   942  0107  1903               	skipnz
   943  0108  290A               	goto	l2252
   944  0109  29AE               	goto	l2118
   945  010A                     l2252:	
   946                           
   947                           ; Switch size 1, requested type "simple"
   948                           ; Number of cases is 3, Range of values is 0 to 105
   949                           ; switch strategies available:
   950                           ; Name         Instructions Cycles
   951                           ; simple_byte           10     6 (average)
   952                           ; jumptable            260     6 (fixed)
   953                           ;	Chosen strategy is simple_byte
   954  010A  0823               	movf	??_sprintf,w
   955  010B  3A00               	xorlw	0	; case 0
   956  010C  1903               	skipnz
   957  010D  29C0               	goto	l2120
   958  010E  3A64               	xorlw	100	; case 100
   959  010F  1903               	skipnz
   960  0110  2915               	goto	l2080
   961  0111  3A0D               	xorlw	13	; case 105
   962  0112  1903               	skipnz
   963  0113  2915               	goto	l2080
   964  0114  29AE               	goto	l2118
   965  0115                     l2080:	
   966                           
   967                           ;C:\Program Files (x86)\Microchip\xc8\v2.10\pic\sources\c90\common\doprnt.c: 1279:   {;C
      +                          :\Program Files (x86)\Microchip\xc8\v2.10\pic\sources\c90\common\doprnt.c: 1285:     val
      +                           = (unsigned int)(*(int *)__va_arg((*(int **)ap), (int)0));
   968  0115  0826               	movf	sprintf@ap,w
   969  0116  0084               	movwf	4
   970  0117  1383               	bcf	3,7	;select IRP bank0
   971  0118  0800               	movf	0,w
   972  0119  00A9               	movwf	sprintf@val
   973  011A  0A84               	incf	4,f
   974  011B  0800               	movf	0,w
   975  011C  00AA               	movwf	sprintf@val+1
   976  011D                     l2082:	
   977  011D  3002               	movlw	2
   978  011E  00A3               	movwf	??_sprintf
   979  011F  0823               	movf	??_sprintf,w
   980  0120  07A6               	addwf	sprintf@ap,f
   981  0121                     l2084:	
   982                           
   983                           ;C:\Program Files (x86)\Microchip\xc8\v2.10\pic\sources\c90\common\doprnt.c: 1287:    if
      +                          ((int)val < 0) {
   984  0121  1FAA               	btfss	sprintf@val+1,7
   985  0122  2924               	goto	u2871
   986  0123  2925               	goto	u2870
   987  0124                     u2871:	
   988  0124  292E               	goto	l2090
   989  0125                     u2870:	
   990  0125                     l2086:	
   991                           
   992                           ;C:\Program Files (x86)\Microchip\xc8\v2.10\pic\sources\c90\common\doprnt.c: 1288:     f
      +                          lag |= 0x03;
   993  0125  3003               	movlw	3
   994  0126  00A3               	movwf	??_sprintf
   995  0127  0823               	movf	??_sprintf,w
   996  0128  04A7               	iorwf	sprintf@flag,f
   997  0129                     l2088:	
   998                           
   999                           ;C:\Program Files (x86)\Microchip\xc8\v2.10\pic\sources\c90\common\doprnt.c: 1289:     v
      +                          al = -val;
  1000  0129  09A9               	comf	sprintf@val,f
  1001  012A  09AA               	comf	sprintf@val+1,f
  1002  012B  0AA9               	incf	sprintf@val,f
  1003  012C  1903               	skipnz
  1004  012D  0AAA               	incf	sprintf@val+1,f
  1005  012E                     l2090:	
  1006                           
  1007                           ;C:\Program Files (x86)\Microchip\xc8\v2.10\pic\sources\c90\common\doprnt.c: 1292:   };C
      +                          :\Program Files (x86)\Microchip\xc8\v2.10\pic\sources\c90\common\doprnt.c: 1331:    for(
      +                          c = 1 ; c != sizeof dpowers/sizeof dpowers[0] ; c++)
  1008  012E  01AC               	clrf	sprintf@c
  1009  012F  0AAC               	incf	sprintf@c,f
  1010  0130                     l2096:	
  1011                           
  1012                           ;C:\Program Files (x86)\Microchip\xc8\v2.10\pic\sources\c90\common\doprnt.c: 1332:     i
      +                          f(val < dpowers[c])
  1013  0130  082C               	movf	sprintf@c,w
  1014  0131  00A3               	movwf	??_sprintf
  1015  0132  0723               	addwf	??_sprintf,w
  1016  0133  3E01               	addlw	low ((_dpowers-__stringbase)| (0+32768))
  1017  0134  0084               	movwf	4
  1018  0135  120A  158A  2000  120A  118A  	fcall	stringdir
  1019  013A  00A4               	movwf	??_sprintf+1
  1020  013B  120A  158A  2000  120A  118A  	fcall	stringdir
  1021  0140  00A5               	movwf	??_sprintf+2
  1022  0141  0825               	movf	??_sprintf+2,w
  1023  0142  022A               	subwf	sprintf@val+1,w
  1024  0143  1D03               	skipz
  1025  0144  2947               	goto	u2885
  1026  0145  0824               	movf	??_sprintf+1,w
  1027  0146  0229               	subwf	sprintf@val,w
  1028  0147                     u2885:	
  1029  0147  1803               	skipnc
  1030  0148  294A               	goto	u2881
  1031  0149  294B               	goto	u2880
  1032  014A                     u2881:	
  1033  014A  294C               	goto	l2100
  1034  014B                     u2880:	
  1035  014B  2956               	goto	l2102
  1036  014C                     l2100:	
  1037  014C  3001               	movlw	1
  1038  014D  00A3               	movwf	??_sprintf
  1039  014E  0823               	movf	??_sprintf,w
  1040  014F  07AC               	addwf	sprintf@c,f
  1041  0150  3005               	movlw	5
  1042  0151  062C               	xorwf	sprintf@c,w
  1043  0152  1D03               	btfss	3,2
  1044  0153  2955               	goto	u2891
  1045  0154  2956               	goto	u2890
  1046  0155                     u2891:	
  1047  0155  2930               	goto	l2096
  1048  0156                     u2890:	
  1049  0156                     l2102:	
  1050                           
  1051                           ;C:\Program Files (x86)\Microchip\xc8\v2.10\pic\sources\c90\common\doprnt.c: 1448:   {;C
      +                          :\Program Files (x86)\Microchip\xc8\v2.10\pic\sources\c90\common\doprnt.c: 1464:    if(f
      +                          lag & 0x03)
  1052  0156  0827               	movf	sprintf@flag,w
  1053  0157  3903               	andlw	3
  1054  0158  1903               	btfsc	3,2
  1055  0159  295B               	goto	u2901
  1056  015A  295C               	goto	u2900
  1057  015B                     u2901:	
  1058  015B  2967               	goto	l2108
  1059  015C                     u2900:	
  1060  015C                     l2104:	
  1061                           
  1062                           ;C:\Program Files (x86)\Microchip\xc8\v2.10\pic\sources\c90\common\doprnt.c: 1465:     (
      +                          (*sp++ = ('-')));
  1063  015C  302D               	movlw	45
  1064  015D  00A3               	movwf	??_sprintf
  1065  015E  082B               	movf	sprintf@sp,w
  1066  015F  0084               	movwf	4
  1067  0160  0823               	movf	??_sprintf,w
  1068  0161  1383               	bcf	3,7	;select IRP bank0
  1069  0162  0080               	movwf	0
  1070  0163                     l2106:	
  1071  0163  3001               	movlw	1
  1072  0164  00A3               	movwf	??_sprintf
  1073  0165  0823               	movf	??_sprintf,w
  1074  0166  07AB               	addwf	sprintf@sp,f
  1075  0167                     l2108:	
  1076                           
  1077                           ;C:\Program Files (x86)\Microchip\xc8\v2.10\pic\sources\c90\common\doprnt.c: 1495:   };C
      +                          :\Program Files (x86)\Microchip\xc8\v2.10\pic\sources\c90\common\doprnt.c: 1498:   prec 
      +                          = c;
  1078  0167  082C               	movf	sprintf@c,w
  1079  0168  00A3               	movwf	??_sprintf
  1080  0169  0823               	movf	??_sprintf,w
  1081  016A  00A8               	movwf	sprintf@prec
  1082                           
  1083                           ;C:\Program Files (x86)\Microchip\xc8\v2.10\pic\sources\c90\common\doprnt.c: 1500:   whi
      +                          le(prec--) {
  1084  016B  29A5               	goto	l2116
  1085  016C                     l2110:	
  1086                           
  1087                           ;C:\Program Files (x86)\Microchip\xc8\v2.10\pic\sources\c90\common\doprnt.c: 1504:    {;
      +                          C:\Program Files (x86)\Microchip\xc8\v2.10\pic\sources\c90\common\doprnt.c: 1515:     c 
      +                          = (val / dpowers[(unsigned char)prec]) % 10 + '0';
  1088  016C  300A               	movlw	10
  1089  016D  00F8               	movwf	___lwmod@divisor
  1090  016E  3000               	movlw	0
  1091  016F  00F9               	movwf	___lwmod@divisor+1
  1092  0170  0828               	movf	sprintf@prec,w
  1093  0171  00A3               	movwf	??_sprintf
  1094  0172  0723               	addwf	??_sprintf,w
  1095  0173  3E01               	addlw	low ((_dpowers-__stringbase)| (0+32768))
  1096  0174  0084               	movwf	4
  1097  0175  120A  158A  2000  120A  118A  	fcall	stringdir
  1098  017A  00F0               	movwf	___lwdiv@divisor
  1099  017B  120A  158A  2000  120A  118A  	fcall	stringdir
  1100  0180  00F1               	movwf	___lwdiv@divisor+1
  1101  0181  082A               	movf	sprintf@val+1,w
  1102  0182  00F3               	movwf	___lwdiv@dividend+1
  1103  0183  0829               	movf	sprintf@val,w
  1104  0184  00F2               	movwf	___lwdiv@dividend
  1105  0185  120A  158A  24E9  120A  118A  	fcall	___lwdiv
  1106  018A  0871               	movf	?___lwdiv+1,w
  1107  018B  00FB               	movwf	___lwmod@dividend+1
  1108  018C  0870               	movf	?___lwdiv,w
  1109  018D  00FA               	movwf	___lwmod@dividend
  1110  018E  120A  158A  24AF  120A  118A  	fcall	___lwmod
  1111  0193  0878               	movf	?___lwmod,w
  1112  0194  3E30               	addlw	48
  1113  0195  1283               	bcf	3,5	;RP0=0, select bank0
  1114  0196  1303               	bcf	3,6	;RP1=0, select bank0
  1115  0197  00A4               	movwf	??_sprintf+1
  1116  0198  0824               	movf	??_sprintf+1,w
  1117  0199  00AC               	movwf	sprintf@c
  1118  019A                     l2112:	
  1119                           
  1120                           ;C:\Program Files (x86)\Microchip\xc8\v2.10\pic\sources\c90\common\doprnt.c: 1549:    };
      +                          C:\Program Files (x86)\Microchip\xc8\v2.10\pic\sources\c90\common\doprnt.c: 1550:    ((*
      +                          sp++ = (c)));
  1121  019A  082C               	movf	sprintf@c,w
  1122  019B  00A3               	movwf	??_sprintf
  1123  019C  082B               	movf	sprintf@sp,w
  1124  019D  0084               	movwf	4
  1125  019E  0823               	movf	??_sprintf,w
  1126  019F  1383               	bcf	3,7	;select IRP bank0
  1127  01A0  0080               	movwf	0
  1128  01A1                     l2114:	
  1129  01A1  3001               	movlw	1
  1130  01A2  00A3               	movwf	??_sprintf
  1131  01A3  0823               	movf	??_sprintf,w
  1132  01A4  07AB               	addwf	sprintf@sp,f
  1133  01A5                     l2116:	
  1134                           
  1135                           ;C:\Program Files (x86)\Microchip\xc8\v2.10\pic\sources\c90\common\doprnt.c: 1500:   whi
      +                          le(prec--) {
  1136  01A5  30FF               	movlw	255
  1137  01A6  00A3               	movwf	??_sprintf
  1138  01A7  0823               	movf	??_sprintf,w
  1139  01A8  07A8               	addwf	sprintf@prec,f
  1140  01A9  0A28               	incf	sprintf@prec,w
  1141  01AA  1D03               	btfss	3,2
  1142  01AB  29AD               	goto	u2911
  1143  01AC  29AE               	goto	u2910
  1144  01AD                     u2911:	
  1145  01AD  296C               	goto	l2110
  1146  01AE                     u2910:	
  1147  01AE                     l2118:	
  1148                           
  1149                           ;C:\Program Files (x86)\Microchip\xc8\v2.10\pic\sources\c90\common\doprnt.c: 553:  while
      +                          ((c = *f++)) {
  1150  01AE  3001               	movlw	1
  1151  01AF  07A0               	addwf	sprintf@f,f
  1152  01B0  30FF               	movlw	-1
  1153  01B1  0720               	addwf	sprintf@f,w
  1154  01B2  0084               	movwf	4
  1155  01B3  120A  158A  2000  120A  118A  	fcall	stringdir
  1156  01B8  00A3               	movwf	??_sprintf
  1157  01B9  0823               	movf	??_sprintf,w
  1158  01BA  00AC               	movwf	sprintf@c
  1159  01BB  082C               	movf	sprintf@c,w
  1160  01BC  1D03               	btfss	3,2
  1161  01BD  29BF               	goto	u2921
  1162  01BE  29C0               	goto	u2920
  1163  01BF                     u2921:	
  1164  01BF  28E5               	goto	l2068
  1165  01C0                     u2920:	
  1166  01C0                     l2120:	
  1167                           
  1168                           ;C:\Program Files (x86)\Microchip\xc8\v2.10\pic\sources\c90\common\doprnt.c: 1564:  *sp 
      +                          = 0;
  1169  01C0  082B               	movf	sprintf@sp,w
  1170  01C1  0084               	movwf	4
  1171  01C2  1383               	bcf	3,7	;select IRP bank0
  1172  01C3  0180               	clrf	0
  1173  01C4                     l264:	
  1174  01C4  0008               	return
  1175  01C5                     __end_of_sprintf:	
  1176                           
  1177                           	psect	text2
  1178  0CAF                     __ptext2:	
  1179 ;; *************** function ___lwmod *****************
  1180 ;; Defined at:
  1181 ;;		line 5 in file "C:\Program Files (x86)\Microchip\xc8\v2.10\pic\sources\c90\common\lwmod.c"
  1182 ;; Parameters:    Size  Location     Type
  1183 ;;  divisor         2    8[COMMON] unsigned int 
  1184 ;;  dividend        2   10[COMMON] unsigned int 
  1185 ;; Auto vars:     Size  Location     Type
  1186 ;;  counter         1   13[COMMON] unsigned char 
  1187 ;; Return value:  Size  Location     Type
  1188 ;;                  2    8[COMMON] unsigned int 
  1189 ;; Registers used:
  1190 ;;		wreg, status,2, status,0
  1191 ;; Tracked objects:
  1192 ;;		On entry : 0/0
  1193 ;;		On exit  : 0/0
  1194 ;;		Unchanged: 0/0
  1195 ;; Data sizes:     COMMON   BANK0   BANK1   BANK3   BANK2
  1196 ;;      Params:         4       0       0       0       0
  1197 ;;      Locals:         1       0       0       0       0
  1198 ;;      Temps:          1       0       0       0       0
  1199 ;;      Totals:         6       0       0       0       0
  1200 ;;Total ram usage:        6 bytes
  1201 ;; Hardware stack levels used:    1
  1202 ;; This function calls:
  1203 ;;		Nothing
  1204 ;; This function is called by:
  1205 ;;		_sprintf
  1206 ;; This function uses a non-reentrant model
  1207 ;;
  1208                           
  1209                           
  1210                           ;psect for function ___lwmod
  1211  0CAF                     ___lwmod:	
  1212  0CAF                     l1652:	
  1213                           ;incstack = 0
  1214                           ; Regs used in ___lwmod: [wreg+status,2+status,0]
  1215                           
  1216  0CAF  0878               	movf	___lwmod@divisor,w
  1217  0CB0  0479               	iorwf	___lwmod@divisor+1,w
  1218  0CB1  1903               	btfsc	3,2
  1219  0CB2  2CB4               	goto	u1921
  1220  0CB3  2CB5               	goto	u1920
  1221  0CB4                     u1921:	
  1222  0CB4  2CE4               	goto	l1670
  1223  0CB5                     u1920:	
  1224  0CB5                     l1654:	
  1225  0CB5  01FD               	clrf	___lwmod@counter
  1226  0CB6  0AFD               	incf	___lwmod@counter,f
  1227  0CB7  2CC3               	goto	l1660
  1228  0CB8                     l1656:	
  1229  0CB8  3001               	movlw	1
  1230  0CB9                     u1935:	
  1231  0CB9  1003               	clrc
  1232  0CBA  0DF8               	rlf	___lwmod@divisor,f
  1233  0CBB  0DF9               	rlf	___lwmod@divisor+1,f
  1234  0CBC  3EFF               	addlw	-1
  1235  0CBD  1D03               	skipz
  1236  0CBE  2CB9               	goto	u1935
  1237  0CBF                     l1658:	
  1238  0CBF  3001               	movlw	1
  1239  0CC0  00FC               	movwf	??___lwmod
  1240  0CC1  087C               	movf	??___lwmod,w
  1241  0CC2  07FD               	addwf	___lwmod@counter,f
  1242  0CC3                     l1660:	
  1243  0CC3  1FF9               	btfss	___lwmod@divisor+1,7
  1244  0CC4  2CC6               	goto	u1941
  1245  0CC5  2CC7               	goto	u1940
  1246  0CC6                     u1941:	
  1247  0CC6  2CB8               	goto	l1656
  1248  0CC7                     u1940:	
  1249  0CC7                     l1662:	
  1250  0CC7  0879               	movf	___lwmod@divisor+1,w
  1251  0CC8  027B               	subwf	___lwmod@dividend+1,w
  1252  0CC9  1D03               	skipz
  1253  0CCA  2CCD               	goto	u1955
  1254  0CCB  0878               	movf	___lwmod@divisor,w
  1255  0CCC  027A               	subwf	___lwmod@dividend,w
  1256  0CCD                     u1955:	
  1257  0CCD  1C03               	skipc
  1258  0CCE  2CD0               	goto	u1951
  1259  0CCF  2CD1               	goto	u1950
  1260  0CD0                     u1951:	
  1261  0CD0  2CD7               	goto	l1666
  1262  0CD1                     u1950:	
  1263  0CD1                     l1664:	
  1264  0CD1  0878               	movf	___lwmod@divisor,w
  1265  0CD2  02FA               	subwf	___lwmod@dividend,f
  1266  0CD3  0879               	movf	___lwmod@divisor+1,w
  1267  0CD4  1C03               	skipc
  1268  0CD5  03FB               	decf	___lwmod@dividend+1,f
  1269  0CD6  02FB               	subwf	___lwmod@dividend+1,f
  1270  0CD7                     l1666:	
  1271  0CD7  3001               	movlw	1
  1272  0CD8                     u1965:	
  1273  0CD8  1003               	clrc
  1274  0CD9  0CF9               	rrf	___lwmod@divisor+1,f
  1275  0CDA  0CF8               	rrf	___lwmod@divisor,f
  1276  0CDB  3EFF               	addlw	-1
  1277  0CDC  1D03               	skipz
  1278  0CDD  2CD8               	goto	u1965
  1279  0CDE                     l1668:	
  1280  0CDE  3001               	movlw	1
  1281  0CDF  02FD               	subwf	___lwmod@counter,f
  1282  0CE0  1D03               	btfss	3,2
  1283  0CE1  2CE3               	goto	u1971
  1284  0CE2  2CE4               	goto	u1970
  1285  0CE3                     u1971:	
  1286  0CE3  2CC7               	goto	l1662
  1287  0CE4                     u1970:	
  1288  0CE4                     l1670:	
  1289  0CE4  087B               	movf	___lwmod@dividend+1,w
  1290  0CE5  00F9               	movwf	?___lwmod+1
  1291  0CE6  087A               	movf	___lwmod@dividend,w
  1292  0CE7  00F8               	movwf	?___lwmod
  1293  0CE8                     l550:	
  1294  0CE8  0008               	return
  1295  0CE9                     __end_of___lwmod:	
  1296                           
  1297                           	psect	text3
  1298  0CE9                     __ptext3:	
  1299 ;; *************** function ___lwdiv *****************
  1300 ;; Defined at:
  1301 ;;		line 5 in file "C:\Program Files (x86)\Microchip\xc8\v2.10\pic\sources\c90\common\lwdiv.c"
  1302 ;; Parameters:    Size  Location     Type
  1303 ;;  divisor         2    0[COMMON] unsigned int 
  1304 ;;  dividend        2    2[COMMON] unsigned int 
  1305 ;; Auto vars:     Size  Location     Type
  1306 ;;  quotient        2    5[COMMON] unsigned int 
  1307 ;;  counter         1    7[COMMON] unsigned char 
  1308 ;; Return value:  Size  Location     Type
  1309 ;;                  2    0[COMMON] unsigned int 
  1310 ;; Registers used:
  1311 ;;		wreg, status,2, status,0
  1312 ;; Tracked objects:
  1313 ;;		On entry : 0/0
  1314 ;;		On exit  : 0/0
  1315 ;;		Unchanged: 0/0
  1316 ;; Data sizes:     COMMON   BANK0   BANK1   BANK3   BANK2
  1317 ;;      Params:         4       0       0       0       0
  1318 ;;      Locals:         3       0       0       0       0
  1319 ;;      Temps:          1       0       0       0       0
  1320 ;;      Totals:         8       0       0       0       0
  1321 ;;Total ram usage:        8 bytes
  1322 ;; Hardware stack levels used:    1
  1323 ;; This function calls:
  1324 ;;		Nothing
  1325 ;; This function is called by:
  1326 ;;		_sprintf
  1327 ;;		_dameDistancia
  1328 ;; This function uses a non-reentrant model
  1329 ;;
  1330                           
  1331                           
  1332                           ;psect for function ___lwdiv
  1333  0CE9                     ___lwdiv:	
  1334  0CE9                     l1626:	
  1335                           ;incstack = 0
  1336                           ; Regs used in ___lwdiv: [wreg+status,2+status,0]
  1337                           
  1338  0CE9  01F5               	clrf	___lwdiv@quotient
  1339  0CEA  01F6               	clrf	___lwdiv@quotient+1
  1340  0CEB                     l1628:	
  1341  0CEB  0870               	movf	___lwdiv@divisor,w
  1342  0CEC  0471               	iorwf	___lwdiv@divisor+1,w
  1343  0CED  1903               	btfsc	3,2
  1344  0CEE  2CF0               	goto	u1851
  1345  0CEF  2CF1               	goto	u1850
  1346  0CF0                     u1851:	
  1347  0CF0  2D28               	goto	l1648
  1348  0CF1                     u1850:	
  1349  0CF1                     l1630:	
  1350  0CF1  01F7               	clrf	___lwdiv@counter
  1351  0CF2  0AF7               	incf	___lwdiv@counter,f
  1352  0CF3  2CFF               	goto	l1636
  1353  0CF4                     l1632:	
  1354  0CF4  3001               	movlw	1
  1355  0CF5                     u1865:	
  1356  0CF5  1003               	clrc
  1357  0CF6  0DF0               	rlf	___lwdiv@divisor,f
  1358  0CF7  0DF1               	rlf	___lwdiv@divisor+1,f
  1359  0CF8  3EFF               	addlw	-1
  1360  0CF9  1D03               	skipz
  1361  0CFA  2CF5               	goto	u1865
  1362  0CFB                     l1634:	
  1363  0CFB  3001               	movlw	1
  1364  0CFC  00F4               	movwf	??___lwdiv
  1365  0CFD  0874               	movf	??___lwdiv,w
  1366  0CFE  07F7               	addwf	___lwdiv@counter,f
  1367  0CFF                     l1636:	
  1368  0CFF  1FF1               	btfss	___lwdiv@divisor+1,7
  1369  0D00  2D02               	goto	u1871
  1370  0D01  2D03               	goto	u1870
  1371  0D02                     u1871:	
  1372  0D02  2CF4               	goto	l1632
  1373  0D03                     u1870:	
  1374  0D03                     l1638:	
  1375  0D03  3001               	movlw	1
  1376  0D04                     u1885:	
  1377  0D04  1003               	clrc
  1378  0D05  0DF5               	rlf	___lwdiv@quotient,f
  1379  0D06  0DF6               	rlf	___lwdiv@quotient+1,f
  1380  0D07  3EFF               	addlw	-1
  1381  0D08  1D03               	skipz
  1382  0D09  2D04               	goto	u1885
  1383  0D0A  0871               	movf	___lwdiv@divisor+1,w
  1384  0D0B  0273               	subwf	___lwdiv@dividend+1,w
  1385  0D0C  1D03               	skipz
  1386  0D0D  2D10               	goto	u1895
  1387  0D0E  0870               	movf	___lwdiv@divisor,w
  1388  0D0F  0272               	subwf	___lwdiv@dividend,w
  1389  0D10                     u1895:	
  1390  0D10  1C03               	skipc
  1391  0D11  2D13               	goto	u1891
  1392  0D12  2D14               	goto	u1890
  1393  0D13                     u1891:	
  1394  0D13  2D1B               	goto	l1644
  1395  0D14                     u1890:	
  1396  0D14                     l1640:	
  1397  0D14  0870               	movf	___lwdiv@divisor,w
  1398  0D15  02F2               	subwf	___lwdiv@dividend,f
  1399  0D16  0871               	movf	___lwdiv@divisor+1,w
  1400  0D17  1C03               	skipc
  1401  0D18  03F3               	decf	___lwdiv@dividend+1,f
  1402  0D19  02F3               	subwf	___lwdiv@dividend+1,f
  1403  0D1A                     l1642:	
  1404  0D1A  1475               	bsf	___lwdiv@quotient,0
  1405  0D1B                     l1644:	
  1406  0D1B  3001               	movlw	1
  1407  0D1C                     u1905:	
  1408  0D1C  1003               	clrc
  1409  0D1D  0CF1               	rrf	___lwdiv@divisor+1,f
  1410  0D1E  0CF0               	rrf	___lwdiv@divisor,f
  1411  0D1F  3EFF               	addlw	-1
  1412  0D20  1D03               	skipz
  1413  0D21  2D1C               	goto	u1905
  1414  0D22                     l1646:	
  1415  0D22  3001               	movlw	1
  1416  0D23  02F7               	subwf	___lwdiv@counter,f
  1417  0D24  1D03               	btfss	3,2
  1418  0D25  2D27               	goto	u1911
  1419  0D26  2D28               	goto	u1910
  1420  0D27                     u1911:	
  1421  0D27  2D03               	goto	l1638
  1422  0D28                     u1910:	
  1423  0D28                     l1648:	
  1424  0D28  0876               	movf	___lwdiv@quotient+1,w
  1425  0D29  00F1               	movwf	?___lwdiv+1
  1426  0D2A  0875               	movf	___lwdiv@quotient,w
  1427  0D2B  00F0               	movwf	?___lwdiv
  1428  0D2C                     l540:	
  1429  0D2C  0008               	return
  1430  0D2D                     __end_of___lwdiv:	
  1431                           
  1432                           	psect	text4
  1433  01C5                     __ptext4:	
  1434 ;; *************** function _pwmDuty *****************
  1435 ;; Defined at:
  1436 ;;		line 17 in file "./pwm.h"
  1437 ;; Parameters:    Size  Location     Type
  1438 ;;  cicloTrabajo    2   63[BANK0 ] unsigned int 
  1439 ;;  channel         1   65[BANK0 ] unsigned char 
  1440 ;; Auto vars:     Size  Location     Type
  1441 ;;  duty            4   71[BANK0 ] long 
  1442 ;; Return value:  Size  Location     Type
  1443 ;;                  1    wreg      void 
  1444 ;; Registers used:
  1445 ;;		wreg, fsr0l, fsr0h, status,2, status,0, btemp+1, pclath, cstack
  1446 ;; Tracked objects:
  1447 ;;		On entry : 0/0
  1448 ;;		On exit  : 0/0
  1449 ;;		Unchanged: 0/0
  1450 ;; Data sizes:     COMMON   BANK0   BANK1   BANK3   BANK2
  1451 ;;      Params:         0       3       0       0       0
  1452 ;;      Locals:         0       4       0       0       0
  1453 ;;      Temps:          0       5       0       0       0
  1454 ;;      Totals:         0      12       0       0       0
  1455 ;;Total ram usage:       12 bytes
  1456 ;; Hardware stack levels used:    1
  1457 ;; Hardware stack levels required when called:    2
  1458 ;; This function calls:
  1459 ;;		___fldiv
  1460 ;;		___flmul
  1461 ;;		___fltol
  1462 ;;		___xxtofl
  1463 ;;		_map
  1464 ;; This function is called by:
  1465 ;;		_main
  1466 ;; This function uses a non-reentrant model
  1467 ;;
  1468                           
  1469                           
  1470                           ;psect for function _pwmDuty
  1471  01C5                     _pwmDuty:	
  1472  01C5                     l2000:	
  1473                           ;incstack = 0
  1474                           ; Regs used in _pwmDuty: [wreg-fsr0h+status,2+status,0+btemp+1+pclath+cstack]
  1475                           
  1476                           
  1477                           ;./pwm.h: 19:     long duty = map(cicloTrabajo, 0, 100, 0, 1023);
  1478  01C5  1283               	bcf	3,5	;RP0=0, select bank0
  1479  01C6  1303               	bcf	3,6	;RP1=0, select bank0
  1480  01C7  085F               	movf	pwmDuty@cicloTrabajo,w
  1481  01C8  00AE               	movwf	map@x
  1482  01C9  0860               	movf	pwmDuty@cicloTrabajo+1,w
  1483  01CA  00AF               	movwf	map@x+1
  1484  01CB  01B0               	clrf	map@x+2
  1485  01CC  01B1               	clrf	map@x+3
  1486  01CD  3000               	movlw	0
  1487  01CE  00B5               	movwf	map@in_min+3
  1488  01CF  3000               	movlw	0
  1489  01D0  00B4               	movwf	map@in_min+2
  1490  01D1  3000               	movlw	0
  1491  01D2  00B3               	movwf	map@in_min+1
  1492  01D3  3000               	movlw	0
  1493  01D4  00B2               	movwf	map@in_min
  1494  01D5  3000               	movlw	0
  1495  01D6  00B9               	movwf	map@in_max+3
  1496  01D7  3000               	movlw	0
  1497  01D8  00B8               	movwf	map@in_max+2
  1498  01D9  3000               	movlw	0
  1499  01DA  00B7               	movwf	map@in_max+1
  1500  01DB  3064               	movlw	100
  1501  01DC  00B6               	movwf	map@in_max
  1502  01DD  3000               	movlw	0
  1503  01DE  00BD               	movwf	map@out_min+3
  1504  01DF  3000               	movlw	0
  1505  01E0  00BC               	movwf	map@out_min+2
  1506  01E1  3000               	movlw	0
  1507  01E2  00BB               	movwf	map@out_min+1
  1508  01E3  3000               	movlw	0
  1509  01E4  00BA               	movwf	map@out_min
  1510  01E5  3000               	movlw	0
  1511  01E6  00C1               	movwf	map@out_max+3
  1512  01E7  3000               	movlw	0
  1513  01E8  00C0               	movwf	map@out_max+2
  1514  01E9  3003               	movlw	3
  1515  01EA  00BF               	movwf	map@out_max+1
  1516  01EB  30FF               	movlw	255
  1517  01EC  00BE               	movwf	map@out_max
  1518  01ED  120A  158A  2758  120A  118A  	fcall	_map
  1519  01F2  1283               	bcf	3,5	;RP0=0, select bank0
  1520  01F3  1303               	bcf	3,6	;RP1=0, select bank0
  1521  01F4  0831               	movf	?_map+3,w
  1522  01F5  00EA               	movwf	pwmDuty@duty+3
  1523  01F6  0830               	movf	?_map+2,w
  1524  01F7  00E9               	movwf	pwmDuty@duty+2
  1525  01F8  082F               	movf	?_map+1,w
  1526  01F9  00E8               	movwf	pwmDuty@duty+1
  1527  01FA  082E               	movf	?_map,w
  1528  01FB  00E7               	movwf	pwmDuty@duty
  1529  01FC                     l2002:	
  1530                           
  1531                           ;./pwm.h: 21:     if (duty < 1024) {
  1532  01FC  1BEA               	btfsc	pwmDuty@duty+3,7
  1533  01FD  2A10               	goto	u2780
  1534  01FE  086A               	movf	pwmDuty@duty+3,w
  1535  01FF  1D03               	btfss	3,2
  1536  0200  2A0F               	goto	u2781
  1537  0201  0869               	movf	pwmDuty@duty+2,w
  1538  0202  1D03               	btfss	3,2
  1539  0203  2A0F               	goto	u2781
  1540  0204  3004               	movlw	4
  1541  0205  0268               	subwf	pwmDuty@duty+1,w
  1542  0206  1D03               	skipz
  1543  0207  2A0C               	goto	u2783
  1544  0208  3000               	movlw	0
  1545  0209  0267               	subwf	pwmDuty@duty,w
  1546  020A  1D03               	skipz
  1547  020B  2A0C               	goto	u2783
  1548  020C                     u2783:	
  1549  020C  1803               	btfsc	3,0
  1550  020D  2A0F               	goto	u2781
  1551  020E  2A10               	goto	u2780
  1552  020F                     u2781:	
  1553  020F  2AB4               	goto	l75
  1554  0210                     u2780:	
  1555  0210                     l2004:	
  1556                           
  1557                           ;./pwm.h: 23:         duty = ((float) duty / 1023)*(4000000 / (500 * 16));
  1558  0210  086A               	movf	pwmDuty@duty+3,w
  1559  0211  00F3               	movwf	___xxtofl@val+3
  1560  0212  0869               	movf	pwmDuty@duty+2,w
  1561  0213  00F2               	movwf	___xxtofl@val+2
  1562  0214  0868               	movf	pwmDuty@duty+1,w
  1563  0215  00F1               	movwf	___xxtofl@val+1
  1564  0216  0867               	movf	pwmDuty@duty,w
  1565  0217  00F0               	movwf	___xxtofl@val
  1566  0218  3001               	movlw	1
  1567  0219  120A  118A  2023  120A  118A  	fcall	___xxtofl
  1568  021E  0873               	movf	?___xxtofl+3,w
  1569  021F  1283               	bcf	3,5	;RP0=0, select bank0
  1570  0220  1303               	bcf	3,6	;RP1=0, select bank0
  1571  0221  00A7               	movwf	___fldiv@b+3
  1572  0222  0872               	movf	?___xxtofl+2,w
  1573  0223  00A6               	movwf	___fldiv@b+2
  1574  0224  0871               	movf	?___xxtofl+1,w
  1575  0225  00A5               	movwf	___fldiv@b+1
  1576  0226  0870               	movf	?___xxtofl,w
  1577  0227  00A4               	movwf	___fldiv@b
  1578  0228  3044               	movlw	68
  1579  0229  00A3               	movwf	___fldiv@a+3
  1580  022A  307F               	movlw	127
  1581  022B  00A2               	movwf	___fldiv@a+2
  1582  022C  30C0               	movlw	192
  1583  022D  00A1               	movwf	___fldiv@a+1
  1584  022E  3000               	movlw	0
  1585  022F  00A0               	movwf	___fldiv@a
  1586  0230  120A  118A  22B5  120A  118A  	fcall	___fldiv
  1587  0235  1283               	bcf	3,5	;RP0=0, select bank0
  1588  0236  1303               	bcf	3,6	;RP1=0, select bank0
  1589  0237  0823               	movf	?___fldiv+3,w
  1590  0238  00C1               	movwf	___flmul@a+3
  1591  0239  0822               	movf	?___fldiv+2,w
  1592  023A  00C0               	movwf	___flmul@a+2
  1593  023B  0821               	movf	?___fldiv+1,w
  1594  023C  00BF               	movwf	___flmul@a+1
  1595  023D  0820               	movf	?___fldiv,w
  1596  023E  00BE               	movwf	___flmul@a
  1597  023F  3043               	movlw	67
  1598  0240  00BD               	movwf	___flmul@b+3
  1599  0241  30FA               	movlw	250
  1600  0242  00BC               	movwf	___flmul@b+2
  1601  0243  3000               	movlw	0
  1602  0244  00BB               	movwf	___flmul@b+1
  1603  0245  3000               	movlw	0
  1604  0246  00BA               	movwf	___flmul@b
  1605  0247  120A  118A  2492  120A  118A  	fcall	___flmul
  1606  024C  1283               	bcf	3,5	;RP0=0, select bank0
  1607  024D  1303               	bcf	3,6	;RP1=0, select bank0
  1608  024E  083D               	movf	?___flmul+3,w
  1609  024F  00D7               	movwf	___fltol@f1+3
  1610  0250  083C               	movf	?___flmul+2,w
  1611  0251  00D6               	movwf	___fltol@f1+2
  1612  0252  083B               	movf	?___flmul+1,w
  1613  0253  00D5               	movwf	___fltol@f1+1
  1614  0254  083A               	movf	?___flmul,w
  1615  0255  00D4               	movwf	___fltol@f1
  1616  0256  120A  158A  25C2  120A  118A  	fcall	___fltol
  1617  025B  1283               	bcf	3,5	;RP0=0, select bank0
  1618  025C  1303               	bcf	3,6	;RP1=0, select bank0
  1619  025D  0857               	movf	?___fltol+3,w
  1620  025E  00EA               	movwf	pwmDuty@duty+3
  1621  025F  0856               	movf	?___fltol+2,w
  1622  0260  00E9               	movwf	pwmDuty@duty+2
  1623  0261  0855               	movf	?___fltol+1,w
  1624  0262  00E8               	movwf	pwmDuty@duty+1
  1625  0263  0854               	movf	?___fltol,w
  1626  0264  00E7               	movwf	pwmDuty@duty
  1627                           
  1628                           ;./pwm.h: 25:         switch (channel) {
  1629  0265  2AA4               	goto	l2012
  1630  0266                     l72:	
  1631                           ;./pwm.h: 27:             case 1:
  1632                           
  1633                           
  1634                           ;./pwm.h: 28:                 CCP1X = duty & 1;
  1635  0266  1867               	btfsc	pwmDuty@duty,0
  1636  0267  2A69               	goto	u2791
  1637  0268  2A6D               	goto	u2790
  1638  0269                     u2791:	
  1639  0269  1283               	bcf	3,5	;RP0=0, select bank0
  1640  026A  1303               	bcf	3,6	;RP1=0, select bank0
  1641  026B  1697               	bsf	23,5	;volatile
  1642  026C  2A70               	goto	u2804
  1643  026D                     u2790:	
  1644  026D  1283               	bcf	3,5	;RP0=0, select bank0
  1645  026E  1303               	bcf	3,6	;RP1=0, select bank0
  1646  026F  1297               	bcf	23,5	;volatile
  1647  0270                     u2804:	
  1648                           
  1649                           ;./pwm.h: 29:                 CCP1Y = duty & 2;
  1650  0270  1217               	bcf	23,4	;volatile
  1651  0271                     l2006:	
  1652                           
  1653                           ;./pwm.h: 30:                 CCPR1L = duty >> 2;
  1654  0271  0867               	movf	pwmDuty@duty,w
  1655  0272  00E2               	movwf	??_pwmDuty
  1656  0273  0868               	movf	pwmDuty@duty+1,w
  1657  0274  00E3               	movwf	??_pwmDuty+1
  1658  0275  0869               	movf	pwmDuty@duty+2,w
  1659  0276  00E4               	movwf	??_pwmDuty+2
  1660  0277  086A               	movf	pwmDuty@duty+3,w
  1661  0278  00E5               	movwf	??_pwmDuty+3
  1662  0279  3002               	movlw	2
  1663  027A  00E6               	movwf	??_pwmDuty+4
  1664  027B                     u2815:	
  1665  027B  0D65               	rlf	??_pwmDuty+3,w
  1666  027C  0CE5               	rrf	??_pwmDuty+3,f
  1667  027D  0CE4               	rrf	??_pwmDuty+2,f
  1668  027E  0CE3               	rrf	??_pwmDuty+1,f
  1669  027F  0CE2               	rrf	??_pwmDuty,f
  1670  0280                     u2810:	
  1671  0280  0BE6               	decfsz	??_pwmDuty+4,f
  1672  0281  2A7B               	goto	u2815
  1673  0282  0862               	movf	??_pwmDuty,w
  1674  0283  0095               	movwf	21	;volatile
  1675                           
  1676                           ;./pwm.h: 31:                 break;
  1677  0284  2AB4               	goto	l75
  1678  0285                     l74:	
  1679                           ;./pwm.h: 33:             case 2:
  1680                           
  1681                           
  1682                           ;./pwm.h: 34:                 CCP2X = duty & 1;
  1683  0285  1867               	btfsc	pwmDuty@duty,0
  1684  0286  2A88               	goto	u2821
  1685  0287  2A8C               	goto	u2820
  1686  0288                     u2821:	
  1687  0288  1283               	bcf	3,5	;RP0=0, select bank0
  1688  0289  1303               	bcf	3,6	;RP1=0, select bank0
  1689  028A  169D               	bsf	29,5	;volatile
  1690  028B  2A8F               	goto	u2834
  1691  028C                     u2820:	
  1692  028C  1283               	bcf	3,5	;RP0=0, select bank0
  1693  028D  1303               	bcf	3,6	;RP1=0, select bank0
  1694  028E  129D               	bcf	29,5	;volatile
  1695  028F                     u2834:	
  1696                           
  1697                           ;./pwm.h: 35:                 CCP2Y = duty & 2;
  1698  028F  121D               	bcf	29,4	;volatile
  1699  0290                     l2008:	
  1700                           
  1701                           ;./pwm.h: 36:                 CCPR2L = duty >> 2;
  1702  0290  0867               	movf	pwmDuty@duty,w
  1703  0291  00E2               	movwf	??_pwmDuty
  1704  0292  0868               	movf	pwmDuty@duty+1,w
  1705  0293  00E3               	movwf	??_pwmDuty+1
  1706  0294  0869               	movf	pwmDuty@duty+2,w
  1707  0295  00E4               	movwf	??_pwmDuty+2
  1708  0296  086A               	movf	pwmDuty@duty+3,w
  1709  0297  00E5               	movwf	??_pwmDuty+3
  1710  0298  3002               	movlw	2
  1711  0299  00E6               	movwf	??_pwmDuty+4
  1712  029A                     u2845:	
  1713  029A  0D65               	rlf	??_pwmDuty+3,w
  1714  029B  0CE5               	rrf	??_pwmDuty+3,f
  1715  029C  0CE4               	rrf	??_pwmDuty+2,f
  1716  029D  0CE3               	rrf	??_pwmDuty+1,f
  1717  029E  0CE2               	rrf	??_pwmDuty,f
  1718  029F                     u2840:	
  1719  029F  0BE6               	decfsz	??_pwmDuty+4,f
  1720  02A0  2A9A               	goto	u2845
  1721  02A1  0862               	movf	??_pwmDuty,w
  1722  02A2  009B               	movwf	27	;volatile
  1723                           
  1724                           ;./pwm.h: 37:                 break;
  1725  02A3  2AB4               	goto	l75
  1726  02A4                     l2012:	
  1727  02A4  0861               	movf	pwmDuty@channel,w
  1728  02A5  00E2               	movwf	??_pwmDuty
  1729  02A6  01E3               	clrf	??_pwmDuty+1
  1730                           
  1731                           ; Switch on 2 bytes has been partitioned into a top level switch of size 1, and 1 sub-sw
      +                          itches
  1732                           ; Switch size 1, requested type "simple"
  1733                           ; Number of cases is 1, Range of values is 0 to 0
  1734                           ; switch strategies available:
  1735                           ; Name         Instructions Cycles
  1736                           ; simple_byte            4     3 (average)
  1737                           ; direct_byte           11     8 (fixed)
  1738                           ; jumptable            260     6 (fixed)
  1739                           ;	Chosen strategy is simple_byte
  1740  02A7  0863               	movf	??_pwmDuty+1,w
  1741  02A8  3A00               	xorlw	0	; case 0
  1742  02A9  1903               	skipnz
  1743  02AA  2AAC               	goto	l2254
  1744  02AB  2AB4               	goto	l75
  1745  02AC                     l2254:	
  1746                           
  1747                           ; Switch size 1, requested type "simple"
  1748                           ; Number of cases is 2, Range of values is 1 to 2
  1749                           ; switch strategies available:
  1750                           ; Name         Instructions Cycles
  1751                           ; simple_byte            7     4 (average)
  1752                           ; direct_byte           17    11 (fixed)
  1753                           ; jumptable            263     9 (fixed)
  1754                           ;	Chosen strategy is simple_byte
  1755  02AC  0862               	movf	??_pwmDuty,w
  1756  02AD  3A01               	xorlw	1	; case 1
  1757  02AE  1903               	skipnz
  1758  02AF  2A66               	goto	l72
  1759  02B0  3A03               	xorlw	3	; case 2
  1760  02B1  1903               	skipnz
  1761  02B2  2A85               	goto	l74
  1762  02B3  2AB4               	goto	l75
  1763  02B4                     l75:	
  1764  02B4  0008               	return
  1765  02B5                     __end_of_pwmDuty:	
  1766                           
  1767                           	psect	text5
  1768  0F58                     __ptext5:	
  1769 ;; *************** function _map *****************
  1770 ;; Defined at:
  1771 ;;		line 13 in file "./pwm.h"
  1772 ;; Parameters:    Size  Location     Type
  1773 ;;  x               4   14[BANK0 ] long 
  1774 ;;  in_min          4   18[BANK0 ] long 
  1775 ;;  in_max          4   22[BANK0 ] long 
  1776 ;;  out_min         4   26[BANK0 ] long 
  1777 ;;  out_max         4   30[BANK0 ] long 
  1778 ;; Auto vars:     Size  Location     Type
  1779 ;;		None
  1780 ;; Return value:  Size  Location     Type
  1781 ;;                  4   14[BANK0 ] long 
  1782 ;; Registers used:
  1783 ;;		wreg, status,2, status,0, pclath, cstack
  1784 ;; Tracked objects:
  1785 ;;		On entry : 0/0
  1786 ;;		On exit  : 0/0
  1787 ;;		Unchanged: 0/0
  1788 ;; Data sizes:     COMMON   BANK0   BANK1   BANK3   BANK2
  1789 ;;      Params:         0      20       0       0       0
  1790 ;;      Locals:         0       0       0       0       0
  1791 ;;      Temps:          0      16       0       0       0
  1792 ;;      Totals:         0      36       0       0       0
  1793 ;;Total ram usage:       36 bytes
  1794 ;; Hardware stack levels used:    1
  1795 ;; Hardware stack levels required when called:    1
  1796 ;; This function calls:
  1797 ;;		___aldiv
  1798 ;;		___lmul
  1799 ;; This function is called by:
  1800 ;;		_pwmDuty
  1801 ;; This function uses a non-reentrant model
  1802 ;;
  1803                           
  1804                           
  1805                           ;psect for function _map
  1806  0F58                     _map:	
  1807  0F58                     l1584:	
  1808                           ;incstack = 0
  1809                           ; Regs used in _map: [wreg+status,2+status,0+pclath+cstack]
  1810                           
  1811                           
  1812                           ;./pwm.h: 14:     return (x - in_min) * (out_max - out_min) / (in_max - in_min) + out_mi
      +                          n;
  1813  0F58  1283               	bcf	3,5	;RP0=0, select bank0
  1814  0F59  1303               	bcf	3,6	;RP1=0, select bank0
  1815  0F5A  0836               	movf	map@in_max,w
  1816  0F5B  00C2               	movwf	??_map
  1817  0F5C  0837               	movf	map@in_max+1,w
  1818  0F5D  00C3               	movwf	??_map+1
  1819  0F5E  0838               	movf	map@in_max+2,w
  1820  0F5F  00C4               	movwf	??_map+2
  1821  0F60  0839               	movf	map@in_max+3,w
  1822  0F61  00C5               	movwf	??_map+3
  1823  0F62  0832               	movf	map@in_min,w
  1824  0F63  02C2               	subwf	??_map,f
  1825  0F64  0833               	movf	map@in_min+1,w
  1826  0F65  1C03               	skipc
  1827  0F66  0F33               	incfsz	map@in_min+1,w
  1828  0F67  2F69               	goto	u1711
  1829  0F68  2F6A               	goto	u1712
  1830  0F69                     u1711:	
  1831  0F69  02C3               	subwf	??_map+1,f
  1832  0F6A                     u1712:	
  1833  0F6A  0834               	movf	map@in_min+2,w
  1834  0F6B  1C03               	skipc
  1835  0F6C  0F34               	incfsz	map@in_min+2,w
  1836  0F6D  2F6F               	goto	u1713
  1837  0F6E  2F70               	goto	u1714
  1838  0F6F                     u1713:	
  1839  0F6F  02C4               	subwf	??_map+2,f
  1840  0F70                     u1714:	
  1841  0F70  0835               	movf	map@in_min+3,w
  1842  0F71  1C03               	skipc
  1843  0F72  0F35               	incfsz	map@in_min+3,w
  1844  0F73  2F75               	goto	u1715
  1845  0F74  2F76               	goto	u1716
  1846  0F75                     u1715:	
  1847  0F75  02C5               	subwf	??_map+3,f
  1848  0F76                     u1716:	
  1849  0F76  0845               	movf	??_map+3,w
  1850  0F77  00A3               	movwf	___aldiv@divisor+3
  1851  0F78  0844               	movf	??_map+2,w
  1852  0F79  00A2               	movwf	___aldiv@divisor+2
  1853  0F7A  0843               	movf	??_map+1,w
  1854  0F7B  00A1               	movwf	___aldiv@divisor+1
  1855  0F7C  0842               	movf	??_map,w
  1856  0F7D  00A0               	movwf	___aldiv@divisor
  1857  0F7E  082E               	movf	map@x,w
  1858  0F7F  00C6               	movwf	??_map+4
  1859  0F80  082F               	movf	map@x+1,w
  1860  0F81  00C7               	movwf	??_map+5
  1861  0F82  0830               	movf	map@x+2,w
  1862  0F83  00C8               	movwf	??_map+6
  1863  0F84  0831               	movf	map@x+3,w
  1864  0F85  00C9               	movwf	??_map+7
  1865  0F86  0832               	movf	map@in_min,w
  1866  0F87  02C6               	subwf	??_map+4,f
  1867  0F88  0833               	movf	map@in_min+1,w
  1868  0F89  1C03               	skipc
  1869  0F8A  0F33               	incfsz	map@in_min+1,w
  1870  0F8B  2F8D               	goto	u1721
  1871  0F8C  2F8E               	goto	u1722
  1872  0F8D                     u1721:	
  1873  0F8D  02C7               	subwf	??_map+5,f
  1874  0F8E                     u1722:	
  1875  0F8E  0834               	movf	map@in_min+2,w
  1876  0F8F  1C03               	skipc
  1877  0F90  0F34               	incfsz	map@in_min+2,w
  1878  0F91  2F93               	goto	u1723
  1879  0F92  2F94               	goto	u1724
  1880  0F93                     u1723:	
  1881  0F93  02C8               	subwf	??_map+6,f
  1882  0F94                     u1724:	
  1883  0F94  0835               	movf	map@in_min+3,w
  1884  0F95  1C03               	skipc
  1885  0F96  0F35               	incfsz	map@in_min+3,w
  1886  0F97  2F99               	goto	u1725
  1887  0F98  2F9A               	goto	u1726
  1888  0F99                     u1725:	
  1889  0F99  02C9               	subwf	??_map+7,f
  1890  0F9A                     u1726:	
  1891  0F9A  0849               	movf	??_map+7,w
  1892  0F9B  00F3               	movwf	___lmul@multiplier+3
  1893  0F9C  0848               	movf	??_map+6,w
  1894  0F9D  00F2               	movwf	___lmul@multiplier+2
  1895  0F9E  0847               	movf	??_map+5,w
  1896  0F9F  00F1               	movwf	___lmul@multiplier+1
  1897  0FA0  0846               	movf	??_map+4,w
  1898  0FA1  00F0               	movwf	___lmul@multiplier
  1899  0FA2  083E               	movf	map@out_max,w
  1900  0FA3  00CA               	movwf	??_map+8
  1901  0FA4  083F               	movf	map@out_max+1,w
  1902  0FA5  00CB               	movwf	??_map+9
  1903  0FA6  0840               	movf	map@out_max+2,w
  1904  0FA7  00CC               	movwf	??_map+10
  1905  0FA8  0841               	movf	map@out_max+3,w
  1906  0FA9  00CD               	movwf	??_map+11
  1907  0FAA  083A               	movf	map@out_min,w
  1908  0FAB  02CA               	subwf	??_map+8,f
  1909  0FAC  083B               	movf	map@out_min+1,w
  1910  0FAD  1C03               	skipc
  1911  0FAE  0F3B               	incfsz	map@out_min+1,w
  1912  0FAF  2FB1               	goto	u1731
  1913  0FB0  2FB2               	goto	u1732
  1914  0FB1                     u1731:	
  1915  0FB1  02CB               	subwf	??_map+9,f
  1916  0FB2                     u1732:	
  1917  0FB2  083C               	movf	map@out_min+2,w
  1918  0FB3  1C03               	skipc
  1919  0FB4  0F3C               	incfsz	map@out_min+2,w
  1920  0FB5  2FB7               	goto	u1733
  1921  0FB6  2FB8               	goto	u1734
  1922  0FB7                     u1733:	
  1923  0FB7  02CC               	subwf	??_map+10,f
  1924  0FB8                     u1734:	
  1925  0FB8  083D               	movf	map@out_min+3,w
  1926  0FB9  1C03               	skipc
  1927  0FBA  0F3D               	incfsz	map@out_min+3,w
  1928  0FBB  2FBD               	goto	u1735
  1929  0FBC  2FBE               	goto	u1736
  1930  0FBD                     u1735:	
  1931  0FBD  02CD               	subwf	??_map+11,f
  1932  0FBE                     u1736:	
  1933  0FBE  084D               	movf	??_map+11,w
  1934  0FBF  00F7               	movwf	___lmul@multiplicand+3
  1935  0FC0  084C               	movf	??_map+10,w
  1936  0FC1  00F6               	movwf	___lmul@multiplicand+2
  1937  0FC2  084B               	movf	??_map+9,w
  1938  0FC3  00F5               	movwf	___lmul@multiplicand+1
  1939  0FC4  084A               	movf	??_map+8,w
  1940  0FC5  00F4               	movwf	___lmul@multiplicand
  1941  0FC6  120A  158A  252D  120A  158A  	fcall	___lmul
  1942  0FCB  0873               	movf	?___lmul+3,w
  1943  0FCC  1283               	bcf	3,5	;RP0=0, select bank0
  1944  0FCD  1303               	bcf	3,6	;RP1=0, select bank0
  1945  0FCE  00A7               	movwf	___aldiv@dividend+3
  1946  0FCF  0872               	movf	?___lmul+2,w
  1947  0FD0  00A6               	movwf	___aldiv@dividend+2
  1948  0FD1  0871               	movf	?___lmul+1,w
  1949  0FD2  00A5               	movwf	___aldiv@dividend+1
  1950  0FD3  0870               	movf	?___lmul,w
  1951  0FD4  00A4               	movwf	___aldiv@dividend
  1952  0FD5  120A  158A  26BB  120A  158A  	fcall	___aldiv
  1953  0FDA  1283               	bcf	3,5	;RP0=0, select bank0
  1954  0FDB  1303               	bcf	3,6	;RP1=0, select bank0
  1955  0FDC  0820               	movf	?___aldiv,w
  1956  0FDD  073A               	addwf	map@out_min,w
  1957  0FDE  00CE               	movwf	??_map+12
  1958  0FDF  3000               	movlw	0
  1959  0FE0  1803               	skipnc
  1960  0FE1  3001               	movlw	1
  1961  0FE2  0721               	addwf	?___aldiv+1,w
  1962  0FE3  01D0               	clrf	??_map+14
  1963  0FE4  1803               	skipnc
  1964  0FE5  0AD0               	incf	??_map+14,f
  1965  0FE6  073B               	addwf	map@out_min+1,w
  1966  0FE7  00CF               	movwf	??_map+13
  1967  0FE8  1803               	skipnc
  1968  0FE9  0AD0               	incf	??_map+14,f
  1969  0FEA  0822               	movf	?___aldiv+2,w
  1970  0FEB  0750               	addwf	??_map+14,w
  1971  0FEC  01D1               	clrf	??_map+15
  1972  0FED  1803               	skipnc
  1973  0FEE  0AD1               	incf	??_map+15,f
  1974  0FEF  073C               	addwf	map@out_min+2,w
  1975  0FF0  00D0               	movwf	??_map+14
  1976  0FF1  1803               	skipnc
  1977  0FF2  0AD1               	incf	??_map+15,f
  1978  0FF3  0823               	movf	?___aldiv+3,w
  1979  0FF4  0751               	addwf	??_map+15,w
  1980  0FF5  073D               	addwf	map@out_min+3,w
  1981  0FF6  00D1               	movwf	??_map+15
  1982  0FF7  0851               	movf	??_map+15,w
  1983  0FF8  00B1               	movwf	?_map+3
  1984  0FF9  0850               	movf	??_map+14,w
  1985  0FFA  00B0               	movwf	?_map+2
  1986  0FFB  084F               	movf	??_map+13,w
  1987  0FFC  00AF               	movwf	?_map+1
  1988  0FFD  084E               	movf	??_map+12,w
  1989  0FFE  00AE               	movwf	?_map
  1990  0FFF                     l67:	
  1991  0FFF  0008               	return
  1992  1000                     __end_of_map:	
  1993                           
  1994                           	psect	text6
  1995  0D2D                     __ptext6:	
  1996 ;; *************** function ___lmul *****************
  1997 ;; Defined at:
  1998 ;;		line 15 in file "C:\Program Files (x86)\Microchip\xc8\v2.10\pic\sources\c90\common\Umul32.c"
  1999 ;; Parameters:    Size  Location     Type
  2000 ;;  multiplier      4    0[COMMON] unsigned long 
  2001 ;;  multiplicand    4    4[COMMON] unsigned long 
  2002 ;; Auto vars:     Size  Location     Type
  2003 ;;  product         4    9[COMMON] unsigned long 
  2004 ;; Return value:  Size  Location     Type
  2005 ;;                  4    0[COMMON] unsigned long 
  2006 ;; Registers used:
  2007 ;;		wreg, status,2, status,0
  2008 ;; Tracked objects:
  2009 ;;		On entry : 0/0
  2010 ;;		On exit  : 0/0
  2011 ;;		Unchanged: 0/0
  2012 ;; Data sizes:     COMMON   BANK0   BANK1   BANK3   BANK2
  2013 ;;      Params:         8       0       0       0       0
  2014 ;;      Locals:         4       0       0       0       0
  2015 ;;      Temps:          1       0       0       0       0
  2016 ;;      Totals:        13       0       0       0       0
  2017 ;;Total ram usage:       13 bytes
  2018 ;; Hardware stack levels used:    1
  2019 ;; This function calls:
  2020 ;;		Nothing
  2021 ;; This function is called by:
  2022 ;;		_map
  2023 ;; This function uses a non-reentrant model
  2024 ;;
  2025                           
  2026                           
  2027                           ;psect for function ___lmul
  2028  0D2D                     ___lmul:	
  2029  0D2D                     l1516:	
  2030                           ;incstack = 0
  2031                           ; Regs used in ___lmul: [wreg+status,2+status,0]
  2032                           
  2033  0D2D  3000               	movlw	0
  2034  0D2E  00FC               	movwf	___lmul@product+3
  2035  0D2F  3000               	movlw	0
  2036  0D30  00FB               	movwf	___lmul@product+2
  2037  0D31  3000               	movlw	0
  2038  0D32  00FA               	movwf	___lmul@product+1
  2039  0D33  3000               	movlw	0
  2040  0D34  00F9               	movwf	___lmul@product
  2041  0D35                     l1518:	
  2042  0D35  1C70               	btfss	___lmul@multiplier,0
  2043  0D36  2D38               	goto	u1531
  2044  0D37  2D39               	goto	u1530
  2045  0D38                     u1531:	
  2046  0D38  2D50               	goto	l1522
  2047  0D39                     u1530:	
  2048  0D39                     l1520:	
  2049  0D39  0874               	movf	___lmul@multiplicand,w
  2050  0D3A  07F9               	addwf	___lmul@product,f
  2051  0D3B  0875               	movf	___lmul@multiplicand+1,w
  2052  0D3C  1103               	clrz
  2053  0D3D  1803               	skipnc
  2054  0D3E  3E01               	addlw	1
  2055  0D3F  1903               	skipnz
  2056  0D40  2D42               	goto	u1541
  2057  0D41  07FA               	addwf	___lmul@product+1,f
  2058  0D42                     u1541:	
  2059  0D42  0876               	movf	___lmul@multiplicand+2,w
  2060  0D43  1103               	clrz
  2061  0D44  1803               	skipnc
  2062  0D45  3E01               	addlw	1
  2063  0D46  1903               	skipnz
  2064  0D47  2D49               	goto	u1542
  2065  0D48  07FB               	addwf	___lmul@product+2,f
  2066  0D49                     u1542:	
  2067  0D49  0877               	movf	___lmul@multiplicand+3,w
  2068  0D4A  1103               	clrz
  2069  0D4B  1803               	skipnc
  2070  0D4C  3E01               	addlw	1
  2071  0D4D  1903               	skipnz
  2072  0D4E  2D50               	goto	u1543
  2073  0D4F  07FC               	addwf	___lmul@product+3,f
  2074  0D50                     u1543:	
  2075  0D50                     l1522:	
  2076  0D50  3001               	movlw	1
  2077  0D51  00F8               	movwf	??___lmul
  2078  0D52                     u1555:	
  2079  0D52  1003               	clrc
  2080  0D53  0DF4               	rlf	___lmul@multiplicand,f
  2081  0D54  0DF5               	rlf	___lmul@multiplicand+1,f
  2082  0D55  0DF6               	rlf	___lmul@multiplicand+2,f
  2083  0D56  0DF7               	rlf	___lmul@multiplicand+3,f
  2084  0D57  0BF8               	decfsz	??___lmul,f
  2085  0D58  2D52               	goto	u1555
  2086  0D59                     l1524:	
  2087  0D59  3001               	movlw	1
  2088  0D5A                     u1565:	
  2089  0D5A  1003               	clrc
  2090  0D5B  0CF3               	rrf	___lmul@multiplier+3,f
  2091  0D5C  0CF2               	rrf	___lmul@multiplier+2,f
  2092  0D5D  0CF1               	rrf	___lmul@multiplier+1,f
  2093  0D5E  0CF0               	rrf	___lmul@multiplier,f
  2094  0D5F  3EFF               	addlw	-1
  2095  0D60  1D03               	skipz
  2096  0D61  2D5A               	goto	u1565
  2097  0D62  0873               	movf	___lmul@multiplier+3,w
  2098  0D63  0472               	iorwf	___lmul@multiplier+2,w
  2099  0D64  0471               	iorwf	___lmul@multiplier+1,w
  2100  0D65  0470               	iorwf	___lmul@multiplier,w
  2101  0D66  1D03               	skipz
  2102  0D67  2D69               	goto	u1571
  2103  0D68  2D6A               	goto	u1570
  2104  0D69                     u1571:	
  2105  0D69  2D35               	goto	l1518
  2106  0D6A                     u1570:	
  2107  0D6A                     l1526:	
  2108  0D6A  087C               	movf	___lmul@product+3,w
  2109  0D6B  00F3               	movwf	?___lmul+3
  2110  0D6C  087B               	movf	___lmul@product+2,w
  2111  0D6D  00F2               	movwf	?___lmul+2
  2112  0D6E  087A               	movf	___lmul@product+1,w
  2113  0D6F  00F1               	movwf	?___lmul+1
  2114  0D70  0879               	movf	___lmul@product,w
  2115  0D71  00F0               	movwf	?___lmul
  2116  0D72                     l282:	
  2117  0D72  0008               	return
  2118  0D73                     __end_of___lmul:	
  2119                           
  2120                           	psect	text7
  2121  0023                     __ptext7:	
  2122 ;; *************** function ___xxtofl *****************
  2123 ;; Defined at:
  2124 ;;		line 10 in file "C:\Program Files (x86)\Microchip\xc8\v2.10\pic\sources\c90\common\xxtofl.c"
  2125 ;; Parameters:    Size  Location     Type
  2126 ;;  sign            1    wreg     unsigned char 
  2127 ;;  val             4    0[COMMON] long 
  2128 ;; Auto vars:     Size  Location     Type
  2129 ;;  sign            1    8[COMMON] unsigned char 
  2130 ;;  arg             4   10[COMMON] unsigned long 
  2131 ;;  exp             1    9[COMMON] unsigned char 
  2132 ;; Return value:  Size  Location     Type
  2133 ;;                  4    0[COMMON] unsigned char 
  2134 ;; Registers used:
  2135 ;;		wreg, status,2, status,0
  2136 ;; Tracked objects:
  2137 ;;		On entry : 0/0
  2138 ;;		On exit  : 0/0
  2139 ;;		Unchanged: 0/0
  2140 ;; Data sizes:     COMMON   BANK0   BANK1   BANK3   BANK2
  2141 ;;      Params:         4       0       0       0       0
  2142 ;;      Locals:         6       0       0       0       0
  2143 ;;      Temps:          4       0       0       0       0
  2144 ;;      Totals:        14       0       0       0       0
  2145 ;;Total ram usage:       14 bytes
  2146 ;; Hardware stack levels used:    1
  2147 ;; This function calls:
  2148 ;;		Nothing
  2149 ;; This function is called by:
  2150 ;;		_pwmDuty
  2151 ;; This function uses a non-reentrant model
  2152 ;;
  2153                           
  2154                           
  2155                           ;psect for function ___xxtofl
  2156  0023                     ___xxtofl:	
  2157                           
  2158                           ;incstack = 0
  2159                           ; Regs used in ___xxtofl: [wreg+status,2+status,0]
  2160                           ;___xxtofl@sign stored from wreg
  2161  0023  00F8               	movwf	___xxtofl@sign
  2162  0024                     l1956:	
  2163  0024  0878               	movf	___xxtofl@sign,w
  2164  0025  1903               	btfsc	3,2
  2165  0026  2828               	goto	u2641
  2166  0027  2829               	goto	u2640
  2167  0028                     u2641:	
  2168  0028  283D               	goto	l1962
  2169  0029                     u2640:	
  2170  0029                     l1958:	
  2171  0029  1FF3               	btfss	___xxtofl@val+3,7
  2172  002A  282C               	goto	u2651
  2173  002B  282D               	goto	u2650
  2174  002C                     u2651:	
  2175  002C  283D               	goto	l1962
  2176  002D                     u2650:	
  2177  002D                     l1960:	
  2178  002D  0970               	comf	___xxtofl@val,w
  2179  002E  00FA               	movwf	___xxtofl@arg
  2180  002F  0971               	comf	___xxtofl@val+1,w
  2181  0030  00FB               	movwf	___xxtofl@arg+1
  2182  0031  0972               	comf	___xxtofl@val+2,w
  2183  0032  00FC               	movwf	___xxtofl@arg+2
  2184  0033  0973               	comf	___xxtofl@val+3,w
  2185  0034  00FD               	movwf	___xxtofl@arg+3
  2186  0035  0AFA               	incf	___xxtofl@arg,f
  2187  0036  1903               	skipnz
  2188  0037  0AFB               	incf	___xxtofl@arg+1,f
  2189  0038  1903               	skipnz
  2190  0039  0AFC               	incf	___xxtofl@arg+2,f
  2191  003A  1903               	skipnz
  2192  003B  0AFD               	incf	___xxtofl@arg+3,f
  2193  003C  2845               	goto	l695
  2194  003D                     l1962:	
  2195  003D  0873               	movf	___xxtofl@val+3,w
  2196  003E  00FD               	movwf	___xxtofl@arg+3
  2197  003F  0872               	movf	___xxtofl@val+2,w
  2198  0040  00FC               	movwf	___xxtofl@arg+2
  2199  0041  0871               	movf	___xxtofl@val+1,w
  2200  0042  00FB               	movwf	___xxtofl@arg+1
  2201  0043  0870               	movf	___xxtofl@val,w
  2202  0044  00FA               	movwf	___xxtofl@arg
  2203  0045                     l695:	
  2204  0045  0873               	movf	___xxtofl@val+3,w
  2205  0046  0472               	iorwf	___xxtofl@val+2,w
  2206  0047  0471               	iorwf	___xxtofl@val+1,w
  2207  0048  0470               	iorwf	___xxtofl@val,w
  2208  0049  1D03               	skipz
  2209  004A  284C               	goto	u2661
  2210  004B  284D               	goto	u2660
  2211  004C                     u2661:	
  2212  004C  2856               	goto	l1968
  2213  004D                     u2660:	
  2214  004D                     l1964:	
  2215  004D  3000               	movlw	0
  2216  004E  00F3               	movwf	?___xxtofl+3
  2217  004F  3000               	movlw	0
  2218  0050  00F2               	movwf	?___xxtofl+2
  2219  0051  3000               	movlw	0
  2220  0052  00F1               	movwf	?___xxtofl+1
  2221  0053  3000               	movlw	0
  2222  0054  00F0               	movwf	?___xxtofl
  2223  0055  28DC               	goto	l697
  2224  0056                     l1968:	
  2225  0056  3096               	movlw	150
  2226  0057  00F4               	movwf	??___xxtofl
  2227  0058  0874               	movf	??___xxtofl,w
  2228  0059  00F9               	movwf	___xxtofl@exp
  2229  005A  2868               	goto	l1972
  2230  005B                     l1970:	
  2231  005B  3001               	movlw	1
  2232  005C  00F4               	movwf	??___xxtofl
  2233  005D  0874               	movf	??___xxtofl,w
  2234  005E  07F9               	addwf	___xxtofl@exp,f
  2235  005F  3001               	movlw	1
  2236  0060                     u2675:	
  2237  0060  1003               	clrc
  2238  0061  0CFD               	rrf	___xxtofl@arg+3,f
  2239  0062  0CFC               	rrf	___xxtofl@arg+2,f
  2240  0063  0CFB               	rrf	___xxtofl@arg+1,f
  2241  0064  0CFA               	rrf	___xxtofl@arg,f
  2242  0065  3EFF               	addlw	-1
  2243  0066  1D03               	skipz
  2244  0067  2860               	goto	u2675
  2245  0068                     l1972:	
  2246  0068  30FE               	movlw	254
  2247  0069  057D               	andwf	___xxtofl@arg+3,w
  2248  006A  1D03               	btfss	3,2
  2249  006B  286D               	goto	u2681
  2250  006C  286E               	goto	u2680
  2251  006D                     u2681:	
  2252  006D  285B               	goto	l1970
  2253  006E                     u2680:	
  2254  006E  288A               	goto	l701
  2255  006F                     l1974:	
  2256  006F  3001               	movlw	1
  2257  0070  00F4               	movwf	??___xxtofl
  2258  0071  0874               	movf	??___xxtofl,w
  2259  0072  07F9               	addwf	___xxtofl@exp,f
  2260  0073                     l1976:	
  2261  0073  3001               	movlw	1
  2262  0074  07FA               	addwf	___xxtofl@arg,f
  2263  0075  3000               	movlw	0
  2264  0076  1803               	skipnc
  2265  0077  3001               	movlw	1
  2266  0078  07FB               	addwf	___xxtofl@arg+1,f
  2267  0079  3000               	movlw	0
  2268  007A  1803               	skipnc
  2269  007B  3001               	movlw	1
  2270  007C  07FC               	addwf	___xxtofl@arg+2,f
  2271  007D  3000               	movlw	0
  2272  007E  1803               	skipnc
  2273  007F  3001               	movlw	1
  2274  0080  07FD               	addwf	___xxtofl@arg+3,f
  2275  0081                     l1978:	
  2276  0081  3001               	movlw	1
  2277  0082                     u2695:	
  2278  0082  1003               	clrc
  2279  0083  0CFD               	rrf	___xxtofl@arg+3,f
  2280  0084  0CFC               	rrf	___xxtofl@arg+2,f
  2281  0085  0CFB               	rrf	___xxtofl@arg+1,f
  2282  0086  0CFA               	rrf	___xxtofl@arg,f
  2283  0087  3EFF               	addlw	-1
  2284  0088  1D03               	skipz
  2285  0089  2882               	goto	u2695
  2286  008A                     l701:	
  2287  008A  30FF               	movlw	255
  2288  008B  057D               	andwf	___xxtofl@arg+3,w
  2289  008C  1D03               	btfss	3,2
  2290  008D  288F               	goto	u2701
  2291  008E  2890               	goto	u2700
  2292  008F                     u2701:	
  2293  008F  286F               	goto	l1974
  2294  0090                     u2700:	
  2295  0090  289C               	goto	l1982
  2296  0091                     l1980:	
  2297  0091  3001               	movlw	1
  2298  0092  02F9               	subwf	___xxtofl@exp,f
  2299  0093  3001               	movlw	1
  2300  0094  00F4               	movwf	??___xxtofl
  2301  0095                     u2715:	
  2302  0095  1003               	clrc
  2303  0096  0DFA               	rlf	___xxtofl@arg,f
  2304  0097  0DFB               	rlf	___xxtofl@arg+1,f
  2305  0098  0DFC               	rlf	___xxtofl@arg+2,f
  2306  0099  0DFD               	rlf	___xxtofl@arg+3,f
  2307  009A  0BF4               	decfsz	??___xxtofl,f
  2308  009B  2895               	goto	u2715
  2309  009C                     l1982:	
  2310  009C  1BFC               	btfsc	___xxtofl@arg+2,7
  2311  009D  289F               	goto	u2721
  2312  009E  28A0               	goto	u2720
  2313  009F                     u2721:	
  2314  009F  28A6               	goto	l708
  2315  00A0                     u2720:	
  2316  00A0                     l1984:	
  2317  00A0  3002               	movlw	2
  2318  00A1  0279               	subwf	___xxtofl@exp,w
  2319  00A2  1803               	skipnc
  2320  00A3  28A5               	goto	u2731
  2321  00A4  28A6               	goto	u2730
  2322  00A5                     u2731:	
  2323  00A5  2891               	goto	l1980
  2324  00A6                     u2730:	
  2325  00A6                     l708:	
  2326  00A6  1879               	btfsc	___xxtofl@exp,0
  2327  00A7  28A9               	goto	u2741
  2328  00A8  28AA               	goto	u2740
  2329  00A9                     u2741:	
  2330  00A9  28B2               	goto	l709
  2331  00AA                     u2740:	
  2332  00AA                     l1986:	
  2333  00AA  30FF               	movlw	255
  2334  00AB  05FA               	andwf	___xxtofl@arg,f
  2335  00AC  30FF               	movlw	255
  2336  00AD  05FB               	andwf	___xxtofl@arg+1,f
  2337  00AE  307F               	movlw	127
  2338  00AF  05FC               	andwf	___xxtofl@arg+2,f
  2339  00B0  30FF               	movlw	255
  2340  00B1  05FD               	andwf	___xxtofl@arg+3,f
  2341  00B2                     l709:	
  2342  00B2  1003               	clrc
  2343  00B3  0CF9               	rrf	___xxtofl@exp,f
  2344  00B4                     l1988:	
  2345  00B4  0879               	movf	___xxtofl@exp,w
  2346  00B5  00F4               	movwf	??___xxtofl
  2347  00B6  01F5               	clrf	??___xxtofl+1
  2348  00B7  01F6               	clrf	??___xxtofl+2
  2349  00B8  01F7               	clrf	??___xxtofl+3
  2350  00B9  3018               	movlw	24
  2351  00BA                     u2755:	
  2352  00BA  1003               	clrc
  2353  00BB  0DF4               	rlf	??___xxtofl,f
  2354  00BC  0DF5               	rlf	??___xxtofl+1,f
  2355  00BD  0DF6               	rlf	??___xxtofl+2,f
  2356  00BE  0DF7               	rlf	??___xxtofl+3,f
  2357  00BF                     u2750:	
  2358  00BF  3EFF               	addlw	-1
  2359  00C0  1D03               	skipz
  2360  00C1  28BA               	goto	u2755
  2361  00C2  0874               	movf	??___xxtofl,w
  2362  00C3  04FA               	iorwf	___xxtofl@arg,f
  2363  00C4  0875               	movf	??___xxtofl+1,w
  2364  00C5  04FB               	iorwf	___xxtofl@arg+1,f
  2365  00C6  0876               	movf	??___xxtofl+2,w
  2366  00C7  04FC               	iorwf	___xxtofl@arg+2,f
  2367  00C8  0877               	movf	??___xxtofl+3,w
  2368  00C9  04FD               	iorwf	___xxtofl@arg+3,f
  2369  00CA                     l1990:	
  2370  00CA  0878               	movf	___xxtofl@sign,w
  2371  00CB  1903               	btfsc	3,2
  2372  00CC  28CE               	goto	u2761
  2373  00CD  28CF               	goto	u2760
  2374  00CE                     u2761:	
  2375  00CE  28D4               	goto	l1996
  2376  00CF                     u2760:	
  2377  00CF                     l1992:	
  2378  00CF  1FF3               	btfss	___xxtofl@val+3,7
  2379  00D0  28D2               	goto	u2771
  2380  00D1  28D3               	goto	u2770
  2381  00D2                     u2771:	
  2382  00D2  28D4               	goto	l1996
  2383  00D3                     u2770:	
  2384  00D3                     l1994:	
  2385  00D3  17FD               	bsf	___xxtofl@arg+3,7
  2386  00D4                     l1996:	
  2387  00D4  087D               	movf	___xxtofl@arg+3,w
  2388  00D5  00F3               	movwf	?___xxtofl+3
  2389  00D6  087C               	movf	___xxtofl@arg+2,w
  2390  00D7  00F2               	movwf	?___xxtofl+2
  2391  00D8  087B               	movf	___xxtofl@arg+1,w
  2392  00D9  00F1               	movwf	?___xxtofl+1
  2393  00DA  087A               	movf	___xxtofl@arg,w
  2394  00DB  00F0               	movwf	?___xxtofl
  2395  00DC                     l697:	
  2396  00DC  0008               	return
  2397  00DD                     __end_of___xxtofl:	
  2398                           
  2399                           	psect	text8
  2400  0DC2                     __ptext8:	
  2401 ;; *************** function ___fltol *****************
  2402 ;; Defined at:
  2403 ;;		line 43 in file "C:\Program Files (x86)\Microchip\xc8\v2.10\pic\sources\c90\common\fltol.c"
  2404 ;; Parameters:    Size  Location     Type
  2405 ;;  f1              4   52[BANK0 ] unsigned char 
  2406 ;; Auto vars:     Size  Location     Type
  2407 ;;  exp1            1   62[BANK0 ] unsigned char 
  2408 ;;  sign1           1   61[BANK0 ] unsigned char 
  2409 ;; Return value:  Size  Location     Type
  2410 ;;                  4   52[BANK0 ] long 
  2411 ;; Registers used:
  2412 ;;		wreg, status,2, status,0
  2413 ;; Tracked objects:
  2414 ;;		On entry : 0/0
  2415 ;;		On exit  : 0/0
  2416 ;;		Unchanged: 0/0
  2417 ;; Data sizes:     COMMON   BANK0   BANK1   BANK3   BANK2
  2418 ;;      Params:         0       4       0       0       0
  2419 ;;      Locals:         0       2       0       0       0
  2420 ;;      Temps:          0       5       0       0       0
  2421 ;;      Totals:         0      11       0       0       0
  2422 ;;Total ram usage:       11 bytes
  2423 ;; Hardware stack levels used:    1
  2424 ;; This function calls:
  2425 ;;		Nothing
  2426 ;; This function is called by:
  2427 ;;		_pwmDuty
  2428 ;; This function uses a non-reentrant model
  2429 ;;
  2430                           
  2431                           
  2432                           ;psect for function ___fltol
  2433  0DC2                     ___fltol:	
  2434  0DC2                     l1590:	
  2435                           ;incstack = 0
  2436                           ; Regs used in ___fltol: [wreg+status,2+status,0]
  2437                           
  2438  0DC2  1003               	clrc
  2439  0DC3  1283               	bcf	3,5	;RP0=0, select bank0
  2440  0DC4  1303               	bcf	3,6	;RP1=0, select bank0
  2441  0DC5  0D56               	rlf	___fltol@f1+2,w
  2442  0DC6  0D57               	rlf	___fltol@f1+3,w
  2443  0DC7  00D8               	movwf	??___fltol
  2444  0DC8  0858               	movf	??___fltol,w
  2445  0DC9  00DE               	movwf	___fltol@exp1
  2446  0DCA  085E               	movf	___fltol@exp1,w
  2447  0DCB  1D03               	btfss	3,2
  2448  0DCC  2DCE               	goto	u1751
  2449  0DCD  2DCF               	goto	u1750
  2450  0DCE                     u1751:	
  2451  0DCE  2DD8               	goto	l1596
  2452  0DCF                     u1750:	
  2453  0DCF                     l1592:	
  2454  0DCF  3000               	movlw	0
  2455  0DD0  00D7               	movwf	?___fltol+3
  2456  0DD1  3000               	movlw	0
  2457  0DD2  00D6               	movwf	?___fltol+2
  2458  0DD3  3000               	movlw	0
  2459  0DD4  00D5               	movwf	?___fltol+1
  2460  0DD5  3000               	movlw	0
  2461  0DD6  00D4               	movwf	?___fltol
  2462  0DD7  2E3D               	goto	l454
  2463  0DD8                     l1596:	
  2464  0DD8  0854               	movf	___fltol@f1,w
  2465  0DD9  00D8               	movwf	??___fltol
  2466  0DDA  0855               	movf	___fltol@f1+1,w
  2467  0DDB  00D9               	movwf	??___fltol+1
  2468  0DDC  0856               	movf	___fltol@f1+2,w
  2469  0DDD  00DA               	movwf	??___fltol+2
  2470  0DDE  0857               	movf	___fltol@f1+3,w
  2471  0DDF  00DB               	movwf	??___fltol+3
  2472  0DE0  301F               	movlw	31
  2473  0DE1                     u1765:	
  2474  0DE1  1003               	clrc
  2475  0DE2  0CDB               	rrf	??___fltol+3,f
  2476  0DE3  0CDA               	rrf	??___fltol+2,f
  2477  0DE4  0CD9               	rrf	??___fltol+1,f
  2478  0DE5  0CD8               	rrf	??___fltol,f
  2479  0DE6                     u1760:	
  2480  0DE6  3EFF               	addlw	-1
  2481  0DE7  1D03               	skipz
  2482  0DE8  2DE1               	goto	u1765
  2483  0DE9  0858               	movf	??___fltol,w
  2484  0DEA  00DC               	movwf	??___fltol+4
  2485  0DEB  085C               	movf	??___fltol+4,w
  2486  0DEC  00DD               	movwf	___fltol@sign1
  2487  0DED                     l1598:	
  2488  0DED  17D6               	bsf	___fltol@f1+2,7
  2489  0DEE                     l1600:	
  2490  0DEE  30FF               	movlw	255
  2491  0DEF  05D4               	andwf	___fltol@f1,f
  2492  0DF0  30FF               	movlw	255
  2493  0DF1  05D5               	andwf	___fltol@f1+1,f
  2494  0DF2  30FF               	movlw	255
  2495  0DF3  05D6               	andwf	___fltol@f1+2,f
  2496  0DF4  3000               	movlw	0
  2497  0DF5  05D7               	andwf	___fltol@f1+3,f
  2498  0DF6                     l1602:	
  2499  0DF6  3096               	movlw	150
  2500  0DF7  02DE               	subwf	___fltol@exp1,f
  2501  0DF8                     l1604:	
  2502  0DF8  1FDE               	btfss	___fltol@exp1,7
  2503  0DF9  2DFB               	goto	u1771
  2504  0DFA  2DFC               	goto	u1770
  2505  0DFB                     u1771:	
  2506  0DFB  2E16               	goto	l1614
  2507  0DFC                     u1770:	
  2508  0DFC                     l1606:	
  2509  0DFC  085E               	movf	___fltol@exp1,w
  2510  0DFD  3A80               	xorlw	128
  2511  0DFE  3E97               	addlw	151
  2512  0DFF  1803               	skipnc
  2513  0E00  2E02               	goto	u1781
  2514  0E01  2E03               	goto	u1780
  2515  0E02                     u1781:	
  2516  0E02  2E04               	goto	l1612
  2517  0E03                     u1780:	
  2518  0E03  2DCF               	goto	l1592
  2519  0E04                     l1612:	
  2520  0E04  3001               	movlw	1
  2521  0E05                     u1795:	
  2522  0E05  1003               	clrc
  2523  0E06  0CD7               	rrf	___fltol@f1+3,f
  2524  0E07  0CD6               	rrf	___fltol@f1+2,f
  2525  0E08  0CD5               	rrf	___fltol@f1+1,f
  2526  0E09  0CD4               	rrf	___fltol@f1,f
  2527  0E0A  3EFF               	addlw	-1
  2528  0E0B  1D03               	skipz
  2529  0E0C  2E05               	goto	u1795
  2530  0E0D  3001               	movlw	1
  2531  0E0E  00D8               	movwf	??___fltol
  2532  0E0F  0858               	movf	??___fltol,w
  2533  0E10  07DE               	addwf	___fltol@exp1,f
  2534  0E11  1D03               	btfss	3,2
  2535  0E12  2E14               	goto	u1801
  2536  0E13  2E15               	goto	u1800
  2537  0E14                     u1801:	
  2538  0E14  2E04               	goto	l1612
  2539  0E15                     u1800:	
  2540  0E15  2E2D               	goto	l1622
  2541  0E16                     l1614:	
  2542  0E16  3020               	movlw	32
  2543  0E17  025E               	subwf	___fltol@exp1,w
  2544  0E18  1C03               	skipc
  2545  0E19  2E1B               	goto	u1811
  2546  0E1A  2E1C               	goto	u1810
  2547  0E1B                     u1811:	
  2548  0E1B  2E28               	goto	l461
  2549  0E1C                     u1810:	
  2550  0E1C  2DCF               	goto	l1592
  2551  0E1D                     l1620:	
  2552  0E1D  3001               	movlw	1
  2553  0E1E  00D8               	movwf	??___fltol
  2554  0E1F                     u1825:	
  2555  0E1F  1003               	clrc
  2556  0E20  0DD4               	rlf	___fltol@f1,f
  2557  0E21  0DD5               	rlf	___fltol@f1+1,f
  2558  0E22  0DD6               	rlf	___fltol@f1+2,f
  2559  0E23  0DD7               	rlf	___fltol@f1+3,f
  2560  0E24  0BD8               	decfsz	??___fltol,f
  2561  0E25  2E1F               	goto	u1825
  2562  0E26  3001               	movlw	1
  2563  0E27  02DE               	subwf	___fltol@exp1,f
  2564  0E28                     l461:	
  2565  0E28  085E               	movf	___fltol@exp1,w
  2566  0E29  1D03               	btfss	3,2
  2567  0E2A  2E2C               	goto	u1831
  2568  0E2B  2E2D               	goto	u1830
  2569  0E2C                     u1831:	
  2570  0E2C  2E1D               	goto	l1620
  2571  0E2D                     u1830:	
  2572  0E2D                     l1622:	
  2573  0E2D  085D               	movf	___fltol@sign1,w
  2574  0E2E  1903               	btfsc	3,2
  2575  0E2F  2E31               	goto	u1841
  2576  0E30  2E32               	goto	u1840
  2577  0E31                     u1841:	
  2578  0E31  2E3D               	goto	l464
  2579  0E32                     u1840:	
  2580  0E32                     l1624:	
  2581  0E32  09D4               	comf	___fltol@f1,f
  2582  0E33  09D5               	comf	___fltol@f1+1,f
  2583  0E34  09D6               	comf	___fltol@f1+2,f
  2584  0E35  09D7               	comf	___fltol@f1+3,f
  2585  0E36  0AD4               	incf	___fltol@f1,f
  2586  0E37  1903               	skipnz
  2587  0E38  0AD5               	incf	___fltol@f1+1,f
  2588  0E39  1903               	skipnz
  2589  0E3A  0AD6               	incf	___fltol@f1+2,f
  2590  0E3B  1903               	skipnz
  2591  0E3C  0AD7               	incf	___fltol@f1+3,f
  2592  0E3D                     l464:	
  2593  0E3D                     l454:	
  2594  0E3D  0008               	return
  2595  0E3E                     __end_of___fltol:	
  2596                           
  2597                           	psect	text9
  2598  0492                     __ptext9:	
  2599 ;; *************** function ___flmul *****************
  2600 ;; Defined at:
  2601 ;;		line 8 in file "C:\Program Files (x86)\Microchip\xc8\v2.10\pic\sources\c90\common\sprcmul.c"
  2602 ;; Parameters:    Size  Location     Type
  2603 ;;  b               4   26[BANK0 ] long 
  2604 ;;  a               4   30[BANK0 ] long 
  2605 ;; Auto vars:     Size  Location     Type
  2606 ;;  prod            4   46[BANK0 ] struct .
  2607 ;;  grs             4   40[BANK0 ] unsigned long 
  2608 ;;  temp            2   50[BANK0 ] struct .
  2609 ;;  bexp            1   45[BANK0 ] unsigned char 
  2610 ;;  aexp            1   44[BANK0 ] unsigned char 
  2611 ;;  sign            1   39[BANK0 ] unsigned char 
  2612 ;; Return value:  Size  Location     Type
  2613 ;;                  4   26[BANK0 ] unsigned char 
  2614 ;; Registers used:
  2615 ;;		wreg, status,2, status,0, btemp+1, pclath, cstack
  2616 ;; Tracked objects:
  2617 ;;		On entry : 0/0
  2618 ;;		On exit  : 0/0
  2619 ;;		Unchanged: 0/0
  2620 ;; Data sizes:     COMMON   BANK0   BANK1   BANK3   BANK2
  2621 ;;      Params:         0       8       0       0       0
  2622 ;;      Locals:         0      13       0       0       0
  2623 ;;      Temps:          0       5       0       0       0
  2624 ;;      Totals:         0      26       0       0       0
  2625 ;;Total ram usage:       26 bytes
  2626 ;; Hardware stack levels used:    1
  2627 ;; Hardware stack levels required when called:    1
  2628 ;; This function calls:
  2629 ;;		__Umul8_16
  2630 ;; This function is called by:
  2631 ;;		_pwmDuty
  2632 ;; This function uses a non-reentrant model
  2633 ;;
  2634                           
  2635                           
  2636                           ;psect for function ___flmul
  2637  0492                     ___flmul:	
  2638  0492                     l1816:	
  2639                           ;incstack = 0
  2640                           ; Regs used in ___flmul: [wreg+status,2+status,0+btemp+1+pclath+cstack]
  2641                           
  2642  0492  1283               	bcf	3,5	;RP0=0, select bank0
  2643  0493  1303               	bcf	3,6	;RP1=0, select bank0
  2644  0494  083D               	movf	___flmul@b+3,w
  2645  0495  3980               	andlw	128
  2646  0496  00C2               	movwf	??___flmul
  2647  0497  0842               	movf	??___flmul,w
  2648  0498  00C7               	movwf	___flmul@sign
  2649  0499                     l1818:	
  2650  0499  083D               	movf	___flmul@b+3,w
  2651  049A  00C2               	movwf	??___flmul
  2652  049B  0742               	addwf	??___flmul,w
  2653  049C  00C3               	movwf	??___flmul+1
  2654  049D  0843               	movf	??___flmul+1,w
  2655  049E  00CD               	movwf	___flmul@bexp
  2656  049F                     l1820:	
  2657  049F  1FBC               	btfss	___flmul@b+2,7
  2658  04A0  2CA2               	goto	u2271
  2659  04A1  2CA3               	goto	u2270
  2660  04A2                     u2271:	
  2661  04A2  2CA4               	goto	l1824
  2662  04A3                     u2270:	
  2663  04A3                     l1822:	
  2664  04A3  144D               	bsf	___flmul@bexp,0
  2665  04A4                     l1824:	
  2666  04A4  084D               	movf	___flmul@bexp,w
  2667  04A5  1903               	btfsc	3,2
  2668  04A6  2CA8               	goto	u2281
  2669  04A7  2CA9               	goto	u2280
  2670  04A8                     u2281:	
  2671  04A8  2CB8               	goto	l1832
  2672  04A9                     u2280:	
  2673  04A9                     l1826:	
  2674  04A9  0A4D               	incf	___flmul@bexp,w
  2675  04AA  1D03               	btfss	3,2
  2676  04AB  2CAD               	goto	u2291
  2677  04AC  2CAE               	goto	u2290
  2678  04AD                     u2291:	
  2679  04AD  2CB6               	goto	l1830
  2680  04AE                     u2290:	
  2681  04AE                     l1828:	
  2682  04AE  3000               	movlw	0
  2683  04AF  00BD               	movwf	___flmul@b+3
  2684  04B0  3000               	movlw	0
  2685  04B1  00BC               	movwf	___flmul@b+2
  2686  04B2  3000               	movlw	0
  2687  04B3  00BB               	movwf	___flmul@b+1
  2688  04B4  3000               	movlw	0
  2689  04B5  00BA               	movwf	___flmul@b
  2690  04B6                     l1830:	
  2691  04B6  17BC               	bsf	___flmul@b+2,7
  2692  04B7  2CC0               	goto	l1834
  2693  04B8                     l1832:	
  2694  04B8  3000               	movlw	0
  2695  04B9  00BD               	movwf	___flmul@b+3
  2696  04BA  3000               	movlw	0
  2697  04BB  00BC               	movwf	___flmul@b+2
  2698  04BC  3000               	movlw	0
  2699  04BD  00BB               	movwf	___flmul@b+1
  2700  04BE  3000               	movlw	0
  2701  04BF  00BA               	movwf	___flmul@b
  2702  04C0                     l1834:	
  2703  04C0  0841               	movf	___flmul@a+3,w
  2704  04C1  3980               	andlw	128
  2705  04C2  00C2               	movwf	??___flmul
  2706  04C3  0842               	movf	??___flmul,w
  2707  04C4  06C7               	xorwf	___flmul@sign,f
  2708  04C5                     l1836:	
  2709  04C5  0841               	movf	___flmul@a+3,w
  2710  04C6  00C2               	movwf	??___flmul
  2711  04C7  0742               	addwf	??___flmul,w
  2712  04C8  00C3               	movwf	??___flmul+1
  2713  04C9  0843               	movf	??___flmul+1,w
  2714  04CA  00CC               	movwf	___flmul@aexp
  2715  04CB                     l1838:	
  2716  04CB  1FC0               	btfss	___flmul@a+2,7
  2717  04CC  2CCE               	goto	u2301
  2718  04CD  2CCF               	goto	u2300
  2719  04CE                     u2301:	
  2720  04CE  2CD0               	goto	l1842
  2721  04CF                     u2300:	
  2722  04CF                     l1840:	
  2723  04CF  144C               	bsf	___flmul@aexp,0
  2724  04D0                     l1842:	
  2725  04D0  084C               	movf	___flmul@aexp,w
  2726  04D1  1903               	btfsc	3,2
  2727  04D2  2CD4               	goto	u2311
  2728  04D3  2CD5               	goto	u2310
  2729  04D4                     u2311:	
  2730  04D4  2CE4               	goto	l1850
  2731  04D5                     u2310:	
  2732  04D5                     l1844:	
  2733  04D5  0A4C               	incf	___flmul@aexp,w
  2734  04D6  1D03               	btfss	3,2
  2735  04D7  2CD9               	goto	u2321
  2736  04D8  2CDA               	goto	u2320
  2737  04D9                     u2321:	
  2738  04D9  2CE2               	goto	l1848
  2739  04DA                     u2320:	
  2740  04DA                     l1846:	
  2741  04DA  3000               	movlw	0
  2742  04DB  00C1               	movwf	___flmul@a+3
  2743  04DC  3000               	movlw	0
  2744  04DD  00C0               	movwf	___flmul@a+2
  2745  04DE  3000               	movlw	0
  2746  04DF  00BF               	movwf	___flmul@a+1
  2747  04E0  3000               	movlw	0
  2748  04E1  00BE               	movwf	___flmul@a
  2749  04E2                     l1848:	
  2750  04E2  17C0               	bsf	___flmul@a+2,7
  2751  04E3  2CEC               	goto	l1852
  2752  04E4                     l1850:	
  2753  04E4  3000               	movlw	0
  2754  04E5  00C1               	movwf	___flmul@a+3
  2755  04E6  3000               	movlw	0
  2756  04E7  00C0               	movwf	___flmul@a+2
  2757  04E8  3000               	movlw	0
  2758  04E9  00BF               	movwf	___flmul@a+1
  2759  04EA  3000               	movlw	0
  2760  04EB  00BE               	movwf	___flmul@a
  2761  04EC                     l1852:	
  2762  04EC  084C               	movf	___flmul@aexp,w
  2763  04ED  1903               	btfsc	3,2
  2764  04EE  2CF0               	goto	u2331
  2765  04EF  2CF1               	goto	u2330
  2766  04F0                     u2331:	
  2767  04F0  2CF6               	goto	l1856
  2768  04F1                     u2330:	
  2769  04F1                     l1854:	
  2770  04F1  084D               	movf	___flmul@bexp,w
  2771  04F2  1D03               	btfss	3,2
  2772  04F3  2CF5               	goto	u2341
  2773  04F4  2CF6               	goto	u2340
  2774  04F5                     u2341:	
  2775  04F5  2CFF               	goto	l1860
  2776  04F6                     u2340:	
  2777  04F6                     l1856:	
  2778  04F6  3000               	movlw	0
  2779  04F7  00BD               	movwf	?___flmul+3
  2780  04F8  3000               	movlw	0
  2781  04F9  00BC               	movwf	?___flmul+2
  2782  04FA  3000               	movlw	0
  2783  04FB  00BB               	movwf	?___flmul+1
  2784  04FC  3000               	movlw	0
  2785  04FD  00BA               	movwf	?___flmul
  2786  04FE  2FF2               	goto	l657
  2787  04FF                     l1860:	
  2788  04FF  083A               	movf	___flmul@b,w
  2789  0500  00C2               	movwf	??___flmul
  2790  0501  0842               	movf	??___flmul,w
  2791  0502  00F0               	movwf	__Umul8_16@multiplicand
  2792  0503  0840               	movf	___flmul@a+2,w
  2793  0504  120A  158A  245F  120A  118A  	fcall	__Umul8_16
  2794  0509  0871               	movf	?__Umul8_16+1,w
  2795  050A  1283               	bcf	3,5	;RP0=0, select bank0
  2796  050B  1303               	bcf	3,6	;RP1=0, select bank0
  2797  050C  00D3               	movwf	___flmul@temp+1
  2798  050D  0870               	movf	?__Umul8_16,w
  2799  050E  00D2               	movwf	___flmul@temp
  2800  050F                     l1862:	
  2801  050F  0852               	movf	___flmul@temp,w
  2802  0510  00C2               	movwf	??___flmul
  2803  0511  01C3               	clrf	??___flmul+1
  2804  0512  01C4               	clrf	??___flmul+2
  2805  0513  01C5               	clrf	??___flmul+3
  2806  0514  0845               	movf	??___flmul+3,w
  2807  0515  00CB               	movwf	___flmul@grs+3
  2808  0516  0844               	movf	??___flmul+2,w
  2809  0517  00CA               	movwf	___flmul@grs+2
  2810  0518  0843               	movf	??___flmul+1,w
  2811  0519  00C9               	movwf	___flmul@grs+1
  2812  051A  0842               	movf	??___flmul,w
  2813  051B  00C8               	movwf	___flmul@grs
  2814  051C                     l1864:	
  2815  051C  0853               	movf	___flmul@temp+1,w
  2816  051D  00C2               	movwf	??___flmul
  2817  051E  01C3               	clrf	??___flmul+1
  2818  051F  01C4               	clrf	??___flmul+2
  2819  0520  01C5               	clrf	??___flmul+3
  2820  0521  0845               	movf	??___flmul+3,w
  2821  0522  00D1               	movwf	___flmul@prod+3
  2822  0523  0844               	movf	??___flmul+2,w
  2823  0524  00D0               	movwf	___flmul@prod+2
  2824  0525  0843               	movf	??___flmul+1,w
  2825  0526  00CF               	movwf	___flmul@prod+1
  2826  0527  0842               	movf	??___flmul,w
  2827  0528  00CE               	movwf	___flmul@prod
  2828  0529  083B               	movf	___flmul@b+1,w
  2829  052A  00C2               	movwf	??___flmul
  2830  052B  0842               	movf	??___flmul,w
  2831  052C  00F0               	movwf	__Umul8_16@multiplicand
  2832  052D  083F               	movf	___flmul@a+1,w
  2833  052E  120A  158A  245F  120A  118A  	fcall	__Umul8_16
  2834  0533  0871               	movf	?__Umul8_16+1,w
  2835  0534  1283               	bcf	3,5	;RP0=0, select bank0
  2836  0535  1303               	bcf	3,6	;RP1=0, select bank0
  2837  0536  00D3               	movwf	___flmul@temp+1
  2838  0537  0870               	movf	?__Umul8_16,w
  2839  0538  00D2               	movwf	___flmul@temp
  2840  0539                     l1866:	
  2841  0539  0852               	movf	___flmul@temp,w
  2842  053A  00C2               	movwf	??___flmul
  2843  053B  01C3               	clrf	??___flmul+1
  2844  053C  01C4               	clrf	??___flmul+2
  2845  053D  01C5               	clrf	??___flmul+3
  2846  053E  0842               	movf	??___flmul,w
  2847  053F  07C8               	addwf	___flmul@grs,f
  2848  0540  0843               	movf	??___flmul+1,w
  2849  0541  1103               	clrz
  2850  0542  1803               	skipnc
  2851  0543  3E01               	addlw	1
  2852  0544  1903               	skipnz
  2853  0545  2D47               	goto	u2351
  2854  0546  07C9               	addwf	___flmul@grs+1,f
  2855  0547                     u2351:	
  2856  0547  0844               	movf	??___flmul+2,w
  2857  0548  1103               	clrz
  2858  0549  1803               	skipnc
  2859  054A  3E01               	addlw	1
  2860  054B  1903               	skipnz
  2861  054C  2D4E               	goto	u2352
  2862  054D  07CA               	addwf	___flmul@grs+2,f
  2863  054E                     u2352:	
  2864  054E  0845               	movf	??___flmul+3,w
  2865  054F  1103               	clrz
  2866  0550  1803               	skipnc
  2867  0551  3E01               	addlw	1
  2868  0552  1903               	skipnz
  2869  0553  2D55               	goto	u2353
  2870  0554  07CB               	addwf	___flmul@grs+3,f
  2871  0555                     u2353:	
  2872  0555                     l1868:	
  2873  0555  0853               	movf	___flmul@temp+1,w
  2874  0556  00C2               	movwf	??___flmul
  2875  0557  01C3               	clrf	??___flmul+1
  2876  0558  01C4               	clrf	??___flmul+2
  2877  0559  01C5               	clrf	??___flmul+3
  2878  055A  0842               	movf	??___flmul,w
  2879  055B  07CE               	addwf	___flmul@prod,f
  2880  055C  0843               	movf	??___flmul+1,w
  2881  055D  1103               	clrz
  2882  055E  1803               	skipnc
  2883  055F  3E01               	addlw	1
  2884  0560  1903               	skipnz
  2885  0561  2D63               	goto	u2361
  2886  0562  07CF               	addwf	___flmul@prod+1,f
  2887  0563                     u2361:	
  2888  0563  0844               	movf	??___flmul+2,w
  2889  0564  1103               	clrz
  2890  0565  1803               	skipnc
  2891  0566  3E01               	addlw	1
  2892  0567  1903               	skipnz
  2893  0568  2D6A               	goto	u2362
  2894  0569  07D0               	addwf	___flmul@prod+2,f
  2895  056A                     u2362:	
  2896  056A  0845               	movf	??___flmul+3,w
  2897  056B  1103               	clrz
  2898  056C  1803               	skipnc
  2899  056D  3E01               	addlw	1
  2900  056E  1903               	skipnz
  2901  056F  2D71               	goto	u2363
  2902  0570  07D1               	addwf	___flmul@prod+3,f
  2903  0571                     u2363:	
  2904  0571  083C               	movf	___flmul@b+2,w
  2905  0572  00C2               	movwf	??___flmul
  2906  0573  0842               	movf	??___flmul,w
  2907  0574  00F0               	movwf	__Umul8_16@multiplicand
  2908  0575  083E               	movf	___flmul@a,w
  2909  0576  120A  158A  245F  120A  118A  	fcall	__Umul8_16
  2910  057B  0871               	movf	?__Umul8_16+1,w
  2911  057C  1283               	bcf	3,5	;RP0=0, select bank0
  2912  057D  1303               	bcf	3,6	;RP1=0, select bank0
  2913  057E  00D3               	movwf	___flmul@temp+1
  2914  057F  0870               	movf	?__Umul8_16,w
  2915  0580  00D2               	movwf	___flmul@temp
  2916  0581                     l1870:	
  2917  0581  0852               	movf	___flmul@temp,w
  2918  0582  00C2               	movwf	??___flmul
  2919  0583  01C3               	clrf	??___flmul+1
  2920  0584  01C4               	clrf	??___flmul+2
  2921  0585  01C5               	clrf	??___flmul+3
  2922  0586  0842               	movf	??___flmul,w
  2923  0587  07C8               	addwf	___flmul@grs,f
  2924  0588  0843               	movf	??___flmul+1,w
  2925  0589  1103               	clrz
  2926  058A  1803               	skipnc
  2927  058B  3E01               	addlw	1
  2928  058C  1903               	skipnz
  2929  058D  2D8F               	goto	u2371
  2930  058E  07C9               	addwf	___flmul@grs+1,f
  2931  058F                     u2371:	
  2932  058F  0844               	movf	??___flmul+2,w
  2933  0590  1103               	clrz
  2934  0591  1803               	skipnc
  2935  0592  3E01               	addlw	1
  2936  0593  1903               	skipnz
  2937  0594  2D96               	goto	u2372
  2938  0595  07CA               	addwf	___flmul@grs+2,f
  2939  0596                     u2372:	
  2940  0596  0845               	movf	??___flmul+3,w
  2941  0597  1103               	clrz
  2942  0598  1803               	skipnc
  2943  0599  3E01               	addlw	1
  2944  059A  1903               	skipnz
  2945  059B  2D9D               	goto	u2373
  2946  059C  07CB               	addwf	___flmul@grs+3,f
  2947  059D                     u2373:	
  2948  059D                     l1872:	
  2949  059D  0853               	movf	___flmul@temp+1,w
  2950  059E  00C2               	movwf	??___flmul
  2951  059F  01C3               	clrf	??___flmul+1
  2952  05A0  01C4               	clrf	??___flmul+2
  2953  05A1  01C5               	clrf	??___flmul+3
  2954  05A2  0842               	movf	??___flmul,w
  2955  05A3  07CE               	addwf	___flmul@prod,f
  2956  05A4  0843               	movf	??___flmul+1,w
  2957  05A5  1103               	clrz
  2958  05A6  1803               	skipnc
  2959  05A7  3E01               	addlw	1
  2960  05A8  1903               	skipnz
  2961  05A9  2DAB               	goto	u2381
  2962  05AA  07CF               	addwf	___flmul@prod+1,f
  2963  05AB                     u2381:	
  2964  05AB  0844               	movf	??___flmul+2,w
  2965  05AC  1103               	clrz
  2966  05AD  1803               	skipnc
  2967  05AE  3E01               	addlw	1
  2968  05AF  1903               	skipnz
  2969  05B0  2DB2               	goto	u2382
  2970  05B1  07D0               	addwf	___flmul@prod+2,f
  2971  05B2                     u2382:	
  2972  05B2  0845               	movf	??___flmul+3,w
  2973  05B3  1103               	clrz
  2974  05B4  1803               	skipnc
  2975  05B5  3E01               	addlw	1
  2976  05B6  1903               	skipnz
  2977  05B7  2DB9               	goto	u2383
  2978  05B8  07D1               	addwf	___flmul@prod+3,f
  2979  05B9                     u2383:	
  2980  05B9                     l1874:	
  2981  05B9  3008               	movlw	8
  2982  05BA  00C2               	movwf	??___flmul
  2983  05BB                     u2395:	
  2984  05BB  1003               	clrc
  2985  05BC  0DC8               	rlf	___flmul@grs,f
  2986  05BD  0DC9               	rlf	___flmul@grs+1,f
  2987  05BE  0DCA               	rlf	___flmul@grs+2,f
  2988  05BF  0DCB               	rlf	___flmul@grs+3,f
  2989  05C0  0BC2               	decfsz	??___flmul,f
  2990  05C1  2DBB               	goto	u2395
  2991  05C2                     l1876:	
  2992  05C2  083B               	movf	___flmul@b+1,w
  2993  05C3  00C2               	movwf	??___flmul
  2994  05C4  0842               	movf	??___flmul,w
  2995  05C5  00F0               	movwf	__Umul8_16@multiplicand
  2996  05C6  083E               	movf	___flmul@a,w
  2997  05C7  120A  158A  245F  120A  118A  	fcall	__Umul8_16
  2998  05CC  0871               	movf	?__Umul8_16+1,w
  2999  05CD  1283               	bcf	3,5	;RP0=0, select bank0
  3000  05CE  1303               	bcf	3,6	;RP1=0, select bank0
  3001  05CF  00D3               	movwf	___flmul@temp+1
  3002  05D0  0870               	movf	?__Umul8_16,w
  3003  05D1  00D2               	movwf	___flmul@temp
  3004  05D2                     l1878:	
  3005  05D2  0852               	movf	___flmul@temp,w
  3006  05D3  00C2               	movwf	??___flmul
  3007  05D4  0853               	movf	___flmul@temp+1,w
  3008  05D5  00C3               	movwf	??___flmul+1
  3009  05D6  01C4               	clrf	??___flmul+2
  3010  05D7  01C5               	clrf	??___flmul+3
  3011  05D8  0842               	movf	??___flmul,w
  3012  05D9  07C8               	addwf	___flmul@grs,f
  3013  05DA  0843               	movf	??___flmul+1,w
  3014  05DB  1103               	clrz
  3015  05DC  1803               	skipnc
  3016  05DD  3E01               	addlw	1
  3017  05DE  1903               	skipnz
  3018  05DF  2DE1               	goto	u2401
  3019  05E0  07C9               	addwf	___flmul@grs+1,f
  3020  05E1                     u2401:	
  3021  05E1  0844               	movf	??___flmul+2,w
  3022  05E2  1103               	clrz
  3023  05E3  1803               	skipnc
  3024  05E4  3E01               	addlw	1
  3025  05E5  1903               	skipnz
  3026  05E6  2DE8               	goto	u2402
  3027  05E7  07CA               	addwf	___flmul@grs+2,f
  3028  05E8                     u2402:	
  3029  05E8  0845               	movf	??___flmul+3,w
  3030  05E9  1103               	clrz
  3031  05EA  1803               	skipnc
  3032  05EB  3E01               	addlw	1
  3033  05EC  1903               	skipnz
  3034  05ED  2DEF               	goto	u2403
  3035  05EE  07CB               	addwf	___flmul@grs+3,f
  3036  05EF                     u2403:	
  3037  05EF                     l1880:	
  3038  05EF  083A               	movf	___flmul@b,w
  3039  05F0  00C2               	movwf	??___flmul
  3040  05F1  0842               	movf	??___flmul,w
  3041  05F2  00F0               	movwf	__Umul8_16@multiplicand
  3042  05F3  083F               	movf	___flmul@a+1,w
  3043  05F4  120A  158A  245F  120A  118A  	fcall	__Umul8_16
  3044  05F9  0871               	movf	?__Umul8_16+1,w
  3045  05FA  1283               	bcf	3,5	;RP0=0, select bank0
  3046  05FB  1303               	bcf	3,6	;RP1=0, select bank0
  3047  05FC  00D3               	movwf	___flmul@temp+1
  3048  05FD  0870               	movf	?__Umul8_16,w
  3049  05FE  00D2               	movwf	___flmul@temp
  3050  05FF                     l1882:	
  3051  05FF  0852               	movf	___flmul@temp,w
  3052  0600  00C2               	movwf	??___flmul
  3053  0601  0853               	movf	___flmul@temp+1,w
  3054  0602  00C3               	movwf	??___flmul+1
  3055  0603  01C4               	clrf	??___flmul+2
  3056  0604  01C5               	clrf	??___flmul+3
  3057  0605  0842               	movf	??___flmul,w
  3058  0606  07C8               	addwf	___flmul@grs,f
  3059  0607  0843               	movf	??___flmul+1,w
  3060  0608  1103               	clrz
  3061  0609  1803               	skipnc
  3062  060A  3E01               	addlw	1
  3063  060B  1903               	skipnz
  3064  060C  2E0E               	goto	u2411
  3065  060D  07C9               	addwf	___flmul@grs+1,f
  3066  060E                     u2411:	
  3067  060E  0844               	movf	??___flmul+2,w
  3068  060F  1103               	clrz
  3069  0610  1803               	skipnc
  3070  0611  3E01               	addlw	1
  3071  0612  1903               	skipnz
  3072  0613  2E15               	goto	u2412
  3073  0614  07CA               	addwf	___flmul@grs+2,f
  3074  0615                     u2412:	
  3075  0615  0845               	movf	??___flmul+3,w
  3076  0616  1103               	clrz
  3077  0617  1803               	skipnc
  3078  0618  3E01               	addlw	1
  3079  0619  1903               	skipnz
  3080  061A  2E1C               	goto	u2413
  3081  061B  07CB               	addwf	___flmul@grs+3,f
  3082  061C                     u2413:	
  3083  061C                     l1884:	
  3084  061C  3008               	movlw	8
  3085  061D  00C2               	movwf	??___flmul
  3086  061E                     u2425:	
  3087  061E  1003               	clrc
  3088  061F  0DC8               	rlf	___flmul@grs,f
  3089  0620  0DC9               	rlf	___flmul@grs+1,f
  3090  0621  0DCA               	rlf	___flmul@grs+2,f
  3091  0622  0DCB               	rlf	___flmul@grs+3,f
  3092  0623  0BC2               	decfsz	??___flmul,f
  3093  0624  2E1E               	goto	u2425
  3094  0625  083A               	movf	___flmul@b,w
  3095  0626  00C2               	movwf	??___flmul
  3096  0627  0842               	movf	??___flmul,w
  3097  0628  00F0               	movwf	__Umul8_16@multiplicand
  3098  0629  083E               	movf	___flmul@a,w
  3099  062A  120A  158A  245F  120A  118A  	fcall	__Umul8_16
  3100  062F  0871               	movf	?__Umul8_16+1,w
  3101  0630  1283               	bcf	3,5	;RP0=0, select bank0
  3102  0631  1303               	bcf	3,6	;RP1=0, select bank0
  3103  0632  00D3               	movwf	___flmul@temp+1
  3104  0633  0870               	movf	?__Umul8_16,w
  3105  0634  00D2               	movwf	___flmul@temp
  3106  0635                     l1886:	
  3107  0635  0852               	movf	___flmul@temp,w
  3108  0636  00C2               	movwf	??___flmul
  3109  0637  0853               	movf	___flmul@temp+1,w
  3110  0638  00C3               	movwf	??___flmul+1
  3111  0639  01C4               	clrf	??___flmul+2
  3112  063A  01C5               	clrf	??___flmul+3
  3113  063B  0842               	movf	??___flmul,w
  3114  063C  07C8               	addwf	___flmul@grs,f
  3115  063D  0843               	movf	??___flmul+1,w
  3116  063E  1103               	clrz
  3117  063F  1803               	skipnc
  3118  0640  3E01               	addlw	1
  3119  0641  1903               	skipnz
  3120  0642  2E44               	goto	u2431
  3121  0643  07C9               	addwf	___flmul@grs+1,f
  3122  0644                     u2431:	
  3123  0644  0844               	movf	??___flmul+2,w
  3124  0645  1103               	clrz
  3125  0646  1803               	skipnc
  3126  0647  3E01               	addlw	1
  3127  0648  1903               	skipnz
  3128  0649  2E4B               	goto	u2432
  3129  064A  07CA               	addwf	___flmul@grs+2,f
  3130  064B                     u2432:	
  3131  064B  0845               	movf	??___flmul+3,w
  3132  064C  1103               	clrz
  3133  064D  1803               	skipnc
  3134  064E  3E01               	addlw	1
  3135  064F  1903               	skipnz
  3136  0650  2E52               	goto	u2433
  3137  0651  07CB               	addwf	___flmul@grs+3,f
  3138  0652                     u2433:	
  3139  0652                     l1888:	
  3140  0652  083B               	movf	___flmul@b+1,w
  3141  0653  00C2               	movwf	??___flmul
  3142  0654  0842               	movf	??___flmul,w
  3143  0655  00F0               	movwf	__Umul8_16@multiplicand
  3144  0656  0840               	movf	___flmul@a+2,w
  3145  0657  120A  158A  245F  120A  118A  	fcall	__Umul8_16
  3146  065C  0871               	movf	?__Umul8_16+1,w
  3147  065D  1283               	bcf	3,5	;RP0=0, select bank0
  3148  065E  1303               	bcf	3,6	;RP1=0, select bank0
  3149  065F  00D3               	movwf	___flmul@temp+1
  3150  0660  0870               	movf	?__Umul8_16,w
  3151  0661  00D2               	movwf	___flmul@temp
  3152  0662  0852               	movf	___flmul@temp,w
  3153  0663  00C2               	movwf	??___flmul
  3154  0664  0853               	movf	___flmul@temp+1,w
  3155  0665  00C3               	movwf	??___flmul+1
  3156  0666  01C4               	clrf	??___flmul+2
  3157  0667  01C5               	clrf	??___flmul+3
  3158  0668  0842               	movf	??___flmul,w
  3159  0669  07CE               	addwf	___flmul@prod,f
  3160  066A  0843               	movf	??___flmul+1,w
  3161  066B  1103               	clrz
  3162  066C  1803               	skipnc
  3163  066D  3E01               	addlw	1
  3164  066E  1903               	skipnz
  3165  066F  2E71               	goto	u2441
  3166  0670  07CF               	addwf	___flmul@prod+1,f
  3167  0671                     u2441:	
  3168  0671  0844               	movf	??___flmul+2,w
  3169  0672  1103               	clrz
  3170  0673  1803               	skipnc
  3171  0674  3E01               	addlw	1
  3172  0675  1903               	skipnz
  3173  0676  2E78               	goto	u2442
  3174  0677  07D0               	addwf	___flmul@prod+2,f
  3175  0678                     u2442:	
  3176  0678  0845               	movf	??___flmul+3,w
  3177  0679  1103               	clrz
  3178  067A  1803               	skipnc
  3179  067B  3E01               	addlw	1
  3180  067C  1903               	skipnz
  3181  067D  2E7F               	goto	u2443
  3182  067E  07D1               	addwf	___flmul@prod+3,f
  3183  067F                     u2443:	
  3184  067F                     l1890:	
  3185  067F  083C               	movf	___flmul@b+2,w
  3186  0680  00C2               	movwf	??___flmul
  3187  0681  0842               	movf	??___flmul,w
  3188  0682  00F0               	movwf	__Umul8_16@multiplicand
  3189  0683  083F               	movf	___flmul@a+1,w
  3190  0684  120A  158A  245F  120A  118A  	fcall	__Umul8_16
  3191  0689  0871               	movf	?__Umul8_16+1,w
  3192  068A  1283               	bcf	3,5	;RP0=0, select bank0
  3193  068B  1303               	bcf	3,6	;RP1=0, select bank0
  3194  068C  00D3               	movwf	___flmul@temp+1
  3195  068D  0870               	movf	?__Umul8_16,w
  3196  068E  00D2               	movwf	___flmul@temp
  3197  068F                     l1892:	
  3198  068F  0852               	movf	___flmul@temp,w
  3199  0690  00C2               	movwf	??___flmul
  3200  0691  0853               	movf	___flmul@temp+1,w
  3201  0692  00C3               	movwf	??___flmul+1
  3202  0693  01C4               	clrf	??___flmul+2
  3203  0694  01C5               	clrf	??___flmul+3
  3204  0695  0842               	movf	??___flmul,w
  3205  0696  07CE               	addwf	___flmul@prod,f
  3206  0697  0843               	movf	??___flmul+1,w
  3207  0698  1103               	clrz
  3208  0699  1803               	skipnc
  3209  069A  3E01               	addlw	1
  3210  069B  1903               	skipnz
  3211  069C  2E9E               	goto	u2451
  3212  069D  07CF               	addwf	___flmul@prod+1,f
  3213  069E                     u2451:	
  3214  069E  0844               	movf	??___flmul+2,w
  3215  069F  1103               	clrz
  3216  06A0  1803               	skipnc
  3217  06A1  3E01               	addlw	1
  3218  06A2  1903               	skipnz
  3219  06A3  2EA5               	goto	u2452
  3220  06A4  07D0               	addwf	___flmul@prod+2,f
  3221  06A5                     u2452:	
  3222  06A5  0845               	movf	??___flmul+3,w
  3223  06A6  1103               	clrz
  3224  06A7  1803               	skipnc
  3225  06A8  3E01               	addlw	1
  3226  06A9  1903               	skipnz
  3227  06AA  2EAC               	goto	u2453
  3228  06AB  07D1               	addwf	___flmul@prod+3,f
  3229  06AC                     u2453:	
  3230  06AC  083C               	movf	___flmul@b+2,w
  3231  06AD  00C2               	movwf	??___flmul
  3232  06AE  0842               	movf	??___flmul,w
  3233  06AF  00F0               	movwf	__Umul8_16@multiplicand
  3234  06B0  0840               	movf	___flmul@a+2,w
  3235  06B1  120A  158A  245F  120A  118A  	fcall	__Umul8_16
  3236  06B6  0871               	movf	?__Umul8_16+1,w
  3237  06B7  1283               	bcf	3,5	;RP0=0, select bank0
  3238  06B8  1303               	bcf	3,6	;RP1=0, select bank0
  3239  06B9  00D3               	movwf	___flmul@temp+1
  3240  06BA  0870               	movf	?__Umul8_16,w
  3241  06BB  00D2               	movwf	___flmul@temp
  3242  06BC                     l1894:	
  3243  06BC  0852               	movf	___flmul@temp,w
  3244  06BD  00C2               	movwf	??___flmul
  3245  06BE  0853               	movf	___flmul@temp+1,w
  3246  06BF  00C3               	movwf	??___flmul+1
  3247  06C0  01C4               	clrf	??___flmul+2
  3248  06C1  01C5               	clrf	??___flmul+3
  3249  06C2  3008               	movlw	8
  3250  06C3                     u2465:	
  3251  06C3  1003               	clrc
  3252  06C4  0DC2               	rlf	??___flmul,f
  3253  06C5  0DC3               	rlf	??___flmul+1,f
  3254  06C6  0DC4               	rlf	??___flmul+2,f
  3255  06C7  0DC5               	rlf	??___flmul+3,f
  3256  06C8                     u2460:	
  3257  06C8  3EFF               	addlw	-1
  3258  06C9  1D03               	skipz
  3259  06CA  2EC3               	goto	u2465
  3260  06CB  0842               	movf	??___flmul,w
  3261  06CC  07CE               	addwf	___flmul@prod,f
  3262  06CD  0843               	movf	??___flmul+1,w
  3263  06CE  1103               	clrz
  3264  06CF  1803               	skipnc
  3265  06D0  3E01               	addlw	1
  3266  06D1  1903               	skipnz
  3267  06D2  2ED4               	goto	u2471
  3268  06D3  07CF               	addwf	___flmul@prod+1,f
  3269  06D4                     u2471:	
  3270  06D4  0844               	movf	??___flmul+2,w
  3271  06D5  1103               	clrz
  3272  06D6  1803               	skipnc
  3273  06D7  3E01               	addlw	1
  3274  06D8  1903               	skipnz
  3275  06D9  2EDB               	goto	u2472
  3276  06DA  07D0               	addwf	___flmul@prod+2,f
  3277  06DB                     u2472:	
  3278  06DB  0845               	movf	??___flmul+3,w
  3279  06DC  1103               	clrz
  3280  06DD  1803               	skipnc
  3281  06DE  3E01               	addlw	1
  3282  06DF  1903               	skipnz
  3283  06E0  2EE2               	goto	u2473
  3284  06E1  07D1               	addwf	___flmul@prod+3,f
  3285  06E2                     u2473:	
  3286  06E2                     l1896:	
  3287  06E2  0848               	movf	___flmul@grs,w
  3288  06E3  00C2               	movwf	??___flmul
  3289  06E4  0849               	movf	___flmul@grs+1,w
  3290  06E5  00C3               	movwf	??___flmul+1
  3291  06E6  084A               	movf	___flmul@grs+2,w
  3292  06E7  00C4               	movwf	??___flmul+2
  3293  06E8  084B               	movf	___flmul@grs+3,w
  3294  06E9  00C5               	movwf	??___flmul+3
  3295  06EA  3018               	movlw	24
  3296  06EB                     u2485:	
  3297  06EB  1003               	clrc
  3298  06EC  0CC5               	rrf	??___flmul+3,f
  3299  06ED  0CC4               	rrf	??___flmul+2,f
  3300  06EE  0CC3               	rrf	??___flmul+1,f
  3301  06EF  0CC2               	rrf	??___flmul,f
  3302  06F0                     u2480:	
  3303  06F0  3EFF               	addlw	-1
  3304  06F1  1D03               	skipz
  3305  06F2  2EEB               	goto	u2485
  3306  06F3  0842               	movf	??___flmul,w
  3307  06F4  07CE               	addwf	___flmul@prod,f
  3308  06F5  0843               	movf	??___flmul+1,w
  3309  06F6  1103               	clrz
  3310  06F7  1803               	skipnc
  3311  06F8  3E01               	addlw	1
  3312  06F9  1903               	skipnz
  3313  06FA  2EFC               	goto	u2491
  3314  06FB  07CF               	addwf	___flmul@prod+1,f
  3315  06FC                     u2491:	
  3316  06FC  0844               	movf	??___flmul+2,w
  3317  06FD  1103               	clrz
  3318  06FE  1803               	skipnc
  3319  06FF  3E01               	addlw	1
  3320  0700  1903               	skipnz
  3321  0701  2F03               	goto	u2492
  3322  0702  07D0               	addwf	___flmul@prod+2,f
  3323  0703                     u2492:	
  3324  0703  0845               	movf	??___flmul+3,w
  3325  0704  1103               	clrz
  3326  0705  1803               	skipnc
  3327  0706  3E01               	addlw	1
  3328  0707  1903               	skipnz
  3329  0708  2F0A               	goto	u2493
  3330  0709  07D1               	addwf	___flmul@prod+3,f
  3331  070A                     u2493:	
  3332  070A                     l1898:	
  3333  070A  3008               	movlw	8
  3334  070B  00C2               	movwf	??___flmul
  3335  070C                     u2505:	
  3336  070C  1003               	clrc
  3337  070D  0DC8               	rlf	___flmul@grs,f
  3338  070E  0DC9               	rlf	___flmul@grs+1,f
  3339  070F  0DCA               	rlf	___flmul@grs+2,f
  3340  0710  0DCB               	rlf	___flmul@grs+3,f
  3341  0711  0BC2               	decfsz	??___flmul,f
  3342  0712  2F0C               	goto	u2505
  3343  0713                     l1900:	
  3344  0713  084D               	movf	___flmul@bexp,w
  3345  0714  074C               	addwf	___flmul@aexp,w
  3346  0715  00C2               	movwf	??___flmul
  3347  0716  01C3               	clrf	??___flmul+1
  3348  0717  0DC3               	rlf	??___flmul+1,f
  3349  0718  0842               	movf	??___flmul,w
  3350  0719  3E82               	addlw	130
  3351  071A  00D2               	movwf	___flmul@temp
  3352  071B  0843               	movf	??___flmul+1,w
  3353  071C  1803               	skipnc
  3354  071D  3E01               	addlw	1
  3355  071E  3EFF               	addlw	255
  3356  071F  00D3               	movwf	___flmul@temp+1
  3357  0720  2F3E               	goto	l1912
  3358  0721                     l1902:	
  3359  0721  3001               	movlw	1
  3360  0722  00C2               	movwf	??___flmul
  3361  0723                     u2515:	
  3362  0723  1003               	clrc
  3363  0724  0DCE               	rlf	___flmul@prod,f
  3364  0725  0DCF               	rlf	___flmul@prod+1,f
  3365  0726  0DD0               	rlf	___flmul@prod+2,f
  3366  0727  0DD1               	rlf	___flmul@prod+3,f
  3367  0728  0BC2               	decfsz	??___flmul,f
  3368  0729  2F23               	goto	u2515
  3369  072A                     l1904:	
  3370  072A  1FCB               	btfss	___flmul@grs+3,7
  3371  072B  2F2D               	goto	u2521
  3372  072C  2F2E               	goto	u2520
  3373  072D                     u2521:	
  3374  072D  2F2F               	goto	l1908
  3375  072E                     u2520:	
  3376  072E                     l1906:	
  3377  072E  144E               	bsf	___flmul@prod,0
  3378  072F                     l1908:	
  3379  072F  3001               	movlw	1
  3380  0730  00C2               	movwf	??___flmul
  3381  0731                     u2535:	
  3382  0731  1003               	clrc
  3383  0732  0DC8               	rlf	___flmul@grs,f
  3384  0733  0DC9               	rlf	___flmul@grs+1,f
  3385  0734  0DCA               	rlf	___flmul@grs+2,f
  3386  0735  0DCB               	rlf	___flmul@grs+3,f
  3387  0736  0BC2               	decfsz	??___flmul,f
  3388  0737  2F31               	goto	u2535
  3389  0738                     l1910:	
  3390  0738  30FF               	movlw	255
  3391  0739  07D2               	addwf	___flmul@temp,f
  3392  073A  1803               	skipnc
  3393  073B  0AD3               	incf	___flmul@temp+1,f
  3394  073C  30FF               	movlw	255
  3395  073D  07D3               	addwf	___flmul@temp+1,f
  3396  073E                     l1912:	
  3397  073E  1FD0               	btfss	___flmul@prod+2,7
  3398  073F  2F41               	goto	u2541
  3399  0740  2F42               	goto	u2540
  3400  0741                     u2541:	
  3401  0741  2F21               	goto	l1902
  3402  0742                     u2540:	
  3403  0742                     l1914:	
  3404  0742  01CC               	clrf	___flmul@aexp
  3405  0743                     l1916:	
  3406  0743  1FCB               	btfss	___flmul@grs+3,7
  3407  0744  2F46               	goto	u2551
  3408  0745  2F47               	goto	u2550
  3409  0746                     u2551:	
  3410  0746  2F63               	goto	l1924
  3411  0747                     u2550:	
  3412  0747                     l1918:	
  3413  0747  30FF               	movlw	255
  3414  0748  0548               	andwf	___flmul@grs,w
  3415  0749  00C2               	movwf	??___flmul
  3416  074A  30FF               	movlw	255
  3417  074B  0549               	andwf	___flmul@grs+1,w
  3418  074C  00C3               	movwf	??___flmul+1
  3419  074D  30FF               	movlw	255
  3420  074E  054A               	andwf	___flmul@grs+2,w
  3421  074F  00C4               	movwf	??___flmul+2
  3422  0750  307F               	movlw	127
  3423  0751  054B               	andwf	___flmul@grs+3,w
  3424  0752  00C5               	movwf	??___flmul+3
  3425  0753  0845               	movf	??___flmul+3,w
  3426  0754  0444               	iorwf	??___flmul+2,w
  3427  0755  0443               	iorwf	??___flmul+1,w
  3428  0756  0442               	iorwf	??___flmul,w
  3429  0757  1903               	skipnz
  3430  0758  2F5A               	goto	u2561
  3431  0759  2F5B               	goto	u2560
  3432  075A                     u2561:	
  3433  075A  2F5E               	goto	l663
  3434  075B                     u2560:	
  3435  075B                     l1920:	
  3436  075B  01CC               	clrf	___flmul@aexp
  3437  075C  0ACC               	incf	___flmul@aexp,f
  3438  075D  2F63               	goto	l1924
  3439  075E                     l663:	
  3440  075E  1C4E               	btfss	___flmul@prod,0
  3441  075F  2F61               	goto	u2571
  3442  0760  2F62               	goto	u2570
  3443  0761                     u2571:	
  3444  0761  2F63               	goto	l1924
  3445  0762                     u2570:	
  3446  0762  2F5B               	goto	l1920
  3447  0763                     l1924:	
  3448  0763  084C               	movf	___flmul@aexp,w
  3449  0764  1903               	btfsc	3,2
  3450  0765  2F67               	goto	u2581
  3451  0766  2F68               	goto	u2580
  3452  0767                     u2581:	
  3453  0767  2F99               	goto	l1934
  3454  0768                     u2580:	
  3455  0768                     l1926:	
  3456  0768  3001               	movlw	1
  3457  0769  07CE               	addwf	___flmul@prod,f
  3458  076A  3000               	movlw	0
  3459  076B  1803               	skipnc
  3460  076C  3001               	movlw	1
  3461  076D  07CF               	addwf	___flmul@prod+1,f
  3462  076E  3000               	movlw	0
  3463  076F  1803               	skipnc
  3464  0770  3001               	movlw	1
  3465  0771  07D0               	addwf	___flmul@prod+2,f
  3466  0772  3000               	movlw	0
  3467  0773  1803               	skipnc
  3468  0774  3001               	movlw	1
  3469  0775  07D1               	addwf	___flmul@prod+3,f
  3470  0776                     l1928:	
  3471  0776  1C51               	btfss	___flmul@prod+3,0
  3472  0777  2F79               	goto	u2591
  3473  0778  2F7A               	goto	u2590
  3474  0779                     u2591:	
  3475  0779  2F99               	goto	l1934
  3476  077A                     u2590:	
  3477  077A                     l1930:	
  3478  077A  084E               	movf	___flmul@prod,w
  3479  077B  00C2               	movwf	??___flmul
  3480  077C  084F               	movf	___flmul@prod+1,w
  3481  077D  00C3               	movwf	??___flmul+1
  3482  077E  0850               	movf	___flmul@prod+2,w
  3483  077F  00C4               	movwf	??___flmul+2
  3484  0780  0851               	movf	___flmul@prod+3,w
  3485  0781  00C5               	movwf	??___flmul+3
  3486  0782  3001               	movlw	1
  3487  0783  00C6               	movwf	??___flmul+4
  3488  0784                     u2605:	
  3489  0784  0D45               	rlf	??___flmul+3,w
  3490  0785  0CC5               	rrf	??___flmul+3,f
  3491  0786  0CC4               	rrf	??___flmul+2,f
  3492  0787  0CC3               	rrf	??___flmul+1,f
  3493  0788  0CC2               	rrf	??___flmul,f
  3494  0789                     u2600:	
  3495  0789  0BC6               	decfsz	??___flmul+4,f
  3496  078A  2F84               	goto	u2605
  3497  078B  0845               	movf	??___flmul+3,w
  3498  078C  00D1               	movwf	___flmul@prod+3
  3499  078D  0844               	movf	??___flmul+2,w
  3500  078E  00D0               	movwf	___flmul@prod+2
  3501  078F  0843               	movf	??___flmul+1,w
  3502  0790  00CF               	movwf	___flmul@prod+1
  3503  0791  0842               	movf	??___flmul,w
  3504  0792  00CE               	movwf	___flmul@prod
  3505  0793                     l1932:	
  3506  0793  3001               	movlw	1
  3507  0794  07D2               	addwf	___flmul@temp,f
  3508  0795  1803               	skipnc
  3509  0796  0AD3               	incf	___flmul@temp+1,f
  3510  0797  3000               	movlw	0
  3511  0798  07D3               	addwf	___flmul@temp+1,f
  3512  0799                     l1934:	
  3513  0799  0853               	movf	___flmul@temp+1,w
  3514  079A  3A80               	xorlw	128
  3515  079B  00FF               	movwf	btemp+1
  3516  079C  3080               	movlw	128
  3517  079D  027F               	subwf	btemp+1,w
  3518  079E  1D03               	skipz
  3519  079F  2FA2               	goto	u2615
  3520  07A0  30FF               	movlw	255
  3521  07A1  0252               	subwf	___flmul@temp,w
  3522  07A2                     u2615:	
  3523  07A2  1C03               	skipc
  3524  07A3  2FA5               	goto	u2611
  3525  07A4  2FA6               	goto	u2610
  3526  07A5                     u2611:	
  3527  07A5  2FB1               	goto	l1938
  3528  07A6                     u2610:	
  3529  07A6                     l1936:	
  3530  07A6  307F               	movlw	127
  3531  07A7  1283               	bcf	3,5	;RP0=0, select bank0
  3532  07A8  1303               	bcf	3,6	;RP1=0, select bank0
  3533  07A9  00D1               	movwf	___flmul@prod+3
  3534  07AA  3080               	movlw	128
  3535  07AB  00D0               	movwf	___flmul@prod+2
  3536  07AC  3000               	movlw	0
  3537  07AD  00CF               	movwf	___flmul@prod+1
  3538  07AE  3000               	movlw	0
  3539  07AF  00CE               	movwf	___flmul@prod
  3540  07B0  2FE6               	goto	l669
  3541  07B1                     l1938:	
  3542  07B1  1283               	bcf	3,5	;RP0=0, select bank0
  3543  07B2  1303               	bcf	3,6	;RP1=0, select bank0
  3544  07B3  0853               	movf	___flmul@temp+1,w
  3545  07B4  3A80               	xorlw	128
  3546  07B5  00FF               	movwf	btemp+1
  3547  07B6  3080               	movlw	128
  3548  07B7  027F               	subwf	btemp+1,w
  3549  07B8  1D03               	skipz
  3550  07B9  2FBC               	goto	u2625
  3551  07BA  3001               	movlw	1
  3552  07BB  0252               	subwf	___flmul@temp,w
  3553  07BC                     u2625:	
  3554  07BC  1803               	skipnc
  3555  07BD  2FBF               	goto	u2621
  3556  07BE  2FC0               	goto	u2620
  3557  07BF                     u2621:	
  3558  07BF  2FCC               	goto	l1944
  3559  07C0                     u2620:	
  3560  07C0                     l1940:	
  3561  07C0  3000               	movlw	0
  3562  07C1  1283               	bcf	3,5	;RP0=0, select bank0
  3563  07C2  1303               	bcf	3,6	;RP1=0, select bank0
  3564  07C3  00D1               	movwf	___flmul@prod+3
  3565  07C4  3000               	movlw	0
  3566  07C5  00D0               	movwf	___flmul@prod+2
  3567  07C6  3000               	movlw	0
  3568  07C7  00CF               	movwf	___flmul@prod+1
  3569  07C8  3000               	movlw	0
  3570  07C9  00CE               	movwf	___flmul@prod
  3571  07CA                     l1942:	
  3572  07CA  01C7               	clrf	___flmul@sign
  3573  07CB  2FE6               	goto	l669
  3574  07CC                     l1944:	
  3575  07CC  1283               	bcf	3,5	;RP0=0, select bank0
  3576  07CD  1303               	bcf	3,6	;RP1=0, select bank0
  3577  07CE  0852               	movf	___flmul@temp,w
  3578  07CF  00C2               	movwf	??___flmul
  3579  07D0  0842               	movf	??___flmul,w
  3580  07D1  00CD               	movwf	___flmul@bexp
  3581  07D2  30FF               	movlw	255
  3582  07D3  05CE               	andwf	___flmul@prod,f
  3583  07D4  30FF               	movlw	255
  3584  07D5  05CF               	andwf	___flmul@prod+1,f
  3585  07D6  307F               	movlw	127
  3586  07D7  05D0               	andwf	___flmul@prod+2,f
  3587  07D8  3000               	movlw	0
  3588  07D9  05D1               	andwf	___flmul@prod+3,f
  3589  07DA                     l1946:	
  3590  07DA  1C4D               	btfss	___flmul@bexp,0
  3591  07DB  2FDD               	goto	u2631
  3592  07DC  2FDE               	goto	u2630
  3593  07DD                     u2631:	
  3594  07DD  2FDF               	goto	l1950
  3595  07DE                     u2630:	
  3596  07DE                     l1948:	
  3597  07DE  17D0               	bsf	___flmul@prod+2,7
  3598  07DF                     l1950:	
  3599  07DF  084D               	movf	___flmul@bexp,w
  3600  07E0  00C2               	movwf	??___flmul
  3601  07E1  1003               	clrc
  3602  07E2  0C42               	rrf	??___flmul,w
  3603  07E3  00C3               	movwf	??___flmul+1
  3604  07E4  0843               	movf	??___flmul+1,w
  3605  07E5  00D1               	movwf	___flmul@prod+3
  3606  07E6                     l669:	
  3607  07E6  0847               	movf	___flmul@sign,w
  3608  07E7  00C2               	movwf	??___flmul
  3609  07E8  0842               	movf	??___flmul,w
  3610  07E9  04D1               	iorwf	___flmul@prod+3,f
  3611  07EA                     l1952:	
  3612  07EA  0851               	movf	___flmul@prod+3,w
  3613  07EB  00BD               	movwf	?___flmul+3
  3614  07EC  0850               	movf	___flmul@prod+2,w
  3615  07ED  00BC               	movwf	?___flmul+2
  3616  07EE  084F               	movf	___flmul@prod+1,w
  3617  07EF  00BB               	movwf	?___flmul+1
  3618  07F0  084E               	movf	___flmul@prod,w
  3619  07F1  00BA               	movwf	?___flmul
  3620  07F2                     l657:	
  3621  07F2  0008               	return
  3622  07F3                     __end_of___flmul:	
  3623                           
  3624                           	psect	text10
  3625  0C5F                     __ptext10:	
  3626 ;; *************** function __Umul8_16 *****************
  3627 ;; Defined at:
  3628 ;;		line 4 in file "C:\Program Files (x86)\Microchip\xc8\v2.10\pic\sources\c90\common\Umul8_16.c"
  3629 ;; Parameters:    Size  Location     Type
  3630 ;;  multiplier      1    wreg     unsigned char 
  3631 ;;  multiplicand    1    0[COMMON] unsigned char 
  3632 ;; Auto vars:     Size  Location     Type
  3633 ;;  multiplier      1    8[COMMON] unsigned char 
  3634 ;;  word_mpld       2    6[COMMON] unsigned int 
  3635 ;;  product         2    4[COMMON] unsigned int 
  3636 ;; Return value:  Size  Location     Type
  3637 ;;                  2    0[COMMON] unsigned int 
  3638 ;; Registers used:
  3639 ;;		wreg, status,2, status,0
  3640 ;; Tracked objects:
  3641 ;;		On entry : 0/0
  3642 ;;		On exit  : 0/0
  3643 ;;		Unchanged: 0/0
  3644 ;; Data sizes:     COMMON   BANK0   BANK1   BANK3   BANK2
  3645 ;;      Params:         2       0       0       0       0
  3646 ;;      Locals:         5       0       0       0       0
  3647 ;;      Temps:          2       0       0       0       0
  3648 ;;      Totals:         9       0       0       0       0
  3649 ;;Total ram usage:        9 bytes
  3650 ;; Hardware stack levels used:    1
  3651 ;; This function calls:
  3652 ;;		Nothing
  3653 ;; This function is called by:
  3654 ;;		___flmul
  3655 ;; This function uses a non-reentrant model
  3656 ;;
  3657                           
  3658                           
  3659                           ;psect for function __Umul8_16
  3660  0C5F                     __Umul8_16:	
  3661                           
  3662                           ;incstack = 0
  3663                           ; Regs used in __Umul8_16: [wreg+status,2+status,0]
  3664                           ;__Umul8_16@multiplier stored from wreg
  3665  0C5F  00F8               	movwf	__Umul8_16@multiplier
  3666  0C60                     l1570:	
  3667  0C60  01F4               	clrf	__Umul8_16@product
  3668  0C61  01F5               	clrf	__Umul8_16@product+1
  3669  0C62                     l1572:	
  3670  0C62  0870               	movf	__Umul8_16@multiplicand,w
  3671  0C63  00F2               	movwf	??__Umul8_16
  3672  0C64  01F3               	clrf	??__Umul8_16+1
  3673  0C65  0872               	movf	??__Umul8_16,w
  3674  0C66  00F6               	movwf	__Umul8_16@word_mpld
  3675  0C67  0873               	movf	??__Umul8_16+1,w
  3676  0C68  00F7               	movwf	__Umul8_16@word_mpld+1
  3677  0C69                     l1574:	
  3678  0C69  1C78               	btfss	__Umul8_16@multiplier,0
  3679  0C6A  2C6C               	goto	u1681
  3680  0C6B  2C6D               	goto	u1680
  3681  0C6C                     u1681:	
  3682  0C6C  2C73               	goto	l714
  3683  0C6D                     u1680:	
  3684  0C6D                     l1576:	
  3685  0C6D  0876               	movf	__Umul8_16@word_mpld,w
  3686  0C6E  07F4               	addwf	__Umul8_16@product,f
  3687  0C6F  1803               	skipnc
  3688  0C70  0AF5               	incf	__Umul8_16@product+1,f
  3689  0C71  0877               	movf	__Umul8_16@word_mpld+1,w
  3690  0C72  07F5               	addwf	__Umul8_16@product+1,f
  3691  0C73                     l714:	
  3692  0C73  3001               	movlw	1
  3693  0C74                     u1695:	
  3694  0C74  1003               	clrc
  3695  0C75  0DF6               	rlf	__Umul8_16@word_mpld,f
  3696  0C76  0DF7               	rlf	__Umul8_16@word_mpld+1,f
  3697  0C77  3EFF               	addlw	-1
  3698  0C78  1D03               	skipz
  3699  0C79  2C74               	goto	u1695
  3700  0C7A  1003               	clrc
  3701  0C7B  0CF8               	rrf	__Umul8_16@multiplier,f
  3702  0C7C                     l1578:	
  3703  0C7C  0878               	movf	__Umul8_16@multiplier,w
  3704  0C7D  1D03               	btfss	3,2
  3705  0C7E  2C80               	goto	u1701
  3706  0C7F  2C81               	goto	u1700
  3707  0C80                     u1701:	
  3708  0C80  2C69               	goto	l1574
  3709  0C81                     u1700:	
  3710  0C81                     l1580:	
  3711  0C81  0875               	movf	__Umul8_16@product+1,w
  3712  0C82  00F1               	movwf	?__Umul8_16+1
  3713  0C83  0874               	movf	__Umul8_16@product,w
  3714  0C84  00F0               	movwf	?__Umul8_16
  3715  0C85                     l716:	
  3716  0C85  0008               	return
  3717  0C86                     __end_of__Umul8_16:	
  3718                           
  3719                           	psect	text11
  3720  02B5                     __ptext11:	
  3721 ;; *************** function ___fldiv *****************
  3722 ;; Defined at:
  3723 ;;		line 8 in file "C:\Program Files (x86)\Microchip\xc8\v2.10\pic\sources\c90\common\sprcdiv.c"
  3724 ;; Parameters:    Size  Location     Type
  3725 ;;  a               4    0[BANK0 ] unsigned int 
  3726 ;;  b               4    4[BANK0 ] unsigned int 
  3727 ;; Auto vars:     Size  Location     Type
  3728 ;;  grs             4   20[BANK0 ] unsigned long 
  3729 ;;  rem             4   13[BANK0 ] unsigned long 
  3730 ;;  new_exp         2   18[BANK0 ] int 
  3731 ;;  aexp            1   25[BANK0 ] unsigned char 
  3732 ;;  bexp            1   24[BANK0 ] unsigned char 
  3733 ;;  sign            1   17[BANK0 ] unsigned char 
  3734 ;; Return value:  Size  Location     Type
  3735 ;;                  4    0[BANK0 ] unsigned char 
  3736 ;; Registers used:
  3737 ;;		wreg, status,2, status,0, btemp+1
  3738 ;; Tracked objects:
  3739 ;;		On entry : 0/0
  3740 ;;		On exit  : 0/0
  3741 ;;		Unchanged: 0/0
  3742 ;; Data sizes:     COMMON   BANK0   BANK1   BANK3   BANK2
  3743 ;;      Params:         0       8       0       0       0
  3744 ;;      Locals:         0      13       0       0       0
  3745 ;;      Temps:          0       5       0       0       0
  3746 ;;      Totals:         0      26       0       0       0
  3747 ;;Total ram usage:       26 bytes
  3748 ;; Hardware stack levels used:    1
  3749 ;; This function calls:
  3750 ;;		Nothing
  3751 ;; This function is called by:
  3752 ;;		_pwmDuty
  3753 ;; This function uses a non-reentrant model
  3754 ;;
  3755                           
  3756                           
  3757                           ;psect for function ___fldiv
  3758  02B5                     ___fldiv:	
  3759  02B5                     l1674:	
  3760                           ;incstack = 0
  3761                           ; Regs used in ___fldiv: [wreg+status,2+status,0+btemp+1]
  3762                           
  3763  02B5  1283               	bcf	3,5	;RP0=0, select bank0
  3764  02B6  1303               	bcf	3,6	;RP1=0, select bank0
  3765  02B7  0827               	movf	___fldiv@b+3,w
  3766  02B8  3980               	andlw	128
  3767  02B9  00A8               	movwf	??___fldiv
  3768  02BA  0828               	movf	??___fldiv,w
  3769  02BB  00B1               	movwf	___fldiv@sign
  3770  02BC                     l1676:	
  3771  02BC  0827               	movf	___fldiv@b+3,w
  3772  02BD  00A8               	movwf	??___fldiv
  3773  02BE  0728               	addwf	??___fldiv,w
  3774  02BF  00A9               	movwf	??___fldiv+1
  3775  02C0  0829               	movf	??___fldiv+1,w
  3776  02C1  00B8               	movwf	___fldiv@bexp
  3777  02C2                     l1678:	
  3778  02C2  1FA6               	btfss	___fldiv@b+2,7
  3779  02C3  2AC5               	goto	u1981
  3780  02C4  2AC6               	goto	u1980
  3781  02C5                     u1981:	
  3782  02C5  2AC7               	goto	l1682
  3783  02C6                     u1980:	
  3784  02C6                     l1680:	
  3785  02C6  1438               	bsf	___fldiv@bexp,0
  3786  02C7                     l1682:	
  3787  02C7  0838               	movf	___fldiv@bexp,w
  3788  02C8  1903               	btfsc	3,2
  3789  02C9  2ACB               	goto	u1991
  3790  02CA  2ACC               	goto	u1990
  3791  02CB                     u1991:	
  3792  02CB  2ADC               	goto	l1692
  3793  02CC                     u1990:	
  3794  02CC                     l1684:	
  3795  02CC  0A38               	incf	___fldiv@bexp,w
  3796  02CD  1D03               	btfss	3,2
  3797  02CE  2AD0               	goto	u2001
  3798  02CF  2AD1               	goto	u2000
  3799  02D0                     u2001:	
  3800  02D0  2AD9               	goto	l1688
  3801  02D1                     u2000:	
  3802  02D1                     l1686:	
  3803  02D1  3000               	movlw	0
  3804  02D2  00A7               	movwf	___fldiv@b+3
  3805  02D3  3000               	movlw	0
  3806  02D4  00A6               	movwf	___fldiv@b+2
  3807  02D5  3000               	movlw	0
  3808  02D6  00A5               	movwf	___fldiv@b+1
  3809  02D7  3000               	movlw	0
  3810  02D8  00A4               	movwf	___fldiv@b
  3811  02D9                     l1688:	
  3812  02D9  17A6               	bsf	___fldiv@b+2,7
  3813  02DA                     l1690:	
  3814  02DA  01A7               	clrf	___fldiv@b+3
  3815  02DB  2AE4               	goto	l1694
  3816  02DC                     l1692:	
  3817  02DC  3000               	movlw	0
  3818  02DD  00A7               	movwf	___fldiv@b+3
  3819  02DE  3000               	movlw	0
  3820  02DF  00A6               	movwf	___fldiv@b+2
  3821  02E0  3000               	movlw	0
  3822  02E1  00A5               	movwf	___fldiv@b+1
  3823  02E2  3000               	movlw	0
  3824  02E3  00A4               	movwf	___fldiv@b
  3825  02E4                     l1694:	
  3826  02E4  0823               	movf	___fldiv@a+3,w
  3827  02E5  3980               	andlw	128
  3828  02E6  00A8               	movwf	??___fldiv
  3829  02E7  0828               	movf	??___fldiv,w
  3830  02E8  06B1               	xorwf	___fldiv@sign,f
  3831  02E9                     l1696:	
  3832  02E9  0823               	movf	___fldiv@a+3,w
  3833  02EA  00A8               	movwf	??___fldiv
  3834  02EB  0728               	addwf	??___fldiv,w
  3835  02EC  00A9               	movwf	??___fldiv+1
  3836  02ED  0829               	movf	??___fldiv+1,w
  3837  02EE  00B9               	movwf	___fldiv@aexp
  3838  02EF                     l1698:	
  3839  02EF  1FA2               	btfss	___fldiv@a+2,7
  3840  02F0  2AF2               	goto	u2011
  3841  02F1  2AF3               	goto	u2010
  3842  02F2                     u2011:	
  3843  02F2  2AF4               	goto	l1702
  3844  02F3                     u2010:	
  3845  02F3                     l1700:	
  3846  02F3  1439               	bsf	___fldiv@aexp,0
  3847  02F4                     l1702:	
  3848  02F4  0839               	movf	___fldiv@aexp,w
  3849  02F5  1903               	btfsc	3,2
  3850  02F6  2AF8               	goto	u2021
  3851  02F7  2AF9               	goto	u2020
  3852  02F8                     u2021:	
  3853  02F8  2B09               	goto	l1712
  3854  02F9                     u2020:	
  3855  02F9                     l1704:	
  3856  02F9  0A39               	incf	___fldiv@aexp,w
  3857  02FA  1D03               	btfss	3,2
  3858  02FB  2AFD               	goto	u2031
  3859  02FC  2AFE               	goto	u2030
  3860  02FD                     u2031:	
  3861  02FD  2B06               	goto	l1708
  3862  02FE                     u2030:	
  3863  02FE                     l1706:	
  3864  02FE  3000               	movlw	0
  3865  02FF  00A3               	movwf	___fldiv@a+3
  3866  0300  3000               	movlw	0
  3867  0301  00A2               	movwf	___fldiv@a+2
  3868  0302  3000               	movlw	0
  3869  0303  00A1               	movwf	___fldiv@a+1
  3870  0304  3000               	movlw	0
  3871  0305  00A0               	movwf	___fldiv@a
  3872  0306                     l1708:	
  3873  0306  17A2               	bsf	___fldiv@a+2,7
  3874  0307                     l1710:	
  3875  0307  01A3               	clrf	___fldiv@a+3
  3876  0308  2B11               	goto	l617
  3877  0309                     l1712:	
  3878  0309  3000               	movlw	0
  3879  030A  00A3               	movwf	___fldiv@a+3
  3880  030B  3000               	movlw	0
  3881  030C  00A2               	movwf	___fldiv@a+2
  3882  030D  3000               	movlw	0
  3883  030E  00A1               	movwf	___fldiv@a+1
  3884  030F  3000               	movlw	0
  3885  0310  00A0               	movwf	___fldiv@a
  3886  0311                     l617:	
  3887  0311  0823               	movf	___fldiv@a+3,w
  3888  0312  0422               	iorwf	___fldiv@a+2,w
  3889  0313  0421               	iorwf	___fldiv@a+1,w
  3890  0314  0420               	iorwf	___fldiv@a,w
  3891  0315  1D03               	skipz
  3892  0316  2B18               	goto	u2041
  3893  0317  2B19               	goto	u2040
  3894  0318                     u2041:	
  3895  0318  2B32               	goto	l1722
  3896  0319                     u2040:	
  3897  0319                     l1714:	
  3898  0319  3000               	movlw	0
  3899  031A  00A7               	movwf	___fldiv@b+3
  3900  031B  3000               	movlw	0
  3901  031C  00A6               	movwf	___fldiv@b+2
  3902  031D  3000               	movlw	0
  3903  031E  00A5               	movwf	___fldiv@b+1
  3904  031F  3000               	movlw	0
  3905  0320  00A4               	movwf	___fldiv@b
  3906  0321  3080               	movlw	128
  3907  0322  04A6               	iorwf	___fldiv@b+2,f
  3908  0323  307F               	movlw	127
  3909  0324  04A7               	iorwf	___fldiv@b+3,f
  3910  0325                     l1716:	
  3911  0325  0831               	movf	___fldiv@sign,w
  3912  0326  00A8               	movwf	??___fldiv
  3913  0327  0828               	movf	??___fldiv,w
  3914  0328  04A7               	iorwf	___fldiv@b+3,f
  3915  0329                     l1718:	
  3916  0329  0827               	movf	___fldiv@b+3,w
  3917  032A  00A3               	movwf	?___fldiv+3
  3918  032B  0826               	movf	___fldiv@b+2,w
  3919  032C  00A2               	movwf	?___fldiv+2
  3920  032D  0825               	movf	___fldiv@b+1,w
  3921  032E  00A1               	movwf	?___fldiv+1
  3922  032F  0824               	movf	___fldiv@b,w
  3923  0330  00A0               	movwf	?___fldiv
  3924  0331  2C91               	goto	l619
  3925  0332                     l1722:	
  3926  0332  0838               	movf	___fldiv@bexp,w
  3927  0333  1D03               	btfss	3,2
  3928  0334  2B36               	goto	u2051
  3929  0335  2B37               	goto	u2050
  3930  0336                     u2051:	
  3931  0336  2B40               	goto	l1728
  3932  0337                     u2050:	
  3933  0337                     l1724:	
  3934  0337  3000               	movlw	0
  3935  0338  00A3               	movwf	?___fldiv+3
  3936  0339  3000               	movlw	0
  3937  033A  00A2               	movwf	?___fldiv+2
  3938  033B  3000               	movlw	0
  3939  033C  00A1               	movwf	?___fldiv+1
  3940  033D  3000               	movlw	0
  3941  033E  00A0               	movwf	?___fldiv
  3942  033F  2C91               	goto	l619
  3943  0340                     l1728:	
  3944  0340  0838               	movf	___fldiv@bexp,w
  3945  0341  00A8               	movwf	??___fldiv
  3946  0342  01A9               	clrf	??___fldiv+1
  3947  0343  0829               	movf	??___fldiv+1,w
  3948  0344  00AB               	movwf	??___fldiv+3
  3949  0345  0839               	movf	___fldiv@aexp,w
  3950  0346  0228               	subwf	??___fldiv,w
  3951  0347  00AA               	movwf	??___fldiv+2
  3952  0348  1C03               	skipc
  3953  0349  03AB               	decf	??___fldiv+3,f
  3954  034A  082A               	movf	??___fldiv+2,w
  3955  034B  3E7F               	addlw	127
  3956  034C  00B2               	movwf	___fldiv@new_exp
  3957  034D  082B               	movf	??___fldiv+3,w
  3958  034E  1803               	skipnc
  3959  034F  3E01               	addlw	1
  3960  0350  3E00               	addlw	0
  3961  0351  00B3               	movwf	___fldiv@new_exp+1
  3962  0352                     l1730:	
  3963  0352  0827               	movf	___fldiv@b+3,w
  3964  0353  00B0               	movwf	___fldiv@rem+3
  3965  0354  0826               	movf	___fldiv@b+2,w
  3966  0355  00AF               	movwf	___fldiv@rem+2
  3967  0356  0825               	movf	___fldiv@b+1,w
  3968  0357  00AE               	movwf	___fldiv@rem+1
  3969  0358  0824               	movf	___fldiv@b,w
  3970  0359  00AD               	movwf	___fldiv@rem
  3971  035A                     l1732:	
  3972  035A  3000               	movlw	0
  3973  035B  00A7               	movwf	___fldiv@b+3
  3974  035C  3000               	movlw	0
  3975  035D  00A6               	movwf	___fldiv@b+2
  3976  035E  3000               	movlw	0
  3977  035F  00A5               	movwf	___fldiv@b+1
  3978  0360  3000               	movlw	0
  3979  0361  00A4               	movwf	___fldiv@b
  3980  0362                     l1734:	
  3981  0362  3000               	movlw	0
  3982  0363  00B7               	movwf	___fldiv@grs+3
  3983  0364  3000               	movlw	0
  3984  0365  00B6               	movwf	___fldiv@grs+2
  3985  0366  3000               	movlw	0
  3986  0367  00B5               	movwf	___fldiv@grs+1
  3987  0368  3000               	movlw	0
  3988  0369  00B4               	movwf	___fldiv@grs
  3989  036A                     l1736:	
  3990  036A  01B9               	clrf	___fldiv@aexp
  3991  036B  2BB6               	goto	l1756
  3992  036C                     l1738:	
  3993  036C  0839               	movf	___fldiv@aexp,w
  3994  036D  1903               	btfsc	3,2
  3995  036E  2B70               	goto	u2061
  3996  036F  2B71               	goto	u2060
  3997  0370                     u2061:	
  3998  0370  2B91               	goto	l1748
  3999  0371                     u2060:	
  4000  0371                     l1740:	
  4001  0371  3001               	movlw	1
  4002  0372  00A8               	movwf	??___fldiv
  4003  0373                     u2075:	
  4004  0373  1003               	clrc
  4005  0374  0DAD               	rlf	___fldiv@rem,f
  4006  0375  0DAE               	rlf	___fldiv@rem+1,f
  4007  0376  0DAF               	rlf	___fldiv@rem+2,f
  4008  0377  0DB0               	rlf	___fldiv@rem+3,f
  4009  0378  0BA8               	decfsz	??___fldiv,f
  4010  0379  2B73               	goto	u2075
  4011  037A  3001               	movlw	1
  4012  037B  00A8               	movwf	??___fldiv
  4013  037C                     u2085:	
  4014  037C  1003               	clrc
  4015  037D  0DA4               	rlf	___fldiv@b,f
  4016  037E  0DA5               	rlf	___fldiv@b+1,f
  4017  037F  0DA6               	rlf	___fldiv@b+2,f
  4018  0380  0DA7               	rlf	___fldiv@b+3,f
  4019  0381  0BA8               	decfsz	??___fldiv,f
  4020  0382  2B7C               	goto	u2085
  4021  0383                     l1742:	
  4022  0383  1FB7               	btfss	___fldiv@grs+3,7
  4023  0384  2B86               	goto	u2091
  4024  0385  2B87               	goto	u2090
  4025  0386                     u2091:	
  4026  0386  2B88               	goto	l1746
  4027  0387                     u2090:	
  4028  0387                     l1744:	
  4029  0387  1424               	bsf	___fldiv@b,0
  4030  0388                     l1746:	
  4031  0388  3001               	movlw	1
  4032  0389  00A8               	movwf	??___fldiv
  4033  038A                     u2105:	
  4034  038A  1003               	clrc
  4035  038B  0DB4               	rlf	___fldiv@grs,f
  4036  038C  0DB5               	rlf	___fldiv@grs+1,f
  4037  038D  0DB6               	rlf	___fldiv@grs+2,f
  4038  038E  0DB7               	rlf	___fldiv@grs+3,f
  4039  038F  0BA8               	decfsz	??___fldiv,f
  4040  0390  2B8A               	goto	u2105
  4041  0391                     l1748:	
  4042  0391  0823               	movf	___fldiv@a+3,w
  4043  0392  0230               	subwf	___fldiv@rem+3,w
  4044  0393  1D03               	skipz
  4045  0394  2B9F               	goto	u2115
  4046  0395  0822               	movf	___fldiv@a+2,w
  4047  0396  022F               	subwf	___fldiv@rem+2,w
  4048  0397  1D03               	skipz
  4049  0398  2B9F               	goto	u2115
  4050  0399  0821               	movf	___fldiv@a+1,w
  4051  039A  022E               	subwf	___fldiv@rem+1,w
  4052  039B  1D03               	skipz
  4053  039C  2B9F               	goto	u2115
  4054  039D  0820               	movf	___fldiv@a,w
  4055  039E  022D               	subwf	___fldiv@rem,w
  4056  039F                     u2115:	
  4057  039F  1C03               	skipc
  4058  03A0  2BA2               	goto	u2111
  4059  03A1  2BA3               	goto	u2110
  4060  03A2                     u2111:	
  4061  03A2  2BB2               	goto	l1754
  4062  03A3                     u2110:	
  4063  03A3                     l1750:	
  4064  03A3  1737               	bsf	___fldiv@grs+3,6
  4065  03A4                     l1752:	
  4066  03A4  0820               	movf	___fldiv@a,w
  4067  03A5  02AD               	subwf	___fldiv@rem,f
  4068  03A6  0821               	movf	___fldiv@a+1,w
  4069  03A7  1C03               	skipc
  4070  03A8  0F21               	incfsz	___fldiv@a+1,w
  4071  03A9  02AE               	subwf	___fldiv@rem+1,f
  4072  03AA  0822               	movf	___fldiv@a+2,w
  4073  03AB  1C03               	skipc
  4074  03AC  0F22               	incfsz	___fldiv@a+2,w
  4075  03AD  02AF               	subwf	___fldiv@rem+2,f
  4076  03AE  0823               	movf	___fldiv@a+3,w
  4077  03AF  1C03               	skipc
  4078  03B0  0F23               	incfsz	___fldiv@a+3,w
  4079  03B1  02B0               	subwf	___fldiv@rem+3,f
  4080  03B2                     l1754:	
  4081  03B2  3001               	movlw	1
  4082  03B3  00A8               	movwf	??___fldiv
  4083  03B4  0828               	movf	??___fldiv,w
  4084  03B5  07B9               	addwf	___fldiv@aexp,f
  4085  03B6                     l1756:	
  4086  03B6  301A               	movlw	26
  4087  03B7  0239               	subwf	___fldiv@aexp,w
  4088  03B8  1C03               	skipc
  4089  03B9  2BBB               	goto	u2121
  4090  03BA  2BBC               	goto	u2120
  4091  03BB                     u2121:	
  4092  03BB  2B6C               	goto	l1738
  4093  03BC                     u2120:	
  4094  03BC                     l1758:	
  4095  03BC  0830               	movf	___fldiv@rem+3,w
  4096  03BD  042F               	iorwf	___fldiv@rem+2,w
  4097  03BE  042E               	iorwf	___fldiv@rem+1,w
  4098  03BF  042D               	iorwf	___fldiv@rem,w
  4099  03C0  1903               	skipnz
  4100  03C1  2BC3               	goto	u2131
  4101  03C2  2BC4               	goto	u2130
  4102  03C3                     u2131:	
  4103  03C3  2BE3               	goto	l1772
  4104  03C4                     u2130:	
  4105  03C4                     l1760:	
  4106  03C4  1434               	bsf	___fldiv@grs,0
  4107  03C5  2BE3               	goto	l1772
  4108  03C6                     l1762:	
  4109  03C6  3001               	movlw	1
  4110  03C7  00A8               	movwf	??___fldiv
  4111  03C8                     u2145:	
  4112  03C8  1003               	clrc
  4113  03C9  0DA4               	rlf	___fldiv@b,f
  4114  03CA  0DA5               	rlf	___fldiv@b+1,f
  4115  03CB  0DA6               	rlf	___fldiv@b+2,f
  4116  03CC  0DA7               	rlf	___fldiv@b+3,f
  4117  03CD  0BA8               	decfsz	??___fldiv,f
  4118  03CE  2BC8               	goto	u2145
  4119  03CF                     l1764:	
  4120  03CF  1FB7               	btfss	___fldiv@grs+3,7
  4121  03D0  2BD2               	goto	u2151
  4122  03D1  2BD3               	goto	u2150
  4123  03D2                     u2151:	
  4124  03D2  2BD4               	goto	l1768
  4125  03D3                     u2150:	
  4126  03D3                     l1766:	
  4127  03D3  1424               	bsf	___fldiv@b,0
  4128  03D4                     l1768:	
  4129  03D4  3001               	movlw	1
  4130  03D5  00A8               	movwf	??___fldiv
  4131  03D6                     u2165:	
  4132  03D6  1003               	clrc
  4133  03D7  0DB4               	rlf	___fldiv@grs,f
  4134  03D8  0DB5               	rlf	___fldiv@grs+1,f
  4135  03D9  0DB6               	rlf	___fldiv@grs+2,f
  4136  03DA  0DB7               	rlf	___fldiv@grs+3,f
  4137  03DB  0BA8               	decfsz	??___fldiv,f
  4138  03DC  2BD6               	goto	u2165
  4139  03DD                     l1770:	
  4140  03DD  30FF               	movlw	255
  4141  03DE  07B2               	addwf	___fldiv@new_exp,f
  4142  03DF  1803               	skipnc
  4143  03E0  0AB3               	incf	___fldiv@new_exp+1,f
  4144  03E1  30FF               	movlw	255
  4145  03E2  07B3               	addwf	___fldiv@new_exp+1,f
  4146  03E3                     l1772:	
  4147  03E3  1FA6               	btfss	___fldiv@b+2,7
  4148  03E4  2BE6               	goto	u2171
  4149  03E5  2BE7               	goto	u2170
  4150  03E6                     u2171:	
  4151  03E6  2BC6               	goto	l1762
  4152  03E7                     u2170:	
  4153  03E7                     l1774:	
  4154  03E7  01B9               	clrf	___fldiv@aexp
  4155  03E8                     l1776:	
  4156  03E8  1FB7               	btfss	___fldiv@grs+3,7
  4157  03E9  2BEB               	goto	u2181
  4158  03EA  2BEC               	goto	u2180
  4159  03EB                     u2181:	
  4160  03EB  2C08               	goto	l1784
  4161  03EC                     u2180:	
  4162  03EC                     l1778:	
  4163  03EC  30FF               	movlw	255
  4164  03ED  0534               	andwf	___fldiv@grs,w
  4165  03EE  00A8               	movwf	??___fldiv
  4166  03EF  30FF               	movlw	255
  4167  03F0  0535               	andwf	___fldiv@grs+1,w
  4168  03F1  00A9               	movwf	??___fldiv+1
  4169  03F2  30FF               	movlw	255
  4170  03F3  0536               	andwf	___fldiv@grs+2,w
  4171  03F4  00AA               	movwf	??___fldiv+2
  4172  03F5  307F               	movlw	127
  4173  03F6  0537               	andwf	___fldiv@grs+3,w
  4174  03F7  00AB               	movwf	??___fldiv+3
  4175  03F8  082B               	movf	??___fldiv+3,w
  4176  03F9  042A               	iorwf	??___fldiv+2,w
  4177  03FA  0429               	iorwf	??___fldiv+1,w
  4178  03FB  0428               	iorwf	??___fldiv,w
  4179  03FC  1903               	skipnz
  4180  03FD  2BFF               	goto	u2191
  4181  03FE  2C00               	goto	u2190
  4182  03FF                     u2191:	
  4183  03FF  2C03               	goto	l633
  4184  0400                     u2190:	
  4185  0400                     l1780:	
  4186  0400  01B9               	clrf	___fldiv@aexp
  4187  0401  0AB9               	incf	___fldiv@aexp,f
  4188  0402  2C08               	goto	l1784
  4189  0403                     l633:	
  4190  0403  1C24               	btfss	___fldiv@b,0
  4191  0404  2C06               	goto	u2201
  4192  0405  2C07               	goto	u2200
  4193  0406                     u2201:	
  4194  0406  2C08               	goto	l1784
  4195  0407                     u2200:	
  4196  0407  2C00               	goto	l1780
  4197  0408                     l1784:	
  4198  0408  0839               	movf	___fldiv@aexp,w
  4199  0409  1903               	btfsc	3,2
  4200  040A  2C0C               	goto	u2211
  4201  040B  2C0D               	goto	u2210
  4202  040C                     u2211:	
  4203  040C  2C3E               	goto	l1794
  4204  040D                     u2210:	
  4205  040D                     l1786:	
  4206  040D  3001               	movlw	1
  4207  040E  07A4               	addwf	___fldiv@b,f
  4208  040F  3000               	movlw	0
  4209  0410  1803               	skipnc
  4210  0411  3001               	movlw	1
  4211  0412  07A5               	addwf	___fldiv@b+1,f
  4212  0413  3000               	movlw	0
  4213  0414  1803               	skipnc
  4214  0415  3001               	movlw	1
  4215  0416  07A6               	addwf	___fldiv@b+2,f
  4216  0417  3000               	movlw	0
  4217  0418  1803               	skipnc
  4218  0419  3001               	movlw	1
  4219  041A  07A7               	addwf	___fldiv@b+3,f
  4220  041B                     l1788:	
  4221  041B  1C27               	btfss	___fldiv@b+3,0
  4222  041C  2C1E               	goto	u2221
  4223  041D  2C1F               	goto	u2220
  4224  041E                     u2221:	
  4225  041E  2C3E               	goto	l1794
  4226  041F                     u2220:	
  4227  041F                     l1790:	
  4228  041F  0824               	movf	___fldiv@b,w
  4229  0420  00A8               	movwf	??___fldiv
  4230  0421  0825               	movf	___fldiv@b+1,w
  4231  0422  00A9               	movwf	??___fldiv+1
  4232  0423  0826               	movf	___fldiv@b+2,w
  4233  0424  00AA               	movwf	??___fldiv+2
  4234  0425  0827               	movf	___fldiv@b+3,w
  4235  0426  00AB               	movwf	??___fldiv+3
  4236  0427  3001               	movlw	1
  4237  0428  00AC               	movwf	??___fldiv+4
  4238  0429                     u2235:	
  4239  0429  0D2B               	rlf	??___fldiv+3,w
  4240  042A  0CAB               	rrf	??___fldiv+3,f
  4241  042B  0CAA               	rrf	??___fldiv+2,f
  4242  042C  0CA9               	rrf	??___fldiv+1,f
  4243  042D  0CA8               	rrf	??___fldiv,f
  4244  042E                     u2230:	
  4245  042E  0BAC               	decfsz	??___fldiv+4,f
  4246  042F  2C29               	goto	u2235
  4247  0430  082B               	movf	??___fldiv+3,w
  4248  0431  00A7               	movwf	___fldiv@b+3
  4249  0432  082A               	movf	??___fldiv+2,w
  4250  0433  00A6               	movwf	___fldiv@b+2
  4251  0434  0829               	movf	??___fldiv+1,w
  4252  0435  00A5               	movwf	___fldiv@b+1
  4253  0436  0828               	movf	??___fldiv,w
  4254  0437  00A4               	movwf	___fldiv@b
  4255  0438                     l1792:	
  4256  0438  3001               	movlw	1
  4257  0439  07B2               	addwf	___fldiv@new_exp,f
  4258  043A  1803               	skipnc
  4259  043B  0AB3               	incf	___fldiv@new_exp+1,f
  4260  043C  3000               	movlw	0
  4261  043D  07B3               	addwf	___fldiv@new_exp+1,f
  4262  043E                     l1794:	
  4263  043E  0833               	movf	___fldiv@new_exp+1,w
  4264  043F  3A80               	xorlw	128
  4265  0440  00FF               	movwf	btemp+1
  4266  0441  3080               	movlw	128
  4267  0442  027F               	subwf	btemp+1,w
  4268  0443  1D03               	skipz
  4269  0444  2C47               	goto	u2245
  4270  0445  30FF               	movlw	255
  4271  0446  0232               	subwf	___fldiv@new_exp,w
  4272  0447                     u2245:	
  4273  0447  1C03               	skipc
  4274  0448  2C4A               	goto	u2241
  4275  0449  2C4B               	goto	u2240
  4276  044A                     u2241:	
  4277  044A  2C59               	goto	l1798
  4278  044B                     u2240:	
  4279  044B                     l1796:	
  4280  044B  30FF               	movlw	255
  4281  044C  1283               	bcf	3,5	;RP0=0, select bank0
  4282  044D  1303               	bcf	3,6	;RP1=0, select bank0
  4283  044E  00B2               	movwf	___fldiv@new_exp
  4284  044F  3000               	movlw	0
  4285  0450  00B3               	movwf	___fldiv@new_exp+1
  4286  0451  3000               	movlw	0
  4287  0452  00A7               	movwf	___fldiv@b+3
  4288  0453  3000               	movlw	0
  4289  0454  00A6               	movwf	___fldiv@b+2
  4290  0455  3000               	movlw	0
  4291  0456  00A5               	movwf	___fldiv@b+1
  4292  0457  3000               	movlw	0
  4293  0458  00A4               	movwf	___fldiv@b
  4294  0459                     l1798:	
  4295  0459  1283               	bcf	3,5	;RP0=0, select bank0
  4296  045A  1303               	bcf	3,6	;RP1=0, select bank0
  4297  045B  0833               	movf	___fldiv@new_exp+1,w
  4298  045C  3A80               	xorlw	128
  4299  045D  00FF               	movwf	btemp+1
  4300  045E  3080               	movlw	128
  4301  045F  027F               	subwf	btemp+1,w
  4302  0460  1D03               	skipz
  4303  0461  2C64               	goto	u2255
  4304  0462  3001               	movlw	1
  4305  0463  0232               	subwf	___fldiv@new_exp,w
  4306  0464                     u2255:	
  4307  0464  1803               	skipnc
  4308  0465  2C67               	goto	u2251
  4309  0466  2C68               	goto	u2250
  4310  0467                     u2251:	
  4311  0467  2C75               	goto	l639
  4312  0468                     u2250:	
  4313  0468                     l1800:	
  4314  0468  1283               	bcf	3,5	;RP0=0, select bank0
  4315  0469  1303               	bcf	3,6	;RP1=0, select bank0
  4316  046A  01B2               	clrf	___fldiv@new_exp
  4317  046B  01B3               	clrf	___fldiv@new_exp+1
  4318  046C                     l1802:	
  4319  046C  3000               	movlw	0
  4320  046D  00A7               	movwf	___fldiv@b+3
  4321  046E  3000               	movlw	0
  4322  046F  00A6               	movwf	___fldiv@b+2
  4323  0470  3000               	movlw	0
  4324  0471  00A5               	movwf	___fldiv@b+1
  4325  0472  3000               	movlw	0
  4326  0473  00A4               	movwf	___fldiv@b
  4327  0474                     l1804:	
  4328  0474  01B1               	clrf	___fldiv@sign
  4329  0475                     l639:	
  4330  0475  1283               	bcf	3,5	;RP0=0, select bank0
  4331  0476  1303               	bcf	3,6	;RP1=0, select bank0
  4332  0477  0832               	movf	___fldiv@new_exp,w
  4333  0478  00A8               	movwf	??___fldiv
  4334  0479  0828               	movf	??___fldiv,w
  4335  047A  00B8               	movwf	___fldiv@bexp
  4336  047B                     l1806:	
  4337  047B  1C38               	btfss	___fldiv@bexp,0
  4338  047C  2C7E               	goto	u2261
  4339  047D  2C7F               	goto	u2260
  4340  047E                     u2261:	
  4341  047E  2C81               	goto	l1810
  4342  047F                     u2260:	
  4343  047F                     l1808:	
  4344  047F  17A6               	bsf	___fldiv@b+2,7
  4345  0480  2C85               	goto	l641
  4346  0481                     l1810:	
  4347  0481  307F               	movlw	127
  4348  0482  00A8               	movwf	??___fldiv
  4349  0483  0828               	movf	??___fldiv,w
  4350  0484  05A6               	andwf	___fldiv@b+2,f
  4351  0485                     l641:	
  4352  0485  0838               	movf	___fldiv@bexp,w
  4353  0486  00A8               	movwf	??___fldiv
  4354  0487  1003               	clrc
  4355  0488  0C28               	rrf	??___fldiv,w
  4356  0489  00A9               	movwf	??___fldiv+1
  4357  048A  0829               	movf	??___fldiv+1,w
  4358  048B  00A7               	movwf	___fldiv@b+3
  4359  048C  0831               	movf	___fldiv@sign,w
  4360  048D  00A8               	movwf	??___fldiv
  4361  048E  0828               	movf	??___fldiv,w
  4362  048F  04A7               	iorwf	___fldiv@b+3,f
  4363  0490  2B29               	goto	l1718
  4364  0491                     l619:	
  4365  0491  0008               	return
  4366  0492                     __end_of___fldiv:	
  4367                           
  4368                           	psect	text12
  4369  0C86                     __ptext12:	
  4370 ;; *************** function _configPwm *****************
  4371 ;; Defined at:
  4372 ;;		line 44 in file "./pwm.h"
  4373 ;; Parameters:    Size  Location     Type
  4374 ;;  channel         1    wreg     unsigned char 
  4375 ;; Auto vars:     Size  Location     Type
  4376 ;;  channel         1    2[COMMON] unsigned char 
  4377 ;; Return value:  Size  Location     Type
  4378 ;;                  1    wreg      void 
  4379 ;; Registers used:
  4380 ;;		wreg, fsr0l, fsr0h, status,2, status,0
  4381 ;; Tracked objects:
  4382 ;;		On entry : 0/0
  4383 ;;		On exit  : 0/0
  4384 ;;		Unchanged: 0/0
  4385 ;; Data sizes:     COMMON   BANK0   BANK1   BANK3   BANK2
  4386 ;;      Params:         0       0       0       0       0
  4387 ;;      Locals:         1       0       0       0       0
  4388 ;;      Temps:          2       0       0       0       0
  4389 ;;      Totals:         3       0       0       0       0
  4390 ;;Total ram usage:        3 bytes
  4391 ;; Hardware stack levels used:    1
  4392 ;; This function calls:
  4393 ;;		Nothing
  4394 ;; This function is called by:
  4395 ;;		_main
  4396 ;; This function uses a non-reentrant model
  4397 ;;
  4398                           
  4399                           
  4400                           ;psect for function _configPwm
  4401  0C86                     _configPwm:	
  4402                           
  4403                           ;incstack = 0
  4404                           ; Regs used in _configPwm: [wreg-fsr0h+status,2+status,0]
  4405                           ;configPwm@channel stored from wreg
  4406  0C86  00F2               	movwf	configPwm@channel
  4407  0C87                     l2018:	
  4408  0C87                     l80:	
  4409                           ;./pwm.h: 46:     if (16 == 1) {
  4410                           
  4411                           
  4412                           ;./pwm.h: 53:         T2CKPS0 = 1;
  4413  0C87  1283               	bcf	3,5	;RP0=0, select bank0
  4414  0C88  1303               	bcf	3,6	;RP1=0, select bank0
  4415  0C89  1412               	bsf	18,0	;volatile
  4416                           
  4417                           ;./pwm.h: 54:         T2CKPS1 = 1;
  4418  0C8A  1492               	bsf	18,1	;volatile
  4419  0C8B                     l2024:	
  4420                           
  4421                           ;./pwm.h: 58:     PR2 = (4000000 / (500 * 4 * 16)) - 1;
  4422  0C8B  307C               	movlw	124
  4423  0C8C  1683               	bsf	3,5	;RP0=1, select bank1
  4424  0C8D  1303               	bcf	3,6	;RP1=0, select bank1
  4425  0C8E  0092               	movwf	18	;volatile
  4426                           
  4427                           ;./pwm.h: 60:     switch (channel) {
  4428  0C8F  2C9C               	goto	l2028
  4429  0C90                     l84:	
  4430                           ;./pwm.h: 62:         case 1:
  4431                           
  4432                           
  4433                           ;./pwm.h: 63:             TRISC2 = 0;
  4434  0C90  1107               	bcf	7,2	;volatile
  4435                           
  4436                           ;./pwm.h: 64:             CCP1M3 = 1;
  4437  0C91  1283               	bcf	3,5	;RP0=0, select bank0
  4438  0C92  1303               	bcf	3,6	;RP1=0, select bank0
  4439  0C93  1597               	bsf	23,3	;volatile
  4440                           
  4441                           ;./pwm.h: 65:             CCP1M2 = 1;
  4442  0C94  1517               	bsf	23,2	;volatile
  4443                           
  4444                           ;./pwm.h: 68:             break;
  4445  0C95  2CAC               	goto	l85
  4446  0C96                     l86:	
  4447                           ;./pwm.h: 70:         case 2:
  4448                           
  4449                           
  4450                           ;./pwm.h: 71:             TRISC1 = 0;
  4451  0C96  1087               	bcf	7,1	;volatile
  4452                           
  4453                           ;./pwm.h: 72:             CCP2M3 = 1;
  4454  0C97  1283               	bcf	3,5	;RP0=0, select bank0
  4455  0C98  1303               	bcf	3,6	;RP1=0, select bank0
  4456  0C99  159D               	bsf	29,3	;volatile
  4457                           
  4458                           ;./pwm.h: 73:             CCP2M2 = 1;
  4459  0C9A  151D               	bsf	29,2	;volatile
  4460                           
  4461                           ;./pwm.h: 74:             break;
  4462  0C9B  2CAC               	goto	l85
  4463  0C9C                     l2028:	
  4464  0C9C  0872               	movf	configPwm@channel,w
  4465  0C9D  00F0               	movwf	??_configPwm
  4466  0C9E  01F1               	clrf	??_configPwm+1
  4467                           
  4468                           ; Switch on 2 bytes has been partitioned into a top level switch of size 1, and 1 sub-sw
      +                          itches
  4469                           ; Switch size 1, requested type "simple"
  4470                           ; Number of cases is 1, Range of values is 0 to 0
  4471                           ; switch strategies available:
  4472                           ; Name         Instructions Cycles
  4473                           ; simple_byte            4     3 (average)
  4474                           ; direct_byte           11     8 (fixed)
  4475                           ; jumptable            260     6 (fixed)
  4476                           ;	Chosen strategy is simple_byte
  4477  0C9F  0871               	movf	??_configPwm+1,w
  4478  0CA0  3A00               	xorlw	0	; case 0
  4479  0CA1  1903               	skipnz
  4480  0CA2  2CA4               	goto	l2256
  4481  0CA3  2CAC               	goto	l85
  4482  0CA4                     l2256:	
  4483                           
  4484                           ; Switch size 1, requested type "simple"
  4485                           ; Number of cases is 2, Range of values is 1 to 2
  4486                           ; switch strategies available:
  4487                           ; Name         Instructions Cycles
  4488                           ; simple_byte            7     4 (average)
  4489                           ; direct_byte           17    11 (fixed)
  4490                           ; jumptable            263     9 (fixed)
  4491                           ;	Chosen strategy is simple_byte
  4492  0CA4  0870               	movf	??_configPwm,w
  4493  0CA5  3A01               	xorlw	1	; case 1
  4494  0CA6  1903               	skipnz
  4495  0CA7  2C90               	goto	l84
  4496  0CA8  3A03               	xorlw	3	; case 2
  4497  0CA9  1903               	skipnz
  4498  0CAA  2C96               	goto	l86
  4499  0CAB  2CAC               	goto	l85
  4500  0CAC                     l85:	
  4501                           
  4502                           ;./pwm.h: 78:     TMR2ON = 1;
  4503  0CAC  1283               	bcf	3,5	;RP0=0, select bank0
  4504  0CAD  1512               	bsf	18,2	;volatile
  4505  0CAE                     l87:	
  4506  0CAE  0008               	return
  4507  0CAF                     __end_of_configPwm:	
  4508                           
  4509                           	psect	text13
  4510  000C                     __ptext13:	
  4511 ;; *************** function _UART_printf *****************
  4512 ;; Defined at:
  4513 ;;		line 44 in file "./UART.h"
  4514 ;; Parameters:    Size  Location     Type
  4515 ;;  cadena          1    wreg     PTR unsigned char 
  4516 ;;		 -> buffer(50), 
  4517 ;; Auto vars:     Size  Location     Type
  4518 ;;  cadena          1    2[COMMON] PTR unsigned char 
  4519 ;;		 -> buffer(50), 
  4520 ;; Return value:  Size  Location     Type
  4521 ;;                  1    wreg      void 
  4522 ;; Registers used:
  4523 ;;		wreg, fsr0l, fsr0h, status,2, status,0, pclath, cstack
  4524 ;; Tracked objects:
  4525 ;;		On entry : 0/0
  4526 ;;		On exit  : 0/0
  4527 ;;		Unchanged: 0/0
  4528 ;; Data sizes:     COMMON   BANK0   BANK1   BANK3   BANK2
  4529 ;;      Params:         0       0       0       0       0
  4530 ;;      Locals:         1       0       0       0       0
  4531 ;;      Temps:          1       0       0       0       0
  4532 ;;      Totals:         2       0       0       0       0
  4533 ;;Total ram usage:        2 bytes
  4534 ;; Hardware stack levels used:    1
  4535 ;; Hardware stack levels required when called:    1
  4536 ;; This function calls:
  4537 ;;		_UART_write
  4538 ;; This function is called by:
  4539 ;;		_main
  4540 ;; This function uses a non-reentrant model
  4541 ;;
  4542                           
  4543                           
  4544                           ;psect for function _UART_printf
  4545  000C                     _UART_printf:	
  4546                           
  4547                           ;incstack = 0
  4548                           ; Regs used in _UART_printf: [wreg-fsr0h+status,2+status,0+pclath+cstack]
  4549                           ;UART_printf@cadena stored from wreg
  4550  000C  00F2               	movwf	UART_printf@cadena
  4551  000D                     l2058:	
  4552                           
  4553                           ;./UART.h: 45:     while (*cadena) {
  4554  000D  281A               	goto	l2064
  4555  000E                     l2060:	
  4556                           
  4557                           ;./UART.h: 46:         UART_write(*cadena++);
  4558  000E  0872               	movf	UART_printf@cadena,w
  4559  000F  0084               	movwf	4
  4560  0010  0800               	movf	0,w
  4561  0011  120A  158A  2453  120A  118A  	fcall	_UART_write
  4562  0016                     l2062:	
  4563  0016  3001               	movlw	1
  4564  0017  00F1               	movwf	??_UART_printf
  4565  0018  0871               	movf	??_UART_printf,w
  4566  0019  07F2               	addwf	UART_printf@cadena,f
  4567  001A                     l2064:	
  4568                           
  4569                           ;./UART.h: 45:     while (*cadena) {
  4570  001A  0872               	movf	UART_printf@cadena,w
  4571  001B  0084               	movwf	4
  4572  001C  1383               	bcf	3,7	;select IRP bank0
  4573  001D  0800               	movf	0,w
  4574  001E  1D03               	btfss	3,2
  4575  001F  2821               	goto	u2851
  4576  0020  2822               	goto	u2850
  4577  0021                     u2851:	
  4578  0021  280E               	goto	l2060
  4579  0022                     u2850:	
  4580  0022                     l142:	
  4581  0022  0008               	return
  4582  0023                     __end_of_UART_printf:	
  4583                           
  4584                           	psect	text14
  4585  0C53                     __ptext14:	
  4586 ;; *************** function _UART_write *****************
  4587 ;; Defined at:
  4588 ;;		line 39 in file "./UART.h"
  4589 ;; Parameters:    Size  Location     Type
  4590 ;;  dato            1    wreg     unsigned char 
  4591 ;; Auto vars:     Size  Location     Type
  4592 ;;  dato            1    0[COMMON] unsigned char 
  4593 ;; Return value:  Size  Location     Type
  4594 ;;                  1    wreg      void 
  4595 ;; Registers used:
  4596 ;;		wreg
  4597 ;; Tracked objects:
  4598 ;;		On entry : 0/0
  4599 ;;		On exit  : 0/0
  4600 ;;		Unchanged: 0/0
  4601 ;; Data sizes:     COMMON   BANK0   BANK1   BANK3   BANK2
  4602 ;;      Params:         0       0       0       0       0
  4603 ;;      Locals:         1       0       0       0       0
  4604 ;;      Temps:          0       0       0       0       0
  4605 ;;      Totals:         1       0       0       0       0
  4606 ;;Total ram usage:        1 bytes
  4607 ;; Hardware stack levels used:    1
  4608 ;; This function calls:
  4609 ;;		Nothing
  4610 ;; This function is called by:
  4611 ;;		_UART_printf
  4612 ;; This function uses a non-reentrant model
  4613 ;;
  4614                           
  4615                           
  4616                           ;psect for function _UART_write
  4617  0C53                     _UART_write:	
  4618                           
  4619                           ;incstack = 0
  4620                           ; Regs used in _UART_write: [wreg]
  4621                           ;UART_write@dato stored from wreg
  4622  0C53  00F0               	movwf	UART_write@dato
  4623  0C54                     l1588:	
  4624                           
  4625                           ;./UART.h: 40:     TXREG = dato;
  4626  0C54  0870               	movf	UART_write@dato,w
  4627  0C55  1283               	bcf	3,5	;RP0=0, select bank0
  4628  0C56  1303               	bcf	3,6	;RP1=0, select bank0
  4629  0C57  0099               	movwf	25	;volatile
  4630  0C58                     l133:	
  4631                           ;./UART.h: 41:     while (!TXSTAbits.TRMT);
  4632                           
  4633  0C58  1683               	bsf	3,5	;RP0=1, select bank1
  4634  0C59  1303               	bcf	3,6	;RP1=0, select bank1
  4635  0C5A  1C98               	btfss	24,1	;volatile
  4636  0C5B  2C5D               	goto	u1741
  4637  0C5C  2C5E               	goto	u1740
  4638  0C5D                     u1741:	
  4639  0C5D  2C58               	goto	l133
  4640  0C5E                     u1740:	
  4641  0C5E                     l136:	
  4642  0C5E  0008               	return
  4643  0C5F                     __end_of_UART_write:	
  4644                           
  4645                           	psect	text15
  4646  0D73                     __ptext15:	
  4647 ;; *************** function _UART_init *****************
  4648 ;; Defined at:
  4649 ;;		line 10 in file "./UART.h"
  4650 ;; Parameters:    Size  Location     Type
  4651 ;;  BAUD            4   14[BANK0 ] long 
  4652 ;; Auto vars:     Size  Location     Type
  4653 ;;  frecuenciaCr    4    0        long 
  4654 ;; Return value:  Size  Location     Type
  4655 ;;                  1    wreg      void 
  4656 ;; Registers used:
  4657 ;;		wreg, status,2, status,0, pclath, cstack
  4658 ;; Tracked objects:
  4659 ;;		On entry : 0/0
  4660 ;;		On exit  : 0/0
  4661 ;;		Unchanged: 0/0
  4662 ;; Data sizes:     COMMON   BANK0   BANK1   BANK3   BANK2
  4663 ;;      Params:         0       4       0       0       0
  4664 ;;      Locals:         0       8       0       0       0
  4665 ;;      Temps:          0       0       0       0       0
  4666 ;;      Totals:         0      12       0       0       0
  4667 ;;Total ram usage:       12 bytes
  4668 ;; Hardware stack levels used:    1
  4669 ;; Hardware stack levels required when called:    1
  4670 ;; This function calls:
  4671 ;;		___aldiv
  4672 ;; This function is called by:
  4673 ;;		_main
  4674 ;; This function uses a non-reentrant model
  4675 ;;
  4676                           
  4677                           
  4678                           ;psect for function _UART_init
  4679  0D73                     _UART_init:	
  4680  0D73                     l2034:	
  4681                           ;incstack = 0
  4682                           ; Regs used in _UART_init: [wreg+status,2+status,0+pclath+cstack]
  4683                           
  4684  0D73                     l2036:	
  4685                           
  4686                           ;./UART.h: 13:     TRISCbits.TRISC6 = 0;
  4687  0D73  1683               	bsf	3,5	;RP0=1, select bank1
  4688  0D74  1303               	bcf	3,6	;RP1=0, select bank1
  4689  0D75  1307               	bcf	7,6	;volatile
  4690  0D76                     l2038:	
  4691                           
  4692                           ;./UART.h: 14:     TRISCbits.TRISC7 = 1;
  4693  0D76  1787               	bsf	7,7	;volatile
  4694  0D77                     l2040:	
  4695                           
  4696                           ;./UART.h: 17:     SPBRG = (frecuenciaCristal / 16 / BAUD) - 1;
  4697  0D77  3000               	movlw	0
  4698  0D78  1283               	bcf	3,5	;RP0=0, select bank0
  4699  0D79  1303               	bcf	3,6	;RP1=0, select bank0
  4700  0D7A  00A3               	movwf	___aldiv@divisor+3
  4701  0D7B  3000               	movlw	0
  4702  0D7C  00A2               	movwf	___aldiv@divisor+2
  4703  0D7D  3000               	movlw	0
  4704  0D7E  00A1               	movwf	___aldiv@divisor+1
  4705  0D7F  3010               	movlw	16
  4706  0D80  00A0               	movwf	___aldiv@divisor
  4707  0D81  3000               	movlw	0
  4708  0D82  00A7               	movwf	___aldiv@dividend+3
  4709  0D83  303D               	movlw	61
  4710  0D84  00A6               	movwf	___aldiv@dividend+2
  4711  0D85  3009               	movlw	9
  4712  0D86  00A5               	movwf	___aldiv@dividend+1
  4713  0D87  3000               	movlw	0
  4714  0D88  00A4               	movwf	___aldiv@dividend
  4715  0D89  120A  158A  26BB  120A  158A  	fcall	___aldiv
  4716  0D8E  1283               	bcf	3,5	;RP0=0, select bank0
  4717  0D8F  1303               	bcf	3,6	;RP1=0, select bank0
  4718  0D90  0823               	movf	?___aldiv+3,w
  4719  0D91  00B9               	movwf	_UART_init$928+3
  4720  0D92  0822               	movf	?___aldiv+2,w
  4721  0D93  00B8               	movwf	_UART_init$928+2
  4722  0D94  0821               	movf	?___aldiv+1,w
  4723  0D95  00B7               	movwf	_UART_init$928+1
  4724  0D96  0820               	movf	?___aldiv,w
  4725  0D97  00B6               	movwf	_UART_init$928
  4726  0D98                     l2042:	
  4727                           
  4728                           ;./UART.h: 17:     SPBRG = (frecuenciaCristal / 16 / BAUD) - 1;
  4729  0D98  0831               	movf	UART_init@BAUD+3,w
  4730  0D99  00A3               	movwf	___aldiv@divisor+3
  4731  0D9A  0830               	movf	UART_init@BAUD+2,w
  4732  0D9B  00A2               	movwf	___aldiv@divisor+2
  4733  0D9C  082F               	movf	UART_init@BAUD+1,w
  4734  0D9D  00A1               	movwf	___aldiv@divisor+1
  4735  0D9E  082E               	movf	UART_init@BAUD,w
  4736  0D9F  00A0               	movwf	___aldiv@divisor
  4737  0DA0  0839               	movf	_UART_init$928+3,w
  4738  0DA1  00A7               	movwf	___aldiv@dividend+3
  4739  0DA2  0838               	movf	_UART_init$928+2,w
  4740  0DA3  00A6               	movwf	___aldiv@dividend+2
  4741  0DA4  0837               	movf	_UART_init$928+1,w
  4742  0DA5  00A5               	movwf	___aldiv@dividend+1
  4743  0DA6  0836               	movf	_UART_init$928,w
  4744  0DA7  00A4               	movwf	___aldiv@dividend
  4745  0DA8  120A  158A  26BB  120A  158A  	fcall	___aldiv
  4746  0DAD  1283               	bcf	3,5	;RP0=0, select bank0
  4747  0DAE  1303               	bcf	3,6	;RP1=0, select bank0
  4748  0DAF  0820               	movf	?___aldiv,w
  4749  0DB0  3EFF               	addlw	255
  4750  0DB1  1683               	bsf	3,5	;RP0=1, select bank1
  4751  0DB2  1303               	bcf	3,6	;RP1=0, select bank1
  4752  0DB3  0099               	movwf	25	;volatile
  4753  0DB4                     l2044:	
  4754                           
  4755                           ;./UART.h: 20:     TXSTAbits.BRGH = 1;
  4756  0DB4  1518               	bsf	24,2	;volatile
  4757  0DB5                     l2046:	
  4758                           
  4759                           ;./UART.h: 21:     TXSTAbits.SYNC = 0;
  4760  0DB5  1218               	bcf	24,4	;volatile
  4761  0DB6                     l2048:	
  4762                           
  4763                           ;./UART.h: 22:     RCSTAbits.SPEN = 1;
  4764  0DB6  1283               	bcf	3,5	;RP0=0, select bank0
  4765  0DB7  1303               	bcf	3,6	;RP1=0, select bank0
  4766  0DB8  1798               	bsf	24,7	;volatile
  4767  0DB9                     l2050:	
  4768                           
  4769                           ;./UART.h: 25:     TXSTAbits.TX9 = 0;
  4770  0DB9  1683               	bsf	3,5	;RP0=1, select bank1
  4771  0DBA  1303               	bcf	3,6	;RP1=0, select bank1
  4772  0DBB  1318               	bcf	24,6	;volatile
  4773  0DBC                     l2052:	
  4774                           
  4775                           ;./UART.h: 26:     TXSTAbits.TXEN = 1;
  4776  0DBC  1698               	bsf	24,5	;volatile
  4777  0DBD                     l2054:	
  4778                           
  4779                           ;./UART.h: 29:     RCSTAbits.RC9 = 0;
  4780  0DBD  1283               	bcf	3,5	;RP0=0, select bank0
  4781  0DBE  1303               	bcf	3,6	;RP1=0, select bank0
  4782  0DBF  1318               	bcf	24,6	;volatile
  4783  0DC0                     l2056:	
  4784                           
  4785                           ;./UART.h: 30:     RCSTAbits.CREN = 1;
  4786  0DC0  1618               	bsf	24,4	;volatile
  4787  0DC1                     l124:	
  4788  0DC1  0008               	return
  4789  0DC2                     __end_of_UART_init:	
  4790                           
  4791                           	psect	text16
  4792  0EBB                     __ptext16:	
  4793 ;; *************** function ___aldiv *****************
  4794 ;; Defined at:
  4795 ;;		line 5 in file "C:\Program Files (x86)\Microchip\xc8\v2.10\pic\sources\c90\common\aldiv.c"
  4796 ;; Parameters:    Size  Location     Type
  4797 ;;  divisor         4    0[BANK0 ] long 
  4798 ;;  dividend        4    4[BANK0 ] long 
  4799 ;; Auto vars:     Size  Location     Type
  4800 ;;  quotient        4   10[BANK0 ] long 
  4801 ;;  sign            1    9[BANK0 ] unsigned char 
  4802 ;;  counter         1    8[BANK0 ] unsigned char 
  4803 ;; Return value:  Size  Location     Type
  4804 ;;                  4    0[BANK0 ] long 
  4805 ;; Registers used:
  4806 ;;		wreg, status,2, status,0
  4807 ;; Tracked objects:
  4808 ;;		On entry : 0/0
  4809 ;;		On exit  : 0/0
  4810 ;;		Unchanged: 0/0
  4811 ;; Data sizes:     COMMON   BANK0   BANK1   BANK3   BANK2
  4812 ;;      Params:         0       8       0       0       0
  4813 ;;      Locals:         0       6       0       0       0
  4814 ;;      Temps:          1       0       0       0       0
  4815 ;;      Totals:         1      14       0       0       0
  4816 ;;Total ram usage:       15 bytes
  4817 ;; Hardware stack levels used:    1
  4818 ;; This function calls:
  4819 ;;		Nothing
  4820 ;; This function is called by:
  4821 ;;		_map
  4822 ;;		_UART_init
  4823 ;; This function uses a non-reentrant model
  4824 ;;
  4825                           
  4826                           
  4827                           ;psect for function ___aldiv
  4828  0EBB                     ___aldiv:	
  4829  0EBB                     l1530:	
  4830                           ;incstack = 0
  4831                           ; Regs used in ___aldiv: [wreg+status,2+status,0]
  4832                           
  4833  0EBB  1283               	bcf	3,5	;RP0=0, select bank0
  4834  0EBC  1303               	bcf	3,6	;RP1=0, select bank0
  4835  0EBD  01A9               	clrf	___aldiv@sign
  4836  0EBE                     l1532:	
  4837  0EBE  1FA3               	btfss	___aldiv@divisor+3,7
  4838  0EBF  2EC1               	goto	u1581
  4839  0EC0  2EC2               	goto	u1580
  4840  0EC1                     u1581:	
  4841  0EC1  2ECF               	goto	l333
  4842  0EC2                     u1580:	
  4843  0EC2                     l1534:	
  4844  0EC2  09A0               	comf	___aldiv@divisor,f
  4845  0EC3  09A1               	comf	___aldiv@divisor+1,f
  4846  0EC4  09A2               	comf	___aldiv@divisor+2,f
  4847  0EC5  09A3               	comf	___aldiv@divisor+3,f
  4848  0EC6  0AA0               	incf	___aldiv@divisor,f
  4849  0EC7  1903               	skipnz
  4850  0EC8  0AA1               	incf	___aldiv@divisor+1,f
  4851  0EC9  1903               	skipnz
  4852  0ECA  0AA2               	incf	___aldiv@divisor+2,f
  4853  0ECB  1903               	skipnz
  4854  0ECC  0AA3               	incf	___aldiv@divisor+3,f
  4855  0ECD  01A9               	clrf	___aldiv@sign
  4856  0ECE  0AA9               	incf	___aldiv@sign,f
  4857  0ECF                     l333:	
  4858  0ECF  1FA7               	btfss	___aldiv@dividend+3,7
  4859  0ED0  2ED2               	goto	u1591
  4860  0ED1  2ED3               	goto	u1590
  4861  0ED2                     u1591:	
  4862  0ED2  2EE2               	goto	l1540
  4863  0ED3                     u1590:	
  4864  0ED3                     l1536:	
  4865  0ED3  09A4               	comf	___aldiv@dividend,f
  4866  0ED4  09A5               	comf	___aldiv@dividend+1,f
  4867  0ED5  09A6               	comf	___aldiv@dividend+2,f
  4868  0ED6  09A7               	comf	___aldiv@dividend+3,f
  4869  0ED7  0AA4               	incf	___aldiv@dividend,f
  4870  0ED8  1903               	skipnz
  4871  0ED9  0AA5               	incf	___aldiv@dividend+1,f
  4872  0EDA  1903               	skipnz
  4873  0EDB  0AA6               	incf	___aldiv@dividend+2,f
  4874  0EDC  1903               	skipnz
  4875  0EDD  0AA7               	incf	___aldiv@dividend+3,f
  4876  0EDE                     l1538:	
  4877  0EDE  3001               	movlw	1
  4878  0EDF  00FD               	movwf	??___aldiv
  4879  0EE0  087D               	movf	??___aldiv,w
  4880  0EE1  06A9               	xorwf	___aldiv@sign,f
  4881  0EE2                     l1540:	
  4882  0EE2  3000               	movlw	0
  4883  0EE3  00AD               	movwf	___aldiv@quotient+3
  4884  0EE4  3000               	movlw	0
  4885  0EE5  00AC               	movwf	___aldiv@quotient+2
  4886  0EE6  3000               	movlw	0
  4887  0EE7  00AB               	movwf	___aldiv@quotient+1
  4888  0EE8  3000               	movlw	0
  4889  0EE9  00AA               	movwf	___aldiv@quotient
  4890  0EEA                     l1542:	
  4891  0EEA  0823               	movf	___aldiv@divisor+3,w
  4892  0EEB  0422               	iorwf	___aldiv@divisor+2,w
  4893  0EEC  0421               	iorwf	___aldiv@divisor+1,w
  4894  0EED  0420               	iorwf	___aldiv@divisor,w
  4895  0EEE  1903               	skipnz
  4896  0EEF  2EF1               	goto	u1601
  4897  0EF0  2EF2               	goto	u1600
  4898  0EF1                     u1601:	
  4899  0EF1  2F3F               	goto	l1562
  4900  0EF2                     u1600:	
  4901  0EF2                     l1544:	
  4902  0EF2  01A8               	clrf	___aldiv@counter
  4903  0EF3  0AA8               	incf	___aldiv@counter,f
  4904  0EF4  2F02               	goto	l1548
  4905  0EF5                     l1546:	
  4906  0EF5  3001               	movlw	1
  4907  0EF6  00FD               	movwf	??___aldiv
  4908  0EF7                     u1615:	
  4909  0EF7  1003               	clrc
  4910  0EF8  0DA0               	rlf	___aldiv@divisor,f
  4911  0EF9  0DA1               	rlf	___aldiv@divisor+1,f
  4912  0EFA  0DA2               	rlf	___aldiv@divisor+2,f
  4913  0EFB  0DA3               	rlf	___aldiv@divisor+3,f
  4914  0EFC  0BFD               	decfsz	??___aldiv,f
  4915  0EFD  2EF7               	goto	u1615
  4916  0EFE  3001               	movlw	1
  4917  0EFF  00FD               	movwf	??___aldiv
  4918  0F00  087D               	movf	??___aldiv,w
  4919  0F01  07A8               	addwf	___aldiv@counter,f
  4920  0F02                     l1548:	
  4921  0F02  1FA3               	btfss	___aldiv@divisor+3,7
  4922  0F03  2F05               	goto	u1621
  4923  0F04  2F06               	goto	u1620
  4924  0F05                     u1621:	
  4925  0F05  2EF5               	goto	l1546
  4926  0F06                     u1620:	
  4927  0F06                     l1550:	
  4928  0F06  3001               	movlw	1
  4929  0F07  00FD               	movwf	??___aldiv
  4930  0F08                     u1635:	
  4931  0F08  1003               	clrc
  4932  0F09  0DAA               	rlf	___aldiv@quotient,f
  4933  0F0A  0DAB               	rlf	___aldiv@quotient+1,f
  4934  0F0B  0DAC               	rlf	___aldiv@quotient+2,f
  4935  0F0C  0DAD               	rlf	___aldiv@quotient+3,f
  4936  0F0D  0BFD               	decfsz	??___aldiv,f
  4937  0F0E  2F08               	goto	u1635
  4938  0F0F                     l1552:	
  4939  0F0F  0823               	movf	___aldiv@divisor+3,w
  4940  0F10  0227               	subwf	___aldiv@dividend+3,w
  4941  0F11  1D03               	skipz
  4942  0F12  2F1D               	goto	u1645
  4943  0F13  0822               	movf	___aldiv@divisor+2,w
  4944  0F14  0226               	subwf	___aldiv@dividend+2,w
  4945  0F15  1D03               	skipz
  4946  0F16  2F1D               	goto	u1645
  4947  0F17  0821               	movf	___aldiv@divisor+1,w
  4948  0F18  0225               	subwf	___aldiv@dividend+1,w
  4949  0F19  1D03               	skipz
  4950  0F1A  2F1D               	goto	u1645
  4951  0F1B  0820               	movf	___aldiv@divisor,w
  4952  0F1C  0224               	subwf	___aldiv@dividend,w
  4953  0F1D                     u1645:	
  4954  0F1D  1C03               	skipc
  4955  0F1E  2F20               	goto	u1641
  4956  0F1F  2F21               	goto	u1640
  4957  0F20                     u1641:	
  4958  0F20  2F30               	goto	l1558
  4959  0F21                     u1640:	
  4960  0F21                     l1554:	
  4961  0F21  0820               	movf	___aldiv@divisor,w
  4962  0F22  02A4               	subwf	___aldiv@dividend,f
  4963  0F23  0821               	movf	___aldiv@divisor+1,w
  4964  0F24  1C03               	skipc
  4965  0F25  0F21               	incfsz	___aldiv@divisor+1,w
  4966  0F26  02A5               	subwf	___aldiv@dividend+1,f
  4967  0F27  0822               	movf	___aldiv@divisor+2,w
  4968  0F28  1C03               	skipc
  4969  0F29  0F22               	incfsz	___aldiv@divisor+2,w
  4970  0F2A  02A6               	subwf	___aldiv@dividend+2,f
  4971  0F2B  0823               	movf	___aldiv@divisor+3,w
  4972  0F2C  1C03               	skipc
  4973  0F2D  0F23               	incfsz	___aldiv@divisor+3,w
  4974  0F2E  02A7               	subwf	___aldiv@dividend+3,f
  4975  0F2F                     l1556:	
  4976  0F2F  142A               	bsf	___aldiv@quotient,0
  4977  0F30                     l1558:	
  4978  0F30  3001               	movlw	1
  4979  0F31                     u1655:	
  4980  0F31  1003               	clrc
  4981  0F32  0CA3               	rrf	___aldiv@divisor+3,f
  4982  0F33  0CA2               	rrf	___aldiv@divisor+2,f
  4983  0F34  0CA1               	rrf	___aldiv@divisor+1,f
  4984  0F35  0CA0               	rrf	___aldiv@divisor,f
  4985  0F36  3EFF               	addlw	-1
  4986  0F37  1D03               	skipz
  4987  0F38  2F31               	goto	u1655
  4988  0F39                     l1560:	
  4989  0F39  3001               	movlw	1
  4990  0F3A  02A8               	subwf	___aldiv@counter,f
  4991  0F3B  1D03               	btfss	3,2
  4992  0F3C  2F3E               	goto	u1661
  4993  0F3D  2F3F               	goto	u1660
  4994  0F3E                     u1661:	
  4995  0F3E  2F06               	goto	l1550
  4996  0F3F                     u1660:	
  4997  0F3F                     l1562:	
  4998  0F3F  0829               	movf	___aldiv@sign,w
  4999  0F40  1903               	btfsc	3,2
  5000  0F41  2F43               	goto	u1671
  5001  0F42  2F44               	goto	u1670
  5002  0F43                     u1671:	
  5003  0F43  2F4F               	goto	l1566
  5004  0F44                     u1670:	
  5005  0F44                     l1564:	
  5006  0F44  09AA               	comf	___aldiv@quotient,f
  5007  0F45  09AB               	comf	___aldiv@quotient+1,f
  5008  0F46  09AC               	comf	___aldiv@quotient+2,f
  5009  0F47  09AD               	comf	___aldiv@quotient+3,f
  5010  0F48  0AAA               	incf	___aldiv@quotient,f
  5011  0F49  1903               	skipnz
  5012  0F4A  0AAB               	incf	___aldiv@quotient+1,f
  5013  0F4B  1903               	skipnz
  5014  0F4C  0AAC               	incf	___aldiv@quotient+2,f
  5015  0F4D  1903               	skipnz
  5016  0F4E  0AAD               	incf	___aldiv@quotient+3,f
  5017  0F4F                     l1566:	
  5018  0F4F  082D               	movf	___aldiv@quotient+3,w
  5019  0F50  00A3               	movwf	?___aldiv+3
  5020  0F51  082C               	movf	___aldiv@quotient+2,w
  5021  0F52  00A2               	movwf	?___aldiv+2
  5022  0F53  082B               	movf	___aldiv@quotient+1,w
  5023  0F54  00A1               	movwf	?___aldiv+1
  5024  0F55  082A               	movf	___aldiv@quotient,w
  5025  0F56  00A0               	movwf	?___aldiv
  5026  0F57                     l343:	
  5027  0F57  0008               	return
  5028  0F58                     __end_of___aldiv:	
  5029  007E                     btemp	set	126	;btemp
  5030  007E                     wtemp0	set	126


Data Sizes:
    Strings     4
    Constant    10
    Data        0
    BSS         50
    Persistent  0
    Stack       0

Auto Spaces:
    Space          Size  Autos    Used
    COMMON           14     14      14
    BANK0            80     79      79
    BANK1            80      0      50
    BANK3            96      0       0
    BANK2            96      0       0

Pointer List with Targets:

    sprintf@f	PTR const unsigned char  size(1) Largest target is 4
		 -> STR_1(CODE[4]), 

    sprintf@sp	PTR unsigned char  size(1) Largest target is 50
		 -> buffer(BANK1[50]), 

    sprintf@ap	PTR void [1] size(1) Largest target is 2
		 -> ?_sprintf(BANK0[2]), 

    UART_printf@cadena	PTR unsigned char  size(1) Largest target is 50
		 -> buffer(BANK1[50]), 


Critical Paths under _main in COMMON

    _sprintf->___lwmod
    ___lwmod->___lwdiv
    _pwmDuty->___xxtofl
    _map->___aldiv
    ___fltol->___xxtofl
    ___flmul->___xxtofl
    ___fldiv->___xxtofl
    _UART_printf->_UART_write
    _UART_init->___aldiv
    ___aldiv->___lmul

Critical Paths under _main in BANK0

    _main->_pwmDuty
    _pwmDuty->___fltol
    _map->___aldiv
    ___fltol->___flmul
    ___flmul->___fldiv
    _UART_init->___aldiv

Critical Paths under _main in BANK1

    None.

Critical Paths under _main in BANK3

    None.

Critical Paths under _main in BANK2

    None.

Call Graph Tables:

 ---------------------------------------------------------------------------------
 (Depth) Function   	        Calls       Base Space   Used Autos Params    Refs
 ---------------------------------------------------------------------------------
 (0) _main                                                 4     4      0    8862
                                             75 BANK0      4     4      0
                          _UART_init
                        _UART_printf
                          _configPwm
                            _pwmDuty
                            _sprintf
 ---------------------------------------------------------------------------------
 (1) _sprintf                                             21    18      3    1363
                                              0 BANK0     13    10      3
                            ___lwdiv
                            ___lwmod
 ---------------------------------------------------------------------------------
 (2) ___lwmod                                              6     2      4     311
                                              8 COMMON     6     2      4
                            ___lwdiv (ARG)
 ---------------------------------------------------------------------------------
 (2) ___lwdiv                                              8     4      4     466
                                              0 COMMON     8     4      4
 ---------------------------------------------------------------------------------
 (1) _pwmDuty                                             12     9      3    6409
                                             63 BANK0     12     9      3
                            ___fldiv
                            ___flmul
                            ___fltol
                           ___xxtofl
                                _map
 ---------------------------------------------------------------------------------
 (2) _map                                                 36    16     20    1534
                                             14 BANK0     36    16     20
                            ___aldiv
                             ___lmul
 ---------------------------------------------------------------------------------
 (3) ___lmul                                              13     5      8     244
                                              0 COMMON    13     5      8
 ---------------------------------------------------------------------------------
 (2) ___xxtofl                                            14    10      4     398
                                              0 COMMON    14    10      4
 ---------------------------------------------------------------------------------
 (2) ___fltol                                             11     7      4     305
                                             52 BANK0     11     7      4
                            ___fldiv (ARG)
                            ___flmul (ARG)
                           ___xxtofl (ARG)
 ---------------------------------------------------------------------------------
 (2) ___flmul                                             26    18      8    2417
                                             26 BANK0     26    18      8
                          __Umul8_16
                            ___fldiv (ARG)
                           ___xxtofl (ARG)
 ---------------------------------------------------------------------------------
 (3) __Umul8_16                                            9     7      2     799
                                              0 COMMON     9     7      2
 ---------------------------------------------------------------------------------
 (2) ___fldiv                                             26    18      8    1273
                                              0 BANK0     26    18      8
                           ___xxtofl (ARG)
 ---------------------------------------------------------------------------------
 (1) _configPwm                                            3     3      0      22
                                              0 COMMON     3     3      0
 ---------------------------------------------------------------------------------
 (1) _UART_printf                                          2     2      0     100
                                              1 COMMON     2     2      0
                         _UART_write
 ---------------------------------------------------------------------------------
 (2) _UART_write                                           1     1      0      22
                                              0 COMMON     1     1      0
 ---------------------------------------------------------------------------------
 (1) _UART_init                                           12     8      4     900
                                             14 BANK0     12     8      4
                            ___aldiv
 ---------------------------------------------------------------------------------
 (3) ___aldiv                                             15     7      8     756
                                             13 COMMON     1     1      0
                                              0 BANK0     14     6      8
                             ___lmul (ARG)
 ---------------------------------------------------------------------------------
 Estimated maximum stack depth 3
 ---------------------------------------------------------------------------------

 Call Graph Graphs:

 _main (ROOT)
   _UART_init
     ___aldiv
       ___lmul (ARG)
   _UART_printf
     _UART_write
   _configPwm
   _pwmDuty
     ___fldiv
       ___xxtofl (ARG)
     ___flmul
       __Umul8_16
       ___fldiv (ARG)
         ___xxtofl (ARG)
       ___xxtofl (ARG)
     ___fltol
       ___fldiv (ARG)
         ___xxtofl (ARG)
       ___flmul (ARG)
         __Umul8_16
         ___fldiv (ARG)
           ___xxtofl (ARG)
         ___xxtofl (ARG)
       ___xxtofl (ARG)
     ___xxtofl
     _map
       ___aldiv
         ___lmul (ARG)
       ___lmul
   _sprintf
     ___lwdiv
     ___lwmod
       ___lwdiv (ARG)

 Address spaces:
Name               Size   Autos  Total    Cost      Usage
BITCOMMON            E      0       0       0        0.0%
EEDATA             100      0       0       0        0.0%
NULL                 0      0       0       0        0.0%
CODE                 0      0       0       0        0.0%
COMMON               E      E       E       1      100.0%
BITSFR0              0      0       0       1        0.0%
SFR0                 0      0       0       1        0.0%
BITSFR1              0      0       0       2        0.0%
SFR1                 0      0       0       2        0.0%
STACK                0      0       0       2        0.0%
ABS                  0      0      8F       3        0.0%
BITBANK0            50      0       0       4        0.0%
BITSFR3              0      0       0       4        0.0%
SFR3                 0      0       0       4        0.0%
BANK0               50     4F      4F       5       98.8%
BITSFR2              0      0       0       5        0.0%
SFR2                 0      0       0       5        0.0%
BITBANK1            50      0       0       6        0.0%
BANK1               50      0      32       7       62.5%
BITBANK3            60      0       0       8        0.0%
BANK3               60      0       0       9        0.0%
BITBANK2            60      0       0      10        0.0%
BANK2               60      0       0      11        0.0%
DATA                 0      0      8F      12        0.0%


Microchip Technology PIC Macro Assembler V2.10 build 88905656 
Symbol Table                                                                                   Sat Jul 11 17:11:49 2020

           ___fldiv@aexp 0039             ___fldiv@bexp 0038                        pc 0002  
           ___fldiv@sign 0031              __CFG_CP$OFF 0000                       l80 0C87  
                     l72 0266                       l74 0285                       l67 0FFF  
                     l75 02B4                       l84 0C90                       l85 0CAC  
                     l86 0C96                       l87 0CAE                       fsr 0004  
    __Umul8_16@word_mpld 0076                      l124 0DC1                      l133 0C58  
                    l142 0022                      l136 0C5E                      l333 0ECF  
                    l343 0F57                      l264 01C4                      l282 0D72  
                    l540 0D2C                      l461 0E28                      l701 008A  
                    l454 0E3D                      l550 0CE8                      l464 0E3D  
                    l641 0485                      l633 0403                      l617 0311  
                    l714 0C73                      l619 0491                      l716 0C85  
                    l708 00A6                      l709 00B2                      l639 0475  
                    l663 075E                      l657 07F2                      l669 07E6  
                    l695 0045                      l697 00DC                      _PR2 0092  
           __CFG_CPD$OFF 0000                      _map 0F58                      fsr0 0004  
                    indf 0000             __CFG_FOSC$XT 0000             ___flmul@aexp 004C  
           ___flmul@bexp 004D             ___flmul@sign 0047             ___flmul@temp 0052  
           ___flmul@prod 004E             __CFG_LVP$OFF 0000             ___fltol@exp1 005E  
                   l2000 01C5                     l2002 01FC                     l2012 02A4  
                   l2004 0210                     l2100 014C                     l2006 0271  
                   l2110 016C                     l2102 0156                     l2040 0D77  
                   l2024 0C8B                     l2008 0290                     l2112 019A  
                   l2104 015C                     l2120 01C0                     l2050 0DB9  
                   l2042 0D98                     l2034 0D73                     l2018 0C87  
                   l2114 01A1                     l2106 0163                     l2052 0DBC  
                   l2044 0DB4                     l2036 0D73                     l2060 000E  
                   l2028 0C9C                     l2116 01A5                     l2108 0167  
                   l2054 0DBD                     l2046 0DB5                     l2038 0D76  
                   l2062 0016                     l2070 00EB                     l2118 01AE  
                   l2056 0DC0                     l2048 0DB6                     l2064 001A  
                   l1600 0DEE                     l1520 0D39                     l2080 0115  
                   l2072 00F2                     l1530 0EBB                     l2058 000D  
                   l1602 0DF6                     l1522 0D50                     l2090 012E  
                   l2082 011D                     l2074 00F7                     l2066 00E0  
                   l2170 0E54                     l2162 0E3E                     l1540 0EE2  
                   l1532 0EBE                     l1700 02F3                     l1620 0E1D  
                   l1612 0E04                     l1604 0DF8                     l1524 0D59  
                   l1516 0D2D                     l2084 0121                     l2252 010A  
                   l2068 00E5                     l2172 0E63                     l2164 0E47  
                   l1550 0F06                     l1542 0EEA                     l1534 0EC2  
                   l1710 0307                     l1702 02F4                     l1622 0E2D  
                   l1606 0DFC                     l1614 0E16                     l1526 0D6A  
                   l1518 0D35                     l2254 02AC                     l1630 0CF1  
                   l2086 0125                     l2078 00F8                     l2190 0EAA  
                   l2182 0E82                     l2174 0E70                     l2166 0E48  
                   l1560 0F39                     l1552 0F0F                     l1544 0EF2  
                   l1536 0ED3                     l2256 0CA4                     l1800 0468  
                   l1704 02F9                     l1712 0309                     l1624 0E32  
                   l1640 0D14                     l1632 0CF4                     l2096 0130  
                   l2088 0129                     l2184 0E92                     l2176 0E7E  
                   l2168 0E4E                     l1554 0F21                     l1546 0EF5  
                   l1562 0F3F                     l1538 0EDE                     l1810 0481  
                   l1802 046C                     l1730 0352                     l1714 0319  
                   l1722 0332                     l1706 02FE                     l1570 0C60  
                   l1642 0D1A                     l1634 0CFB                     l1626 0CE9  
                   l2186 0E98                     l1564 0F44                     l1556 0F2F  
                   l1548 0F02                     l1804 0474                     l1740 0371  
                   l1732 035A                     l1724 0337                     l1716 0325  
                   l1708 0306                     l1580 0C81                     l1572 0C62  
                   l1900 0713                     l1820 049F                     l1644 0D1B  
                   l1636 0CFF                     l1628 0CEB                     l1660 0CC3  
                   l1652 0CAF                     l2188 0EA2                     l1566 0F4F  
                   l1558 0F30                     l1806 047B                     l1750 03A3  
                   l1742 0383                     l1734 0362                     l1718 0329  
                   l1574 0C69                     l1910 0738                     l1902 0721  
                   l1830 04B6                     l1822 04A3                     l1590 0DC2  
                   l1646 0D22                     l1638 0D03                     l1662 0CC7  
                   l1654 0CB5                     l1670 0CE4                     l1808 047F  
                   l1760 03C4                     l1752 03A4                     l1744 0387  
                   l1736 036A                     l1728 0340                     l1680 02C6  
                   l1576 0C6D                     l1920 075B                     l1904 072A  
                   l1912 073E                     l1840 04CF                     l1832 04B8  
                   l1824 04A4                     l1816 0492                     l1592 0DCF  
                   l1584 0F58                     l1648 0D28                     l1664 0CD1  
                   l1656 0CB8                     l1770 03DD                     l1762 03C6  
                   l1754 03B2                     l1746 0388                     l1738 036C  
                   l1690 02DA                     l1682 02C7                     l1674 02B5  
                   l1578 0C7C                     l1930 077A                     l1914 0742  
                   l1906 072E                     l1850 04E4                     l1842 04D0  
                   l1834 04C0                     l1826 04A9                     l1818 0499  
                   l1666 0CD7                     l1658 0CBF                     l1588 0C54  
                   l1780 0400                     l1764 03CF                     l1772 03E3  
                   l1748 0391                     l1756 03B6                     l1684 02CC  
                   l1692 02DC                     l1676 02BC                     l1940 07C0  
                   l1932 0793                     l1924 0763                     l1916 0743  
                   l1908 072F                     l1860 04FF                     l1852 04EC  
                   l1844 04D5                     l1836 04C5                     l1828 04AE  
                   l1596 0DD8                     l1668 0CDE                     l1790 041F  
                   l1774 03E7                     l1766 03D3                     l1758 03BC  
                   l1694 02E4                     l1686 02D1                     l1678 02C2  
                   l1950 07DF                     l1942 07CA                     l1926 0768  
                   l1934 0799                     l1918 0747                     l1870 0581  
                   l1862 050F                     l1854 04F1                     l1846 04DA  
                   l1838 04CB                     l1598 0DED                     l1792 0438  
                   l1784 0408                     l1776 03E8                     l1768 03D4  
                   l1696 02E9                     l1688 02D9                     l1952 07EA  
                   l1944 07CC                     l1936 07A6                     l1928 0776  
                   l1880 05EF                     l1872 059D                     l1864 051C  
                   l1856 04F6                     l1848 04E2                     l1960 002D  
                   l1786 040D                     l1794 043E                     l1778 03EC  
                   l1698 02EF                     l1946 07DA                     l1938 07B1  
                   l1890 067F                     l1882 05FF                     l1874 05B9  
                   l1866 0539                     l1970 005B                     l1962 003D  
                   l1796 044B                     l1788 041B                     l1948 07DE  
                   l1892 068F                     l1884 061C                     l1876 05C2  
                   l1868 0555                     l1980 0091                     l1972 0068  
                   l1964 004D                     l1956 0024                     l1798 0459  
                   l1894 06BC                     l1886 0635                     l1878 05D2  
                   l1990 00CA                     l1982 009C                     l1974 006F  
                   l1958 0029                     ?_map 002E                     l1896 06E2  
                   l1888 0652                     l1992 00CF                     l1984 00A0  
                   l1976 0073                     l1968 0056                     l1898 070A  
                   l1994 00D3                     l1986 00AA                     l1978 0081  
                   l1996 00D4                     l1988 00B4                     STR_1 0810  
                   u2000 02D1                     u2001 02D0                     u2010 02F3  
                   u2011 02F2                     u2020 02F9                     u2021 02F8  
                   u2110 03A3                     u2030 02FE                     u2111 03A2  
                   u2031 02FD                     u2200 0407                     u2120 03BC  
                   u2040 0319                     u2201 0406                     u2121 03BB  
                   u2105 038A                     u2041 0318                     u2210 040D  
                   u2130 03C4                     u2050 0337                     u2211 040C  
                   u2131 03C3                     u2115 039F                     u2051 0336  
                   u2220 041F                     u2060 0371                     u2300 04CF  
                   u2221 041E                     u2061 0370                     u2301 04CE  
                   u2230 042E                     u2150 03D3                     u2310 04D5  
                   u3030 0EB7                     u2151 03D2                     u2311 04D4  
                   u3031 0EB6                     u1600 0EF2                     u2240 044B  
                   u2320 04DA                     u1601 0EF1                     u2241 044A  
                   u2145 03C8                     u2401 05E1                     u2321 04D9  
                   u2250 0468                     u2170 03E7                     u2090 0387  
                   u2402 05E8                     u2330 04F1                     u1530 0D39  
                   u2251 0467                     u2235 0429                     u2171 03E6  
                   u2091 0386                     u2075 0373                     u2411 060E  
                   u2403 05EF                     u2331 04F0                     u1531 0D38  
                   u3035 0EB3                     u1620 0F06                     u2260 047F  
                   u2180 03EC                     u1700 0C81                     u2412 0615  
                   u2340 04F6                     u1621 0F05                     u2261 047E  
                   u2245 0447                     u2181 03EB                     u2165 03D6  
                   u2085 037C                     u1701 0C80                     u2413 061C  
                   u2341 04F5                     u1541 0D42                     u2190 0400  
                   u2270 04A3                     u1542 0D49                     u1615 0EF7  
                   u2255 0464                     u2191 03FF                     u2431 0644  
                   u2351 0547                     u2271 04A2                     u1543 0D50  
                   u1711 0F69                     u3047 0E9E                     u1640 0F21  
                   u2600 0789                     u2520 072E                     u2432 064B  
                   u2352 054E                     u2280 04A9                     u1800 0E15  
                   u1712 0F6A                     u1641 0F20                     u2521 072D  
                   u2505 070C                     u2441 0671                     u2433 0652  
                   u2425 061E                     u2361 0563                     u2353 0555  
                   u2281 04A8                     u1801 0E14                     u1721 0F8D  
                   u1713 0F6F                     u2610 07A6                     u2442 0678  
                   u2362 056A                     u2290 04AE                     u1810 0E1C  
                   u1570 0D6A                     u1722 0F8E                     u1714 0F70  
                   u1635 0F08                     u2611 07A5                     u2515 0723  
                   u2451 069E                     u2443 067F                     u2371 058F  
                   u2363 0571                     u2291 04AD                     u1811 0E1B  
                   u1571 0D69                     u1555 0D52                     u1731 0FB1  
                   u1723 0F93                     u1715 0F75                     u1660 0F3F  
                   u1580 0EC2                     u1740 0C5E                     u2620 07C0  
                   u2540 0742                     u2460 06C8                     u2452 06A5  
                   u2372 0596                     u2700 0090                     u1732 0FB2  
                   u1724 0F94                     u1716 0F76                     u1661 0F3E  
                   u1645 0F1D                     u1581 0EC1                     u1741 0C5D  
                   u2621 07BF                     u2605 0784                     u2541 0741  
                   u2453 06AC                     u2381 05AB                     u2373 059D  
                   u2701 008F                     u1565 0D5A                     u1733 0FB7  
                   u1725 0F99                     u1670 0F44                     u1590 0ED3  
                   u2630 07DE                     u2550 0747                     u2382 05B2  
                   u1830 0E2D                     u1750 0DCF                     u1734 0FB8  
                   u1726 0F9A                     u1910 0D28                     u1671 0F43  
                   u1655 0F31                     u1591 0ED2                     u2631 07DD  
                   u2615 07A2                     u2551 0746                     u2535 0731  
                   u2471 06D4                     u2383 05B9                     u1831 0E2C  
                   u1751 0DCE                     u1735 0FBD                     u1911 0D27  
                   u1680 0C6D                     u2560 075B                     u2480 06F0  
                   u2472 06DB                     u1840 0E32                     u1760 0DE6  
                   u2720 00A0                     u2640 0029                     u1736 0FBE  
                   u1920 0CB5                     u1681 0C6C                     u2625 07BC  
                   u2561 075A                     u2473 06E2                     u2465 06C3  
                   u1841 0E31                     u1825 0E1F                     u2721 009F  
                   u2641 0028                     u1905 0D1C                     u1921 0CB4  
                   u2570 0762                     u1770 0DFC                     u2730 00A6  
                   u2650 002D                     u2810 0280                     u1850 0CF1  
                   u2571 0761                     u2491 06FC                     u2395 05BB  
                   u1771 0DFB                     u2731 00A5                     u2715 0095  
                   u2651 002C                     u1851 0CF0                     u2580 0768  
                   u2492 0703                     u1780 0E03                     u2740 00AA  
                   u2660 004D                     u2820 028C                     u2804 0270  
                   u1940 0CC7                     u2900 015C                     u2581 0767  
                   u2493 070A                     u2485 06EB                     u1781 0E02  
                   u1765 0DE1                     u2741 00A9                     u2661 004C  
                   u2821 0288                     u1941 0CC6                     u2901 015B  
                   u2590 077A                     u2750 00BF                     u1870 0D03  
                   u1950 0CD1                     u2910 01AE                     u1695 0C74  
                   u2591 0779                     u2815 027B                     u1871 0D02  
                   u1951 0CD0                     u1935 0CB9                     u2911 01AD  
                   u2760 00CF                     u2680 006E                     u2840 029F  
                   u2920 01C0                     u2761 00CE                     u2681 006D  
                   u1865 0CF5                     u2921 01BF                     u2850 0022  
                   u2770 00D3                     u2834 028F                     u1890 0D14  
                   u1970 0CE4                     u2851 0021                     u1795 0E05  
                   u2771 00D2                     u2755 00BA                     u2675 0060  
                   u1891 0D13                     u1971 0CE3                     u1955 0CCD  
                   u1980 02C6                     u2780 0210                     u2860 00EB  
                   u1981 02C5                     u2845 029A                     u2781 020F  
                   u1885 0D04                     u1965 0CD8                     u2861 00EA  
                   u1990 02CC                     u2790 026D                     u2870 0125  
                   u1991 02CB                     u2695 0082                     u2791 0269  
                   u2783 020C                     u1895 0D10                     u2871 0124  
                   u2880 014B                     u2881 014A                     u2890 0156  
                   u2891 0155                     _RCIF 0065                     u2885 0147  
           __CFG_WRT$OFF 0000                     _main 0E3E                     map@x 002E  
                   btemp 007E                     start 0000          ___fldiv@new_exp 0032  
                  ??_map 0042            ___fltol@sign1 005D          __end_of___aldiv 0F58  
                  ?_main 0070                    _CCP1X 00BD          __end_of___fldiv 0492  
                  _CCP1Y 00BC                    _CCP2X 00ED                    _CCP2Y 00EC  
          __CFG_WDTE$OFF 0000          __end_of___flmul 07F3          __end_of___fltol 0E3E  
                  _T1CON 0010          __end_of___lwdiv 0D2D          __end_of___lwmod 0CE9  
                  _RCREG 001A                    _TMR1H 000F                    _TMR1L 000E  
                  _SPBRG 0099                    _TXREG 0019      ___lmul@multiplicand 0074  
     __size_of_UART_init 004F          __end_of_dpowers 0810              ?_UART_write 0070  
                  main@i 006D           __CFG_BOREN$OFF 0000                    pclath 000A  
        __end_of_pwmDuty 02B5                    status 0003                    wtemp0 007E  
        __end_of_sprintf 01C5          __initialization 07F3             __end_of_main 0EBB  
                 ??_main 006B                   _CCP1M2 00BA                   _CCP1M3 00BB  
                 _CCP2M2 00EA                   _CCP2M3 00EB                   _CCPR1L 0015  
                 _CCPR2L 001B                   _TMR1IF 0060                   _TMR1ON 0080  
                 _TMR2ON 0092                   _TRISC1 0439                   _TRISC2 043A  
       __end_of___xxtofl 00DD           __CFG_PWRTE$OFF 0000                   ___lmul 0D2D  
              ??___aldiv 007D        __end_of_UART_init 0DC2                ??___fldiv 0028  
              ??___flmul 0042                ??___fltol 0058                ??___lwdiv 0074  
              ??___lwmod 007C                   _buffer 00A0      __size_of_UART_write 000C  
           ?_UART_printf 0070       __size_of__Umul8_16 0027                ??_pwmDuty 0062  
              ??_sprintf 0023             ___xxtofl@arg 007A             ___xxtofl@exp 0079  
           ___xxtofl@val 0070  __end_of__initialization 07FC               ___fltol@f1 0054  
         __pcstackCOMMON 0070       __size_of_configPwm 0029               __pbssBANK1 00A0  
      __end_of__Umul8_16 0C86               __pmaintext 0E3E                  ?___lmul 0070  
         ___lmul@product 0079                  _T2CKPS0 0090                  _T2CKPS1 0091  
              ?___xxtofl 0070             ??_UART_write 0070               __stringtab 0800  
      __end_of_configPwm 0CAF                  ___aldiv 0EBB                  ___fldiv 02B5  
        __size_of___lmul 0046                  ___flmul 0492                  ___fltol 0DC2  
                ___lwdiv 0CE9                  ___lwmod 0CAF       __end_of_UART_write 0C5F  
                __ptext1 00DD                  __ptext2 0CAF                  __ptext3 0CE9  
                __ptext4 01C5                  __ptext5 0F58                  __ptext6 0D2D  
                __ptext7 0023                  __ptext8 0DC2                  __ptext9 0492  
   __size_of_UART_printf 0017                  _dpowers 0806             __size_of_map 00A8  
             ??___xxtofl 0074         ___aldiv@dividend 0024                  _pwmDuty 01C5  
                _sprintf 00DD                  clrloop0 0005     end_of_initialization 07FC  
              _RCSTAbits 0018         ___aldiv@quotient 002A                _PORTBbits 0006  
              _UART_init 0D73              pwmDuty@duty 0067            ___xxtofl@sign 0078  
              _TRISBbits 0086                _TRISCbits 0087              ___fldiv@grs 0034  
            ___fldiv@rem 002D               map@out_max 003E               map@out_min 003A  
            ___flmul@grs 0048                _TXSTAbits 0098           __end_of___lmul 0D73  
             ?_UART_init 002E      start_initialization 07F3              __end_of_map 1000  
    pwmDuty@cicloTrabajo 005F                 ??___lmul 0078                __Umul8_16 0C5F  
              ___fldiv@a 0020                ___fldiv@b 0024                ___flmul@a 003E  
              ___flmul@b 003A                ___latbits 0002            __pcstackBANK0 0020  
      __size_of___xxtofl 00BA              sprintf@flag 0027              sprintf@prec 0028  
      UART_printf@cadena 0072         ___lwdiv@dividend 0072                 ?___aldiv 0020  
               ?___fldiv 0020                 ?___flmul 003A                 ?___fltol 0054  
             ?__Umul8_16 0070                 ?___lwdiv 0070                 ?___lwmod 0078  
              _configPwm 0C86                __pstrings 0800              ??_UART_init 007E  
               ?_pwmDuty 005F         ___lwdiv@quotient 0075                 ?_sprintf 0020  
        ___aldiv@divisor 0020          ___aldiv@counter 0028                clear_ram0 0004  
          ??_UART_printf 0071               ?_configPwm 0070                map@in_max 0036  
              map@in_min 0032              __stringbase 0805         configPwm@channel 0072  
          _UART_init$928 0036           UART_write@dato 0070        ___lmul@multiplier 0070  
          UART_init@BAUD 002E              ??__Umul8_16 0072         __size_of___aldiv 009D  
       __size_of___fldiv 01DD         __size_of___flmul 0361         __size_of___fltol 007C  
       __size_of___lwdiv 0044         __size_of___lwmod 003A       __end_of__stringtab 0806  
             sprintf@val 0029                 ___xxtofl 0023      __end_of_UART_printf 0023  
        ___lwdiv@divisor 0070          ___lwdiv@counter 0077                 __ptext10 0C5F  
               __ptext11 02B5                 __ptext12 0C86                 __ptext13 000C  
               __ptext14 0C53                 __ptext15 0D73                 __ptext16 0EBB  
       __size_of_pwmDuty 00F0         __size_of_sprintf 00E8            __size_of_main 007D  
            ??_configPwm 0070                sprintf@ap 0026                sprintf@sp 002B  
       ___lwmod@dividend 007A                stringcode 0800              _UART_printf 000C  
 __Umul8_16@multiplicand 0070           pwmDuty@channel 0061                 sprintf@c 002C  
               sprintf@f 0020          ___lwmod@divisor 0078          ___lwmod@counter 007D  
               stringdir 0800                 stringtab 0800             ___aldiv@sign 0029  
             _UART_write 0C53     __Umul8_16@multiplier 0078        __Umul8_16@product 0074  
